Archive member included to satisfy reference by file (symbol)

/home/fsw/rep/tasa/lib/bcc-2.2.3-gcc/bin/../sparc-gaisler-elf/bsp/leon3/leon3/mfix-ut700/soft/flat/libbcc.a(reset_trap_mvt.S.o)
                              /home/fsw/rep/tasa/lib/bcc-2.2.3-gcc/bin/../sparc-gaisler-elf/bsp/leon3/leon3/mfix-ut700/soft/flat/trap_table_mvt_tn0018.S.o (__bcc_trap_reset_mvt)
/home/fsw/rep/tasa/lib/bcc-2.2.3-gcc/bin/../sparc-gaisler-elf/bsp/leon3/leon3/mfix-ut700/soft/flat/libbcc.a(sw_trap_set_pil.S.o)
                              /home/fsw/rep/tasa/lib/bcc-2.2.3-gcc/bin/../sparc-gaisler-elf/bsp/leon3/leon3/mfix-ut700/soft/flat/trap_table_mvt_tn0018.S.o (__bcc_trap_sw_set_pil)
/home/fsw/rep/tasa/lib/bcc-2.2.3-gcc/bin/../sparc-gaisler-elf/bsp/leon3/leon3/mfix-ut700/soft/flat/libbcc.a(init.S.o)
                              /home/fsw/rep/tasa/lib/bcc-2.2.3-gcc/bin/../sparc-gaisler-elf/bsp/leon3/leon3/mfix-ut700/soft/flat/libbcc.a(reset_trap_mvt.S.o) (__bcc_init40)
/home/fsw/rep/tasa/lib/bcc-2.2.3-gcc/bin/../sparc-gaisler-elf/bsp/leon3/leon3/mfix-ut700/soft/flat/libbcc.a(leon_info.S.o)
                              /home/fsw/rep/tasa/lib/bcc-2.2.3-gcc/bin/../sparc-gaisler-elf/bsp/leon3/leon3/mfix-ut700/soft/flat/crt0.S.o (__bcc_get_leon_info)
/home/fsw/rep/tasa/lib/bcc-2.2.3-gcc/bin/../sparc-gaisler-elf/bsp/leon3/leon3/mfix-ut700/soft/flat/libbcc.a(dwzero.S.o)
                              /home/fsw/rep/tasa/lib/bcc-2.2.3-gcc/bin/../sparc-gaisler-elf/bsp/leon3/leon3/mfix-ut700/soft/flat/crt0.S.o (bcc_dwzero)
/home/fsw/rep/tasa/lib/bcc-2.2.3-gcc/bin/../sparc-gaisler-elf/bsp/leon3/leon3/mfix-ut700/soft/flat/libbcc.a(copy_data.c.o)
                              /home/fsw/rep/tasa/lib/bcc-2.2.3-gcc/bin/../sparc-gaisler-elf/bsp/leon3/leon3/mfix-ut700/soft/flat/crt0.S.o (__bcc_copy_data)
/home/fsw/rep/tasa/lib/bcc-2.2.3-gcc/bin/../sparc-gaisler-elf/bsp/leon3/leon3/mfix-ut700/soft/flat/libbcc.a(argv.c.o)
                              /home/fsw/rep/tasa/lib/bcc-2.2.3-gcc/bin/../sparc-gaisler-elf/bsp/leon3/leon3/mfix-ut700/soft/flat/crt0.S.o (__bcc_argvp)
/home/fsw/rep/tasa/lib/bcc-2.2.3-gcc/bin/../sparc-gaisler-elf/bsp/leon3/leon3/mfix-ut700/soft/flat/libbcc.a(interrupt_trap_flat_tn0018.S.o)
                              /home/fsw/rep/tasa/lib/bcc-2.2.3-gcc/bin/../sparc-gaisler-elf/bsp/leon3/leon3/mfix-ut700/soft/flat/trap_table_mvt_tn0018.S.o (__bcc_trap_interrupt_flat_tn0018)
/home/fsw/rep/tasa/lib/bcc-2.2.3-gcc/bin/../sparc-gaisler-elf/bsp/leon3/leon3/mfix-ut700/soft/flat/libbcc.a(int_irqmp_get_source.c.o)
                              /home/fsw/rep/tasa/lib/bcc-2.2.3-gcc/bin/../sparc-gaisler-elf/bsp/leon3/leon3/mfix-ut700/soft/flat/libbcc.a(interrupt_trap_flat_tn0018.S.o) (__bcc_int_get_source)
/home/fsw/rep/tasa/lib/bcc-2.2.3-gcc/bin/../sparc-gaisler-elf/bsp/leon3/leon3/mfix-ut700/soft/flat/libbcc.a(int_irqmp_mp.c.o)
                              /tmp/ccyYqly4.o (bcc_get_cpu_count)
/home/fsw/rep/tasa/lib/bcc-2.2.3-gcc/bin/../sparc-gaisler-elf/bsp/leon3/leon3/mfix-ut700/soft/flat/libbcc.a(int_irqmp_init.c.o)
                              /home/fsw/rep/tasa/lib/bcc-2.2.3-gcc/bin/../sparc-gaisler-elf/bsp/leon3/leon3/mfix-ut700/soft/flat/crt0.S.o (__bcc_int_init)
/home/fsw/rep/tasa/lib/bcc-2.2.3-gcc/bin/../sparc-gaisler-elf/bsp/leon3/leon3/mfix-ut700/soft/flat/libbcc.a(con_apbuart_init.c.o)
                              /home/fsw/rep/tasa/lib/bcc-2.2.3-gcc/bin/../sparc-gaisler-elf/bsp/leon3/leon3/mfix-ut700/soft/flat/crt0.S.o (__bcc_con_init)
/home/fsw/rep/tasa/lib/bcc-2.2.3-gcc/bin/../sparc-gaisler-elf/bsp/leon3/leon3/mfix-ut700/soft/flat/libbcc.a(timer_gptimer_init.c.o)
                              /home/fsw/rep/tasa/lib/bcc-2.2.3-gcc/bin/../sparc-gaisler-elf/bsp/leon3/leon3/mfix-ut700/soft/flat/crt0.S.o (__bcc_timer_init)
/home/fsw/rep/tasa/lib/bcc-2.2.3-gcc/bin/../sparc-gaisler-elf/bsp/leon3/leon3/mfix-ut700/soft/flat/libbcc.a(isr.c.o)
                              /home/fsw/rep/tasa/lib/bcc-2.2.3-gcc/bin/../sparc-gaisler-elf/bsp/leon3/leon3/mfix-ut700/soft/flat/libbcc.a(interrupt_trap_flat_tn0018.S.o) (__bcc_isr_list)
/home/fsw/rep/tasa/lib/bcc-2.2.3-gcc/bin/../sparc-gaisler-elf/bsp/leon3/leon3/mfix-ut700/soft/flat/libbcc.a(int_nest.c.o)
                              /home/fsw/rep/tasa/lib/bcc-2.2.3-gcc/bin/../sparc-gaisler-elf/bsp/leon3/leon3/mfix-ut700/soft/flat/libbcc.a(interrupt_trap_flat_tn0018.S.o) (__bcc_int_nest)
/home/fsw/rep/tasa/lib/bcc-2.2.3-gcc/bin/../sparc-gaisler-elf/bsp/leon3/leon3/mfix-ut700/soft/flat/libbcc.a(ambapp.c.o)
                              /home/fsw/rep/tasa/lib/bcc-2.2.3-gcc/bin/../sparc-gaisler-elf/bsp/leon3/leon3/mfix-ut700/soft/flat/libbcc.a(int_irqmp_init.c.o) (ambapp_visit)
/home/fsw/rep/tasa/lib/bcc-2.2.3-gcc/bin/../sparc-gaisler-elf/bsp/leon3/leon3/mfix-ut700/soft/flat/libbcc.a(ambapp_findfirst_fn.c.o)
                              /home/fsw/rep/tasa/lib/bcc-2.2.3-gcc/bin/../sparc-gaisler-elf/bsp/leon3/leon3/mfix-ut700/soft/flat/libbcc.a(int_irqmp_init.c.o) (ambapp_findfirst_fn)
/home/fsw/rep/tasa/lib/bcc-2.2.3-gcc/bin/../sparc-gaisler-elf/bsp/leon3/leon3/mfix-ut700/soft/flat/libbcc.a(int_irqmp_handle.c.o)
                              /home/fsw/rep/tasa/lib/bcc-2.2.3-gcc/bin/../sparc-gaisler-elf/bsp/leon3/leon3/mfix-ut700/soft/flat/libbcc.a(int_irqmp_init.c.o) (__bcc_int_irqmp_nts)
/home/fsw/rep/tasa/lib/bcc-2.2.3-gcc/bin/../sparc-gaisler-elf/bsp/leon3/leon3/mfix-ut700/soft/flat/libbcc.a(con_handle.c.o)
                              /home/fsw/rep/tasa/lib/bcc-2.2.3-gcc/bin/../sparc-gaisler-elf/bsp/leon3/leon3/mfix-ut700/soft/flat/libbcc.a(con_apbuart_init.c.o) (__bcc_con_handle)
/home/fsw/rep/tasa/lib/bcc-2.2.3-gcc/bin/../sparc-gaisler-elf/bsp/leon3/leon3/mfix-ut700/soft/flat/libbcc.a(timer_handle.c.o)
                              /home/fsw/rep/tasa/lib/bcc-2.2.3-gcc/bin/../sparc-gaisler-elf/bsp/leon3/leon3/mfix-ut700/soft/flat/libbcc.a(timer_gptimer_init.c.o) (__bcc_timer_interrupt)
/home/fsw/rep/tasa/lib/bcc-2.2.3-gcc/bin/../lib/gcc/sparc-gaisler-elf/10.2.0/../../../../sparc-gaisler-elf/lib/leon3/mfix-ut700/soft/flat/libc.a(lib_a-atexit.o)
                              /home/fsw/rep/tasa/lib/bcc-2.2.3-gcc/bin/../sparc-gaisler-elf/bsp/leon3/leon3/mfix-ut700/soft/flat/crt0.S.o (atexit)
/home/fsw/rep/tasa/lib/bcc-2.2.3-gcc/bin/../lib/gcc/sparc-gaisler-elf/10.2.0/../../../../sparc-gaisler-elf/lib/leon3/mfix-ut700/soft/flat/libc.a(lib_a-exit.o)
                              /home/fsw/rep/tasa/lib/bcc-2.2.3-gcc/bin/../sparc-gaisler-elf/bsp/leon3/leon3/mfix-ut700/soft/flat/crt0.S.o (exit)
/home/fsw/rep/tasa/lib/bcc-2.2.3-gcc/bin/../lib/gcc/sparc-gaisler-elf/10.2.0/../../../../sparc-gaisler-elf/lib/leon3/mfix-ut700/soft/flat/libc.a(lib_a-impure.o)
                              /home/fsw/rep/tasa/lib/bcc-2.2.3-gcc/bin/../lib/gcc/sparc-gaisler-elf/10.2.0/../../../../sparc-gaisler-elf/lib/leon3/mfix-ut700/soft/flat/libc.a(lib_a-exit.o) (_global_impure_ptr)
/home/fsw/rep/tasa/lib/bcc-2.2.3-gcc/bin/../lib/gcc/sparc-gaisler-elf/10.2.0/../../../../sparc-gaisler-elf/lib/leon3/mfix-ut700/soft/flat/libc.a(lib_a-memcpy.o)
                              /home/fsw/rep/tasa/lib/bcc-2.2.3-gcc/bin/../sparc-gaisler-elf/bsp/leon3/leon3/mfix-ut700/soft/flat/libbcc.a(ambapp_findfirst_fn.c.o) (memcpy)
/home/fsw/rep/tasa/lib/bcc-2.2.3-gcc/bin/../lib/gcc/sparc-gaisler-elf/10.2.0/../../../../sparc-gaisler-elf/lib/leon3/mfix-ut700/soft/flat/libc.a(lib_a-printf.o)
                              /tmp/ccyYqly4.o (printf)
/home/fsw/rep/tasa/lib/bcc-2.2.3-gcc/bin/../lib/gcc/sparc-gaisler-elf/10.2.0/../../../../sparc-gaisler-elf/lib/leon3/mfix-ut700/soft/flat/libc.a(lib_a-putchar.o)
                              /tmp/ccyYqly4.o (putchar)
/home/fsw/rep/tasa/lib/bcc-2.2.3-gcc/bin/../lib/gcc/sparc-gaisler-elf/10.2.0/../../../../sparc-gaisler-elf/lib/leon3/mfix-ut700/soft/flat/libc.a(lib_a-puts.o)
                              /tmp/ccyYqly4.o (puts)
/home/fsw/rep/tasa/lib/bcc-2.2.3-gcc/bin/../lib/gcc/sparc-gaisler-elf/10.2.0/../../../../sparc-gaisler-elf/lib/leon3/mfix-ut700/soft/flat/libc.a(lib_a-strlen.o)
                              /home/fsw/rep/tasa/lib/bcc-2.2.3-gcc/bin/../lib/gcc/sparc-gaisler-elf/10.2.0/../../../../sparc-gaisler-elf/lib/leon3/mfix-ut700/soft/flat/libc.a(lib_a-puts.o) (strlen)
/home/fsw/rep/tasa/lib/bcc-2.2.3-gcc/bin/../lib/gcc/sparc-gaisler-elf/10.2.0/../../../../sparc-gaisler-elf/lib/leon3/mfix-ut700/soft/flat/libc.a(lib_a-vfprintf.o)
                              /home/fsw/rep/tasa/lib/bcc-2.2.3-gcc/bin/../lib/gcc/sparc-gaisler-elf/10.2.0/../../../../sparc-gaisler-elf/lib/leon3/mfix-ut700/soft/flat/libc.a(lib_a-printf.o) (_vfprintf_r)
/home/fsw/rep/tasa/lib/bcc-2.2.3-gcc/bin/../lib/gcc/sparc-gaisler-elf/10.2.0/../../../../sparc-gaisler-elf/lib/leon3/mfix-ut700/soft/flat/libc.a(lib_a-wsetup.o)
                              /home/fsw/rep/tasa/lib/bcc-2.2.3-gcc/bin/../lib/gcc/sparc-gaisler-elf/10.2.0/../../../../sparc-gaisler-elf/lib/leon3/mfix-ut700/soft/flat/libc.a(lib_a-vfprintf.o) (__swsetup_r)
/home/fsw/rep/tasa/lib/bcc-2.2.3-gcc/bin/../lib/gcc/sparc-gaisler-elf/10.2.0/../../../../sparc-gaisler-elf/lib/leon3/mfix-ut700/soft/flat/libc.a(lib_a-__atexit.o)
                              /home/fsw/rep/tasa/lib/bcc-2.2.3-gcc/bin/../lib/gcc/sparc-gaisler-elf/10.2.0/../../../../sparc-gaisler-elf/lib/leon3/mfix-ut700/soft/flat/libc.a(lib_a-atexit.o) (__register_exitproc)
/home/fsw/rep/tasa/lib/bcc-2.2.3-gcc/bin/../lib/gcc/sparc-gaisler-elf/10.2.0/../../../../sparc-gaisler-elf/lib/leon3/mfix-ut700/soft/flat/libc.a(lib_a-__call_atexit.o)
                              /home/fsw/rep/tasa/lib/bcc-2.2.3-gcc/bin/../lib/gcc/sparc-gaisler-elf/10.2.0/../../../../sparc-gaisler-elf/lib/leon3/mfix-ut700/soft/flat/libc.a(lib_a-exit.o) (__call_exitprocs)
/home/fsw/rep/tasa/lib/bcc-2.2.3-gcc/bin/../lib/gcc/sparc-gaisler-elf/10.2.0/../../../../sparc-gaisler-elf/lib/leon3/mfix-ut700/soft/flat/libc.a(lib_a-dtoa.o)
                              /home/fsw/rep/tasa/lib/bcc-2.2.3-gcc/bin/../lib/gcc/sparc-gaisler-elf/10.2.0/../../../../sparc-gaisler-elf/lib/leon3/mfix-ut700/soft/flat/libc.a(lib_a-vfprintf.o) (_dtoa_r)
/home/fsw/rep/tasa/lib/bcc-2.2.3-gcc/bin/../lib/gcc/sparc-gaisler-elf/10.2.0/../../../../sparc-gaisler-elf/lib/leon3/mfix-ut700/soft/flat/libc.a(lib_a-fflush.o)
                              /home/fsw/rep/tasa/lib/bcc-2.2.3-gcc/bin/../lib/gcc/sparc-gaisler-elf/10.2.0/../../../../sparc-gaisler-elf/lib/leon3/mfix-ut700/soft/flat/libc.a(lib_a-vfprintf.o) (_fflush_r)
/home/fsw/rep/tasa/lib/bcc-2.2.3-gcc/bin/../lib/gcc/sparc-gaisler-elf/10.2.0/../../../../sparc-gaisler-elf/lib/leon3/mfix-ut700/soft/flat/libc.a(lib_a-findfp.o)
                              /home/fsw/rep/tasa/lib/bcc-2.2.3-gcc/bin/../lib/gcc/sparc-gaisler-elf/10.2.0/../../../../sparc-gaisler-elf/lib/leon3/mfix-ut700/soft/flat/libc.a(lib_a-printf.o) (__sinit)
/home/fsw/rep/tasa/lib/bcc-2.2.3-gcc/bin/../lib/gcc/sparc-gaisler-elf/10.2.0/../../../../sparc-gaisler-elf/lib/leon3/mfix-ut700/soft/flat/libc.a(lib_a-freer.o)
                              /home/fsw/rep/tasa/lib/bcc-2.2.3-gcc/bin/../lib/gcc/sparc-gaisler-elf/10.2.0/../../../../sparc-gaisler-elf/lib/leon3/mfix-ut700/soft/flat/libc.a(lib_a-vfprintf.o) (_free_r)
/home/fsw/rep/tasa/lib/bcc-2.2.3-gcc/bin/../lib/gcc/sparc-gaisler-elf/10.2.0/../../../../sparc-gaisler-elf/lib/leon3/mfix-ut700/soft/flat/libc.a(lib_a-fvwrite.o)
                              /home/fsw/rep/tasa/lib/bcc-2.2.3-gcc/bin/../lib/gcc/sparc-gaisler-elf/10.2.0/../../../../sparc-gaisler-elf/lib/leon3/mfix-ut700/soft/flat/libc.a(lib_a-puts.o) (__sfvwrite_r)
/home/fsw/rep/tasa/lib/bcc-2.2.3-gcc/bin/../lib/gcc/sparc-gaisler-elf/10.2.0/../../../../sparc-gaisler-elf/lib/leon3/mfix-ut700/soft/flat/libc.a(lib_a-fwalk.o)
                              /home/fsw/rep/tasa/lib/bcc-2.2.3-gcc/bin/../lib/gcc/sparc-gaisler-elf/10.2.0/../../../../sparc-gaisler-elf/lib/leon3/mfix-ut700/soft/flat/libc.a(lib_a-fflush.o) (_fwalk_reent)
/home/fsw/rep/tasa/lib/bcc-2.2.3-gcc/bin/../lib/gcc/sparc-gaisler-elf/10.2.0/../../../../sparc-gaisler-elf/lib/leon3/mfix-ut700/soft/flat/libc.a(lib_a-localeconv.o)
                              /home/fsw/rep/tasa/lib/bcc-2.2.3-gcc/bin/../lib/gcc/sparc-gaisler-elf/10.2.0/../../../../sparc-gaisler-elf/lib/leon3/mfix-ut700/soft/flat/libc.a(lib_a-vfprintf.o) (_localeconv_r)
/home/fsw/rep/tasa/lib/bcc-2.2.3-gcc/bin/../lib/gcc/sparc-gaisler-elf/10.2.0/../../../../sparc-gaisler-elf/lib/leon3/mfix-ut700/soft/flat/libc.a(lib_a-makebuf.o)
                              /home/fsw/rep/tasa/lib/bcc-2.2.3-gcc/bin/../lib/gcc/sparc-gaisler-elf/10.2.0/../../../../sparc-gaisler-elf/lib/leon3/mfix-ut700/soft/flat/libc.a(lib_a-wsetup.o) (__smakebuf_r)
/home/fsw/rep/tasa/lib/bcc-2.2.3-gcc/bin/../lib/gcc/sparc-gaisler-elf/10.2.0/../../../../sparc-gaisler-elf/lib/leon3/mfix-ut700/soft/flat/libc.a(lib_a-malloc.o)
                              /home/fsw/rep/tasa/lib/bcc-2.2.3-gcc/bin/../lib/gcc/sparc-gaisler-elf/10.2.0/../../../../sparc-gaisler-elf/lib/leon3/mfix-ut700/soft/flat/libc.a(lib_a-dtoa.o) (malloc)
/home/fsw/rep/tasa/lib/bcc-2.2.3-gcc/bin/../lib/gcc/sparc-gaisler-elf/10.2.0/../../../../sparc-gaisler-elf/lib/leon3/mfix-ut700/soft/flat/libc.a(lib_a-mallocr.o)
                              /home/fsw/rep/tasa/lib/bcc-2.2.3-gcc/bin/../lib/gcc/sparc-gaisler-elf/10.2.0/../../../../sparc-gaisler-elf/lib/leon3/mfix-ut700/soft/flat/libc.a(lib_a-vfprintf.o) (_malloc_r)
/home/fsw/rep/tasa/lib/bcc-2.2.3-gcc/bin/../lib/gcc/sparc-gaisler-elf/10.2.0/../../../../sparc-gaisler-elf/lib/leon3/mfix-ut700/soft/flat/libc.a(lib_a-memchr.o)
                              /home/fsw/rep/tasa/lib/bcc-2.2.3-gcc/bin/../lib/gcc/sparc-gaisler-elf/10.2.0/../../../../sparc-gaisler-elf/lib/leon3/mfix-ut700/soft/flat/libc.a(lib_a-vfprintf.o) (memchr)
/home/fsw/rep/tasa/lib/bcc-2.2.3-gcc/bin/../lib/gcc/sparc-gaisler-elf/10.2.0/../../../../sparc-gaisler-elf/lib/leon3/mfix-ut700/soft/flat/libc.a(lib_a-memmove.o)
                              /home/fsw/rep/tasa/lib/bcc-2.2.3-gcc/bin/../lib/gcc/sparc-gaisler-elf/10.2.0/../../../../sparc-gaisler-elf/lib/leon3/mfix-ut700/soft/flat/libc.a(lib_a-fvwrite.o) (memmove)
/home/fsw/rep/tasa/lib/bcc-2.2.3-gcc/bin/../lib/gcc/sparc-gaisler-elf/10.2.0/../../../../sparc-gaisler-elf/lib/leon3/mfix-ut700/soft/flat/libc.a(lib_a-memset.o)
                              /home/fsw/rep/tasa/lib/bcc-2.2.3-gcc/bin/../lib/gcc/sparc-gaisler-elf/10.2.0/../../../../sparc-gaisler-elf/lib/leon3/mfix-ut700/soft/flat/libc.a(lib_a-findfp.o) (memset)
/home/fsw/rep/tasa/lib/bcc-2.2.3-gcc/bin/../lib/gcc/sparc-gaisler-elf/10.2.0/../../../../sparc-gaisler-elf/lib/leon3/mfix-ut700/soft/flat/libc.a(lib_a-mlock.o)
                              /home/fsw/rep/tasa/lib/bcc-2.2.3-gcc/bin/../lib/gcc/sparc-gaisler-elf/10.2.0/../../../../sparc-gaisler-elf/lib/leon3/mfix-ut700/soft/flat/libc.a(lib_a-freer.o) (__malloc_lock)
/home/fsw/rep/tasa/lib/bcc-2.2.3-gcc/bin/../lib/gcc/sparc-gaisler-elf/10.2.0/../../../../sparc-gaisler-elf/lib/leon3/mfix-ut700/soft/flat/libc.a(lib_a-mprec.o)
                              /home/fsw/rep/tasa/lib/bcc-2.2.3-gcc/bin/../lib/gcc/sparc-gaisler-elf/10.2.0/../../../../sparc-gaisler-elf/lib/leon3/mfix-ut700/soft/flat/libc.a(lib_a-dtoa.o) (_Balloc)
/home/fsw/rep/tasa/lib/bcc-2.2.3-gcc/bin/../lib/gcc/sparc-gaisler-elf/10.2.0/../../../../sparc-gaisler-elf/lib/leon3/mfix-ut700/soft/flat/libc.a(lib_a-putc.o)
                              /home/fsw/rep/tasa/lib/bcc-2.2.3-gcc/bin/../lib/gcc/sparc-gaisler-elf/10.2.0/../../../../sparc-gaisler-elf/lib/leon3/mfix-ut700/soft/flat/libc.a(lib_a-putchar.o) (_putc_r)
/home/fsw/rep/tasa/lib/bcc-2.2.3-gcc/bin/../lib/gcc/sparc-gaisler-elf/10.2.0/../../../../sparc-gaisler-elf/lib/leon3/mfix-ut700/soft/flat/libc.a(lib_a-reallocr.o)
                              /home/fsw/rep/tasa/lib/bcc-2.2.3-gcc/bin/../lib/gcc/sparc-gaisler-elf/10.2.0/../../../../sparc-gaisler-elf/lib/leon3/mfix-ut700/soft/flat/libc.a(lib_a-fvwrite.o) (_realloc_r)
/home/fsw/rep/tasa/lib/bcc-2.2.3-gcc/bin/../lib/gcc/sparc-gaisler-elf/10.2.0/../../../../sparc-gaisler-elf/lib/leon3/mfix-ut700/soft/flat/libc.a(lib_a-s_frexp.o)
                              /home/fsw/rep/tasa/lib/bcc-2.2.3-gcc/bin/../lib/gcc/sparc-gaisler-elf/10.2.0/../../../../sparc-gaisler-elf/lib/leon3/mfix-ut700/soft/flat/libc.a(lib_a-vfprintf.o) (frexp)
/home/fsw/rep/tasa/lib/bcc-2.2.3-gcc/bin/../lib/gcc/sparc-gaisler-elf/10.2.0/../../../../sparc-gaisler-elf/lib/leon3/mfix-ut700/soft/flat/libc.a(lib_a-sbrkr.o)
                              /home/fsw/rep/tasa/lib/bcc-2.2.3-gcc/bin/../lib/gcc/sparc-gaisler-elf/10.2.0/../../../../sparc-gaisler-elf/lib/leon3/mfix-ut700/soft/flat/libc.a(lib_a-freer.o) (_sbrk_r)
/home/fsw/rep/tasa/lib/bcc-2.2.3-gcc/bin/../lib/gcc/sparc-gaisler-elf/10.2.0/../../../../sparc-gaisler-elf/lib/leon3/mfix-ut700/soft/flat/libc.a(lib_a-stdio.o)
                              /home/fsw/rep/tasa/lib/bcc-2.2.3-gcc/bin/../lib/gcc/sparc-gaisler-elf/10.2.0/../../../../sparc-gaisler-elf/lib/leon3/mfix-ut700/soft/flat/libc.a(lib_a-findfp.o) (__sread)
/home/fsw/rep/tasa/lib/bcc-2.2.3-gcc/bin/../lib/gcc/sparc-gaisler-elf/10.2.0/../../../../sparc-gaisler-elf/lib/leon3/mfix-ut700/soft/flat/libc.a(lib_a-strncpy.o)
                              /home/fsw/rep/tasa/lib/bcc-2.2.3-gcc/bin/../lib/gcc/sparc-gaisler-elf/10.2.0/../../../../sparc-gaisler-elf/lib/leon3/mfix-ut700/soft/flat/libc.a(lib_a-vfprintf.o) (strncpy)
/home/fsw/rep/tasa/lib/bcc-2.2.3-gcc/bin/../lib/gcc/sparc-gaisler-elf/10.2.0/../../../../sparc-gaisler-elf/lib/leon3/mfix-ut700/soft/flat/libc.a(lib_a-vfiprintf.o)
                              /home/fsw/rep/tasa/lib/bcc-2.2.3-gcc/bin/../lib/gcc/sparc-gaisler-elf/10.2.0/../../../../sparc-gaisler-elf/lib/leon3/mfix-ut700/soft/flat/libc.a(lib_a-vfprintf.o) (__sprint_r)
/home/fsw/rep/tasa/lib/bcc-2.2.3-gcc/bin/../lib/gcc/sparc-gaisler-elf/10.2.0/../../../../sparc-gaisler-elf/lib/leon3/mfix-ut700/soft/flat/libc.a(lib_a-wbuf.o)
                              /home/fsw/rep/tasa/lib/bcc-2.2.3-gcc/bin/../lib/gcc/sparc-gaisler-elf/10.2.0/../../../../sparc-gaisler-elf/lib/leon3/mfix-ut700/soft/flat/libc.a(lib_a-putc.o) (__swbuf_r)
/home/fsw/rep/tasa/lib/bcc-2.2.3-gcc/bin/../lib/gcc/sparc-gaisler-elf/10.2.0/../../../../sparc-gaisler-elf/lib/leon3/mfix-ut700/soft/flat/libc.a(lib_a-writer.o)
                              /home/fsw/rep/tasa/lib/bcc-2.2.3-gcc/bin/../lib/gcc/sparc-gaisler-elf/10.2.0/../../../../sparc-gaisler-elf/lib/leon3/mfix-ut700/soft/flat/libc.a(lib_a-stdio.o) (_write_r)
/home/fsw/rep/tasa/lib/bcc-2.2.3-gcc/bin/../lib/gcc/sparc-gaisler-elf/10.2.0/../../../../sparc-gaisler-elf/lib/leon3/mfix-ut700/soft/flat/libc.a(lib_a-callocr.o)
                              /home/fsw/rep/tasa/lib/bcc-2.2.3-gcc/bin/../lib/gcc/sparc-gaisler-elf/10.2.0/../../../../sparc-gaisler-elf/lib/leon3/mfix-ut700/soft/flat/libc.a(lib_a-mprec.o) (_calloc_r)
/home/fsw/rep/tasa/lib/bcc-2.2.3-gcc/bin/../lib/gcc/sparc-gaisler-elf/10.2.0/../../../../sparc-gaisler-elf/lib/leon3/mfix-ut700/soft/flat/libc.a(lib_a-closer.o)
                              /home/fsw/rep/tasa/lib/bcc-2.2.3-gcc/bin/../lib/gcc/sparc-gaisler-elf/10.2.0/../../../../sparc-gaisler-elf/lib/leon3/mfix-ut700/soft/flat/libc.a(lib_a-stdio.o) (_close_r)
/home/fsw/rep/tasa/lib/bcc-2.2.3-gcc/bin/../lib/gcc/sparc-gaisler-elf/10.2.0/../../../../sparc-gaisler-elf/lib/leon3/mfix-ut700/soft/flat/libc.a(lib_a-fclose.o)
                              /home/fsw/rep/tasa/lib/bcc-2.2.3-gcc/bin/../lib/gcc/sparc-gaisler-elf/10.2.0/../../../../sparc-gaisler-elf/lib/leon3/mfix-ut700/soft/flat/libc.a(lib_a-findfp.o) (_fclose_r)
/home/fsw/rep/tasa/lib/bcc-2.2.3-gcc/bin/../lib/gcc/sparc-gaisler-elf/10.2.0/../../../../sparc-gaisler-elf/lib/leon3/mfix-ut700/soft/flat/libc.a(lib_a-fputwc.o)
                              /home/fsw/rep/tasa/lib/bcc-2.2.3-gcc/bin/../lib/gcc/sparc-gaisler-elf/10.2.0/../../../../sparc-gaisler-elf/lib/leon3/mfix-ut700/soft/flat/libc.a(lib_a-vfiprintf.o) (_fputwc_r)
/home/fsw/rep/tasa/lib/bcc-2.2.3-gcc/bin/../lib/gcc/sparc-gaisler-elf/10.2.0/../../../../sparc-gaisler-elf/lib/leon3/mfix-ut700/soft/flat/libc.a(lib_a-fstatr.o)
                              /home/fsw/rep/tasa/lib/bcc-2.2.3-gcc/bin/../lib/gcc/sparc-gaisler-elf/10.2.0/../../../../sparc-gaisler-elf/lib/leon3/mfix-ut700/soft/flat/libc.a(lib_a-makebuf.o) (_fstat_r)
/home/fsw/rep/tasa/lib/bcc-2.2.3-gcc/bin/../lib/gcc/sparc-gaisler-elf/10.2.0/../../../../sparc-gaisler-elf/lib/leon3/mfix-ut700/soft/flat/libc.a(lib_a-isattyr.o)
                              /home/fsw/rep/tasa/lib/bcc-2.2.3-gcc/bin/../lib/gcc/sparc-gaisler-elf/10.2.0/../../../../sparc-gaisler-elf/lib/leon3/mfix-ut700/soft/flat/libc.a(lib_a-makebuf.o) (_isatty_r)
/home/fsw/rep/tasa/lib/bcc-2.2.3-gcc/bin/../lib/gcc/sparc-gaisler-elf/10.2.0/../../../../sparc-gaisler-elf/lib/leon3/mfix-ut700/soft/flat/libc.a(lib_a-locale.o)
                              /home/fsw/rep/tasa/lib/bcc-2.2.3-gcc/bin/../lib/gcc/sparc-gaisler-elf/10.2.0/../../../../sparc-gaisler-elf/lib/leon3/mfix-ut700/soft/flat/libc.a(lib_a-fputwc.o) (__locale_mb_cur_max)
/home/fsw/rep/tasa/lib/bcc-2.2.3-gcc/bin/../lib/gcc/sparc-gaisler-elf/10.2.0/../../../../sparc-gaisler-elf/lib/leon3/mfix-ut700/soft/flat/libc.a(lib_a-lseekr.o)
                              /home/fsw/rep/tasa/lib/bcc-2.2.3-gcc/bin/../lib/gcc/sparc-gaisler-elf/10.2.0/../../../../sparc-gaisler-elf/lib/leon3/mfix-ut700/soft/flat/libc.a(lib_a-stdio.o) (_lseek_r)
/home/fsw/rep/tasa/lib/bcc-2.2.3-gcc/bin/../lib/gcc/sparc-gaisler-elf/10.2.0/../../../../sparc-gaisler-elf/lib/leon3/mfix-ut700/soft/flat/libc.a(lib_a-mbtowc_r.o)
                              /home/fsw/rep/tasa/lib/bcc-2.2.3-gcc/bin/../lib/gcc/sparc-gaisler-elf/10.2.0/../../../../sparc-gaisler-elf/lib/leon3/mfix-ut700/soft/flat/libc.a(lib_a-locale.o) (__ascii_mbtowc)
/home/fsw/rep/tasa/lib/bcc-2.2.3-gcc/bin/../lib/gcc/sparc-gaisler-elf/10.2.0/../../../../sparc-gaisler-elf/lib/leon3/mfix-ut700/soft/flat/libc.a(lib_a-readr.o)
                              /home/fsw/rep/tasa/lib/bcc-2.2.3-gcc/bin/../lib/gcc/sparc-gaisler-elf/10.2.0/../../../../sparc-gaisler-elf/lib/leon3/mfix-ut700/soft/flat/libc.a(lib_a-stdio.o) (_read_r)
/home/fsw/rep/tasa/lib/bcc-2.2.3-gcc/bin/../lib/gcc/sparc-gaisler-elf/10.2.0/../../../../sparc-gaisler-elf/lib/leon3/mfix-ut700/soft/flat/libc.a(lib_a-reent.o)
                              /home/fsw/rep/tasa/lib/bcc-2.2.3-gcc/bin/../lib/gcc/sparc-gaisler-elf/10.2.0/../../../../sparc-gaisler-elf/lib/leon3/mfix-ut700/soft/flat/libc.a(lib_a-sbrkr.o) (errno)
/home/fsw/rep/tasa/lib/bcc-2.2.3-gcc/bin/../lib/gcc/sparc-gaisler-elf/10.2.0/../../../../sparc-gaisler-elf/lib/leon3/mfix-ut700/soft/flat/libc.a(lib_a-strcmp.o)
                              /home/fsw/rep/tasa/lib/bcc-2.2.3-gcc/bin/../lib/gcc/sparc-gaisler-elf/10.2.0/../../../../sparc-gaisler-elf/lib/leon3/mfix-ut700/soft/flat/libc.a(lib_a-locale.o) (strcmp)
/home/fsw/rep/tasa/lib/bcc-2.2.3-gcc/bin/../lib/gcc/sparc-gaisler-elf/10.2.0/../../../../sparc-gaisler-elf/lib/leon3/mfix-ut700/soft/flat/libc.a(lib_a-wcrtomb.o)
                              /home/fsw/rep/tasa/lib/bcc-2.2.3-gcc/bin/../lib/gcc/sparc-gaisler-elf/10.2.0/../../../../sparc-gaisler-elf/lib/leon3/mfix-ut700/soft/flat/libc.a(lib_a-fputwc.o) (_wcrtomb_r)
/home/fsw/rep/tasa/lib/bcc-2.2.3-gcc/bin/../lib/gcc/sparc-gaisler-elf/10.2.0/../../../../sparc-gaisler-elf/lib/leon3/mfix-ut700/soft/flat/libc.a(lib_a-wctomb_r.o)
                              /home/fsw/rep/tasa/lib/bcc-2.2.3-gcc/bin/../lib/gcc/sparc-gaisler-elf/10.2.0/../../../../sparc-gaisler-elf/lib/leon3/mfix-ut700/soft/flat/libc.a(lib_a-locale.o) (__ascii_wctomb)
/home/fsw/rep/tasa/lib/bcc-2.2.3-gcc/bin/../lib/gcc/sparc-gaisler-elf/10.2.0/../../../../sparc-gaisler-elf/lib/leon3/mfix-ut700/soft/flat/libc.a(lib_a-ctype_.o)
                              /home/fsw/rep/tasa/lib/bcc-2.2.3-gcc/bin/../lib/gcc/sparc-gaisler-elf/10.2.0/../../../../sparc-gaisler-elf/lib/leon3/mfix-ut700/soft/flat/libc.a(lib_a-locale.o) (_ctype_b)
/home/fsw/rep/tasa/lib/bcc-2.2.3-gcc/bin/../sparc-gaisler-elf/bsp/leon3/leon3/mfix-ut700/soft/flat/libbcc.a(_exit.S.o)
                              /home/fsw/rep/tasa/lib/bcc-2.2.3-gcc/bin/../lib/gcc/sparc-gaisler-elf/10.2.0/../../../../sparc-gaisler-elf/lib/leon3/mfix-ut700/soft/flat/libc.a(lib_a-exit.o) (_exit)
/home/fsw/rep/tasa/lib/bcc-2.2.3-gcc/bin/../sparc-gaisler-elf/bsp/leon3/leon3/mfix-ut700/soft/flat/libbcc.a(read.c.o)
                              /home/fsw/rep/tasa/lib/bcc-2.2.3-gcc/bin/../lib/gcc/sparc-gaisler-elf/10.2.0/../../../../sparc-gaisler-elf/lib/leon3/mfix-ut700/soft/flat/libc.a(lib_a-readr.o) (read)
/home/fsw/rep/tasa/lib/bcc-2.2.3-gcc/bin/../sparc-gaisler-elf/bsp/leon3/leon3/mfix-ut700/soft/flat/libbcc.a(sbrk.c.o)
                              /home/fsw/rep/tasa/lib/bcc-2.2.3-gcc/bin/../lib/gcc/sparc-gaisler-elf/10.2.0/../../../../sparc-gaisler-elf/lib/leon3/mfix-ut700/soft/flat/libc.a(lib_a-sbrkr.o) (sbrk)
/home/fsw/rep/tasa/lib/bcc-2.2.3-gcc/bin/../sparc-gaisler-elf/bsp/leon3/leon3/mfix-ut700/soft/flat/libbcc.a(heap.c.o)
                              /home/fsw/rep/tasa/lib/bcc-2.2.3-gcc/bin/../sparc-gaisler-elf/bsp/leon3/leon3/mfix-ut700/soft/flat/libbcc.a(sbrk.c.o) (__bcc_heap_max)
/home/fsw/rep/tasa/lib/bcc-2.2.3-gcc/bin/../sparc-gaisler-elf/bsp/leon3/leon3/mfix-ut700/soft/flat/libbcc.a(write.c.o)
                              /home/fsw/rep/tasa/lib/bcc-2.2.3-gcc/bin/../lib/gcc/sparc-gaisler-elf/10.2.0/../../../../sparc-gaisler-elf/lib/leon3/mfix-ut700/soft/flat/libc.a(lib_a-writer.o) (write)
/home/fsw/rep/tasa/lib/bcc-2.2.3-gcc/bin/../sparc-gaisler-elf/bsp/leon3/leon3/mfix-ut700/soft/flat/libbcc.a(stubs.S.o)
                              /home/fsw/rep/tasa/lib/bcc-2.2.3-gcc/bin/../lib/gcc/sparc-gaisler-elf/10.2.0/../../../../sparc-gaisler-elf/lib/leon3/mfix-ut700/soft/flat/libc.a(lib_a-closer.o) (close)
/home/fsw/rep/tasa/lib/bcc-2.2.3-gcc/bin/../sparc-gaisler-elf/bsp/leon3/leon3/mfix-ut700/soft/flat/libbcc.a(con_apbuart.c.o)
                              /home/fsw/rep/tasa/lib/bcc-2.2.3-gcc/bin/../sparc-gaisler-elf/bsp/leon3/leon3/mfix-ut700/soft/flat/libbcc.a(write.c.o) (__bcc_con_outbyte)
/home/fsw/rep/tasa/lib/bcc-2.2.3-gcc/bin/../lib/gcc/sparc-gaisler-elf/10.2.0/leon3/mfix-ut700/soft/flat/libgcc.a(_udivdi3.o)
                              /home/fsw/rep/tasa/lib/bcc-2.2.3-gcc/bin/../lib/gcc/sparc-gaisler-elf/10.2.0/../../../../sparc-gaisler-elf/lib/leon3/mfix-ut700/soft/flat/libc.a(lib_a-vfprintf.o) (__udivdi3)
/home/fsw/rep/tasa/lib/bcc-2.2.3-gcc/bin/../lib/gcc/sparc-gaisler-elf/10.2.0/leon3/mfix-ut700/soft/flat/libgcc.a(_umoddi3.o)
                              /home/fsw/rep/tasa/lib/bcc-2.2.3-gcc/bin/../lib/gcc/sparc-gaisler-elf/10.2.0/../../../../sparc-gaisler-elf/lib/leon3/mfix-ut700/soft/flat/libc.a(lib_a-vfprintf.o) (__umoddi3)
/home/fsw/rep/tasa/lib/bcc-2.2.3-gcc/bin/../lib/gcc/sparc-gaisler-elf/10.2.0/leon3/mfix-ut700/soft/flat/libgcc.a(_addsub_df.o)
                              /home/fsw/rep/tasa/lib/bcc-2.2.3-gcc/bin/../lib/gcc/sparc-gaisler-elf/10.2.0/../../../../sparc-gaisler-elf/lib/leon3/mfix-ut700/soft/flat/libc.a(lib_a-dtoa.o) (__adddf3)
/home/fsw/rep/tasa/lib/bcc-2.2.3-gcc/bin/../lib/gcc/sparc-gaisler-elf/10.2.0/leon3/mfix-ut700/soft/flat/libgcc.a(_mul_df.o)
                              /home/fsw/rep/tasa/lib/bcc-2.2.3-gcc/bin/../lib/gcc/sparc-gaisler-elf/10.2.0/../../../../sparc-gaisler-elf/lib/leon3/mfix-ut700/soft/flat/libc.a(lib_a-vfprintf.o) (__muldf3)
/home/fsw/rep/tasa/lib/bcc-2.2.3-gcc/bin/../lib/gcc/sparc-gaisler-elf/10.2.0/leon3/mfix-ut700/soft/flat/libgcc.a(_div_df.o)
                              /home/fsw/rep/tasa/lib/bcc-2.2.3-gcc/bin/../lib/gcc/sparc-gaisler-elf/10.2.0/../../../../sparc-gaisler-elf/lib/leon3/mfix-ut700/soft/flat/libc.a(lib_a-dtoa.o) (__divdf3)
/home/fsw/rep/tasa/lib/bcc-2.2.3-gcc/bin/../lib/gcc/sparc-gaisler-elf/10.2.0/leon3/mfix-ut700/soft/flat/libgcc.a(_eq_df.o)
                              /home/fsw/rep/tasa/lib/bcc-2.2.3-gcc/bin/../lib/gcc/sparc-gaisler-elf/10.2.0/../../../../sparc-gaisler-elf/lib/leon3/mfix-ut700/soft/flat/libc.a(lib_a-vfprintf.o) (__eqdf2)
/home/fsw/rep/tasa/lib/bcc-2.2.3-gcc/bin/../lib/gcc/sparc-gaisler-elf/10.2.0/leon3/mfix-ut700/soft/flat/libgcc.a(_ne_df.o)
                              /home/fsw/rep/tasa/lib/bcc-2.2.3-gcc/bin/../lib/gcc/sparc-gaisler-elf/10.2.0/../../../../sparc-gaisler-elf/lib/leon3/mfix-ut700/soft/flat/libc.a(lib_a-vfprintf.o) (__nedf2)
/home/fsw/rep/tasa/lib/bcc-2.2.3-gcc/bin/../lib/gcc/sparc-gaisler-elf/10.2.0/leon3/mfix-ut700/soft/flat/libgcc.a(_gt_df.o)
                              /home/fsw/rep/tasa/lib/bcc-2.2.3-gcc/bin/../lib/gcc/sparc-gaisler-elf/10.2.0/../../../../sparc-gaisler-elf/lib/leon3/mfix-ut700/soft/flat/libc.a(lib_a-vfprintf.o) (__gtdf2)
/home/fsw/rep/tasa/lib/bcc-2.2.3-gcc/bin/../lib/gcc/sparc-gaisler-elf/10.2.0/leon3/mfix-ut700/soft/flat/libgcc.a(_lt_df.o)
                              /home/fsw/rep/tasa/lib/bcc-2.2.3-gcc/bin/../lib/gcc/sparc-gaisler-elf/10.2.0/../../../../sparc-gaisler-elf/lib/leon3/mfix-ut700/soft/flat/libc.a(lib_a-vfprintf.o) (__ltdf2)
/home/fsw/rep/tasa/lib/bcc-2.2.3-gcc/bin/../lib/gcc/sparc-gaisler-elf/10.2.0/leon3/mfix-ut700/soft/flat/libgcc.a(_le_df.o)
                              /home/fsw/rep/tasa/lib/bcc-2.2.3-gcc/bin/../lib/gcc/sparc-gaisler-elf/10.2.0/../../../../sparc-gaisler-elf/lib/leon3/mfix-ut700/soft/flat/libc.a(lib_a-vfprintf.o) (__ledf2)
/home/fsw/rep/tasa/lib/bcc-2.2.3-gcc/bin/../lib/gcc/sparc-gaisler-elf/10.2.0/leon3/mfix-ut700/soft/flat/libgcc.a(_unord_df.o)
                              /home/fsw/rep/tasa/lib/bcc-2.2.3-gcc/bin/../lib/gcc/sparc-gaisler-elf/10.2.0/../../../../sparc-gaisler-elf/lib/leon3/mfix-ut700/soft/flat/libc.a(lib_a-vfprintf.o) (__unorddf2)
/home/fsw/rep/tasa/lib/bcc-2.2.3-gcc/bin/../lib/gcc/sparc-gaisler-elf/10.2.0/leon3/mfix-ut700/soft/flat/libgcc.a(_si_to_df.o)
                              /home/fsw/rep/tasa/lib/bcc-2.2.3-gcc/bin/../lib/gcc/sparc-gaisler-elf/10.2.0/../../../../sparc-gaisler-elf/lib/leon3/mfix-ut700/soft/flat/libc.a(lib_a-vfprintf.o) (__floatsidf)
/home/fsw/rep/tasa/lib/bcc-2.2.3-gcc/bin/../lib/gcc/sparc-gaisler-elf/10.2.0/leon3/mfix-ut700/soft/flat/libgcc.a(_df_to_si.o)
                              /home/fsw/rep/tasa/lib/bcc-2.2.3-gcc/bin/../lib/gcc/sparc-gaisler-elf/10.2.0/../../../../sparc-gaisler-elf/lib/leon3/mfix-ut700/soft/flat/libc.a(lib_a-vfprintf.o) (__fixdfsi)
/home/fsw/rep/tasa/lib/bcc-2.2.3-gcc/bin/../lib/gcc/sparc-gaisler-elf/10.2.0/leon3/mfix-ut700/soft/flat/libgcc.a(_thenan_df.o)
                              /home/fsw/rep/tasa/lib/bcc-2.2.3-gcc/bin/../lib/gcc/sparc-gaisler-elf/10.2.0/leon3/mfix-ut700/soft/flat/libgcc.a(_addsub_df.o) (__thenan_df)
/home/fsw/rep/tasa/lib/bcc-2.2.3-gcc/bin/../lib/gcc/sparc-gaisler-elf/10.2.0/leon3/mfix-ut700/soft/flat/libgcc.a(_usi_to_df.o)
                              /home/fsw/rep/tasa/lib/bcc-2.2.3-gcc/bin/../lib/gcc/sparc-gaisler-elf/10.2.0/../../../../sparc-gaisler-elf/lib/leon3/mfix-ut700/soft/flat/libc.a(lib_a-dtoa.o) (__floatunsidf)
/home/fsw/rep/tasa/lib/bcc-2.2.3-gcc/bin/../lib/gcc/sparc-gaisler-elf/10.2.0/leon3/mfix-ut700/soft/flat/libgcc.a(_clz.o)
                              /home/fsw/rep/tasa/lib/bcc-2.2.3-gcc/bin/../lib/gcc/sparc-gaisler-elf/10.2.0/leon3/mfix-ut700/soft/flat/libgcc.a(_udivdi3.o) (__clz_tab)
/home/fsw/rep/tasa/lib/bcc-2.2.3-gcc/bin/../lib/gcc/sparc-gaisler-elf/10.2.0/leon3/mfix-ut700/soft/flat/libgcc.a(_clzsi2.o)
                              /home/fsw/rep/tasa/lib/bcc-2.2.3-gcc/bin/../lib/gcc/sparc-gaisler-elf/10.2.0/leon3/mfix-ut700/soft/flat/libgcc.a(_si_to_df.o) (__clzsi2)
/home/fsw/rep/tasa/lib/bcc-2.2.3-gcc/bin/../lib/gcc/sparc-gaisler-elf/10.2.0/leon3/mfix-ut700/soft/flat/libgcc.a(_pack_df.o)
                              /home/fsw/rep/tasa/lib/bcc-2.2.3-gcc/bin/../lib/gcc/sparc-gaisler-elf/10.2.0/leon3/mfix-ut700/soft/flat/libgcc.a(_addsub_df.o) (__pack_d)
/home/fsw/rep/tasa/lib/bcc-2.2.3-gcc/bin/../lib/gcc/sparc-gaisler-elf/10.2.0/leon3/mfix-ut700/soft/flat/libgcc.a(_unpack_df.o)
                              /home/fsw/rep/tasa/lib/bcc-2.2.3-gcc/bin/../lib/gcc/sparc-gaisler-elf/10.2.0/leon3/mfix-ut700/soft/flat/libgcc.a(_addsub_df.o) (__unpack_d)
/home/fsw/rep/tasa/lib/bcc-2.2.3-gcc/bin/../lib/gcc/sparc-gaisler-elf/10.2.0/leon3/mfix-ut700/soft/flat/libgcc.a(_fpcmp_parts_df.o)
                              /home/fsw/rep/tasa/lib/bcc-2.2.3-gcc/bin/../lib/gcc/sparc-gaisler-elf/10.2.0/leon3/mfix-ut700/soft/flat/libgcc.a(_eq_df.o) (__fpcmp_parts_d)

Memory Configuration

Name             Origin             Length             Attributes
rom              0x0000000000000000 0x0000000020000000
ram              0x0000000040000000 0x0000000040000000
*default*        0x0000000000000000 0xffffffffffffffff

Linker script and memory map

LOAD /home/fsw/rep/tasa/lib/bcc-2.2.3-gcc/bin/../sparc-gaisler-elf/bsp/leon3/leon3/mfix-ut700/soft/flat/trap_table_mvt_tn0018.S.o
LOAD /home/fsw/rep/tasa/lib/bcc-2.2.3-gcc/bin/../sparc-gaisler-elf/bsp/leon3/leon3/mfix-ut700/soft/flat/crt0.S.o
LOAD /home/fsw/rep/tasa/lib/bcc-2.2.3-gcc/bin/../lib/gcc/sparc-gaisler-elf/10.2.0/leon3/mfix-ut700/soft/flat/crti.o
LOAD /home/fsw/rep/tasa/lib/bcc-2.2.3-gcc/bin/../lib/gcc/sparc-gaisler-elf/10.2.0/leon3/mfix-ut700/soft/flat/crtbegin.o
LOAD /tmp/ccyYqly4.o
                0x0000000000000000                PROVIDE (__bcc_cfg_skip_clear_bss = 0x0)

.text           0x0000000040000000    0x11ed0
 CREATE_OBJECT_SYMBOLS
                0x0000000040000000                __text_start = .
                0x0000000040000000                . = ALIGN (0x1000)
 *(.text.traptable)
 .text.traptable
                0x0000000040000000     0x1000 /home/fsw/rep/tasa/lib/bcc-2.2.3-gcc/bin/../sparc-gaisler-elf/bsp/leon3/leon3/mfix-ut700/soft/flat/trap_table_mvt_tn0018.S.o
                0x0000000040000000                __bcc_trap_table
                0x0000000040000000                __bcc_entry_point
 *(.text .text.*)
 .text          0x0000000040001000        0x0 /home/fsw/rep/tasa/lib/bcc-2.2.3-gcc/bin/../sparc-gaisler-elf/bsp/leon3/leon3/mfix-ut700/soft/flat/trap_table_mvt_tn0018.S.o
 .text          0x0000000040001000       0xc8 /home/fsw/rep/tasa/lib/bcc-2.2.3-gcc/bin/../sparc-gaisler-elf/bsp/leon3/leon3/mfix-ut700/soft/flat/crt0.S.o
                0x0000000040001000                __bcc_crt0
 .text          0x00000000400010c8        0x0 /home/fsw/rep/tasa/lib/bcc-2.2.3-gcc/bin/../lib/gcc/sparc-gaisler-elf/10.2.0/leon3/mfix-ut700/soft/flat/crti.o
 .text          0x00000000400010c8      0x200 /home/fsw/rep/tasa/lib/bcc-2.2.3-gcc/bin/../lib/gcc/sparc-gaisler-elf/10.2.0/leon3/mfix-ut700/soft/flat/crtbegin.o
 .text          0x00000000400012c8        0x0 /tmp/ccyYqly4.o
 .text.startup  0x00000000400012c8      0x170 /tmp/ccyYqly4.o
                0x00000000400012c8                main
 .text          0x0000000040001438       0x90 /home/fsw/rep/tasa/lib/bcc-2.2.3-gcc/bin/../sparc-gaisler-elf/bsp/leon3/leon3/mfix-ut700/soft/flat/libbcc.a(reset_trap_mvt.S.o)
                0x0000000040001438                __bcc_trap_reset_mvt
 .text          0x00000000400014c8       0x2c /home/fsw/rep/tasa/lib/bcc-2.2.3-gcc/bin/../sparc-gaisler-elf/bsp/leon3/leon3/mfix-ut700/soft/flat/libbcc.a(sw_trap_set_pil.S.o)
                0x00000000400014c8                __bcc_trap_sw_set_pil
 .text          0x00000000400014f4        0x8 /home/fsw/rep/tasa/lib/bcc-2.2.3-gcc/bin/../sparc-gaisler-elf/bsp/leon3/leon3/mfix-ut700/soft/flat/libbcc.a(init.S.o)
                0x00000000400014f4                __bcc_init50
                0x00000000400014f4                __bcc_init40
                0x00000000400014f4                __bcc_init70
                0x00000000400014f4                __bcc_init60
 .text          0x00000000400014fc       0x98 /home/fsw/rep/tasa/lib/bcc-2.2.3-gcc/bin/../sparc-gaisler-elf/bsp/leon3/leon3/mfix-ut700/soft/flat/libbcc.a(leon_info.S.o)
                0x00000000400014fc                __bcc_get_leon_info
                0x0000000040001584                bcc_get_cpuid
 .text          0x0000000040001594       0x2c /home/fsw/rep/tasa/lib/bcc-2.2.3-gcc/bin/../sparc-gaisler-elf/bsp/leon3/leon3/mfix-ut700/soft/flat/libbcc.a(dwzero.S.o)
                0x0000000040001594                bcc_dwzero
 .text          0x00000000400015c0       0x78 /home/fsw/rep/tasa/lib/bcc-2.2.3-gcc/bin/../sparc-gaisler-elf/bsp/leon3/leon3/mfix-ut700/soft/flat/libbcc.a(copy_data.c.o)
                0x00000000400015c0                __bcc_copy_data
 .text          0x0000000040001638        0x0 /home/fsw/rep/tasa/lib/bcc-2.2.3-gcc/bin/../sparc-gaisler-elf/bsp/leon3/leon3/mfix-ut700/soft/flat/libbcc.a(argv.c.o)
 *fill*         0x0000000040001638        0x8 
 .text          0x0000000040001640      0x1a0 /home/fsw/rep/tasa/lib/bcc-2.2.3-gcc/bin/../sparc-gaisler-elf/bsp/leon3/leon3/mfix-ut700/soft/flat/libbcc.a(interrupt_trap_flat_tn0018.S.o)
                0x0000000040001640                __bcc_trap_interrupt_flat_svt_tn0018
                0x0000000040001644                __bcc_trap_interrupt_flat_tn0018
 .text          0x00000000400017e0       0x48 /home/fsw/rep/tasa/lib/bcc-2.2.3-gcc/bin/../sparc-gaisler-elf/bsp/leon3/leon3/mfix-ut700/soft/flat/libbcc.a(int_irqmp_get_source.c.o)
                0x00000000400017e0                __bcc_int_get_source
 .text          0x0000000040001828       0xa0 /home/fsw/rep/tasa/lib/bcc-2.2.3-gcc/bin/../sparc-gaisler-elf/bsp/leon3/leon3/mfix-ut700/soft/flat/libbcc.a(int_irqmp_mp.c.o)
                0x0000000040001828                bcc_send_interrupt
                0x0000000040001868                bcc_get_cpu_count
                0x0000000040001894                bcc_start_processor
 .text          0x00000000400018c8      0x1e4 /home/fsw/rep/tasa/lib/bcc-2.2.3-gcc/bin/../sparc-gaisler-elf/bsp/leon3/leon3/mfix-ut700/soft/flat/libbcc.a(int_irqmp_init.c.o)
                0x00000000400018c8                __bcc_int_init
 .text          0x0000000040001aac       0x6c /home/fsw/rep/tasa/lib/bcc-2.2.3-gcc/bin/../sparc-gaisler-elf/bsp/leon3/leon3/mfix-ut700/soft/flat/libbcc.a(con_apbuart_init.c.o)
                0x0000000040001aac                __bcc_con_init
 .text          0x0000000040001b18       0x9c /home/fsw/rep/tasa/lib/bcc-2.2.3-gcc/bin/../sparc-gaisler-elf/bsp/leon3/leon3/mfix-ut700/soft/flat/libbcc.a(timer_gptimer_init.c.o)
                0x0000000040001b18                __bcc_timer_init
 .text          0x0000000040001bb4        0x0 /home/fsw/rep/tasa/lib/bcc-2.2.3-gcc/bin/../sparc-gaisler-elf/bsp/leon3/leon3/mfix-ut700/soft/flat/libbcc.a(isr.c.o)
 .text          0x0000000040001bb4        0x0 /home/fsw/rep/tasa/lib/bcc-2.2.3-gcc/bin/../sparc-gaisler-elf/bsp/leon3/leon3/mfix-ut700/soft/flat/libbcc.a(int_nest.c.o)
 .text          0x0000000040001bb4      0x7f4 /home/fsw/rep/tasa/lib/bcc-2.2.3-gcc/bin/../sparc-gaisler-elf/bsp/leon3/leon3/mfix-ut700/soft/flat/libbcc.a(ambapp.c.o)
                0x0000000040001bb4                ambapp_get_ahbinfo
                0x00000000400022c8                ambapp_get_apbinfo
                0x0000000040002370                ambapp_visit
 .text          0x00000000400023a8       0xac /home/fsw/rep/tasa/lib/bcc-2.2.3-gcc/bin/../sparc-gaisler-elf/bsp/leon3/leon3/mfix-ut700/soft/flat/libbcc.a(ambapp_findfirst_fn.c.o)
                0x00000000400023a8                ambapp_findfirst_fn
 .text          0x0000000040002454        0x0 /home/fsw/rep/tasa/lib/bcc-2.2.3-gcc/bin/../sparc-gaisler-elf/bsp/leon3/leon3/mfix-ut700/soft/flat/libbcc.a(int_irqmp_handle.c.o)
 .text          0x0000000040002454        0x0 /home/fsw/rep/tasa/lib/bcc-2.2.3-gcc/bin/../sparc-gaisler-elf/bsp/leon3/leon3/mfix-ut700/soft/flat/libbcc.a(con_handle.c.o)
 .text          0x0000000040002454        0x0 /home/fsw/rep/tasa/lib/bcc-2.2.3-gcc/bin/../sparc-gaisler-elf/bsp/leon3/leon3/mfix-ut700/soft/flat/libbcc.a(timer_handle.c.o)
 .text          0x0000000040002454       0x1c /home/fsw/rep/tasa/lib/bcc-2.2.3-gcc/bin/../lib/gcc/sparc-gaisler-elf/10.2.0/../../../../sparc-gaisler-elf/lib/leon3/mfix-ut700/soft/flat/libc.a(lib_a-atexit.o)
                0x0000000040002454                atexit
 .text          0x0000000040002470       0x50 /home/fsw/rep/tasa/lib/bcc-2.2.3-gcc/bin/../lib/gcc/sparc-gaisler-elf/10.2.0/../../../../sparc-gaisler-elf/lib/leon3/mfix-ut700/soft/flat/libc.a(lib_a-exit.o)
                0x0000000040002470                exit
 .text          0x00000000400024c0        0x0 /home/fsw/rep/tasa/lib/bcc-2.2.3-gcc/bin/../lib/gcc/sparc-gaisler-elf/10.2.0/../../../../sparc-gaisler-elf/lib/leon3/mfix-ut700/soft/flat/libc.a(lib_a-impure.o)
 .text          0x00000000400024c0      0x1d8 /home/fsw/rep/tasa/lib/bcc-2.2.3-gcc/bin/../lib/gcc/sparc-gaisler-elf/10.2.0/../../../../sparc-gaisler-elf/lib/leon3/mfix-ut700/soft/flat/libc.a(lib_a-memcpy.o)
                0x00000000400024c0                memcpy
 .text          0x0000000040002698      0x160 /home/fsw/rep/tasa/lib/bcc-2.2.3-gcc/bin/../lib/gcc/sparc-gaisler-elf/10.2.0/../../../../sparc-gaisler-elf/lib/leon3/mfix-ut700/soft/flat/libc.a(lib_a-printf.o)
                0x0000000040002698                _printf_r
                0x0000000040002748                printf
 .text          0x00000000400027f8      0x114 /home/fsw/rep/tasa/lib/bcc-2.2.3-gcc/bin/../lib/gcc/sparc-gaisler-elf/10.2.0/../../../../sparc-gaisler-elf/lib/leon3/mfix-ut700/soft/flat/libc.a(lib_a-putchar.o)
                0x00000000400027f8                _putchar_r
                0x000000004000287c                putchar
 .text          0x000000004000290c      0x2a8 /home/fsw/rep/tasa/lib/bcc-2.2.3-gcc/bin/../lib/gcc/sparc-gaisler-elf/10.2.0/../../../../sparc-gaisler-elf/lib/leon3/mfix-ut700/soft/flat/libc.a(lib_a-puts.o)
                0x000000004000290c                _puts_r
                0x0000000040002a60                puts
 .text          0x0000000040002bb4       0xc4 /home/fsw/rep/tasa/lib/bcc-2.2.3-gcc/bin/../lib/gcc/sparc-gaisler-elf/10.2.0/../../../../sparc-gaisler-elf/lib/leon3/mfix-ut700/soft/flat/libc.a(lib_a-strlen.o)
                0x0000000040002bb4                strlen
 .text          0x0000000040002c78     0x3034 /home/fsw/rep/tasa/lib/bcc-2.2.3-gcc/bin/../lib/gcc/sparc-gaisler-elf/10.2.0/../../../../sparc-gaisler-elf/lib/leon3/mfix-ut700/soft/flat/libc.a(lib_a-vfprintf.o)
                0x0000000040002de4                _vfprintf_r
                0x0000000040005bb4                vfprintf
 .text          0x0000000040005cac      0x200 /home/fsw/rep/tasa/lib/bcc-2.2.3-gcc/bin/../lib/gcc/sparc-gaisler-elf/10.2.0/../../../../sparc-gaisler-elf/lib/leon3/mfix-ut700/soft/flat/libc.a(lib_a-wsetup.o)
                0x0000000040005cac                __swsetup_r
 .text          0x0000000040005eac      0x19c /home/fsw/rep/tasa/lib/bcc-2.2.3-gcc/bin/../lib/gcc/sparc-gaisler-elf/10.2.0/../../../../sparc-gaisler-elf/lib/leon3/mfix-ut700/soft/flat/libc.a(lib_a-__atexit.o)
                0x0000000040005eac                __register_exitproc
 .text          0x0000000040006048      0x30c /home/fsw/rep/tasa/lib/bcc-2.2.3-gcc/bin/../lib/gcc/sparc-gaisler-elf/10.2.0/../../../../sparc-gaisler-elf/lib/leon3/mfix-ut700/soft/flat/libc.a(lib_a-__call_atexit.o)
                0x0000000040006048                __call_exitprocs
 .text          0x0000000040006354     0x18fc /home/fsw/rep/tasa/lib/bcc-2.2.3-gcc/bin/../lib/gcc/sparc-gaisler-elf/10.2.0/../../../../sparc-gaisler-elf/lib/leon3/mfix-ut700/soft/flat/libc.a(lib_a-dtoa.o)
                0x0000000040006578                _dtoa_r
 .text          0x0000000040007c50      0x4b8 /home/fsw/rep/tasa/lib/bcc-2.2.3-gcc/bin/../lib/gcc/sparc-gaisler-elf/10.2.0/../../../../sparc-gaisler-elf/lib/leon3/mfix-ut700/soft/flat/libc.a(lib_a-fflush.o)
                0x0000000040007c50                __sflush_r
                0x0000000040007f00                _fflush_r
                0x0000000040007fe0                fflush
 .text          0x0000000040008108      0x418 /home/fsw/rep/tasa/lib/bcc-2.2.3-gcc/bin/../lib/gcc/sparc-gaisler-elf/10.2.0/../../../../sparc-gaisler-elf/lib/leon3/mfix-ut700/soft/flat/libc.a(lib_a-findfp.o)
                0x0000000040008108                _cleanup_r
                0x000000004000811c                __sfmoreglue
                0x0000000040008188                __sfp
                0x00000000400084e0                _cleanup
                0x00000000400084fc                __sinit
 .text          0x0000000040008520      0x4c0 /home/fsw/rep/tasa/lib/bcc-2.2.3-gcc/bin/../lib/gcc/sparc-gaisler-elf/10.2.0/../../../../sparc-gaisler-elf/lib/leon3/mfix-ut700/soft/flat/libc.a(lib_a-freer.o)
                0x0000000040008520                _malloc_trim_r
                0x0000000040008640                _free_r
 .text          0x00000000400089e0      0x580 /home/fsw/rep/tasa/lib/bcc-2.2.3-gcc/bin/../lib/gcc/sparc-gaisler-elf/10.2.0/../../../../sparc-gaisler-elf/lib/leon3/mfix-ut700/soft/flat/libc.a(lib_a-fvwrite.o)
                0x00000000400089e0                __sfvwrite_r
 .text          0x0000000040008f60      0x150 /home/fsw/rep/tasa/lib/bcc-2.2.3-gcc/bin/../lib/gcc/sparc-gaisler-elf/10.2.0/../../../../sparc-gaisler-elf/lib/leon3/mfix-ut700/soft/flat/libc.a(lib_a-fwalk.o)
                0x0000000040008f60                _fwalk
                0x0000000040009008                _fwalk_reent
 .text          0x00000000400090b0       0x60 /home/fsw/rep/tasa/lib/bcc-2.2.3-gcc/bin/../lib/gcc/sparc-gaisler-elf/10.2.0/../../../../sparc-gaisler-elf/lib/leon3/mfix-ut700/soft/flat/libc.a(lib_a-localeconv.o)
                0x00000000400090b0                __localeconv_l
                0x00000000400090b8                _localeconv_r
                0x00000000400090e4                localeconv
 .text          0x0000000040009110      0x2a4 /home/fsw/rep/tasa/lib/bcc-2.2.3-gcc/bin/../lib/gcc/sparc-gaisler-elf/10.2.0/../../../../sparc-gaisler-elf/lib/leon3/mfix-ut700/soft/flat/libc.a(lib_a-makebuf.o)
                0x0000000040009110                __smakebuf_r
                0x00000000400092d4                __swhatbuf_r
 .text          0x00000000400093b4       0x30 /home/fsw/rep/tasa/lib/bcc-2.2.3-gcc/bin/../lib/gcc/sparc-gaisler-elf/10.2.0/../../../../sparc-gaisler-elf/lib/leon3/mfix-ut700/soft/flat/libc.a(lib_a-malloc.o)
                0x00000000400093b4                malloc
                0x00000000400093cc                free
 .text          0x00000000400093e4      0x8ac /home/fsw/rep/tasa/lib/bcc-2.2.3-gcc/bin/../lib/gcc/sparc-gaisler-elf/10.2.0/../../../../sparc-gaisler-elf/lib/leon3/mfix-ut700/soft/flat/libc.a(lib_a-mallocr.o)
                0x00000000400093e4                _malloc_r
 .text          0x0000000040009c90      0x120 /home/fsw/rep/tasa/lib/bcc-2.2.3-gcc/bin/../lib/gcc/sparc-gaisler-elf/10.2.0/../../../../sparc-gaisler-elf/lib/leon3/mfix-ut700/soft/flat/libc.a(lib_a-memchr.o)
                0x0000000040009c90                memchr
 .text          0x0000000040009db0      0x22c /home/fsw/rep/tasa/lib/bcc-2.2.3-gcc/bin/../lib/gcc/sparc-gaisler-elf/10.2.0/../../../../sparc-gaisler-elf/lib/leon3/mfix-ut700/soft/flat/libc.a(lib_a-memmove.o)
                0x0000000040009db0                memmove
 .text          0x0000000040009fdc      0x144 /home/fsw/rep/tasa/lib/bcc-2.2.3-gcc/bin/../lib/gcc/sparc-gaisler-elf/10.2.0/../../../../sparc-gaisler-elf/lib/leon3/mfix-ut700/soft/flat/libc.a(lib_a-memset.o)
                0x0000000040009fdc                memset
 .text          0x000000004000a120       0x10 /home/fsw/rep/tasa/lib/bcc-2.2.3-gcc/bin/../lib/gcc/sparc-gaisler-elf/10.2.0/../../../../sparc-gaisler-elf/lib/leon3/mfix-ut700/soft/flat/libc.a(lib_a-mlock.o)
                0x000000004000a120                __malloc_lock
                0x000000004000a128                __malloc_unlock
 .text          0x000000004000a130     0x1a14 /home/fsw/rep/tasa/lib/bcc-2.2.3-gcc/bin/../lib/gcc/sparc-gaisler-elf/10.2.0/../../../../sparc-gaisler-elf/lib/leon3/mfix-ut700/soft/flat/libc.a(lib_a-mprec.o)
                0x000000004000a130                _Balloc
                0x000000004000a22c                _Bfree
                0x000000004000a2ac                __multadd
                0x000000004000a400                __s2b
                0x000000004000a530                __hi0bits
                0x000000004000a5c4                __lo0bits
                0x000000004000a69c                __i2b
                0x000000004000a7c8                __multiply
                0x000000004000aa30                __pow5mult
                0x000000004000abfc                __lshift
                0x000000004000ae2c                __mcmp
                0x000000004000aeb4                __mdiff
                0x000000004000b118                __ulp
                0x000000004000b180                __b2d
                0x000000004000b328                __d2b
                0x000000004000b74c                __ratio
                0x000000004000b998                _mprec_log10
                0x000000004000ba2c                __copybits
                0x000000004000bac0                __any_on
 .text          0x000000004000bb44      0x260 /home/fsw/rep/tasa/lib/bcc-2.2.3-gcc/bin/../lib/gcc/sparc-gaisler-elf/10.2.0/../../../../sparc-gaisler-elf/lib/leon3/mfix-ut700/soft/flat/libc.a(lib_a-putc.o)
                0x000000004000bb44                _putc_r
                0x000000004000bc64                putc
 .text          0x000000004000bda4      0x5ec /home/fsw/rep/tasa/lib/bcc-2.2.3-gcc/bin/../lib/gcc/sparc-gaisler-elf/10.2.0/../../../../sparc-gaisler-elf/lib/leon3/mfix-ut700/soft/flat/libc.a(lib_a-reallocr.o)
                0x000000004000bda4                _realloc_r
 .text          0x000000004000c390       0xb8 /home/fsw/rep/tasa/lib/bcc-2.2.3-gcc/bin/../lib/gcc/sparc-gaisler-elf/10.2.0/../../../../sparc-gaisler-elf/lib/leon3/mfix-ut700/soft/flat/libc.a(lib_a-s_frexp.o)
                0x000000004000c390                frexp
 .text          0x000000004000c448       0x68 /home/fsw/rep/tasa/lib/bcc-2.2.3-gcc/bin/../lib/gcc/sparc-gaisler-elf/10.2.0/../../../../sparc-gaisler-elf/lib/leon3/mfix-ut700/soft/flat/libc.a(lib_a-sbrkr.o)
                0x000000004000c448                _sbrk_r
 .text          0x000000004000c4b0      0x1b0 /home/fsw/rep/tasa/lib/bcc-2.2.3-gcc/bin/../lib/gcc/sparc-gaisler-elf/10.2.0/../../../../sparc-gaisler-elf/lib/leon3/mfix-ut700/soft/flat/libc.a(lib_a-stdio.o)
                0x000000004000c4b0                __sread
                0x000000004000c51c                __seofread
                0x000000004000c524                __swrite
                0x000000004000c5dc                __sseek
                0x000000004000c650                __sclose
 .text          0x000000004000c660      0x1d0 /home/fsw/rep/tasa/lib/bcc-2.2.3-gcc/bin/../lib/gcc/sparc-gaisler-elf/10.2.0/../../../../sparc-gaisler-elf/lib/leon3/mfix-ut700/soft/flat/libc.a(lib_a-strncpy.o)
                0x000000004000c660                strncpy
 .text          0x000000004000c830     0x2060 /home/fsw/rep/tasa/lib/bcc-2.2.3-gcc/bin/../lib/gcc/sparc-gaisler-elf/10.2.0/../../../../sparc-gaisler-elf/lib/leon3/mfix-ut700/soft/flat/libc.a(lib_a-vfiprintf.o)
                0x000000004000c99c                __sprint_r
                0x000000004000cab8                _vfiprintf_r
                0x000000004000e798                vfiprintf
 .text          0x000000004000e890      0x3b4 /home/fsw/rep/tasa/lib/bcc-2.2.3-gcc/bin/../lib/gcc/sparc-gaisler-elf/10.2.0/../../../../sparc-gaisler-elf/lib/leon3/mfix-ut700/soft/flat/libc.a(lib_a-wbuf.o)
                0x000000004000e890                __swbuf_r
                0x000000004000ea68                __swbuf
 .text          0x000000004000ec44       0x70 /home/fsw/rep/tasa/lib/bcc-2.2.3-gcc/bin/../lib/gcc/sparc-gaisler-elf/10.2.0/../../../../sparc-gaisler-elf/lib/leon3/mfix-ut700/soft/flat/libc.a(lib_a-writer.o)
                0x000000004000ec44                _write_r
 .text          0x000000004000ecb4       0xc8 /home/fsw/rep/tasa/lib/bcc-2.2.3-gcc/bin/../lib/gcc/sparc-gaisler-elf/10.2.0/../../../../sparc-gaisler-elf/lib/leon3/mfix-ut700/soft/flat/libc.a(lib_a-callocr.o)
                0x000000004000ecb4                _calloc_r
 .text          0x000000004000ed7c       0x68 /home/fsw/rep/tasa/lib/bcc-2.2.3-gcc/bin/../lib/gcc/sparc-gaisler-elf/10.2.0/../../../../sparc-gaisler-elf/lib/leon3/mfix-ut700/soft/flat/libc.a(lib_a-closer.o)
                0x000000004000ed7c                _close_r
 .text          0x000000004000ede4      0x324 /home/fsw/rep/tasa/lib/bcc-2.2.3-gcc/bin/../lib/gcc/sparc-gaisler-elf/10.2.0/../../../../sparc-gaisler-elf/lib/leon3/mfix-ut700/soft/flat/libc.a(lib_a-fclose.o)
                0x000000004000ede4                _fclose_r
                0x000000004000ef74                fclose
 .text          0x000000004000f108      0x258 /home/fsw/rep/tasa/lib/bcc-2.2.3-gcc/bin/../lib/gcc/sparc-gaisler-elf/10.2.0/../../../../sparc-gaisler-elf/lib/leon3/mfix-ut700/soft/flat/libc.a(lib_a-fputwc.o)
                0x000000004000f108                __fputwc
                0x000000004000f240                _fputwc_r
                0x000000004000f270                fputwc
 .text          0x000000004000f360       0x6c /home/fsw/rep/tasa/lib/bcc-2.2.3-gcc/bin/../lib/gcc/sparc-gaisler-elf/10.2.0/../../../../sparc-gaisler-elf/lib/leon3/mfix-ut700/soft/flat/libc.a(lib_a-fstatr.o)
                0x000000004000f360                _fstat_r
 .text          0x000000004000f3cc       0x68 /home/fsw/rep/tasa/lib/bcc-2.2.3-gcc/bin/../lib/gcc/sparc-gaisler-elf/10.2.0/../../../../sparc-gaisler-elf/lib/leon3/mfix-ut700/soft/flat/libc.a(lib_a-isattyr.o)
                0x000000004000f3cc                _isatty_r
 .text          0x000000004000f434      0x180 /home/fsw/rep/tasa/lib/bcc-2.2.3-gcc/bin/../lib/gcc/sparc-gaisler-elf/10.2.0/../../../../sparc-gaisler-elf/lib/leon3/mfix-ut700/soft/flat/libc.a(lib_a-locale.o)
                0x000000004000f434                _setlocale_r
                0x000000004000f4c4                __locale_mb_cur_max
                0x000000004000f4f0                __locale_ctype_ptr_l
                0x000000004000f4f8                __locale_ctype_ptr
                0x000000004000f524                setlocale
 .text          0x000000004000f5b4       0x70 /home/fsw/rep/tasa/lib/bcc-2.2.3-gcc/bin/../lib/gcc/sparc-gaisler-elf/10.2.0/../../../../sparc-gaisler-elf/lib/leon3/mfix-ut700/soft/flat/libc.a(lib_a-lseekr.o)
                0x000000004000f5b4                _lseek_r
 .text          0x000000004000f624       0xb4 /home/fsw/rep/tasa/lib/bcc-2.2.3-gcc/bin/../lib/gcc/sparc-gaisler-elf/10.2.0/../../../../sparc-gaisler-elf/lib/leon3/mfix-ut700/soft/flat/libc.a(lib_a-mbtowc_r.o)
                0x000000004000f624                _mbtowc_r
                0x000000004000f684                __ascii_mbtowc
 .text          0x000000004000f6d8       0x70 /home/fsw/rep/tasa/lib/bcc-2.2.3-gcc/bin/../lib/gcc/sparc-gaisler-elf/10.2.0/../../../../sparc-gaisler-elf/lib/leon3/mfix-ut700/soft/flat/libc.a(lib_a-readr.o)
                0x000000004000f6d8                _read_r
 .text          0x000000004000f748      0x3cc /home/fsw/rep/tasa/lib/bcc-2.2.3-gcc/bin/../lib/gcc/sparc-gaisler-elf/10.2.0/../../../../sparc-gaisler-elf/lib/leon3/mfix-ut700/soft/flat/libc.a(lib_a-reent.o)
                0x000000004000f748                cleanup_glue
                0x000000004000f804                _reclaim_reent
 .text          0x000000004000fb14       0xc8 /home/fsw/rep/tasa/lib/bcc-2.2.3-gcc/bin/../lib/gcc/sparc-gaisler-elf/10.2.0/../../../../sparc-gaisler-elf/lib/leon3/mfix-ut700/soft/flat/libc.a(lib_a-strcmp.o)
                0x000000004000fb14                strcmp
 .text          0x000000004000fbdc      0x19c /home/fsw/rep/tasa/lib/bcc-2.2.3-gcc/bin/../lib/gcc/sparc-gaisler-elf/10.2.0/../../../../sparc-gaisler-elf/lib/leon3/mfix-ut700/soft/flat/libc.a(lib_a-wcrtomb.o)
                0x000000004000fbdc                _wcrtomb_r
                0x000000004000fca8                wcrtomb
 .text          0x000000004000fd78       0x98 /home/fsw/rep/tasa/lib/bcc-2.2.3-gcc/bin/../lib/gcc/sparc-gaisler-elf/10.2.0/../../../../sparc-gaisler-elf/lib/leon3/mfix-ut700/soft/flat/libc.a(lib_a-wctomb_r.o)
                0x000000004000fd78                _wctomb_r
                0x000000004000fdd8                __ascii_wctomb
 .text          0x000000004000fe10        0x0 /home/fsw/rep/tasa/lib/bcc-2.2.3-gcc/bin/../lib/gcc/sparc-gaisler-elf/10.2.0/../../../../sparc-gaisler-elf/lib/leon3/mfix-ut700/soft/flat/libc.a(lib_a-ctype_.o)
 .text          0x000000004000fe10       0x10 /home/fsw/rep/tasa/lib/bcc-2.2.3-gcc/bin/../sparc-gaisler-elf/bsp/leon3/leon3/mfix-ut700/soft/flat/libbcc.a(_exit.S.o)
                0x000000004000fe10                _exit
 .text          0x000000004000fe20       0x80 /home/fsw/rep/tasa/lib/bcc-2.2.3-gcc/bin/../sparc-gaisler-elf/bsp/leon3/leon3/mfix-ut700/soft/flat/libbcc.a(read.c.o)
                0x000000004000fe20                read
 .text          0x000000004000fea0       0xd0 /home/fsw/rep/tasa/lib/bcc-2.2.3-gcc/bin/../sparc-gaisler-elf/bsp/leon3/leon3/mfix-ut700/soft/flat/libbcc.a(sbrk.c.o)
                0x000000004000fea0                sbrk
 .text          0x000000004000ff70        0x0 /home/fsw/rep/tasa/lib/bcc-2.2.3-gcc/bin/../sparc-gaisler-elf/bsp/leon3/leon3/mfix-ut700/soft/flat/libbcc.a(heap.c.o)
 .text          0x000000004000ff70       0xa4 /home/fsw/rep/tasa/lib/bcc-2.2.3-gcc/bin/../sparc-gaisler-elf/bsp/leon3/leon3/mfix-ut700/soft/flat/libbcc.a(write.c.o)
                0x000000004000ff70                write
 .text          0x0000000040010014       0x20 /home/fsw/rep/tasa/lib/bcc-2.2.3-gcc/bin/../sparc-gaisler-elf/bsp/leon3/leon3/mfix-ut700/soft/flat/libbcc.a(stubs.S.o)
                0x0000000040010014                execve
                0x0000000040010014                lseek
                0x0000000040010014                fstat
                0x0000000040010014                kill
                0x0000000040010014                wait
                0x0000000040010014                unlink
                0x0000000040010014                fork
                0x0000000040010014                stat
                0x0000000040010014                link
                0x0000000040010014                open
                0x0000000040010014                close
                0x000000004001002c                getpid
                0x000000004001002c                isatty
 .text          0x0000000040010034       0xc4 /home/fsw/rep/tasa/lib/bcc-2.2.3-gcc/bin/../sparc-gaisler-elf/bsp/leon3/leon3/mfix-ut700/soft/flat/libbcc.a(con_apbuart.c.o)
                0x0000000040010034                __bcc_con_outbyte
                0x00000000400100c4                __bcc_con_inbyte
 .text          0x00000000400100f8      0x1f0 /home/fsw/rep/tasa/lib/bcc-2.2.3-gcc/bin/../lib/gcc/sparc-gaisler-elf/10.2.0/leon3/mfix-ut700/soft/flat/libgcc.a(_udivdi3.o)
                0x00000000400100f8                __udivdi3
 .text          0x00000000400102e8      0x21c /home/fsw/rep/tasa/lib/bcc-2.2.3-gcc/bin/../lib/gcc/sparc-gaisler-elf/10.2.0/leon3/mfix-ut700/soft/flat/libgcc.a(_umoddi3.o)
                0x00000000400102e8                __umoddi3
 .text          0x0000000040010504      0x7e8 /home/fsw/rep/tasa/lib/bcc-2.2.3-gcc/bin/../lib/gcc/sparc-gaisler-elf/10.2.0/leon3/mfix-ut700/soft/flat/libgcc.a(_addsub_df.o)
                0x0000000040010504                __adddf3
                0x00000000400108fc                __subdf3
 .text          0x0000000040010cec      0x31c /home/fsw/rep/tasa/lib/bcc-2.2.3-gcc/bin/../lib/gcc/sparc-gaisler-elf/10.2.0/leon3/mfix-ut700/soft/flat/libgcc.a(_mul_df.o)
                0x0000000040010cec                __muldf3
 .text          0x0000000040011008      0x230 /home/fsw/rep/tasa/lib/bcc-2.2.3-gcc/bin/../lib/gcc/sparc-gaisler-elf/10.2.0/leon3/mfix-ut700/soft/flat/libgcc.a(_div_df.o)
                0x0000000040011008                __divdf3
 .text          0x0000000040011238       0x7c /home/fsw/rep/tasa/lib/bcc-2.2.3-gcc/bin/../lib/gcc/sparc-gaisler-elf/10.2.0/leon3/mfix-ut700/soft/flat/libgcc.a(_eq_df.o)
                0x0000000040011238                __eqdf2
 .text          0x00000000400112b4       0x7c /home/fsw/rep/tasa/lib/bcc-2.2.3-gcc/bin/../lib/gcc/sparc-gaisler-elf/10.2.0/leon3/mfix-ut700/soft/flat/libgcc.a(_ne_df.o)
                0x00000000400112b4                __nedf2
 .text          0x0000000040011330       0x7c /home/fsw/rep/tasa/lib/bcc-2.2.3-gcc/bin/../lib/gcc/sparc-gaisler-elf/10.2.0/leon3/mfix-ut700/soft/flat/libgcc.a(_gt_df.o)
                0x0000000040011330                __gtdf2
 .text          0x00000000400113ac       0x7c /home/fsw/rep/tasa/lib/bcc-2.2.3-gcc/bin/../lib/gcc/sparc-gaisler-elf/10.2.0/leon3/mfix-ut700/soft/flat/libgcc.a(_lt_df.o)
                0x00000000400113ac                __ltdf2
 .text          0x0000000040011428       0x7c /home/fsw/rep/tasa/lib/bcc-2.2.3-gcc/bin/../lib/gcc/sparc-gaisler-elf/10.2.0/leon3/mfix-ut700/soft/flat/libgcc.a(_le_df.o)
                0x0000000040011428                __ledf2
 .text          0x00000000400114a4       0x70 /home/fsw/rep/tasa/lib/bcc-2.2.3-gcc/bin/../lib/gcc/sparc-gaisler-elf/10.2.0/leon3/mfix-ut700/soft/flat/libgcc.a(_unord_df.o)
                0x00000000400114a4                __unorddf2
 .text          0x0000000040011514       0xcc /home/fsw/rep/tasa/lib/bcc-2.2.3-gcc/bin/../lib/gcc/sparc-gaisler-elf/10.2.0/leon3/mfix-ut700/soft/flat/libgcc.a(_si_to_df.o)
                0x0000000040011514                __floatsidf
 .text          0x00000000400115e0       0xe4 /home/fsw/rep/tasa/lib/bcc-2.2.3-gcc/bin/../lib/gcc/sparc-gaisler-elf/10.2.0/leon3/mfix-ut700/soft/flat/libgcc.a(_df_to_si.o)
                0x00000000400115e0                __fixdfsi
 .text          0x00000000400116c4        0x0 /home/fsw/rep/tasa/lib/bcc-2.2.3-gcc/bin/../lib/gcc/sparc-gaisler-elf/10.2.0/leon3/mfix-ut700/soft/flat/libgcc.a(_thenan_df.o)
 .text          0x00000000400116c4       0x9c /home/fsw/rep/tasa/lib/bcc-2.2.3-gcc/bin/../lib/gcc/sparc-gaisler-elf/10.2.0/leon3/mfix-ut700/soft/flat/libgcc.a(_usi_to_df.o)
                0x00000000400116c4                __floatunsidf
 .text          0x0000000040011760        0x0 /home/fsw/rep/tasa/lib/bcc-2.2.3-gcc/bin/../lib/gcc/sparc-gaisler-elf/10.2.0/leon3/mfix-ut700/soft/flat/libgcc.a(_clz.o)
 .text          0x0000000040011760       0x94 /home/fsw/rep/tasa/lib/bcc-2.2.3-gcc/bin/../lib/gcc/sparc-gaisler-elf/10.2.0/leon3/mfix-ut700/soft/flat/libgcc.a(_clzsi2.o)
                0x0000000040011760                __clzsi2
 .text          0x00000000400117f4      0x298 /home/fsw/rep/tasa/lib/bcc-2.2.3-gcc/bin/../lib/gcc/sparc-gaisler-elf/10.2.0/leon3/mfix-ut700/soft/flat/libgcc.a(_pack_df.o)
                0x00000000400117f4                __pack_d
 .text          0x0000000040011a8c      0x14c /home/fsw/rep/tasa/lib/bcc-2.2.3-gcc/bin/../lib/gcc/sparc-gaisler-elf/10.2.0/leon3/mfix-ut700/soft/flat/libgcc.a(_unpack_df.o)
                0x0000000040011a8c                __unpack_d
 .text          0x0000000040011bd8      0x188 /home/fsw/rep/tasa/lib/bcc-2.2.3-gcc/bin/../lib/gcc/sparc-gaisler-elf/10.2.0/leon3/mfix-ut700/soft/flat/libgcc.a(_fpcmp_parts_df.o)
                0x0000000040011bd8                __fpcmp_parts_d
 .text          0x0000000040011d60       0x74 /home/fsw/rep/tasa/lib/bcc-2.2.3-gcc/bin/../lib/gcc/sparc-gaisler-elf/10.2.0/leon3/mfix-ut700/soft/flat/crtend.o
 .text          0x0000000040011dd4        0x0 /home/fsw/rep/tasa/lib/bcc-2.2.3-gcc/bin/../lib/gcc/sparc-gaisler-elf/10.2.0/leon3/mfix-ut700/soft/flat/crtn.o
                0x0000000040011de0                . = ALIGN (0x10)
 *fill*         0x0000000040011dd4        0xc 
 *(.eh_frame)
 .eh_frame      0x0000000040011de0        0x0 /home/fsw/rep/tasa/lib/bcc-2.2.3-gcc/bin/../lib/gcc/sparc-gaisler-elf/10.2.0/leon3/mfix-ut700/soft/flat/crtbegin.o
 .eh_frame      0x0000000040011de0       0x30 /home/fsw/rep/tasa/lib/bcc-2.2.3-gcc/bin/../lib/gcc/sparc-gaisler-elf/10.2.0/leon3/mfix-ut700/soft/flat/libgcc.a(_udivdi3.o)
 .eh_frame      0x0000000040011e10       0x30 /home/fsw/rep/tasa/lib/bcc-2.2.3-gcc/bin/../lib/gcc/sparc-gaisler-elf/10.2.0/leon3/mfix-ut700/soft/flat/libgcc.a(_umoddi3.o)
 .eh_frame      0x0000000040011e40        0x4 /home/fsw/rep/tasa/lib/bcc-2.2.3-gcc/bin/../lib/gcc/sparc-gaisler-elf/10.2.0/leon3/mfix-ut700/soft/flat/crtend.o
                0x0000000040011e50                . = ALIGN (0x10)
 *fill*         0x0000000040011e44        0xc 
 *(.gnu.linkonce.t*)
                0x0000000040011e50                ___CTOR_LIST__ = .
                0x0000000040011e50        0x4 LONG 0x2 (((___CTOR_END__ - ___CTOR_LIST__) / 0x4) - 0x2)
 *(SORT_BY_NAME(.ctors.*))
 *(.ctors)
 .ctors         0x0000000040011e54        0x4 /home/fsw/rep/tasa/lib/bcc-2.2.3-gcc/bin/../lib/gcc/sparc-gaisler-elf/10.2.0/leon3/mfix-ut700/soft/flat/crtbegin.o
 .ctors         0x0000000040011e58        0x4 /home/fsw/rep/tasa/lib/bcc-2.2.3-gcc/bin/../lib/gcc/sparc-gaisler-elf/10.2.0/leon3/mfix-ut700/soft/flat/crtend.o
                0x0000000040011e5c        0x4 LONG 0x0
                0x0000000040011e60                ___CTOR_END__ = .
                0x0000000040011e60                ___DTOR_LIST__ = .
                0x0000000040011e60        0x4 LONG 0x2 (((___DTOR_END__ - ___DTOR_LIST__) / 0x4) - 0x2)
 *(SORT_BY_NAME(.dtors.*))
 *(.dtors)
 .dtors         0x0000000040011e64        0x4 /home/fsw/rep/tasa/lib/bcc-2.2.3-gcc/bin/../lib/gcc/sparc-gaisler-elf/10.2.0/leon3/mfix-ut700/soft/flat/crtbegin.o
 .dtors         0x0000000040011e68        0x4 /home/fsw/rep/tasa/lib/bcc-2.2.3-gcc/bin/../lib/gcc/sparc-gaisler-elf/10.2.0/leon3/mfix-ut700/soft/flat/crtend.o
                0x0000000040011e68                __DTOR_END__
                0x0000000040011e6c        0x4 LONG 0x0
                0x0000000040011e70                ___DTOR_END__ = .
 *(.gnu.linkonce*)
 *(.init)
 .init          0x0000000040011e70        0xc /home/fsw/rep/tasa/lib/bcc-2.2.3-gcc/bin/../lib/gcc/sparc-gaisler-elf/10.2.0/leon3/mfix-ut700/soft/flat/crti.o
                0x0000000040011e70                _init
 .init          0x0000000040011e7c        0x8 /home/fsw/rep/tasa/lib/bcc-2.2.3-gcc/bin/../lib/gcc/sparc-gaisler-elf/10.2.0/leon3/mfix-ut700/soft/flat/crtbegin.o
 .init          0x0000000040011e84        0x8 /home/fsw/rep/tasa/lib/bcc-2.2.3-gcc/bin/../lib/gcc/sparc-gaisler-elf/10.2.0/leon3/mfix-ut700/soft/flat/crtend.o
 .init          0x0000000040011e8c       0x14 /home/fsw/rep/tasa/lib/bcc-2.2.3-gcc/bin/../lib/gcc/sparc-gaisler-elf/10.2.0/leon3/mfix-ut700/soft/flat/crtn.o
 *(.fini)
 .fini          0x0000000040011ea0        0xc /home/fsw/rep/tasa/lib/bcc-2.2.3-gcc/bin/../lib/gcc/sparc-gaisler-elf/10.2.0/leon3/mfix-ut700/soft/flat/crti.o
                0x0000000040011ea0                _fini
 .fini          0x0000000040011eac        0x8 /home/fsw/rep/tasa/lib/bcc-2.2.3-gcc/bin/../lib/gcc/sparc-gaisler-elf/10.2.0/leon3/mfix-ut700/soft/flat/crtbegin.o
 .fini          0x0000000040011eb4       0x14 /home/fsw/rep/tasa/lib/bcc-2.2.3-gcc/bin/../lib/gcc/sparc-gaisler-elf/10.2.0/leon3/mfix-ut700/soft/flat/crtn.o
 *(.lit)
 *(.shdata)
                0x0000000040011ed0                . = ALIGN (0x10)
 *fill*         0x0000000040011ec8        0x8 
                0x0000000040011ed0                __text_end = .

.gcc_except_table
 *(.gcc_except_table.*)

.rodata         0x0000000040011ed0      0x750
                0x0000000040011ed0                __rodata_start = .
 *(.rodata*)
 .rodata.str1.8
                0x0000000040011ed0       0xcf /tmp/ccyYqly4.o
 *fill*         0x0000000040011f9f        0x1 
 .rodata        0x0000000040011fa0        0x5 /tmp/ccyYqly4.o
 *fill*         0x0000000040011fa5        0x3 
 .rodata        0x0000000040011fa8        0x4 /home/fsw/rep/tasa/lib/bcc-2.2.3-gcc/bin/../lib/gcc/sparc-gaisler-elf/10.2.0/../../../../sparc-gaisler-elf/lib/leon3/mfix-ut700/soft/flat/libc.a(lib_a-impure.o)
                0x0000000040011fa8                _global_impure_ptr
 *fill*         0x0000000040011fac        0x4 
 .rodata.str1.8
                0x0000000040011fb0        0x2 /home/fsw/rep/tasa/lib/bcc-2.2.3-gcc/bin/../lib/gcc/sparc-gaisler-elf/10.2.0/../../../../sparc-gaisler-elf/lib/leon3/mfix-ut700/soft/flat/libc.a(lib_a-puts.o)
 *fill*         0x0000000040011fb2        0x6 
 .rodata.str1.8
                0x0000000040011fb8       0x5a /home/fsw/rep/tasa/lib/bcc-2.2.3-gcc/bin/../lib/gcc/sparc-gaisler-elf/10.2.0/../../../../sparc-gaisler-elf/lib/leon3/mfix-ut700/soft/flat/libc.a(lib_a-vfprintf.o)
 *fill*         0x0000000040012012        0x6 
 .rodata.cst8   0x0000000040012018       0x18 /home/fsw/rep/tasa/lib/bcc-2.2.3-gcc/bin/../lib/gcc/sparc-gaisler-elf/10.2.0/../../../../sparc-gaisler-elf/lib/leon3/mfix-ut700/soft/flat/libc.a(lib_a-vfprintf.o)
 .rodata        0x0000000040012030       0x20 /home/fsw/rep/tasa/lib/bcc-2.2.3-gcc/bin/../lib/gcc/sparc-gaisler-elf/10.2.0/../../../../sparc-gaisler-elf/lib/leon3/mfix-ut700/soft/flat/libc.a(lib_a-vfprintf.o)
 .rodata.str1.8
                0x0000000040012050       0x14 /home/fsw/rep/tasa/lib/bcc-2.2.3-gcc/bin/../lib/gcc/sparc-gaisler-elf/10.2.0/../../../../sparc-gaisler-elf/lib/leon3/mfix-ut700/soft/flat/libc.a(lib_a-dtoa.o)
                                         0x1a (size before relaxing)
 *fill*         0x0000000040012064        0x4 
 .rodata.cst8   0x0000000040012068       0x48 /home/fsw/rep/tasa/lib/bcc-2.2.3-gcc/bin/../lib/gcc/sparc-gaisler-elf/10.2.0/../../../../sparc-gaisler-elf/lib/leon3/mfix-ut700/soft/flat/libc.a(lib_a-dtoa.o)
 .rodata        0x00000000400120b0       0x60 /home/fsw/rep/tasa/lib/bcc-2.2.3-gcc/bin/../lib/gcc/sparc-gaisler-elf/10.2.0/../../../../sparc-gaisler-elf/lib/leon3/mfix-ut700/soft/flat/libc.a(lib_a-findfp.o)
                0x00000000400120b0                __sf_fake_stderr
                0x00000000400120d0                __sf_fake_stdout
                0x00000000400120f0                __sf_fake_stdin
 .rodata.cst8   0x0000000040012110       0x10 /home/fsw/rep/tasa/lib/bcc-2.2.3-gcc/bin/../lib/gcc/sparc-gaisler-elf/10.2.0/../../../../sparc-gaisler-elf/lib/leon3/mfix-ut700/soft/flat/libc.a(lib_a-mprec.o)
 .rodata        0x0000000040012110      0x128 /home/fsw/rep/tasa/lib/bcc-2.2.3-gcc/bin/../lib/gcc/sparc-gaisler-elf/10.2.0/../../../../sparc-gaisler-elf/lib/leon3/mfix-ut700/soft/flat/libc.a(lib_a-mprec.o)
                0x0000000040012120                __mprec_tinytens
                0x0000000040012148                __mprec_bigtens
                0x0000000040012170                __mprec_tens
 .rodata.cst8   0x0000000040012238        0x8 /home/fsw/rep/tasa/lib/bcc-2.2.3-gcc/bin/../lib/gcc/sparc-gaisler-elf/10.2.0/../../../../sparc-gaisler-elf/lib/leon3/mfix-ut700/soft/flat/libc.a(lib_a-s_frexp.o)
 .rodata.str1.8
                0x0000000040012240       0x37 /home/fsw/rep/tasa/lib/bcc-2.2.3-gcc/bin/../lib/gcc/sparc-gaisler-elf/10.2.0/../../../../sparc-gaisler-elf/lib/leon3/mfix-ut700/soft/flat/libc.a(lib_a-vfiprintf.o)
 .rodata        0x0000000040012240       0x20 /home/fsw/rep/tasa/lib/bcc-2.2.3-gcc/bin/../lib/gcc/sparc-gaisler-elf/10.2.0/../../../../sparc-gaisler-elf/lib/leon3/mfix-ut700/soft/flat/libc.a(lib_a-vfiprintf.o)
 .rodata.str1.8
                0x0000000040012260       0x12 /home/fsw/rep/tasa/lib/bcc-2.2.3-gcc/bin/../lib/gcc/sparc-gaisler-elf/10.2.0/../../../../sparc-gaisler-elf/lib/leon3/mfix-ut700/soft/flat/libc.a(lib_a-locale.o)
                                         0x1a (size before relaxing)
 *fill*         0x0000000040012272        0x6 
 .rodata        0x0000000040012278      0x288 /home/fsw/rep/tasa/lib/bcc-2.2.3-gcc/bin/../lib/gcc/sparc-gaisler-elf/10.2.0/../../../../sparc-gaisler-elf/lib/leon3/mfix-ut700/soft/flat/libc.a(lib_a-ctype_.o)
                0x0000000040012278                _ctype_
                0x0000000040012380                _ctype_b
 .rodata.cst8   0x0000000040012500        0x8 /home/fsw/rep/tasa/lib/bcc-2.2.3-gcc/bin/../lib/gcc/sparc-gaisler-elf/10.2.0/leon3/mfix-ut700/soft/flat/libgcc.a(_si_to_df.o)
 .rodata        0x0000000040012508       0x18 /home/fsw/rep/tasa/lib/bcc-2.2.3-gcc/bin/../lib/gcc/sparc-gaisler-elf/10.2.0/leon3/mfix-ut700/soft/flat/libgcc.a(_thenan_df.o)
                0x0000000040012508                __thenan_df
 .rodata        0x0000000040012520      0x100 /home/fsw/rep/tasa/lib/bcc-2.2.3-gcc/bin/../lib/gcc/sparc-gaisler-elf/10.2.0/leon3/mfix-ut700/soft/flat/libgcc.a(_clz.o)
                0x0000000040012520                __clz_tab
 *(.gnu.linkonce.r*)
                0x0000000040012620                . = ALIGN (0x10)
                0x0000000040012620                __rodata_end = .

.rela.dyn       0x0000000040012620        0x0
 .rela.iplt     0x0000000040012620        0x0 /home/fsw/rep/tasa/lib/bcc-2.2.3-gcc/bin/../sparc-gaisler-elf/bsp/leon3/leon3/mfix-ut700/soft/flat/trap_table_mvt_tn0018.S.o
 .rela.text.traptable
                0x0000000040012620        0x0 /home/fsw/rep/tasa/lib/bcc-2.2.3-gcc/bin/../sparc-gaisler-elf/bsp/leon3/leon3/mfix-ut700/soft/flat/trap_table_mvt_tn0018.S.o
 .rela.text     0x0000000040012620        0x0 /home/fsw/rep/tasa/lib/bcc-2.2.3-gcc/bin/../sparc-gaisler-elf/bsp/leon3/leon3/mfix-ut700/soft/flat/trap_table_mvt_tn0018.S.o

.ext.data       0x0000000040012620        0x0
                0x0000000040012620                . = ALIGN (0x8)
                0x0000000040012620                __extdata_start = .
 *(.data.ext)
                0x0000000040012620                . = ALIGN (0x8)
                0x0000000040012620                __extdata_end = .
                0x0000000040012620                __extdata_start_lma = LOADADDR (.ext.data)
                0x0000000000000000                __extdata_size = SIZEOF (.ext.data)

.data           0x0000000040012620      0x608
                0x0000000040012620                . = ALIGN (0x8)
                0x0000000040012620                __data_start = .
 *(.data .data.*)
 .data          0x0000000040012620        0x0 /home/fsw/rep/tasa/lib/bcc-2.2.3-gcc/bin/../sparc-gaisler-elf/bsp/leon3/leon3/mfix-ut700/soft/flat/trap_table_mvt_tn0018.S.o
 .data          0x0000000040012620        0x0 /home/fsw/rep/tasa/lib/bcc-2.2.3-gcc/bin/../sparc-gaisler-elf/bsp/leon3/leon3/mfix-ut700/soft/flat/crt0.S.o
 .data          0x0000000040012620        0x0 /home/fsw/rep/tasa/lib/bcc-2.2.3-gcc/bin/../lib/gcc/sparc-gaisler-elf/10.2.0/leon3/mfix-ut700/soft/flat/crti.o
 .data          0x0000000040012620        0x4 /home/fsw/rep/tasa/lib/bcc-2.2.3-gcc/bin/../lib/gcc/sparc-gaisler-elf/10.2.0/leon3/mfix-ut700/soft/flat/crtbegin.o
                0x0000000040012620                __dso_handle
 .data          0x0000000040012624        0x0 /tmp/ccyYqly4.o
 .data          0x0000000040012624        0x0 /home/fsw/rep/tasa/lib/bcc-2.2.3-gcc/bin/../sparc-gaisler-elf/bsp/leon3/leon3/mfix-ut700/soft/flat/libbcc.a(reset_trap_mvt.S.o)
 .data          0x0000000040012624        0x0 /home/fsw/rep/tasa/lib/bcc-2.2.3-gcc/bin/../sparc-gaisler-elf/bsp/leon3/leon3/mfix-ut700/soft/flat/libbcc.a(sw_trap_set_pil.S.o)
 .data          0x0000000040012624        0x0 /home/fsw/rep/tasa/lib/bcc-2.2.3-gcc/bin/../sparc-gaisler-elf/bsp/leon3/leon3/mfix-ut700/soft/flat/libbcc.a(init.S.o)
 .data          0x0000000040012624       0x10 /home/fsw/rep/tasa/lib/bcc-2.2.3-gcc/bin/../sparc-gaisler-elf/bsp/leon3/leon3/mfix-ut700/soft/flat/libbcc.a(leon_info.S.o)
                0x0000000040012624                __bcc_leon_version
                0x0000000040012628                __bcc_nwindows_min1
                0x000000004001262c                __bcc_nwindows
                0x0000000040012630                __bcc_cpuid
 .data          0x0000000040012634        0x0 /home/fsw/rep/tasa/lib/bcc-2.2.3-gcc/bin/../sparc-gaisler-elf/bsp/leon3/leon3/mfix-ut700/soft/flat/libbcc.a(dwzero.S.o)
 .data          0x0000000040012634        0x0 /home/fsw/rep/tasa/lib/bcc-2.2.3-gcc/bin/../sparc-gaisler-elf/bsp/leon3/leon3/mfix-ut700/soft/flat/libbcc.a(copy_data.c.o)
 .data          0x0000000040012634        0x4 /home/fsw/rep/tasa/lib/bcc-2.2.3-gcc/bin/../sparc-gaisler-elf/bsp/leon3/leon3/mfix-ut700/soft/flat/libbcc.a(argv.c.o)
                0x0000000040012634                __bcc_argvp
 .data          0x0000000040012638        0x0 /home/fsw/rep/tasa/lib/bcc-2.2.3-gcc/bin/../sparc-gaisler-elf/bsp/leon3/leon3/mfix-ut700/soft/flat/libbcc.a(interrupt_trap_flat_tn0018.S.o)
 .data          0x0000000040012638        0x0 /home/fsw/rep/tasa/lib/bcc-2.2.3-gcc/bin/../sparc-gaisler-elf/bsp/leon3/leon3/mfix-ut700/soft/flat/libbcc.a(int_irqmp_get_source.c.o)
 .data          0x0000000040012638        0x0 /home/fsw/rep/tasa/lib/bcc-2.2.3-gcc/bin/../sparc-gaisler-elf/bsp/leon3/leon3/mfix-ut700/soft/flat/libbcc.a(int_irqmp_mp.c.o)
 .data          0x0000000040012638        0x0 /home/fsw/rep/tasa/lib/bcc-2.2.3-gcc/bin/../sparc-gaisler-elf/bsp/leon3/leon3/mfix-ut700/soft/flat/libbcc.a(int_irqmp_init.c.o)
 .data          0x0000000040012638        0x0 /home/fsw/rep/tasa/lib/bcc-2.2.3-gcc/bin/../sparc-gaisler-elf/bsp/leon3/leon3/mfix-ut700/soft/flat/libbcc.a(con_apbuart_init.c.o)
 .data          0x0000000040012638        0x0 /home/fsw/rep/tasa/lib/bcc-2.2.3-gcc/bin/../sparc-gaisler-elf/bsp/leon3/leon3/mfix-ut700/soft/flat/libbcc.a(timer_gptimer_init.c.o)
 .data          0x0000000040012638        0x0 /home/fsw/rep/tasa/lib/bcc-2.2.3-gcc/bin/../sparc-gaisler-elf/bsp/leon3/leon3/mfix-ut700/soft/flat/libbcc.a(isr.c.o)
 .data          0x0000000040012638       0x10 /home/fsw/rep/tasa/lib/bcc-2.2.3-gcc/bin/../sparc-gaisler-elf/bsp/leon3/leon3/mfix-ut700/soft/flat/libbcc.a(int_nest.c.o)
                0x0000000040012638                __bcc_int_nest
 .data          0x0000000040012648        0x0 /home/fsw/rep/tasa/lib/bcc-2.2.3-gcc/bin/../sparc-gaisler-elf/bsp/leon3/leon3/mfix-ut700/soft/flat/libbcc.a(ambapp.c.o)
 .data          0x0000000040012648        0x0 /home/fsw/rep/tasa/lib/bcc-2.2.3-gcc/bin/../sparc-gaisler-elf/bsp/leon3/leon3/mfix-ut700/soft/flat/libbcc.a(ambapp_findfirst_fn.c.o)
 .data          0x0000000040012648        0x0 /home/fsw/rep/tasa/lib/bcc-2.2.3-gcc/bin/../sparc-gaisler-elf/bsp/leon3/leon3/mfix-ut700/soft/flat/libbcc.a(int_irqmp_handle.c.o)
 .data          0x0000000040012648        0x0 /home/fsw/rep/tasa/lib/bcc-2.2.3-gcc/bin/../sparc-gaisler-elf/bsp/leon3/leon3/mfix-ut700/soft/flat/libbcc.a(con_handle.c.o)
 .data          0x0000000040012648        0x0 /home/fsw/rep/tasa/lib/bcc-2.2.3-gcc/bin/../sparc-gaisler-elf/bsp/leon3/leon3/mfix-ut700/soft/flat/libbcc.a(timer_handle.c.o)
 .data          0x0000000040012648        0x0 /home/fsw/rep/tasa/lib/bcc-2.2.3-gcc/bin/../lib/gcc/sparc-gaisler-elf/10.2.0/../../../../sparc-gaisler-elf/lib/leon3/mfix-ut700/soft/flat/libc.a(lib_a-atexit.o)
 .data          0x0000000040012648        0x0 /home/fsw/rep/tasa/lib/bcc-2.2.3-gcc/bin/../lib/gcc/sparc-gaisler-elf/10.2.0/../../../../sparc-gaisler-elf/lib/leon3/mfix-ut700/soft/flat/libc.a(lib_a-exit.o)
 .data          0x0000000040012648       0x64 /home/fsw/rep/tasa/lib/bcc-2.2.3-gcc/bin/../lib/gcc/sparc-gaisler-elf/10.2.0/../../../../sparc-gaisler-elf/lib/leon3/mfix-ut700/soft/flat/libc.a(lib_a-impure.o)
                0x0000000040012648                _impure_ptr
 .data          0x00000000400126ac        0x0 /home/fsw/rep/tasa/lib/bcc-2.2.3-gcc/bin/../lib/gcc/sparc-gaisler-elf/10.2.0/../../../../sparc-gaisler-elf/lib/leon3/mfix-ut700/soft/flat/libc.a(lib_a-memcpy.o)
 .data          0x00000000400126ac        0x0 /home/fsw/rep/tasa/lib/bcc-2.2.3-gcc/bin/../lib/gcc/sparc-gaisler-elf/10.2.0/../../../../sparc-gaisler-elf/lib/leon3/mfix-ut700/soft/flat/libc.a(lib_a-printf.o)
 .data          0x00000000400126ac        0x0 /home/fsw/rep/tasa/lib/bcc-2.2.3-gcc/bin/../lib/gcc/sparc-gaisler-elf/10.2.0/../../../../sparc-gaisler-elf/lib/leon3/mfix-ut700/soft/flat/libc.a(lib_a-putchar.o)
 .data          0x00000000400126ac        0x0 /home/fsw/rep/tasa/lib/bcc-2.2.3-gcc/bin/../lib/gcc/sparc-gaisler-elf/10.2.0/../../../../sparc-gaisler-elf/lib/leon3/mfix-ut700/soft/flat/libc.a(lib_a-puts.o)
 .data          0x00000000400126ac        0x0 /home/fsw/rep/tasa/lib/bcc-2.2.3-gcc/bin/../lib/gcc/sparc-gaisler-elf/10.2.0/../../../../sparc-gaisler-elf/lib/leon3/mfix-ut700/soft/flat/libc.a(lib_a-strlen.o)
 .data          0x00000000400126ac        0x0 /home/fsw/rep/tasa/lib/bcc-2.2.3-gcc/bin/../lib/gcc/sparc-gaisler-elf/10.2.0/../../../../sparc-gaisler-elf/lib/leon3/mfix-ut700/soft/flat/libc.a(lib_a-vfprintf.o)
 .data          0x00000000400126ac        0x0 /home/fsw/rep/tasa/lib/bcc-2.2.3-gcc/bin/../lib/gcc/sparc-gaisler-elf/10.2.0/../../../../sparc-gaisler-elf/lib/leon3/mfix-ut700/soft/flat/libc.a(lib_a-wsetup.o)
 .data          0x00000000400126ac        0x0 /home/fsw/rep/tasa/lib/bcc-2.2.3-gcc/bin/../lib/gcc/sparc-gaisler-elf/10.2.0/../../../../sparc-gaisler-elf/lib/leon3/mfix-ut700/soft/flat/libc.a(lib_a-__atexit.o)
 .data          0x00000000400126ac        0x0 /home/fsw/rep/tasa/lib/bcc-2.2.3-gcc/bin/../lib/gcc/sparc-gaisler-elf/10.2.0/../../../../sparc-gaisler-elf/lib/leon3/mfix-ut700/soft/flat/libc.a(lib_a-__call_atexit.o)
 .data          0x00000000400126ac        0x0 /home/fsw/rep/tasa/lib/bcc-2.2.3-gcc/bin/../lib/gcc/sparc-gaisler-elf/10.2.0/../../../../sparc-gaisler-elf/lib/leon3/mfix-ut700/soft/flat/libc.a(lib_a-dtoa.o)
 .data          0x00000000400126ac        0x0 /home/fsw/rep/tasa/lib/bcc-2.2.3-gcc/bin/../lib/gcc/sparc-gaisler-elf/10.2.0/../../../../sparc-gaisler-elf/lib/leon3/mfix-ut700/soft/flat/libc.a(lib_a-fflush.o)
 .data          0x00000000400126ac        0x0 /home/fsw/rep/tasa/lib/bcc-2.2.3-gcc/bin/../lib/gcc/sparc-gaisler-elf/10.2.0/../../../../sparc-gaisler-elf/lib/leon3/mfix-ut700/soft/flat/libc.a(lib_a-findfp.o)
 .data          0x00000000400126ac        0x0 /home/fsw/rep/tasa/lib/bcc-2.2.3-gcc/bin/../lib/gcc/sparc-gaisler-elf/10.2.0/../../../../sparc-gaisler-elf/lib/leon3/mfix-ut700/soft/flat/libc.a(lib_a-freer.o)
 .data          0x00000000400126ac        0x0 /home/fsw/rep/tasa/lib/bcc-2.2.3-gcc/bin/../lib/gcc/sparc-gaisler-elf/10.2.0/../../../../sparc-gaisler-elf/lib/leon3/mfix-ut700/soft/flat/libc.a(lib_a-fvwrite.o)
 .data          0x00000000400126ac        0x0 /home/fsw/rep/tasa/lib/bcc-2.2.3-gcc/bin/../lib/gcc/sparc-gaisler-elf/10.2.0/../../../../sparc-gaisler-elf/lib/leon3/mfix-ut700/soft/flat/libc.a(lib_a-fwalk.o)
 .data          0x00000000400126ac        0x0 /home/fsw/rep/tasa/lib/bcc-2.2.3-gcc/bin/../lib/gcc/sparc-gaisler-elf/10.2.0/../../../../sparc-gaisler-elf/lib/leon3/mfix-ut700/soft/flat/libc.a(lib_a-localeconv.o)
 .data          0x00000000400126ac        0x0 /home/fsw/rep/tasa/lib/bcc-2.2.3-gcc/bin/../lib/gcc/sparc-gaisler-elf/10.2.0/../../../../sparc-gaisler-elf/lib/leon3/mfix-ut700/soft/flat/libc.a(lib_a-makebuf.o)
 .data          0x00000000400126ac        0x0 /home/fsw/rep/tasa/lib/bcc-2.2.3-gcc/bin/../lib/gcc/sparc-gaisler-elf/10.2.0/../../../../sparc-gaisler-elf/lib/leon3/mfix-ut700/soft/flat/libc.a(lib_a-malloc.o)
 .data          0x00000000400126ac      0x410 /home/fsw/rep/tasa/lib/bcc-2.2.3-gcc/bin/../lib/gcc/sparc-gaisler-elf/10.2.0/../../../../sparc-gaisler-elf/lib/leon3/mfix-ut700/soft/flat/libc.a(lib_a-mallocr.o)
                0x00000000400126ac                __malloc_sbrk_base
                0x00000000400126b0                __malloc_trim_threshold
                0x00000000400126b4                __malloc_av_
 .data          0x0000000040012abc        0x0 /home/fsw/rep/tasa/lib/bcc-2.2.3-gcc/bin/../lib/gcc/sparc-gaisler-elf/10.2.0/../../../../sparc-gaisler-elf/lib/leon3/mfix-ut700/soft/flat/libc.a(lib_a-memchr.o)
 .data          0x0000000040012abc        0x0 /home/fsw/rep/tasa/lib/bcc-2.2.3-gcc/bin/../lib/gcc/sparc-gaisler-elf/10.2.0/../../../../sparc-gaisler-elf/lib/leon3/mfix-ut700/soft/flat/libc.a(lib_a-memmove.o)
 .data          0x0000000040012abc        0x0 /home/fsw/rep/tasa/lib/bcc-2.2.3-gcc/bin/../lib/gcc/sparc-gaisler-elf/10.2.0/../../../../sparc-gaisler-elf/lib/leon3/mfix-ut700/soft/flat/libc.a(lib_a-memset.o)
 .data          0x0000000040012abc        0x0 /home/fsw/rep/tasa/lib/bcc-2.2.3-gcc/bin/../lib/gcc/sparc-gaisler-elf/10.2.0/../../../../sparc-gaisler-elf/lib/leon3/mfix-ut700/soft/flat/libc.a(lib_a-mlock.o)
 .data          0x0000000040012abc        0x0 /home/fsw/rep/tasa/lib/bcc-2.2.3-gcc/bin/../lib/gcc/sparc-gaisler-elf/10.2.0/../../../../sparc-gaisler-elf/lib/leon3/mfix-ut700/soft/flat/libc.a(lib_a-mprec.o)
 .data          0x0000000040012abc        0x0 /home/fsw/rep/tasa/lib/bcc-2.2.3-gcc/bin/../lib/gcc/sparc-gaisler-elf/10.2.0/../../../../sparc-gaisler-elf/lib/leon3/mfix-ut700/soft/flat/libc.a(lib_a-putc.o)
 .data          0x0000000040012abc        0x0 /home/fsw/rep/tasa/lib/bcc-2.2.3-gcc/bin/../lib/gcc/sparc-gaisler-elf/10.2.0/../../../../sparc-gaisler-elf/lib/leon3/mfix-ut700/soft/flat/libc.a(lib_a-reallocr.o)
 .data          0x0000000040012abc        0x0 /home/fsw/rep/tasa/lib/bcc-2.2.3-gcc/bin/../lib/gcc/sparc-gaisler-elf/10.2.0/../../../../sparc-gaisler-elf/lib/leon3/mfix-ut700/soft/flat/libc.a(lib_a-s_frexp.o)
 .data          0x0000000040012abc        0x0 /home/fsw/rep/tasa/lib/bcc-2.2.3-gcc/bin/../lib/gcc/sparc-gaisler-elf/10.2.0/../../../../sparc-gaisler-elf/lib/leon3/mfix-ut700/soft/flat/libc.a(lib_a-sbrkr.o)
 .data          0x0000000040012abc        0x0 /home/fsw/rep/tasa/lib/bcc-2.2.3-gcc/bin/../lib/gcc/sparc-gaisler-elf/10.2.0/../../../../sparc-gaisler-elf/lib/leon3/mfix-ut700/soft/flat/libc.a(lib_a-stdio.o)
 .data          0x0000000040012abc        0x0 /home/fsw/rep/tasa/lib/bcc-2.2.3-gcc/bin/../lib/gcc/sparc-gaisler-elf/10.2.0/../../../../sparc-gaisler-elf/lib/leon3/mfix-ut700/soft/flat/libc.a(lib_a-strncpy.o)
 .data          0x0000000040012abc        0x0 /home/fsw/rep/tasa/lib/bcc-2.2.3-gcc/bin/../lib/gcc/sparc-gaisler-elf/10.2.0/../../../../sparc-gaisler-elf/lib/leon3/mfix-ut700/soft/flat/libc.a(lib_a-vfiprintf.o)
 .data          0x0000000040012abc        0x0 /home/fsw/rep/tasa/lib/bcc-2.2.3-gcc/bin/../lib/gcc/sparc-gaisler-elf/10.2.0/../../../../sparc-gaisler-elf/lib/leon3/mfix-ut700/soft/flat/libc.a(lib_a-wbuf.o)
 .data          0x0000000040012abc        0x0 /home/fsw/rep/tasa/lib/bcc-2.2.3-gcc/bin/../lib/gcc/sparc-gaisler-elf/10.2.0/../../../../sparc-gaisler-elf/lib/leon3/mfix-ut700/soft/flat/libc.a(lib_a-writer.o)
 .data          0x0000000040012abc        0x0 /home/fsw/rep/tasa/lib/bcc-2.2.3-gcc/bin/../lib/gcc/sparc-gaisler-elf/10.2.0/../../../../sparc-gaisler-elf/lib/leon3/mfix-ut700/soft/flat/libc.a(lib_a-callocr.o)
 .data          0x0000000040012abc        0x0 /home/fsw/rep/tasa/lib/bcc-2.2.3-gcc/bin/../lib/gcc/sparc-gaisler-elf/10.2.0/../../../../sparc-gaisler-elf/lib/leon3/mfix-ut700/soft/flat/libc.a(lib_a-closer.o)
 .data          0x0000000040012abc        0x0 /home/fsw/rep/tasa/lib/bcc-2.2.3-gcc/bin/../lib/gcc/sparc-gaisler-elf/10.2.0/../../../../sparc-gaisler-elf/lib/leon3/mfix-ut700/soft/flat/libc.a(lib_a-fclose.o)
 .data          0x0000000040012abc        0x0 /home/fsw/rep/tasa/lib/bcc-2.2.3-gcc/bin/../lib/gcc/sparc-gaisler-elf/10.2.0/../../../../sparc-gaisler-elf/lib/leon3/mfix-ut700/soft/flat/libc.a(lib_a-fputwc.o)
 .data          0x0000000040012abc        0x0 /home/fsw/rep/tasa/lib/bcc-2.2.3-gcc/bin/../lib/gcc/sparc-gaisler-elf/10.2.0/../../../../sparc-gaisler-elf/lib/leon3/mfix-ut700/soft/flat/libc.a(lib_a-fstatr.o)
 .data          0x0000000040012abc        0x0 /home/fsw/rep/tasa/lib/bcc-2.2.3-gcc/bin/../lib/gcc/sparc-gaisler-elf/10.2.0/../../../../sparc-gaisler-elf/lib/leon3/mfix-ut700/soft/flat/libc.a(lib_a-isattyr.o)
 .data          0x0000000040012abc      0x16c /home/fsw/rep/tasa/lib/bcc-2.2.3-gcc/bin/../lib/gcc/sparc-gaisler-elf/10.2.0/../../../../sparc-gaisler-elf/lib/leon3/mfix-ut700/soft/flat/libc.a(lib_a-locale.o)
                0x0000000040012abc                __global_locale
 .data          0x0000000040012c28        0x0 /home/fsw/rep/tasa/lib/bcc-2.2.3-gcc/bin/../lib/gcc/sparc-gaisler-elf/10.2.0/../../../../sparc-gaisler-elf/lib/leon3/mfix-ut700/soft/flat/libc.a(lib_a-lseekr.o)
 .data          0x0000000040012c28        0x0 /home/fsw/rep/tasa/lib/bcc-2.2.3-gcc/bin/../lib/gcc/sparc-gaisler-elf/10.2.0/../../../../sparc-gaisler-elf/lib/leon3/mfix-ut700/soft/flat/libc.a(lib_a-mbtowc_r.o)
 .data          0x0000000040012c28        0x0 /home/fsw/rep/tasa/lib/bcc-2.2.3-gcc/bin/../lib/gcc/sparc-gaisler-elf/10.2.0/../../../../sparc-gaisler-elf/lib/leon3/mfix-ut700/soft/flat/libc.a(lib_a-readr.o)
 .data          0x0000000040012c28        0x0 /home/fsw/rep/tasa/lib/bcc-2.2.3-gcc/bin/../lib/gcc/sparc-gaisler-elf/10.2.0/../../../../sparc-gaisler-elf/lib/leon3/mfix-ut700/soft/flat/libc.a(lib_a-reent.o)
 .data          0x0000000040012c28        0x0 /home/fsw/rep/tasa/lib/bcc-2.2.3-gcc/bin/../lib/gcc/sparc-gaisler-elf/10.2.0/../../../../sparc-gaisler-elf/lib/leon3/mfix-ut700/soft/flat/libc.a(lib_a-strcmp.o)
 .data          0x0000000040012c28        0x0 /home/fsw/rep/tasa/lib/bcc-2.2.3-gcc/bin/../lib/gcc/sparc-gaisler-elf/10.2.0/../../../../sparc-gaisler-elf/lib/leon3/mfix-ut700/soft/flat/libc.a(lib_a-wcrtomb.o)
 .data          0x0000000040012c28        0x0 /home/fsw/rep/tasa/lib/bcc-2.2.3-gcc/bin/../lib/gcc/sparc-gaisler-elf/10.2.0/../../../../sparc-gaisler-elf/lib/leon3/mfix-ut700/soft/flat/libc.a(lib_a-wctomb_r.o)
 .data          0x0000000040012c28        0x0 /home/fsw/rep/tasa/lib/bcc-2.2.3-gcc/bin/../lib/gcc/sparc-gaisler-elf/10.2.0/../../../../sparc-gaisler-elf/lib/leon3/mfix-ut700/soft/flat/libc.a(lib_a-ctype_.o)
 .data          0x0000000040012c28        0x0 /home/fsw/rep/tasa/lib/bcc-2.2.3-gcc/bin/../sparc-gaisler-elf/bsp/leon3/leon3/mfix-ut700/soft/flat/libbcc.a(_exit.S.o)
 .data          0x0000000040012c28        0x0 /home/fsw/rep/tasa/lib/bcc-2.2.3-gcc/bin/../sparc-gaisler-elf/bsp/leon3/leon3/mfix-ut700/soft/flat/libbcc.a(read.c.o)
 .data          0x0000000040012c28        0x0 /home/fsw/rep/tasa/lib/bcc-2.2.3-gcc/bin/../sparc-gaisler-elf/bsp/leon3/leon3/mfix-ut700/soft/flat/libbcc.a(sbrk.c.o)
 .data          0x0000000040012c28        0x0 /home/fsw/rep/tasa/lib/bcc-2.2.3-gcc/bin/../sparc-gaisler-elf/bsp/leon3/leon3/mfix-ut700/soft/flat/libbcc.a(heap.c.o)
 .data          0x0000000040012c28        0x0 /home/fsw/rep/tasa/lib/bcc-2.2.3-gcc/bin/../sparc-gaisler-elf/bsp/leon3/leon3/mfix-ut700/soft/flat/libbcc.a(write.c.o)
 .data          0x0000000040012c28        0x0 /home/fsw/rep/tasa/lib/bcc-2.2.3-gcc/bin/../sparc-gaisler-elf/bsp/leon3/leon3/mfix-ut700/soft/flat/libbcc.a(stubs.S.o)
 .data          0x0000000040012c28        0x0 /home/fsw/rep/tasa/lib/bcc-2.2.3-gcc/bin/../sparc-gaisler-elf/bsp/leon3/leon3/mfix-ut700/soft/flat/libbcc.a(con_apbuart.c.o)
 .data          0x0000000040012c28        0x0 /home/fsw/rep/tasa/lib/bcc-2.2.3-gcc/bin/../lib/gcc/sparc-gaisler-elf/10.2.0/leon3/mfix-ut700/soft/flat/libgcc.a(_udivdi3.o)
 .data          0x0000000040012c28        0x0 /home/fsw/rep/tasa/lib/bcc-2.2.3-gcc/bin/../lib/gcc/sparc-gaisler-elf/10.2.0/leon3/mfix-ut700/soft/flat/libgcc.a(_umoddi3.o)
 .data          0x0000000040012c28        0x0 /home/fsw/rep/tasa/lib/bcc-2.2.3-gcc/bin/../lib/gcc/sparc-gaisler-elf/10.2.0/leon3/mfix-ut700/soft/flat/libgcc.a(_addsub_df.o)
 .data          0x0000000040012c28        0x0 /home/fsw/rep/tasa/lib/bcc-2.2.3-gcc/bin/../lib/gcc/sparc-gaisler-elf/10.2.0/leon3/mfix-ut700/soft/flat/libgcc.a(_mul_df.o)
 .data          0x0000000040012c28        0x0 /home/fsw/rep/tasa/lib/bcc-2.2.3-gcc/bin/../lib/gcc/sparc-gaisler-elf/10.2.0/leon3/mfix-ut700/soft/flat/libgcc.a(_div_df.o)
 .data          0x0000000040012c28        0x0 /home/fsw/rep/tasa/lib/bcc-2.2.3-gcc/bin/../lib/gcc/sparc-gaisler-elf/10.2.0/leon3/mfix-ut700/soft/flat/libgcc.a(_eq_df.o)
 .data          0x0000000040012c28        0x0 /home/fsw/rep/tasa/lib/bcc-2.2.3-gcc/bin/../lib/gcc/sparc-gaisler-elf/10.2.0/leon3/mfix-ut700/soft/flat/libgcc.a(_ne_df.o)
 .data          0x0000000040012c28        0x0 /home/fsw/rep/tasa/lib/bcc-2.2.3-gcc/bin/../lib/gcc/sparc-gaisler-elf/10.2.0/leon3/mfix-ut700/soft/flat/libgcc.a(_gt_df.o)
 .data          0x0000000040012c28        0x0 /home/fsw/rep/tasa/lib/bcc-2.2.3-gcc/bin/../lib/gcc/sparc-gaisler-elf/10.2.0/leon3/mfix-ut700/soft/flat/libgcc.a(_lt_df.o)
 .data          0x0000000040012c28        0x0 /home/fsw/rep/tasa/lib/bcc-2.2.3-gcc/bin/../lib/gcc/sparc-gaisler-elf/10.2.0/leon3/mfix-ut700/soft/flat/libgcc.a(_le_df.o)
 .data          0x0000000040012c28        0x0 /home/fsw/rep/tasa/lib/bcc-2.2.3-gcc/bin/../lib/gcc/sparc-gaisler-elf/10.2.0/leon3/mfix-ut700/soft/flat/libgcc.a(_unord_df.o)
 .data          0x0000000040012c28        0x0 /home/fsw/rep/tasa/lib/bcc-2.2.3-gcc/bin/../lib/gcc/sparc-gaisler-elf/10.2.0/leon3/mfix-ut700/soft/flat/libgcc.a(_si_to_df.o)
 .data          0x0000000040012c28        0x0 /home/fsw/rep/tasa/lib/bcc-2.2.3-gcc/bin/../lib/gcc/sparc-gaisler-elf/10.2.0/leon3/mfix-ut700/soft/flat/libgcc.a(_df_to_si.o)
 .data          0x0000000040012c28        0x0 /home/fsw/rep/tasa/lib/bcc-2.2.3-gcc/bin/../lib/gcc/sparc-gaisler-elf/10.2.0/leon3/mfix-ut700/soft/flat/libgcc.a(_thenan_df.o)
 .data          0x0000000040012c28        0x0 /home/fsw/rep/tasa/lib/bcc-2.2.3-gcc/bin/../lib/gcc/sparc-gaisler-elf/10.2.0/leon3/mfix-ut700/soft/flat/libgcc.a(_usi_to_df.o)
 .data          0x0000000040012c28        0x0 /home/fsw/rep/tasa/lib/bcc-2.2.3-gcc/bin/../lib/gcc/sparc-gaisler-elf/10.2.0/leon3/mfix-ut700/soft/flat/libgcc.a(_clz.o)
 .data          0x0000000040012c28        0x0 /home/fsw/rep/tasa/lib/bcc-2.2.3-gcc/bin/../lib/gcc/sparc-gaisler-elf/10.2.0/leon3/mfix-ut700/soft/flat/libgcc.a(_clzsi2.o)
 .data          0x0000000040012c28        0x0 /home/fsw/rep/tasa/lib/bcc-2.2.3-gcc/bin/../lib/gcc/sparc-gaisler-elf/10.2.0/leon3/mfix-ut700/soft/flat/libgcc.a(_pack_df.o)
 .data          0x0000000040012c28        0x0 /home/fsw/rep/tasa/lib/bcc-2.2.3-gcc/bin/../lib/gcc/sparc-gaisler-elf/10.2.0/leon3/mfix-ut700/soft/flat/libgcc.a(_unpack_df.o)
 .data          0x0000000040012c28        0x0 /home/fsw/rep/tasa/lib/bcc-2.2.3-gcc/bin/../lib/gcc/sparc-gaisler-elf/10.2.0/leon3/mfix-ut700/soft/flat/libgcc.a(_fpcmp_parts_df.o)
 .data          0x0000000040012c28        0x0 /home/fsw/rep/tasa/lib/bcc-2.2.3-gcc/bin/../lib/gcc/sparc-gaisler-elf/10.2.0/leon3/mfix-ut700/soft/flat/crtend.o
 .data          0x0000000040012c28        0x0 /home/fsw/rep/tasa/lib/bcc-2.2.3-gcc/bin/../lib/gcc/sparc-gaisler-elf/10.2.0/leon3/mfix-ut700/soft/flat/crtn.o
                0x0000000040012c28                . = ALIGN (0x8)
                0x0000000040012c28                __data_end = .
                0x0000000040012620                __data_start_lma = LOADADDR (.data)
                0x0000000000000608                __data_size = SIZEOF (.data)

.iplt           0x0000000040012c28        0x0
 .iplt          0x0000000040012c28        0x0 /home/fsw/rep/tasa/lib/bcc-2.2.3-gcc/bin/../sparc-gaisler-elf/bsp/leon3/leon3/mfix-ut700/soft/flat/trap_table_mvt_tn0018.S.o

.tm_clone_table
                0x0000000040012c28        0x0
 .tm_clone_table
                0x0000000040012c28        0x0 /home/fsw/rep/tasa/lib/bcc-2.2.3-gcc/bin/../lib/gcc/sparc-gaisler-elf/10.2.0/leon3/mfix-ut700/soft/flat/crtbegin.o
 .tm_clone_table
                0x0000000040012c28        0x0 /home/fsw/rep/tasa/lib/bcc-2.2.3-gcc/bin/../lib/gcc/sparc-gaisler-elf/10.2.0/leon3/mfix-ut700/soft/flat/crtend.o

.bss            0x0000000040012c28      0x1a8
                0x0000000040012c28                . = ALIGN (0x8)
                0x0000000040012c28                __bss_start = .
 *(.bss .bss.*)
 .bss           0x0000000040012c28        0x0 /home/fsw/rep/tasa/lib/bcc-2.2.3-gcc/bin/../sparc-gaisler-elf/bsp/leon3/leon3/mfix-ut700/soft/flat/trap_table_mvt_tn0018.S.o
 .bss           0x0000000040012c28        0x4 /home/fsw/rep/tasa/lib/bcc-2.2.3-gcc/bin/../sparc-gaisler-elf/bsp/leon3/leon3/mfix-ut700/soft/flat/crt0.S.o
                0x0000000040012c28                __bcc_sp_at_entry
 .bss           0x0000000040012c2c        0x0 /home/fsw/rep/tasa/lib/bcc-2.2.3-gcc/bin/../lib/gcc/sparc-gaisler-elf/10.2.0/leon3/mfix-ut700/soft/flat/crti.o
 .bss           0x0000000040012c2c       0x20 /home/fsw/rep/tasa/lib/bcc-2.2.3-gcc/bin/../lib/gcc/sparc-gaisler-elf/10.2.0/leon3/mfix-ut700/soft/flat/crtbegin.o
 .bss           0x0000000040012c4c        0x0 /tmp/ccyYqly4.o
 .bss           0x0000000040012c4c        0x0 /home/fsw/rep/tasa/lib/bcc-2.2.3-gcc/bin/../sparc-gaisler-elf/bsp/leon3/leon3/mfix-ut700/soft/flat/libbcc.a(reset_trap_mvt.S.o)
 .bss           0x0000000040012c4c        0x0 /home/fsw/rep/tasa/lib/bcc-2.2.3-gcc/bin/../sparc-gaisler-elf/bsp/leon3/leon3/mfix-ut700/soft/flat/libbcc.a(sw_trap_set_pil.S.o)
 .bss           0x0000000040012c4c        0x0 /home/fsw/rep/tasa/lib/bcc-2.2.3-gcc/bin/../sparc-gaisler-elf/bsp/leon3/leon3/mfix-ut700/soft/flat/libbcc.a(init.S.o)
 .bss           0x0000000040012c4c        0x0 /home/fsw/rep/tasa/lib/bcc-2.2.3-gcc/bin/../sparc-gaisler-elf/bsp/leon3/leon3/mfix-ut700/soft/flat/libbcc.a(leon_info.S.o)
 .bss           0x0000000040012c4c        0x0 /home/fsw/rep/tasa/lib/bcc-2.2.3-gcc/bin/../sparc-gaisler-elf/bsp/leon3/leon3/mfix-ut700/soft/flat/libbcc.a(dwzero.S.o)
 .bss           0x0000000040012c4c        0x0 /home/fsw/rep/tasa/lib/bcc-2.2.3-gcc/bin/../sparc-gaisler-elf/bsp/leon3/leon3/mfix-ut700/soft/flat/libbcc.a(copy_data.c.o)
 .bss           0x0000000040012c4c        0x8 /home/fsw/rep/tasa/lib/bcc-2.2.3-gcc/bin/../sparc-gaisler-elf/bsp/leon3/leon3/mfix-ut700/soft/flat/libbcc.a(argv.c.o)
                0x0000000040012c50                __bcc_argc
 .bss           0x0000000040012c54        0x0 /home/fsw/rep/tasa/lib/bcc-2.2.3-gcc/bin/../sparc-gaisler-elf/bsp/leon3/leon3/mfix-ut700/soft/flat/libbcc.a(interrupt_trap_flat_tn0018.S.o)
 .bss           0x0000000040012c54        0x0 /home/fsw/rep/tasa/lib/bcc-2.2.3-gcc/bin/../sparc-gaisler-elf/bsp/leon3/leon3/mfix-ut700/soft/flat/libbcc.a(int_irqmp_get_source.c.o)
 .bss           0x0000000040012c54        0x0 /home/fsw/rep/tasa/lib/bcc-2.2.3-gcc/bin/../sparc-gaisler-elf/bsp/leon3/leon3/mfix-ut700/soft/flat/libbcc.a(int_irqmp_mp.c.o)
 .bss           0x0000000040012c54        0x0 /home/fsw/rep/tasa/lib/bcc-2.2.3-gcc/bin/../sparc-gaisler-elf/bsp/leon3/leon3/mfix-ut700/soft/flat/libbcc.a(int_irqmp_init.c.o)
 .bss           0x0000000040012c54        0x0 /home/fsw/rep/tasa/lib/bcc-2.2.3-gcc/bin/../sparc-gaisler-elf/bsp/leon3/leon3/mfix-ut700/soft/flat/libbcc.a(con_apbuart_init.c.o)
 .bss           0x0000000040012c54        0x0 /home/fsw/rep/tasa/lib/bcc-2.2.3-gcc/bin/../sparc-gaisler-elf/bsp/leon3/leon3/mfix-ut700/soft/flat/libbcc.a(timer_gptimer_init.c.o)
 .bss           0x0000000040012c54       0x80 /home/fsw/rep/tasa/lib/bcc-2.2.3-gcc/bin/../sparc-gaisler-elf/bsp/leon3/leon3/mfix-ut700/soft/flat/libbcc.a(isr.c.o)
                0x0000000040012c54                __bcc_isr_list
 .bss           0x0000000040012cd4        0x0 /home/fsw/rep/tasa/lib/bcc-2.2.3-gcc/bin/../sparc-gaisler-elf/bsp/leon3/leon3/mfix-ut700/soft/flat/libbcc.a(int_nest.c.o)
 .bss           0x0000000040012cd4        0x0 /home/fsw/rep/tasa/lib/bcc-2.2.3-gcc/bin/../sparc-gaisler-elf/bsp/leon3/leon3/mfix-ut700/soft/flat/libbcc.a(ambapp.c.o)
 .bss           0x0000000040012cd4        0x0 /home/fsw/rep/tasa/lib/bcc-2.2.3-gcc/bin/../sparc-gaisler-elf/bsp/leon3/leon3/mfix-ut700/soft/flat/libbcc.a(ambapp_findfirst_fn.c.o)
 .bss           0x0000000040012cd4       0x10 /home/fsw/rep/tasa/lib/bcc-2.2.3-gcc/bin/../sparc-gaisler-elf/bsp/leon3/leon3/mfix-ut700/soft/flat/libbcc.a(int_irqmp_handle.c.o)
                0x0000000040012cd4                __bcc_int_irqmp_nts
                0x0000000040012cd8                __bcc_int_irqmp_map
                0x0000000040012cdc                __bcc_int_irqmp_eirq
                0x0000000040012ce0                __bcc_int_handle
 .bss           0x0000000040012ce4        0x4 /home/fsw/rep/tasa/lib/bcc-2.2.3-gcc/bin/../sparc-gaisler-elf/bsp/leon3/leon3/mfix-ut700/soft/flat/libbcc.a(con_handle.c.o)
                0x0000000040012ce4                __bcc_con_handle
 .bss           0x0000000040012ce8        0x8 /home/fsw/rep/tasa/lib/bcc-2.2.3-gcc/bin/../sparc-gaisler-elf/bsp/leon3/leon3/mfix-ut700/soft/flat/libbcc.a(timer_handle.c.o)
                0x0000000040012ce8                __bcc_timer_interrupt
                0x0000000040012cec                __bcc_timer_handle
 .bss           0x0000000040012cf0        0x0 /home/fsw/rep/tasa/lib/bcc-2.2.3-gcc/bin/../lib/gcc/sparc-gaisler-elf/10.2.0/../../../../sparc-gaisler-elf/lib/leon3/mfix-ut700/soft/flat/libc.a(lib_a-atexit.o)
 .bss           0x0000000040012cf0        0x0 /home/fsw/rep/tasa/lib/bcc-2.2.3-gcc/bin/../lib/gcc/sparc-gaisler-elf/10.2.0/../../../../sparc-gaisler-elf/lib/leon3/mfix-ut700/soft/flat/libc.a(lib_a-exit.o)
 .bss           0x0000000040012cf0        0x0 /home/fsw/rep/tasa/lib/bcc-2.2.3-gcc/bin/../lib/gcc/sparc-gaisler-elf/10.2.0/../../../../sparc-gaisler-elf/lib/leon3/mfix-ut700/soft/flat/libc.a(lib_a-impure.o)
 .bss           0x0000000040012cf0        0x0 /home/fsw/rep/tasa/lib/bcc-2.2.3-gcc/bin/../lib/gcc/sparc-gaisler-elf/10.2.0/../../../../sparc-gaisler-elf/lib/leon3/mfix-ut700/soft/flat/libc.a(lib_a-memcpy.o)
 .bss           0x0000000040012cf0        0x0 /home/fsw/rep/tasa/lib/bcc-2.2.3-gcc/bin/../lib/gcc/sparc-gaisler-elf/10.2.0/../../../../sparc-gaisler-elf/lib/leon3/mfix-ut700/soft/flat/libc.a(lib_a-printf.o)
 .bss           0x0000000040012cf0        0x0 /home/fsw/rep/tasa/lib/bcc-2.2.3-gcc/bin/../lib/gcc/sparc-gaisler-elf/10.2.0/../../../../sparc-gaisler-elf/lib/leon3/mfix-ut700/soft/flat/libc.a(lib_a-putchar.o)
 .bss           0x0000000040012cf0        0x0 /home/fsw/rep/tasa/lib/bcc-2.2.3-gcc/bin/../lib/gcc/sparc-gaisler-elf/10.2.0/../../../../sparc-gaisler-elf/lib/leon3/mfix-ut700/soft/flat/libc.a(lib_a-puts.o)
 .bss           0x0000000040012cf0        0x0 /home/fsw/rep/tasa/lib/bcc-2.2.3-gcc/bin/../lib/gcc/sparc-gaisler-elf/10.2.0/../../../../sparc-gaisler-elf/lib/leon3/mfix-ut700/soft/flat/libc.a(lib_a-strlen.o)
 .bss           0x0000000040012cf0        0x0 /home/fsw/rep/tasa/lib/bcc-2.2.3-gcc/bin/../lib/gcc/sparc-gaisler-elf/10.2.0/../../../../sparc-gaisler-elf/lib/leon3/mfix-ut700/soft/flat/libc.a(lib_a-vfprintf.o)
 .bss           0x0000000040012cf0        0x0 /home/fsw/rep/tasa/lib/bcc-2.2.3-gcc/bin/../lib/gcc/sparc-gaisler-elf/10.2.0/../../../../sparc-gaisler-elf/lib/leon3/mfix-ut700/soft/flat/libc.a(lib_a-wsetup.o)
 .bss           0x0000000040012cf0       0x8c /home/fsw/rep/tasa/lib/bcc-2.2.3-gcc/bin/../lib/gcc/sparc-gaisler-elf/10.2.0/../../../../sparc-gaisler-elf/lib/leon3/mfix-ut700/soft/flat/libc.a(lib_a-__atexit.o)
 .bss           0x0000000040012d7c        0x4 /home/fsw/rep/tasa/lib/bcc-2.2.3-gcc/bin/../lib/gcc/sparc-gaisler-elf/10.2.0/../../../../sparc-gaisler-elf/lib/leon3/mfix-ut700/soft/flat/libc.a(lib_a-__call_atexit.o)
                0x0000000040012d7c                _global_atexit
 .bss           0x0000000040012d80        0x0 /home/fsw/rep/tasa/lib/bcc-2.2.3-gcc/bin/../lib/gcc/sparc-gaisler-elf/10.2.0/../../../../sparc-gaisler-elf/lib/leon3/mfix-ut700/soft/flat/libc.a(lib_a-dtoa.o)
 .bss           0x0000000040012d80        0x0 /home/fsw/rep/tasa/lib/bcc-2.2.3-gcc/bin/../lib/gcc/sparc-gaisler-elf/10.2.0/../../../../sparc-gaisler-elf/lib/leon3/mfix-ut700/soft/flat/libc.a(lib_a-fflush.o)
 .bss           0x0000000040012d80        0x0 /home/fsw/rep/tasa/lib/bcc-2.2.3-gcc/bin/../lib/gcc/sparc-gaisler-elf/10.2.0/../../../../sparc-gaisler-elf/lib/leon3/mfix-ut700/soft/flat/libc.a(lib_a-findfp.o)
 .bss           0x0000000040012d80        0x0 /home/fsw/rep/tasa/lib/bcc-2.2.3-gcc/bin/../lib/gcc/sparc-gaisler-elf/10.2.0/../../../../sparc-gaisler-elf/lib/leon3/mfix-ut700/soft/flat/libc.a(lib_a-freer.o)
 .bss           0x0000000040012d80        0x0 /home/fsw/rep/tasa/lib/bcc-2.2.3-gcc/bin/../lib/gcc/sparc-gaisler-elf/10.2.0/../../../../sparc-gaisler-elf/lib/leon3/mfix-ut700/soft/flat/libc.a(lib_a-fvwrite.o)
 .bss           0x0000000040012d80        0x0 /home/fsw/rep/tasa/lib/bcc-2.2.3-gcc/bin/../lib/gcc/sparc-gaisler-elf/10.2.0/../../../../sparc-gaisler-elf/lib/leon3/mfix-ut700/soft/flat/libc.a(lib_a-fwalk.o)
 .bss           0x0000000040012d80        0x0 /home/fsw/rep/tasa/lib/bcc-2.2.3-gcc/bin/../lib/gcc/sparc-gaisler-elf/10.2.0/../../../../sparc-gaisler-elf/lib/leon3/mfix-ut700/soft/flat/libc.a(lib_a-localeconv.o)
 .bss           0x0000000040012d80        0x0 /home/fsw/rep/tasa/lib/bcc-2.2.3-gcc/bin/../lib/gcc/sparc-gaisler-elf/10.2.0/../../../../sparc-gaisler-elf/lib/leon3/mfix-ut700/soft/flat/libc.a(lib_a-makebuf.o)
 .bss           0x0000000040012d80        0x0 /home/fsw/rep/tasa/lib/bcc-2.2.3-gcc/bin/../lib/gcc/sparc-gaisler-elf/10.2.0/../../../../sparc-gaisler-elf/lib/leon3/mfix-ut700/soft/flat/libc.a(lib_a-malloc.o)
 .bss           0x0000000040012d80       0x34 /home/fsw/rep/tasa/lib/bcc-2.2.3-gcc/bin/../lib/gcc/sparc-gaisler-elf/10.2.0/../../../../sparc-gaisler-elf/lib/leon3/mfix-ut700/soft/flat/libc.a(lib_a-mallocr.o)
                0x0000000040012d80                __malloc_current_mallinfo
                0x0000000040012da8                __malloc_max_total_mem
                0x0000000040012dac                __malloc_max_sbrked_mem
                0x0000000040012db0                __malloc_top_pad
 .bss           0x0000000040012db4        0x0 /home/fsw/rep/tasa/lib/bcc-2.2.3-gcc/bin/../lib/gcc/sparc-gaisler-elf/10.2.0/../../../../sparc-gaisler-elf/lib/leon3/mfix-ut700/soft/flat/libc.a(lib_a-memchr.o)
 .bss           0x0000000040012db4        0x0 /home/fsw/rep/tasa/lib/bcc-2.2.3-gcc/bin/../lib/gcc/sparc-gaisler-elf/10.2.0/../../../../sparc-gaisler-elf/lib/leon3/mfix-ut700/soft/flat/libc.a(lib_a-memmove.o)
 .bss           0x0000000040012db4        0x0 /home/fsw/rep/tasa/lib/bcc-2.2.3-gcc/bin/../lib/gcc/sparc-gaisler-elf/10.2.0/../../../../sparc-gaisler-elf/lib/leon3/mfix-ut700/soft/flat/libc.a(lib_a-memset.o)
 .bss           0x0000000040012db4        0x0 /home/fsw/rep/tasa/lib/bcc-2.2.3-gcc/bin/../lib/gcc/sparc-gaisler-elf/10.2.0/../../../../sparc-gaisler-elf/lib/leon3/mfix-ut700/soft/flat/libc.a(lib_a-mlock.o)
 .bss           0x0000000040012db4        0x0 /home/fsw/rep/tasa/lib/bcc-2.2.3-gcc/bin/../lib/gcc/sparc-gaisler-elf/10.2.0/../../../../sparc-gaisler-elf/lib/leon3/mfix-ut700/soft/flat/libc.a(lib_a-mprec.o)
 .bss           0x0000000040012db4        0x0 /home/fsw/rep/tasa/lib/bcc-2.2.3-gcc/bin/../lib/gcc/sparc-gaisler-elf/10.2.0/../../../../sparc-gaisler-elf/lib/leon3/mfix-ut700/soft/flat/libc.a(lib_a-putc.o)
 .bss           0x0000000040012db4        0x0 /home/fsw/rep/tasa/lib/bcc-2.2.3-gcc/bin/../lib/gcc/sparc-gaisler-elf/10.2.0/../../../../sparc-gaisler-elf/lib/leon3/mfix-ut700/soft/flat/libc.a(lib_a-reallocr.o)
 .bss           0x0000000040012db4        0x0 /home/fsw/rep/tasa/lib/bcc-2.2.3-gcc/bin/../lib/gcc/sparc-gaisler-elf/10.2.0/../../../../sparc-gaisler-elf/lib/leon3/mfix-ut700/soft/flat/libc.a(lib_a-s_frexp.o)
 .bss           0x0000000040012db4        0x0 /home/fsw/rep/tasa/lib/bcc-2.2.3-gcc/bin/../lib/gcc/sparc-gaisler-elf/10.2.0/../../../../sparc-gaisler-elf/lib/leon3/mfix-ut700/soft/flat/libc.a(lib_a-sbrkr.o)
 .bss           0x0000000040012db4        0x0 /home/fsw/rep/tasa/lib/bcc-2.2.3-gcc/bin/../lib/gcc/sparc-gaisler-elf/10.2.0/../../../../sparc-gaisler-elf/lib/leon3/mfix-ut700/soft/flat/libc.a(lib_a-stdio.o)
 .bss           0x0000000040012db4        0x0 /home/fsw/rep/tasa/lib/bcc-2.2.3-gcc/bin/../lib/gcc/sparc-gaisler-elf/10.2.0/../../../../sparc-gaisler-elf/lib/leon3/mfix-ut700/soft/flat/libc.a(lib_a-strncpy.o)
 .bss           0x0000000040012db4        0x0 /home/fsw/rep/tasa/lib/bcc-2.2.3-gcc/bin/../lib/gcc/sparc-gaisler-elf/10.2.0/../../../../sparc-gaisler-elf/lib/leon3/mfix-ut700/soft/flat/libc.a(lib_a-vfiprintf.o)
 .bss           0x0000000040012db4        0x0 /home/fsw/rep/tasa/lib/bcc-2.2.3-gcc/bin/../lib/gcc/sparc-gaisler-elf/10.2.0/../../../../sparc-gaisler-elf/lib/leon3/mfix-ut700/soft/flat/libc.a(lib_a-wbuf.o)
 .bss           0x0000000040012db4        0x0 /home/fsw/rep/tasa/lib/bcc-2.2.3-gcc/bin/../lib/gcc/sparc-gaisler-elf/10.2.0/../../../../sparc-gaisler-elf/lib/leon3/mfix-ut700/soft/flat/libc.a(lib_a-writer.o)
 .bss           0x0000000040012db4        0x0 /home/fsw/rep/tasa/lib/bcc-2.2.3-gcc/bin/../lib/gcc/sparc-gaisler-elf/10.2.0/../../../../sparc-gaisler-elf/lib/leon3/mfix-ut700/soft/flat/libc.a(lib_a-callocr.o)
 .bss           0x0000000040012db4        0x0 /home/fsw/rep/tasa/lib/bcc-2.2.3-gcc/bin/../lib/gcc/sparc-gaisler-elf/10.2.0/../../../../sparc-gaisler-elf/lib/leon3/mfix-ut700/soft/flat/libc.a(lib_a-closer.o)
 .bss           0x0000000040012db4        0x0 /home/fsw/rep/tasa/lib/bcc-2.2.3-gcc/bin/../lib/gcc/sparc-gaisler-elf/10.2.0/../../../../sparc-gaisler-elf/lib/leon3/mfix-ut700/soft/flat/libc.a(lib_a-fclose.o)
 .bss           0x0000000040012db4        0x0 /home/fsw/rep/tasa/lib/bcc-2.2.3-gcc/bin/../lib/gcc/sparc-gaisler-elf/10.2.0/../../../../sparc-gaisler-elf/lib/leon3/mfix-ut700/soft/flat/libc.a(lib_a-fputwc.o)
 .bss           0x0000000040012db4        0x0 /home/fsw/rep/tasa/lib/bcc-2.2.3-gcc/bin/../lib/gcc/sparc-gaisler-elf/10.2.0/../../../../sparc-gaisler-elf/lib/leon3/mfix-ut700/soft/flat/libc.a(lib_a-fstatr.o)
 .bss           0x0000000040012db4        0x0 /home/fsw/rep/tasa/lib/bcc-2.2.3-gcc/bin/../lib/gcc/sparc-gaisler-elf/10.2.0/../../../../sparc-gaisler-elf/lib/leon3/mfix-ut700/soft/flat/libc.a(lib_a-isattyr.o)
 .bss           0x0000000040012db4        0x4 /home/fsw/rep/tasa/lib/bcc-2.2.3-gcc/bin/../lib/gcc/sparc-gaisler-elf/10.2.0/../../../../sparc-gaisler-elf/lib/leon3/mfix-ut700/soft/flat/libc.a(lib_a-locale.o)
                0x0000000040012db4                _PathLocale
 .bss           0x0000000040012db8        0x0 /home/fsw/rep/tasa/lib/bcc-2.2.3-gcc/bin/../lib/gcc/sparc-gaisler-elf/10.2.0/../../../../sparc-gaisler-elf/lib/leon3/mfix-ut700/soft/flat/libc.a(lib_a-lseekr.o)
 .bss           0x0000000040012db8        0x0 /home/fsw/rep/tasa/lib/bcc-2.2.3-gcc/bin/../lib/gcc/sparc-gaisler-elf/10.2.0/../../../../sparc-gaisler-elf/lib/leon3/mfix-ut700/soft/flat/libc.a(lib_a-mbtowc_r.o)
 .bss           0x0000000040012db8        0x0 /home/fsw/rep/tasa/lib/bcc-2.2.3-gcc/bin/../lib/gcc/sparc-gaisler-elf/10.2.0/../../../../sparc-gaisler-elf/lib/leon3/mfix-ut700/soft/flat/libc.a(lib_a-readr.o)
 .bss           0x0000000040012db8        0x4 /home/fsw/rep/tasa/lib/bcc-2.2.3-gcc/bin/../lib/gcc/sparc-gaisler-elf/10.2.0/../../../../sparc-gaisler-elf/lib/leon3/mfix-ut700/soft/flat/libc.a(lib_a-reent.o)
                0x0000000040012db8                errno
 .bss           0x0000000040012dbc        0x0 /home/fsw/rep/tasa/lib/bcc-2.2.3-gcc/bin/../lib/gcc/sparc-gaisler-elf/10.2.0/../../../../sparc-gaisler-elf/lib/leon3/mfix-ut700/soft/flat/libc.a(lib_a-strcmp.o)
 .bss           0x0000000040012dbc        0x0 /home/fsw/rep/tasa/lib/bcc-2.2.3-gcc/bin/../lib/gcc/sparc-gaisler-elf/10.2.0/../../../../sparc-gaisler-elf/lib/leon3/mfix-ut700/soft/flat/libc.a(lib_a-wcrtomb.o)
 .bss           0x0000000040012dbc        0x0 /home/fsw/rep/tasa/lib/bcc-2.2.3-gcc/bin/../lib/gcc/sparc-gaisler-elf/10.2.0/../../../../sparc-gaisler-elf/lib/leon3/mfix-ut700/soft/flat/libc.a(lib_a-wctomb_r.o)
 .bss           0x0000000040012dbc        0x0 /home/fsw/rep/tasa/lib/bcc-2.2.3-gcc/bin/../lib/gcc/sparc-gaisler-elf/10.2.0/../../../../sparc-gaisler-elf/lib/leon3/mfix-ut700/soft/flat/libc.a(lib_a-ctype_.o)
 .bss           0x0000000040012dbc        0x0 /home/fsw/rep/tasa/lib/bcc-2.2.3-gcc/bin/../sparc-gaisler-elf/bsp/leon3/leon3/mfix-ut700/soft/flat/libbcc.a(_exit.S.o)
 .bss           0x0000000040012dbc        0x0 /home/fsw/rep/tasa/lib/bcc-2.2.3-gcc/bin/../sparc-gaisler-elf/bsp/leon3/leon3/mfix-ut700/soft/flat/libbcc.a(read.c.o)
 .bss           0x0000000040012dbc        0x4 /home/fsw/rep/tasa/lib/bcc-2.2.3-gcc/bin/../sparc-gaisler-elf/bsp/leon3/leon3/mfix-ut700/soft/flat/libbcc.a(sbrk.c.o)
 .bss           0x0000000040012dc0        0x8 /home/fsw/rep/tasa/lib/bcc-2.2.3-gcc/bin/../sparc-gaisler-elf/bsp/leon3/leon3/mfix-ut700/soft/flat/libbcc.a(heap.c.o)
                0x0000000040012dc0                __bcc_heap_max
                0x0000000040012dc4                __bcc_heap_min
 .bss           0x0000000040012dc8        0x0 /home/fsw/rep/tasa/lib/bcc-2.2.3-gcc/bin/../sparc-gaisler-elf/bsp/leon3/leon3/mfix-ut700/soft/flat/libbcc.a(write.c.o)
 .bss           0x0000000040012dc8        0x0 /home/fsw/rep/tasa/lib/bcc-2.2.3-gcc/bin/../sparc-gaisler-elf/bsp/leon3/leon3/mfix-ut700/soft/flat/libbcc.a(stubs.S.o)
 .bss           0x0000000040012dc8        0x4 /home/fsw/rep/tasa/lib/bcc-2.2.3-gcc/bin/../sparc-gaisler-elf/bsp/leon3/leon3/mfix-ut700/soft/flat/libbcc.a(con_apbuart.c.o)
 .bss           0x0000000040012dcc        0x0 /home/fsw/rep/tasa/lib/bcc-2.2.3-gcc/bin/../lib/gcc/sparc-gaisler-elf/10.2.0/leon3/mfix-ut700/soft/flat/libgcc.a(_udivdi3.o)
 .bss           0x0000000040012dcc        0x0 /home/fsw/rep/tasa/lib/bcc-2.2.3-gcc/bin/../lib/gcc/sparc-gaisler-elf/10.2.0/leon3/mfix-ut700/soft/flat/libgcc.a(_umoddi3.o)
 .bss           0x0000000040012dcc        0x0 /home/fsw/rep/tasa/lib/bcc-2.2.3-gcc/bin/../lib/gcc/sparc-gaisler-elf/10.2.0/leon3/mfix-ut700/soft/flat/libgcc.a(_addsub_df.o)
 .bss           0x0000000040012dcc        0x0 /home/fsw/rep/tasa/lib/bcc-2.2.3-gcc/bin/../lib/gcc/sparc-gaisler-elf/10.2.0/leon3/mfix-ut700/soft/flat/libgcc.a(_mul_df.o)
 .bss           0x0000000040012dcc        0x0 /home/fsw/rep/tasa/lib/bcc-2.2.3-gcc/bin/../lib/gcc/sparc-gaisler-elf/10.2.0/leon3/mfix-ut700/soft/flat/libgcc.a(_div_df.o)
 .bss           0x0000000040012dcc        0x0 /home/fsw/rep/tasa/lib/bcc-2.2.3-gcc/bin/../lib/gcc/sparc-gaisler-elf/10.2.0/leon3/mfix-ut700/soft/flat/libgcc.a(_eq_df.o)
 .bss           0x0000000040012dcc        0x0 /home/fsw/rep/tasa/lib/bcc-2.2.3-gcc/bin/../lib/gcc/sparc-gaisler-elf/10.2.0/leon3/mfix-ut700/soft/flat/libgcc.a(_ne_df.o)
 .bss           0x0000000040012dcc        0x0 /home/fsw/rep/tasa/lib/bcc-2.2.3-gcc/bin/../lib/gcc/sparc-gaisler-elf/10.2.0/leon3/mfix-ut700/soft/flat/libgcc.a(_gt_df.o)
 .bss           0x0000000040012dcc        0x0 /home/fsw/rep/tasa/lib/bcc-2.2.3-gcc/bin/../lib/gcc/sparc-gaisler-elf/10.2.0/leon3/mfix-ut700/soft/flat/libgcc.a(_lt_df.o)
 .bss           0x0000000040012dcc        0x0 /home/fsw/rep/tasa/lib/bcc-2.2.3-gcc/bin/../lib/gcc/sparc-gaisler-elf/10.2.0/leon3/mfix-ut700/soft/flat/libgcc.a(_le_df.o)
 .bss           0x0000000040012dcc        0x0 /home/fsw/rep/tasa/lib/bcc-2.2.3-gcc/bin/../lib/gcc/sparc-gaisler-elf/10.2.0/leon3/mfix-ut700/soft/flat/libgcc.a(_unord_df.o)
 .bss           0x0000000040012dcc        0x0 /home/fsw/rep/tasa/lib/bcc-2.2.3-gcc/bin/../lib/gcc/sparc-gaisler-elf/10.2.0/leon3/mfix-ut700/soft/flat/libgcc.a(_si_to_df.o)
 .bss           0x0000000040012dcc        0x0 /home/fsw/rep/tasa/lib/bcc-2.2.3-gcc/bin/../lib/gcc/sparc-gaisler-elf/10.2.0/leon3/mfix-ut700/soft/flat/libgcc.a(_df_to_si.o)
 .bss           0x0000000040012dcc        0x0 /home/fsw/rep/tasa/lib/bcc-2.2.3-gcc/bin/../lib/gcc/sparc-gaisler-elf/10.2.0/leon3/mfix-ut700/soft/flat/libgcc.a(_thenan_df.o)
 .bss           0x0000000040012dcc        0x0 /home/fsw/rep/tasa/lib/bcc-2.2.3-gcc/bin/../lib/gcc/sparc-gaisler-elf/10.2.0/leon3/mfix-ut700/soft/flat/libgcc.a(_usi_to_df.o)
 .bss           0x0000000040012dcc        0x0 /home/fsw/rep/tasa/lib/bcc-2.2.3-gcc/bin/../lib/gcc/sparc-gaisler-elf/10.2.0/leon3/mfix-ut700/soft/flat/libgcc.a(_clz.o)
 .bss           0x0000000040012dcc        0x0 /home/fsw/rep/tasa/lib/bcc-2.2.3-gcc/bin/../lib/gcc/sparc-gaisler-elf/10.2.0/leon3/mfix-ut700/soft/flat/libgcc.a(_clzsi2.o)
 .bss           0x0000000040012dcc        0x0 /home/fsw/rep/tasa/lib/bcc-2.2.3-gcc/bin/../lib/gcc/sparc-gaisler-elf/10.2.0/leon3/mfix-ut700/soft/flat/libgcc.a(_pack_df.o)
 .bss           0x0000000040012dcc        0x0 /home/fsw/rep/tasa/lib/bcc-2.2.3-gcc/bin/../lib/gcc/sparc-gaisler-elf/10.2.0/leon3/mfix-ut700/soft/flat/libgcc.a(_unpack_df.o)
 .bss           0x0000000040012dcc        0x0 /home/fsw/rep/tasa/lib/bcc-2.2.3-gcc/bin/../lib/gcc/sparc-gaisler-elf/10.2.0/leon3/mfix-ut700/soft/flat/libgcc.a(_fpcmp_parts_df.o)
 .bss           0x0000000040012dcc        0x0 /home/fsw/rep/tasa/lib/bcc-2.2.3-gcc/bin/../lib/gcc/sparc-gaisler-elf/10.2.0/leon3/mfix-ut700/soft/flat/crtend.o
 .bss           0x0000000040012dcc        0x0 /home/fsw/rep/tasa/lib/bcc-2.2.3-gcc/bin/../lib/gcc/sparc-gaisler-elf/10.2.0/leon3/mfix-ut700/soft/flat/crtn.o
 *(COMMON)
                0x0000000040012dd0                . = ALIGN (0x8)
 *fill*         0x0000000040012dcc        0x4 
                0x0000000040012dd0                __bss_end = .
                0x0000000040012dd0                __heap_min = .
                0x0000000040012dd0                . = ALIGN (0x8)

.jcr
 *(.jcr)

.stab
 *(.stab)

.stabstr
 *(.stabstr)

.debug
 *(.debug)

.line
 *(.line)

.debug_srcinfo
 *(.debug_srcinfo)

.debug_sfnames
 *(.debug_sfnames)

.debug_aranges  0x0000000000000000      0xc48
 *(.debug_aranges)
 .debug_aranges
                0x0000000000000000       0x20 /home/fsw/rep/tasa/lib/bcc-2.2.3-gcc/bin/../sparc-gaisler-elf/bsp/leon3/leon3/mfix-ut700/soft/flat/trap_table_mvt_tn0018.S.o
 .debug_aranges
                0x0000000000000020       0x20 /home/fsw/rep/tasa/lib/bcc-2.2.3-gcc/bin/../sparc-gaisler-elf/bsp/leon3/leon3/mfix-ut700/soft/flat/crt0.S.o
 .debug_aranges
                0x0000000000000040       0x20 /tmp/ccyYqly4.o
 .debug_aranges
                0x0000000000000060       0x20 /home/fsw/rep/tasa/lib/bcc-2.2.3-gcc/bin/../sparc-gaisler-elf/bsp/leon3/leon3/mfix-ut700/soft/flat/libbcc.a(reset_trap_mvt.S.o)
 .debug_aranges
                0x0000000000000080       0x20 /home/fsw/rep/tasa/lib/bcc-2.2.3-gcc/bin/../sparc-gaisler-elf/bsp/leon3/leon3/mfix-ut700/soft/flat/libbcc.a(sw_trap_set_pil.S.o)
 .debug_aranges
                0x00000000000000a0       0x20 /home/fsw/rep/tasa/lib/bcc-2.2.3-gcc/bin/../sparc-gaisler-elf/bsp/leon3/leon3/mfix-ut700/soft/flat/libbcc.a(init.S.o)
 .debug_aranges
                0x00000000000000c0       0x20 /home/fsw/rep/tasa/lib/bcc-2.2.3-gcc/bin/../sparc-gaisler-elf/bsp/leon3/leon3/mfix-ut700/soft/flat/libbcc.a(leon_info.S.o)
 .debug_aranges
                0x00000000000000e0       0x20 /home/fsw/rep/tasa/lib/bcc-2.2.3-gcc/bin/../sparc-gaisler-elf/bsp/leon3/leon3/mfix-ut700/soft/flat/libbcc.a(dwzero.S.o)
 .debug_aranges
                0x0000000000000100       0x20 /home/fsw/rep/tasa/lib/bcc-2.2.3-gcc/bin/../sparc-gaisler-elf/bsp/leon3/leon3/mfix-ut700/soft/flat/libbcc.a(copy_data.c.o)
 .debug_aranges
                0x0000000000000120       0x18 /home/fsw/rep/tasa/lib/bcc-2.2.3-gcc/bin/../sparc-gaisler-elf/bsp/leon3/leon3/mfix-ut700/soft/flat/libbcc.a(argv.c.o)
 .debug_aranges
                0x0000000000000138       0x20 /home/fsw/rep/tasa/lib/bcc-2.2.3-gcc/bin/../sparc-gaisler-elf/bsp/leon3/leon3/mfix-ut700/soft/flat/libbcc.a(interrupt_trap_flat_tn0018.S.o)
 .debug_aranges
                0x0000000000000158       0x20 /home/fsw/rep/tasa/lib/bcc-2.2.3-gcc/bin/../sparc-gaisler-elf/bsp/leon3/leon3/mfix-ut700/soft/flat/libbcc.a(int_irqmp_get_source.c.o)
 .debug_aranges
                0x0000000000000178       0x20 /home/fsw/rep/tasa/lib/bcc-2.2.3-gcc/bin/../sparc-gaisler-elf/bsp/leon3/leon3/mfix-ut700/soft/flat/libbcc.a(int_irqmp_mp.c.o)
 .debug_aranges
                0x0000000000000198       0x20 /home/fsw/rep/tasa/lib/bcc-2.2.3-gcc/bin/../sparc-gaisler-elf/bsp/leon3/leon3/mfix-ut700/soft/flat/libbcc.a(int_irqmp_init.c.o)
 .debug_aranges
                0x00000000000001b8       0x20 /home/fsw/rep/tasa/lib/bcc-2.2.3-gcc/bin/../sparc-gaisler-elf/bsp/leon3/leon3/mfix-ut700/soft/flat/libbcc.a(con_apbuart_init.c.o)
 .debug_aranges
                0x00000000000001d8       0x20 /home/fsw/rep/tasa/lib/bcc-2.2.3-gcc/bin/../sparc-gaisler-elf/bsp/leon3/leon3/mfix-ut700/soft/flat/libbcc.a(timer_gptimer_init.c.o)
 .debug_aranges
                0x00000000000001f8       0x18 /home/fsw/rep/tasa/lib/bcc-2.2.3-gcc/bin/../sparc-gaisler-elf/bsp/leon3/leon3/mfix-ut700/soft/flat/libbcc.a(isr.c.o)
 .debug_aranges
                0x0000000000000210       0x18 /home/fsw/rep/tasa/lib/bcc-2.2.3-gcc/bin/../sparc-gaisler-elf/bsp/leon3/leon3/mfix-ut700/soft/flat/libbcc.a(int_nest.c.o)
 .debug_aranges
                0x0000000000000228       0x20 /home/fsw/rep/tasa/lib/bcc-2.2.3-gcc/bin/../sparc-gaisler-elf/bsp/leon3/leon3/mfix-ut700/soft/flat/libbcc.a(ambapp.c.o)
 .debug_aranges
                0x0000000000000248       0x20 /home/fsw/rep/tasa/lib/bcc-2.2.3-gcc/bin/../sparc-gaisler-elf/bsp/leon3/leon3/mfix-ut700/soft/flat/libbcc.a(ambapp_findfirst_fn.c.o)
 .debug_aranges
                0x0000000000000268       0x18 /home/fsw/rep/tasa/lib/bcc-2.2.3-gcc/bin/../sparc-gaisler-elf/bsp/leon3/leon3/mfix-ut700/soft/flat/libbcc.a(int_irqmp_handle.c.o)
 .debug_aranges
                0x0000000000000280       0x18 /home/fsw/rep/tasa/lib/bcc-2.2.3-gcc/bin/../sparc-gaisler-elf/bsp/leon3/leon3/mfix-ut700/soft/flat/libbcc.a(con_handle.c.o)
 .debug_aranges
                0x0000000000000298       0x18 /home/fsw/rep/tasa/lib/bcc-2.2.3-gcc/bin/../sparc-gaisler-elf/bsp/leon3/leon3/mfix-ut700/soft/flat/libbcc.a(timer_handle.c.o)
 .debug_aranges
                0x00000000000002b0       0x20 /home/fsw/rep/tasa/lib/bcc-2.2.3-gcc/bin/../lib/gcc/sparc-gaisler-elf/10.2.0/../../../../sparc-gaisler-elf/lib/leon3/mfix-ut700/soft/flat/libc.a(lib_a-atexit.o)
 .debug_aranges
                0x00000000000002d0       0x20 /home/fsw/rep/tasa/lib/bcc-2.2.3-gcc/bin/../lib/gcc/sparc-gaisler-elf/10.2.0/../../../../sparc-gaisler-elf/lib/leon3/mfix-ut700/soft/flat/libc.a(lib_a-exit.o)
 .debug_aranges
                0x00000000000002f0       0x18 /home/fsw/rep/tasa/lib/bcc-2.2.3-gcc/bin/../lib/gcc/sparc-gaisler-elf/10.2.0/../../../../sparc-gaisler-elf/lib/leon3/mfix-ut700/soft/flat/libc.a(lib_a-impure.o)
 .debug_aranges
                0x0000000000000308       0x20 /home/fsw/rep/tasa/lib/bcc-2.2.3-gcc/bin/../lib/gcc/sparc-gaisler-elf/10.2.0/../../../../sparc-gaisler-elf/lib/leon3/mfix-ut700/soft/flat/libc.a(lib_a-memcpy.o)
 .debug_aranges
                0x0000000000000328       0x20 /home/fsw/rep/tasa/lib/bcc-2.2.3-gcc/bin/../lib/gcc/sparc-gaisler-elf/10.2.0/../../../../sparc-gaisler-elf/lib/leon3/mfix-ut700/soft/flat/libc.a(lib_a-printf.o)
 .debug_aranges
                0x0000000000000348       0x20 /home/fsw/rep/tasa/lib/bcc-2.2.3-gcc/bin/../lib/gcc/sparc-gaisler-elf/10.2.0/../../../../sparc-gaisler-elf/lib/leon3/mfix-ut700/soft/flat/libc.a(lib_a-putchar.o)
 .debug_aranges
                0x0000000000000368       0x20 /home/fsw/rep/tasa/lib/bcc-2.2.3-gcc/bin/../lib/gcc/sparc-gaisler-elf/10.2.0/../../../../sparc-gaisler-elf/lib/leon3/mfix-ut700/soft/flat/libc.a(lib_a-puts.o)
 .debug_aranges
                0x0000000000000388       0x20 /home/fsw/rep/tasa/lib/bcc-2.2.3-gcc/bin/../lib/gcc/sparc-gaisler-elf/10.2.0/../../../../sparc-gaisler-elf/lib/leon3/mfix-ut700/soft/flat/libc.a(lib_a-strlen.o)
 .debug_aranges
                0x00000000000003a8       0x20 /home/fsw/rep/tasa/lib/bcc-2.2.3-gcc/bin/../lib/gcc/sparc-gaisler-elf/10.2.0/../../../../sparc-gaisler-elf/lib/leon3/mfix-ut700/soft/flat/libc.a(lib_a-vfprintf.o)
 .debug_aranges
                0x00000000000003c8       0x20 /home/fsw/rep/tasa/lib/bcc-2.2.3-gcc/bin/../lib/gcc/sparc-gaisler-elf/10.2.0/../../../../sparc-gaisler-elf/lib/leon3/mfix-ut700/soft/flat/libc.a(lib_a-wsetup.o)
 .debug_aranges
                0x00000000000003e8       0x20 /home/fsw/rep/tasa/lib/bcc-2.2.3-gcc/bin/../lib/gcc/sparc-gaisler-elf/10.2.0/../../../../sparc-gaisler-elf/lib/leon3/mfix-ut700/soft/flat/libc.a(lib_a-__atexit.o)
 .debug_aranges
                0x0000000000000408       0x20 /home/fsw/rep/tasa/lib/bcc-2.2.3-gcc/bin/../lib/gcc/sparc-gaisler-elf/10.2.0/../../../../sparc-gaisler-elf/lib/leon3/mfix-ut700/soft/flat/libc.a(lib_a-__call_atexit.o)
 .debug_aranges
                0x0000000000000428       0x20 /home/fsw/rep/tasa/lib/bcc-2.2.3-gcc/bin/../lib/gcc/sparc-gaisler-elf/10.2.0/../../../../sparc-gaisler-elf/lib/leon3/mfix-ut700/soft/flat/libc.a(lib_a-dtoa.o)
 .debug_aranges
                0x0000000000000448       0x20 /home/fsw/rep/tasa/lib/bcc-2.2.3-gcc/bin/../lib/gcc/sparc-gaisler-elf/10.2.0/../../../../sparc-gaisler-elf/lib/leon3/mfix-ut700/soft/flat/libc.a(lib_a-fflush.o)
 .debug_aranges
                0x0000000000000468       0x20 /home/fsw/rep/tasa/lib/bcc-2.2.3-gcc/bin/../lib/gcc/sparc-gaisler-elf/10.2.0/../../../../sparc-gaisler-elf/lib/leon3/mfix-ut700/soft/flat/libc.a(lib_a-findfp.o)
 .debug_aranges
                0x0000000000000488       0x20 /home/fsw/rep/tasa/lib/bcc-2.2.3-gcc/bin/../lib/gcc/sparc-gaisler-elf/10.2.0/../../../../sparc-gaisler-elf/lib/leon3/mfix-ut700/soft/flat/libc.a(lib_a-freer.o)
 .debug_aranges
                0x00000000000004a8       0x20 /home/fsw/rep/tasa/lib/bcc-2.2.3-gcc/bin/../lib/gcc/sparc-gaisler-elf/10.2.0/../../../../sparc-gaisler-elf/lib/leon3/mfix-ut700/soft/flat/libc.a(lib_a-fvwrite.o)
 .debug_aranges
                0x00000000000004c8       0x20 /home/fsw/rep/tasa/lib/bcc-2.2.3-gcc/bin/../lib/gcc/sparc-gaisler-elf/10.2.0/../../../../sparc-gaisler-elf/lib/leon3/mfix-ut700/soft/flat/libc.a(lib_a-fwalk.o)
 .debug_aranges
                0x00000000000004e8       0x20 /home/fsw/rep/tasa/lib/bcc-2.2.3-gcc/bin/../lib/gcc/sparc-gaisler-elf/10.2.0/../../../../sparc-gaisler-elf/lib/leon3/mfix-ut700/soft/flat/libc.a(lib_a-localeconv.o)
 .debug_aranges
                0x0000000000000508       0x20 /home/fsw/rep/tasa/lib/bcc-2.2.3-gcc/bin/../lib/gcc/sparc-gaisler-elf/10.2.0/../../../../sparc-gaisler-elf/lib/leon3/mfix-ut700/soft/flat/libc.a(lib_a-makebuf.o)
 .debug_aranges
                0x0000000000000528       0x20 /home/fsw/rep/tasa/lib/bcc-2.2.3-gcc/bin/../lib/gcc/sparc-gaisler-elf/10.2.0/../../../../sparc-gaisler-elf/lib/leon3/mfix-ut700/soft/flat/libc.a(lib_a-malloc.o)
 .debug_aranges
                0x0000000000000548       0x20 /home/fsw/rep/tasa/lib/bcc-2.2.3-gcc/bin/../lib/gcc/sparc-gaisler-elf/10.2.0/../../../../sparc-gaisler-elf/lib/leon3/mfix-ut700/soft/flat/libc.a(lib_a-mallocr.o)
 .debug_aranges
                0x0000000000000568       0x20 /home/fsw/rep/tasa/lib/bcc-2.2.3-gcc/bin/../lib/gcc/sparc-gaisler-elf/10.2.0/../../../../sparc-gaisler-elf/lib/leon3/mfix-ut700/soft/flat/libc.a(lib_a-memchr.o)
 .debug_aranges
                0x0000000000000588       0x20 /home/fsw/rep/tasa/lib/bcc-2.2.3-gcc/bin/../lib/gcc/sparc-gaisler-elf/10.2.0/../../../../sparc-gaisler-elf/lib/leon3/mfix-ut700/soft/flat/libc.a(lib_a-memmove.o)
 .debug_aranges
                0x00000000000005a8       0x20 /home/fsw/rep/tasa/lib/bcc-2.2.3-gcc/bin/../lib/gcc/sparc-gaisler-elf/10.2.0/../../../../sparc-gaisler-elf/lib/leon3/mfix-ut700/soft/flat/libc.a(lib_a-memset.o)
 .debug_aranges
                0x00000000000005c8       0x20 /home/fsw/rep/tasa/lib/bcc-2.2.3-gcc/bin/../lib/gcc/sparc-gaisler-elf/10.2.0/../../../../sparc-gaisler-elf/lib/leon3/mfix-ut700/soft/flat/libc.a(lib_a-mlock.o)
 .debug_aranges
                0x00000000000005e8       0x20 /home/fsw/rep/tasa/lib/bcc-2.2.3-gcc/bin/../lib/gcc/sparc-gaisler-elf/10.2.0/../../../../sparc-gaisler-elf/lib/leon3/mfix-ut700/soft/flat/libc.a(lib_a-mprec.o)
 .debug_aranges
                0x0000000000000608       0x20 /home/fsw/rep/tasa/lib/bcc-2.2.3-gcc/bin/../lib/gcc/sparc-gaisler-elf/10.2.0/../../../../sparc-gaisler-elf/lib/leon3/mfix-ut700/soft/flat/libc.a(lib_a-putc.o)
 .debug_aranges
                0x0000000000000628       0x20 /home/fsw/rep/tasa/lib/bcc-2.2.3-gcc/bin/../lib/gcc/sparc-gaisler-elf/10.2.0/../../../../sparc-gaisler-elf/lib/leon3/mfix-ut700/soft/flat/libc.a(lib_a-reallocr.o)
 .debug_aranges
                0x0000000000000648       0x20 /home/fsw/rep/tasa/lib/bcc-2.2.3-gcc/bin/../lib/gcc/sparc-gaisler-elf/10.2.0/../../../../sparc-gaisler-elf/lib/leon3/mfix-ut700/soft/flat/libc.a(lib_a-s_frexp.o)
 .debug_aranges
                0x0000000000000668       0x20 /home/fsw/rep/tasa/lib/bcc-2.2.3-gcc/bin/../lib/gcc/sparc-gaisler-elf/10.2.0/../../../../sparc-gaisler-elf/lib/leon3/mfix-ut700/soft/flat/libc.a(lib_a-sbrkr.o)
 .debug_aranges
                0x0000000000000688       0x20 /home/fsw/rep/tasa/lib/bcc-2.2.3-gcc/bin/../lib/gcc/sparc-gaisler-elf/10.2.0/../../../../sparc-gaisler-elf/lib/leon3/mfix-ut700/soft/flat/libc.a(lib_a-stdio.o)
 .debug_aranges
                0x00000000000006a8       0x20 /home/fsw/rep/tasa/lib/bcc-2.2.3-gcc/bin/../lib/gcc/sparc-gaisler-elf/10.2.0/../../../../sparc-gaisler-elf/lib/leon3/mfix-ut700/soft/flat/libc.a(lib_a-strncpy.o)
 .debug_aranges
                0x00000000000006c8       0x20 /home/fsw/rep/tasa/lib/bcc-2.2.3-gcc/bin/../lib/gcc/sparc-gaisler-elf/10.2.0/../../../../sparc-gaisler-elf/lib/leon3/mfix-ut700/soft/flat/libc.a(lib_a-vfiprintf.o)
 .debug_aranges
                0x00000000000006e8       0x20 /home/fsw/rep/tasa/lib/bcc-2.2.3-gcc/bin/../lib/gcc/sparc-gaisler-elf/10.2.0/../../../../sparc-gaisler-elf/lib/leon3/mfix-ut700/soft/flat/libc.a(lib_a-wbuf.o)
 .debug_aranges
                0x0000000000000708       0x20 /home/fsw/rep/tasa/lib/bcc-2.2.3-gcc/bin/../lib/gcc/sparc-gaisler-elf/10.2.0/../../../../sparc-gaisler-elf/lib/leon3/mfix-ut700/soft/flat/libc.a(lib_a-writer.o)
 .debug_aranges
                0x0000000000000728       0x20 /home/fsw/rep/tasa/lib/bcc-2.2.3-gcc/bin/../lib/gcc/sparc-gaisler-elf/10.2.0/../../../../sparc-gaisler-elf/lib/leon3/mfix-ut700/soft/flat/libc.a(lib_a-callocr.o)
 .debug_aranges
                0x0000000000000748       0x20 /home/fsw/rep/tasa/lib/bcc-2.2.3-gcc/bin/../lib/gcc/sparc-gaisler-elf/10.2.0/../../../../sparc-gaisler-elf/lib/leon3/mfix-ut700/soft/flat/libc.a(lib_a-closer.o)
 .debug_aranges
                0x0000000000000768       0x20 /home/fsw/rep/tasa/lib/bcc-2.2.3-gcc/bin/../lib/gcc/sparc-gaisler-elf/10.2.0/../../../../sparc-gaisler-elf/lib/leon3/mfix-ut700/soft/flat/libc.a(lib_a-fclose.o)
 .debug_aranges
                0x0000000000000788       0x20 /home/fsw/rep/tasa/lib/bcc-2.2.3-gcc/bin/../lib/gcc/sparc-gaisler-elf/10.2.0/../../../../sparc-gaisler-elf/lib/leon3/mfix-ut700/soft/flat/libc.a(lib_a-fputwc.o)
 .debug_aranges
                0x00000000000007a8       0x20 /home/fsw/rep/tasa/lib/bcc-2.2.3-gcc/bin/../lib/gcc/sparc-gaisler-elf/10.2.0/../../../../sparc-gaisler-elf/lib/leon3/mfix-ut700/soft/flat/libc.a(lib_a-fstatr.o)
 .debug_aranges
                0x00000000000007c8       0x20 /home/fsw/rep/tasa/lib/bcc-2.2.3-gcc/bin/../lib/gcc/sparc-gaisler-elf/10.2.0/../../../../sparc-gaisler-elf/lib/leon3/mfix-ut700/soft/flat/libc.a(lib_a-isattyr.o)
 .debug_aranges
                0x00000000000007e8       0x20 /home/fsw/rep/tasa/lib/bcc-2.2.3-gcc/bin/../lib/gcc/sparc-gaisler-elf/10.2.0/../../../../sparc-gaisler-elf/lib/leon3/mfix-ut700/soft/flat/libc.a(lib_a-locale.o)
 .debug_aranges
                0x0000000000000808       0x20 /home/fsw/rep/tasa/lib/bcc-2.2.3-gcc/bin/../lib/gcc/sparc-gaisler-elf/10.2.0/../../../../sparc-gaisler-elf/lib/leon3/mfix-ut700/soft/flat/libc.a(lib_a-lseekr.o)
 .debug_aranges
                0x0000000000000828       0x20 /home/fsw/rep/tasa/lib/bcc-2.2.3-gcc/bin/../lib/gcc/sparc-gaisler-elf/10.2.0/../../../../sparc-gaisler-elf/lib/leon3/mfix-ut700/soft/flat/libc.a(lib_a-mbtowc_r.o)
 .debug_aranges
                0x0000000000000848       0x20 /home/fsw/rep/tasa/lib/bcc-2.2.3-gcc/bin/../lib/gcc/sparc-gaisler-elf/10.2.0/../../../../sparc-gaisler-elf/lib/leon3/mfix-ut700/soft/flat/libc.a(lib_a-readr.o)
 .debug_aranges
                0x0000000000000868       0x20 /home/fsw/rep/tasa/lib/bcc-2.2.3-gcc/bin/../lib/gcc/sparc-gaisler-elf/10.2.0/../../../../sparc-gaisler-elf/lib/leon3/mfix-ut700/soft/flat/libc.a(lib_a-reent.o)
 .debug_aranges
                0x0000000000000888       0x20 /home/fsw/rep/tasa/lib/bcc-2.2.3-gcc/bin/../lib/gcc/sparc-gaisler-elf/10.2.0/../../../../sparc-gaisler-elf/lib/leon3/mfix-ut700/soft/flat/libc.a(lib_a-strcmp.o)
 .debug_aranges
                0x00000000000008a8       0x20 /home/fsw/rep/tasa/lib/bcc-2.2.3-gcc/bin/../lib/gcc/sparc-gaisler-elf/10.2.0/../../../../sparc-gaisler-elf/lib/leon3/mfix-ut700/soft/flat/libc.a(lib_a-wcrtomb.o)
 .debug_aranges
                0x00000000000008c8       0x20 /home/fsw/rep/tasa/lib/bcc-2.2.3-gcc/bin/../lib/gcc/sparc-gaisler-elf/10.2.0/../../../../sparc-gaisler-elf/lib/leon3/mfix-ut700/soft/flat/libc.a(lib_a-wctomb_r.o)
 .debug_aranges
                0x00000000000008e8       0x18 /home/fsw/rep/tasa/lib/bcc-2.2.3-gcc/bin/../lib/gcc/sparc-gaisler-elf/10.2.0/../../../../sparc-gaisler-elf/lib/leon3/mfix-ut700/soft/flat/libc.a(lib_a-ctype_.o)
 .debug_aranges
                0x0000000000000900       0x20 /home/fsw/rep/tasa/lib/bcc-2.2.3-gcc/bin/../sparc-gaisler-elf/bsp/leon3/leon3/mfix-ut700/soft/flat/libbcc.a(_exit.S.o)
 .debug_aranges
                0x0000000000000920       0x20 /home/fsw/rep/tasa/lib/bcc-2.2.3-gcc/bin/../sparc-gaisler-elf/bsp/leon3/leon3/mfix-ut700/soft/flat/libbcc.a(read.c.o)
 .debug_aranges
                0x0000000000000940       0x20 /home/fsw/rep/tasa/lib/bcc-2.2.3-gcc/bin/../sparc-gaisler-elf/bsp/leon3/leon3/mfix-ut700/soft/flat/libbcc.a(sbrk.c.o)
 .debug_aranges
                0x0000000000000960       0x18 /home/fsw/rep/tasa/lib/bcc-2.2.3-gcc/bin/../sparc-gaisler-elf/bsp/leon3/leon3/mfix-ut700/soft/flat/libbcc.a(heap.c.o)
 .debug_aranges
                0x0000000000000978       0x20 /home/fsw/rep/tasa/lib/bcc-2.2.3-gcc/bin/../sparc-gaisler-elf/bsp/leon3/leon3/mfix-ut700/soft/flat/libbcc.a(write.c.o)
 .debug_aranges
                0x0000000000000998       0x20 /home/fsw/rep/tasa/lib/bcc-2.2.3-gcc/bin/../sparc-gaisler-elf/bsp/leon3/leon3/mfix-ut700/soft/flat/libbcc.a(stubs.S.o)
 .debug_aranges
                0x00000000000009b8       0x20 /home/fsw/rep/tasa/lib/bcc-2.2.3-gcc/bin/../sparc-gaisler-elf/bsp/leon3/leon3/mfix-ut700/soft/flat/libbcc.a(con_apbuart.c.o)
 .debug_aranges
                0x00000000000009d8       0x20 /home/fsw/rep/tasa/lib/bcc-2.2.3-gcc/bin/../lib/gcc/sparc-gaisler-elf/10.2.0/leon3/mfix-ut700/soft/flat/libgcc.a(_udivdi3.o)
 .debug_aranges
                0x00000000000009f8       0x20 /home/fsw/rep/tasa/lib/bcc-2.2.3-gcc/bin/../lib/gcc/sparc-gaisler-elf/10.2.0/leon3/mfix-ut700/soft/flat/libgcc.a(_umoddi3.o)
 .debug_aranges
                0x0000000000000a18       0x20 /home/fsw/rep/tasa/lib/bcc-2.2.3-gcc/bin/../lib/gcc/sparc-gaisler-elf/10.2.0/leon3/mfix-ut700/soft/flat/libgcc.a(_addsub_df.o)
 .debug_aranges
                0x0000000000000a38       0x20 /home/fsw/rep/tasa/lib/bcc-2.2.3-gcc/bin/../lib/gcc/sparc-gaisler-elf/10.2.0/leon3/mfix-ut700/soft/flat/libgcc.a(_mul_df.o)
 .debug_aranges
                0x0000000000000a58       0x20 /home/fsw/rep/tasa/lib/bcc-2.2.3-gcc/bin/../lib/gcc/sparc-gaisler-elf/10.2.0/leon3/mfix-ut700/soft/flat/libgcc.a(_div_df.o)
 .debug_aranges
                0x0000000000000a78       0x20 /home/fsw/rep/tasa/lib/bcc-2.2.3-gcc/bin/../lib/gcc/sparc-gaisler-elf/10.2.0/leon3/mfix-ut700/soft/flat/libgcc.a(_eq_df.o)
 .debug_aranges
                0x0000000000000a98       0x20 /home/fsw/rep/tasa/lib/bcc-2.2.3-gcc/bin/../lib/gcc/sparc-gaisler-elf/10.2.0/leon3/mfix-ut700/soft/flat/libgcc.a(_ne_df.o)
 .debug_aranges
                0x0000000000000ab8       0x20 /home/fsw/rep/tasa/lib/bcc-2.2.3-gcc/bin/../lib/gcc/sparc-gaisler-elf/10.2.0/leon3/mfix-ut700/soft/flat/libgcc.a(_gt_df.o)
 .debug_aranges
                0x0000000000000ad8       0x20 /home/fsw/rep/tasa/lib/bcc-2.2.3-gcc/bin/../lib/gcc/sparc-gaisler-elf/10.2.0/leon3/mfix-ut700/soft/flat/libgcc.a(_lt_df.o)
 .debug_aranges
                0x0000000000000af8       0x20 /home/fsw/rep/tasa/lib/bcc-2.2.3-gcc/bin/../lib/gcc/sparc-gaisler-elf/10.2.0/leon3/mfix-ut700/soft/flat/libgcc.a(_le_df.o)
 .debug_aranges
                0x0000000000000b18       0x20 /home/fsw/rep/tasa/lib/bcc-2.2.3-gcc/bin/../lib/gcc/sparc-gaisler-elf/10.2.0/leon3/mfix-ut700/soft/flat/libgcc.a(_unord_df.o)
 .debug_aranges
                0x0000000000000b38       0x20 /home/fsw/rep/tasa/lib/bcc-2.2.3-gcc/bin/../lib/gcc/sparc-gaisler-elf/10.2.0/leon3/mfix-ut700/soft/flat/libgcc.a(_si_to_df.o)
 .debug_aranges
                0x0000000000000b58       0x20 /home/fsw/rep/tasa/lib/bcc-2.2.3-gcc/bin/../lib/gcc/sparc-gaisler-elf/10.2.0/leon3/mfix-ut700/soft/flat/libgcc.a(_df_to_si.o)
 .debug_aranges
                0x0000000000000b78       0x18 /home/fsw/rep/tasa/lib/bcc-2.2.3-gcc/bin/../lib/gcc/sparc-gaisler-elf/10.2.0/leon3/mfix-ut700/soft/flat/libgcc.a(_thenan_df.o)
 .debug_aranges
                0x0000000000000b90       0x20 /home/fsw/rep/tasa/lib/bcc-2.2.3-gcc/bin/../lib/gcc/sparc-gaisler-elf/10.2.0/leon3/mfix-ut700/soft/flat/libgcc.a(_usi_to_df.o)
 .debug_aranges
                0x0000000000000bb0       0x18 /home/fsw/rep/tasa/lib/bcc-2.2.3-gcc/bin/../lib/gcc/sparc-gaisler-elf/10.2.0/leon3/mfix-ut700/soft/flat/libgcc.a(_clz.o)
 .debug_aranges
                0x0000000000000bc8       0x20 /home/fsw/rep/tasa/lib/bcc-2.2.3-gcc/bin/../lib/gcc/sparc-gaisler-elf/10.2.0/leon3/mfix-ut700/soft/flat/libgcc.a(_clzsi2.o)
 .debug_aranges
                0x0000000000000be8       0x20 /home/fsw/rep/tasa/lib/bcc-2.2.3-gcc/bin/../lib/gcc/sparc-gaisler-elf/10.2.0/leon3/mfix-ut700/soft/flat/libgcc.a(_pack_df.o)
 .debug_aranges
                0x0000000000000c08       0x20 /home/fsw/rep/tasa/lib/bcc-2.2.3-gcc/bin/../lib/gcc/sparc-gaisler-elf/10.2.0/leon3/mfix-ut700/soft/flat/libgcc.a(_unpack_df.o)
 .debug_aranges
                0x0000000000000c28       0x20 /home/fsw/rep/tasa/lib/bcc-2.2.3-gcc/bin/../lib/gcc/sparc-gaisler-elf/10.2.0/leon3/mfix-ut700/soft/flat/libgcc.a(_fpcmp_parts_df.o)

.debug_pubnames
 *(.debug_pubnames)

.debug_info     0x0000000000000000    0x256aa
 *(.debug_info)
 .debug_info    0x0000000000000000       0x26 /home/fsw/rep/tasa/lib/bcc-2.2.3-gcc/bin/../sparc-gaisler-elf/bsp/leon3/leon3/mfix-ut700/soft/flat/trap_table_mvt_tn0018.S.o
 .debug_info    0x0000000000000026       0x26 /home/fsw/rep/tasa/lib/bcc-2.2.3-gcc/bin/../sparc-gaisler-elf/bsp/leon3/leon3/mfix-ut700/soft/flat/crt0.S.o
 .debug_info    0x000000000000004c      0x368 /tmp/ccyYqly4.o
 .debug_info    0x00000000000003b4       0x26 /home/fsw/rep/tasa/lib/bcc-2.2.3-gcc/bin/../sparc-gaisler-elf/bsp/leon3/leon3/mfix-ut700/soft/flat/libbcc.a(reset_trap_mvt.S.o)
 .debug_info    0x00000000000003da       0x26 /home/fsw/rep/tasa/lib/bcc-2.2.3-gcc/bin/../sparc-gaisler-elf/bsp/leon3/leon3/mfix-ut700/soft/flat/libbcc.a(sw_trap_set_pil.S.o)
 .debug_info    0x0000000000000400       0x26 /home/fsw/rep/tasa/lib/bcc-2.2.3-gcc/bin/../sparc-gaisler-elf/bsp/leon3/leon3/mfix-ut700/soft/flat/libbcc.a(init.S.o)
 .debug_info    0x0000000000000426       0x26 /home/fsw/rep/tasa/lib/bcc-2.2.3-gcc/bin/../sparc-gaisler-elf/bsp/leon3/leon3/mfix-ut700/soft/flat/libbcc.a(leon_info.S.o)
 .debug_info    0x000000000000044c       0x26 /home/fsw/rep/tasa/lib/bcc-2.2.3-gcc/bin/../sparc-gaisler-elf/bsp/leon3/leon3/mfix-ut700/soft/flat/libbcc.a(dwzero.S.o)
 .debug_info    0x0000000000000472       0xe8 /home/fsw/rep/tasa/lib/bcc-2.2.3-gcc/bin/../sparc-gaisler-elf/bsp/leon3/leon3/mfix-ut700/soft/flat/libbcc.a(copy_data.c.o)
 .debug_info    0x000000000000055a       0xd9 /home/fsw/rep/tasa/lib/bcc-2.2.3-gcc/bin/../sparc-gaisler-elf/bsp/leon3/leon3/mfix-ut700/soft/flat/libbcc.a(argv.c.o)
 .debug_info    0x0000000000000633       0x26 /home/fsw/rep/tasa/lib/bcc-2.2.3-gcc/bin/../sparc-gaisler-elf/bsp/leon3/leon3/mfix-ut700/soft/flat/libbcc.a(interrupt_trap_flat_tn0018.S.o)
 .debug_info    0x0000000000000659      0x2db /home/fsw/rep/tasa/lib/bcc-2.2.3-gcc/bin/../sparc-gaisler-elf/bsp/leon3/leon3/mfix-ut700/soft/flat/libbcc.a(int_irqmp_get_source.c.o)
 .debug_info    0x0000000000000934      0x3a6 /home/fsw/rep/tasa/lib/bcc-2.2.3-gcc/bin/../sparc-gaisler-elf/bsp/leon3/leon3/mfix-ut700/soft/flat/libbcc.a(int_irqmp_mp.c.o)
 .debug_info    0x0000000000000cda      0x5d4 /home/fsw/rep/tasa/lib/bcc-2.2.3-gcc/bin/../sparc-gaisler-elf/bsp/leon3/leon3/mfix-ut700/soft/flat/libbcc.a(int_irqmp_init.c.o)
 .debug_info    0x00000000000012ae      0x121 /home/fsw/rep/tasa/lib/bcc-2.2.3-gcc/bin/../sparc-gaisler-elf/bsp/leon3/leon3/mfix-ut700/soft/flat/libbcc.a(con_apbuart_init.c.o)
 .debug_info    0x00000000000013cf      0x1d6 /home/fsw/rep/tasa/lib/bcc-2.2.3-gcc/bin/../sparc-gaisler-elf/bsp/leon3/leon3/mfix-ut700/soft/flat/libbcc.a(timer_gptimer_init.c.o)
 .debug_info    0x00000000000015a5       0xf5 /home/fsw/rep/tasa/lib/bcc-2.2.3-gcc/bin/../sparc-gaisler-elf/bsp/leon3/leon3/mfix-ut700/soft/flat/libbcc.a(isr.c.o)
 .debug_info    0x000000000000169a       0xcd /home/fsw/rep/tasa/lib/bcc-2.2.3-gcc/bin/../sparc-gaisler-elf/bsp/leon3/leon3/mfix-ut700/soft/flat/libbcc.a(int_nest.c.o)
 .debug_info    0x0000000000001767      0x8ee /home/fsw/rep/tasa/lib/bcc-2.2.3-gcc/bin/../sparc-gaisler-elf/bsp/leon3/leon3/mfix-ut700/soft/flat/libbcc.a(ambapp.c.o)
 .debug_info    0x0000000000002055      0x337 /home/fsw/rep/tasa/lib/bcc-2.2.3-gcc/bin/../sparc-gaisler-elf/bsp/leon3/leon3/mfix-ut700/soft/flat/libbcc.a(ambapp_findfirst_fn.c.o)
 .debug_info    0x000000000000238c       0xeb /home/fsw/rep/tasa/lib/bcc-2.2.3-gcc/bin/../sparc-gaisler-elf/bsp/leon3/leon3/mfix-ut700/soft/flat/libbcc.a(int_irqmp_handle.c.o)
 .debug_info    0x0000000000002477       0x9d /home/fsw/rep/tasa/lib/bcc-2.2.3-gcc/bin/../sparc-gaisler-elf/bsp/leon3/leon3/mfix-ut700/soft/flat/libbcc.a(con_handle.c.o)
 .debug_info    0x0000000000002514       0xb7 /home/fsw/rep/tasa/lib/bcc-2.2.3-gcc/bin/../sparc-gaisler-elf/bsp/leon3/leon3/mfix-ut700/soft/flat/libbcc.a(timer_handle.c.o)
 .debug_info    0x00000000000025cb      0x100 /home/fsw/rep/tasa/lib/bcc-2.2.3-gcc/bin/../lib/gcc/sparc-gaisler-elf/10.2.0/../../../../sparc-gaisler-elf/lib/leon3/mfix-ut700/soft/flat/libc.a(lib_a-atexit.o)
 .debug_info    0x00000000000026cb      0x7de /home/fsw/rep/tasa/lib/bcc-2.2.3-gcc/bin/../lib/gcc/sparc-gaisler-elf/10.2.0/../../../../sparc-gaisler-elf/lib/leon3/mfix-ut700/soft/flat/libc.a(lib_a-exit.o)
 .debug_info    0x0000000000002ea9      0x83e /home/fsw/rep/tasa/lib/bcc-2.2.3-gcc/bin/../lib/gcc/sparc-gaisler-elf/10.2.0/../../../../sparc-gaisler-elf/lib/leon3/mfix-ut700/soft/flat/libc.a(lib_a-impure.o)
 .debug_info    0x00000000000036e7      0x15c /home/fsw/rep/tasa/lib/bcc-2.2.3-gcc/bin/../lib/gcc/sparc-gaisler-elf/10.2.0/../../../../sparc-gaisler-elf/lib/leon3/mfix-ut700/soft/flat/libc.a(lib_a-memcpy.o)
 .debug_info    0x0000000000003843      0x903 /home/fsw/rep/tasa/lib/bcc-2.2.3-gcc/bin/../lib/gcc/sparc-gaisler-elf/10.2.0/../../../../sparc-gaisler-elf/lib/leon3/mfix-ut700/soft/flat/libc.a(lib_a-printf.o)
 .debug_info    0x0000000000004146      0x86d /home/fsw/rep/tasa/lib/bcc-2.2.3-gcc/bin/../lib/gcc/sparc-gaisler-elf/10.2.0/../../../../sparc-gaisler-elf/lib/leon3/mfix-ut700/soft/flat/libc.a(lib_a-putchar.o)
 .debug_info    0x00000000000049b3      0xaf5 /home/fsw/rep/tasa/lib/bcc-2.2.3-gcc/bin/../lib/gcc/sparc-gaisler-elf/10.2.0/../../../../sparc-gaisler-elf/lib/leon3/mfix-ut700/soft/flat/libc.a(lib_a-puts.o)
 .debug_info    0x00000000000054a8       0xee /home/fsw/rep/tasa/lib/bcc-2.2.3-gcc/bin/../lib/gcc/sparc-gaisler-elf/10.2.0/../../../../sparc-gaisler-elf/lib/leon3/mfix-ut700/soft/flat/libc.a(lib_a-strlen.o)
 .debug_info    0x0000000000005596     0x1e8c /home/fsw/rep/tasa/lib/bcc-2.2.3-gcc/bin/../lib/gcc/sparc-gaisler-elf/10.2.0/../../../../sparc-gaisler-elf/lib/leon3/mfix-ut700/soft/flat/libc.a(lib_a-vfprintf.o)
 .debug_info    0x0000000000007422      0x8dd /home/fsw/rep/tasa/lib/bcc-2.2.3-gcc/bin/../lib/gcc/sparc-gaisler-elf/10.2.0/../../../../sparc-gaisler-elf/lib/leon3/mfix-ut700/soft/flat/libc.a(lib_a-wsetup.o)
 .debug_info    0x0000000000007cff      0x264 /home/fsw/rep/tasa/lib/bcc-2.2.3-gcc/bin/../lib/gcc/sparc-gaisler-elf/10.2.0/../../../../sparc-gaisler-elf/lib/leon3/mfix-ut700/soft/flat/libc.a(lib_a-__atexit.o)
 .debug_info    0x0000000000007f63      0x28d /home/fsw/rep/tasa/lib/bcc-2.2.3-gcc/bin/../lib/gcc/sparc-gaisler-elf/10.2.0/../../../../sparc-gaisler-elf/lib/leon3/mfix-ut700/soft/flat/libc.a(lib_a-__call_atexit.o)
 .debug_info    0x00000000000081f0     0x1824 /home/fsw/rep/tasa/lib/bcc-2.2.3-gcc/bin/../lib/gcc/sparc-gaisler-elf/10.2.0/../../../../sparc-gaisler-elf/lib/leon3/mfix-ut700/soft/flat/libc.a(lib_a-dtoa.o)
 .debug_info    0x0000000000009a14      0xae9 /home/fsw/rep/tasa/lib/bcc-2.2.3-gcc/bin/../lib/gcc/sparc-gaisler-elf/10.2.0/../../../../sparc-gaisler-elf/lib/leon3/mfix-ut700/soft/flat/libc.a(lib_a-fflush.o)
 .debug_info    0x000000000000a4fd      0xddd /home/fsw/rep/tasa/lib/bcc-2.2.3-gcc/bin/../lib/gcc/sparc-gaisler-elf/10.2.0/../../../../sparc-gaisler-elf/lib/leon3/mfix-ut700/soft/flat/libc.a(lib_a-findfp.o)
 .debug_info    0x000000000000b2da      0xb85 /home/fsw/rep/tasa/lib/bcc-2.2.3-gcc/bin/../lib/gcc/sparc-gaisler-elf/10.2.0/../../../../sparc-gaisler-elf/lib/leon3/mfix-ut700/soft/flat/libc.a(lib_a-freer.o)
 .debug_info    0x000000000000be5f      0xb03 /home/fsw/rep/tasa/lib/bcc-2.2.3-gcc/bin/../lib/gcc/sparc-gaisler-elf/10.2.0/../../../../sparc-gaisler-elf/lib/leon3/mfix-ut700/soft/flat/libc.a(lib_a-fvwrite.o)
 .debug_info    0x000000000000c962      0x8db /home/fsw/rep/tasa/lib/bcc-2.2.3-gcc/bin/../lib/gcc/sparc-gaisler-elf/10.2.0/../../../../sparc-gaisler-elf/lib/leon3/mfix-ut700/soft/flat/libc.a(lib_a-fwalk.o)
 .debug_info    0x000000000000d23d      0xb4b /home/fsw/rep/tasa/lib/bcc-2.2.3-gcc/bin/../lib/gcc/sparc-gaisler-elf/10.2.0/../../../../sparc-gaisler-elf/lib/leon3/mfix-ut700/soft/flat/libc.a(lib_a-localeconv.o)
 .debug_info    0x000000000000dd88      0xc44 /home/fsw/rep/tasa/lib/bcc-2.2.3-gcc/bin/../lib/gcc/sparc-gaisler-elf/10.2.0/../../../../sparc-gaisler-elf/lib/leon3/mfix-ut700/soft/flat/libc.a(lib_a-makebuf.o)
 .debug_info    0x000000000000e9cc      0x80d /home/fsw/rep/tasa/lib/bcc-2.2.3-gcc/bin/../lib/gcc/sparc-gaisler-elf/10.2.0/../../../../sparc-gaisler-elf/lib/leon3/mfix-ut700/soft/flat/libc.a(lib_a-malloc.o)
 .debug_info    0x000000000000f1d9      0xcee /home/fsw/rep/tasa/lib/bcc-2.2.3-gcc/bin/../lib/gcc/sparc-gaisler-elf/10.2.0/../../../../sparc-gaisler-elf/lib/leon3/mfix-ut700/soft/flat/libc.a(lib_a-mallocr.o)
 .debug_info    0x000000000000fec7      0x14e /home/fsw/rep/tasa/lib/bcc-2.2.3-gcc/bin/../lib/gcc/sparc-gaisler-elf/10.2.0/../../../../sparc-gaisler-elf/lib/leon3/mfix-ut700/soft/flat/libc.a(lib_a-memchr.o)
 .debug_info    0x0000000000010015      0x152 /home/fsw/rep/tasa/lib/bcc-2.2.3-gcc/bin/../lib/gcc/sparc-gaisler-elf/10.2.0/../../../../sparc-gaisler-elf/lib/leon3/mfix-ut700/soft/flat/libc.a(lib_a-memmove.o)
 .debug_info    0x0000000000010167      0x137 /home/fsw/rep/tasa/lib/bcc-2.2.3-gcc/bin/../lib/gcc/sparc-gaisler-elf/10.2.0/../../../../sparc-gaisler-elf/lib/leon3/mfix-ut700/soft/flat/libc.a(lib_a-memset.o)
 .debug_info    0x000000000001029e      0x7aa /home/fsw/rep/tasa/lib/bcc-2.2.3-gcc/bin/../lib/gcc/sparc-gaisler-elf/10.2.0/../../../../sparc-gaisler-elf/lib/leon3/mfix-ut700/soft/flat/libc.a(lib_a-mlock.o)
 .debug_info    0x0000000000010a48     0x20f0 /home/fsw/rep/tasa/lib/bcc-2.2.3-gcc/bin/../lib/gcc/sparc-gaisler-elf/10.2.0/../../../../sparc-gaisler-elf/lib/leon3/mfix-ut700/soft/flat/libc.a(lib_a-mprec.o)
 .debug_info    0x0000000000012b38      0xa11 /home/fsw/rep/tasa/lib/bcc-2.2.3-gcc/bin/../lib/gcc/sparc-gaisler-elf/10.2.0/../../../../sparc-gaisler-elf/lib/leon3/mfix-ut700/soft/flat/libc.a(lib_a-putc.o)
 .debug_info    0x0000000000013549      0xc01 /home/fsw/rep/tasa/lib/bcc-2.2.3-gcc/bin/../lib/gcc/sparc-gaisler-elf/10.2.0/../../../../sparc-gaisler-elf/lib/leon3/mfix-ut700/soft/flat/libc.a(lib_a-reallocr.o)
 .debug_info    0x000000000001414a      0x1eb /home/fsw/rep/tasa/lib/bcc-2.2.3-gcc/bin/../lib/gcc/sparc-gaisler-elf/10.2.0/../../../../sparc-gaisler-elf/lib/leon3/mfix-ut700/soft/flat/libc.a(lib_a-s_frexp.o)
 .debug_info    0x0000000000014335      0x802 /home/fsw/rep/tasa/lib/bcc-2.2.3-gcc/bin/../lib/gcc/sparc-gaisler-elf/10.2.0/../../../../sparc-gaisler-elf/lib/leon3/mfix-ut700/soft/flat/libc.a(lib_a-sbrkr.o)
 .debug_info    0x0000000000014b37      0xab8 /home/fsw/rep/tasa/lib/bcc-2.2.3-gcc/bin/../lib/gcc/sparc-gaisler-elf/10.2.0/../../../../sparc-gaisler-elf/lib/leon3/mfix-ut700/soft/flat/libc.a(lib_a-stdio.o)
 .debug_info    0x00000000000155ef      0x153 /home/fsw/rep/tasa/lib/bcc-2.2.3-gcc/bin/../lib/gcc/sparc-gaisler-elf/10.2.0/../../../../sparc-gaisler-elf/lib/leon3/mfix-ut700/soft/flat/libc.a(lib_a-strncpy.o)
 .debug_info    0x0000000000015742     0x23f4 /home/fsw/rep/tasa/lib/bcc-2.2.3-gcc/bin/../lib/gcc/sparc-gaisler-elf/10.2.0/../../../../sparc-gaisler-elf/lib/leon3/mfix-ut700/soft/flat/libc.a(lib_a-vfiprintf.o)
 .debug_info    0x0000000000017b36      0xa46 /home/fsw/rep/tasa/lib/bcc-2.2.3-gcc/bin/../lib/gcc/sparc-gaisler-elf/10.2.0/../../../../sparc-gaisler-elf/lib/leon3/mfix-ut700/soft/flat/libc.a(lib_a-wbuf.o)
 .debug_info    0x000000000001857c      0x834 /home/fsw/rep/tasa/lib/bcc-2.2.3-gcc/bin/../lib/gcc/sparc-gaisler-elf/10.2.0/../../../../sparc-gaisler-elf/lib/leon3/mfix-ut700/soft/flat/libc.a(lib_a-writer.o)
 .debug_info    0x0000000000018db0      0x8f0 /home/fsw/rep/tasa/lib/bcc-2.2.3-gcc/bin/../lib/gcc/sparc-gaisler-elf/10.2.0/../../../../sparc-gaisler-elf/lib/leon3/mfix-ut700/soft/flat/libc.a(lib_a-callocr.o)
 .debug_info    0x00000000000196a0      0x7df /home/fsw/rep/tasa/lib/bcc-2.2.3-gcc/bin/../lib/gcc/sparc-gaisler-elf/10.2.0/../../../../sparc-gaisler-elf/lib/leon3/mfix-ut700/soft/flat/libc.a(lib_a-closer.o)
 .debug_info    0x0000000000019e7f      0xa2b /home/fsw/rep/tasa/lib/bcc-2.2.3-gcc/bin/../lib/gcc/sparc-gaisler-elf/10.2.0/../../../../sparc-gaisler-elf/lib/leon3/mfix-ut700/soft/flat/libc.a(lib_a-fclose.o)
 .debug_info    0x000000000001a8aa      0xb10 /home/fsw/rep/tasa/lib/bcc-2.2.3-gcc/bin/../lib/gcc/sparc-gaisler-elf/10.2.0/../../../../sparc-gaisler-elf/lib/leon3/mfix-ut700/soft/flat/libc.a(lib_a-fputwc.o)
 .debug_info    0x000000000001b3ba      0x9df /home/fsw/rep/tasa/lib/bcc-2.2.3-gcc/bin/../lib/gcc/sparc-gaisler-elf/10.2.0/../../../../sparc-gaisler-elf/lib/leon3/mfix-ut700/soft/flat/libc.a(lib_a-fstatr.o)
 .debug_info    0x000000000001bd99      0x7df /home/fsw/rep/tasa/lib/bcc-2.2.3-gcc/bin/../lib/gcc/sparc-gaisler-elf/10.2.0/../../../../sparc-gaisler-elf/lib/leon3/mfix-ut700/soft/flat/libc.a(lib_a-isattyr.o)
 .debug_info    0x000000000001c578      0xcd7 /home/fsw/rep/tasa/lib/bcc-2.2.3-gcc/bin/../lib/gcc/sparc-gaisler-elf/10.2.0/../../../../sparc-gaisler-elf/lib/leon3/mfix-ut700/soft/flat/libc.a(lib_a-locale.o)
 .debug_info    0x000000000001d24f      0x815 /home/fsw/rep/tasa/lib/bcc-2.2.3-gcc/bin/../lib/gcc/sparc-gaisler-elf/10.2.0/../../../../sparc-gaisler-elf/lib/leon3/mfix-ut700/soft/flat/libc.a(lib_a-lseekr.o)
 .debug_info    0x000000000001da64      0xb55 /home/fsw/rep/tasa/lib/bcc-2.2.3-gcc/bin/../lib/gcc/sparc-gaisler-elf/10.2.0/../../../../sparc-gaisler-elf/lib/leon3/mfix-ut700/soft/flat/libc.a(lib_a-mbtowc_r.o)
 .debug_info    0x000000000001e5b9      0x82d /home/fsw/rep/tasa/lib/bcc-2.2.3-gcc/bin/../lib/gcc/sparc-gaisler-elf/10.2.0/../../../../sparc-gaisler-elf/lib/leon3/mfix-ut700/soft/flat/libc.a(lib_a-readr.o)
 .debug_info    0x000000000001ede6      0xca4 /home/fsw/rep/tasa/lib/bcc-2.2.3-gcc/bin/../lib/gcc/sparc-gaisler-elf/10.2.0/../../../../sparc-gaisler-elf/lib/leon3/mfix-ut700/soft/flat/libc.a(lib_a-reent.o)
 .debug_info    0x000000000001fa8a       0xf2 /home/fsw/rep/tasa/lib/bcc-2.2.3-gcc/bin/../lib/gcc/sparc-gaisler-elf/10.2.0/../../../../sparc-gaisler-elf/lib/leon3/mfix-ut700/soft/flat/libc.a(lib_a-strcmp.o)
 .debug_info    0x000000000001fb7c      0xbf7 /home/fsw/rep/tasa/lib/bcc-2.2.3-gcc/bin/../lib/gcc/sparc-gaisler-elf/10.2.0/../../../../sparc-gaisler-elf/lib/leon3/mfix-ut700/soft/flat/libc.a(lib_a-wcrtomb.o)
 .debug_info    0x0000000000020773      0xb13 /home/fsw/rep/tasa/lib/bcc-2.2.3-gcc/bin/../lib/gcc/sparc-gaisler-elf/10.2.0/../../../../sparc-gaisler-elf/lib/leon3/mfix-ut700/soft/flat/libc.a(lib_a-wctomb_r.o)
 .debug_info    0x0000000000021286       0xec /home/fsw/rep/tasa/lib/bcc-2.2.3-gcc/bin/../lib/gcc/sparc-gaisler-elf/10.2.0/../../../../sparc-gaisler-elf/lib/leon3/mfix-ut700/soft/flat/libc.a(lib_a-ctype_.o)
 .debug_info    0x0000000000021372       0x26 /home/fsw/rep/tasa/lib/bcc-2.2.3-gcc/bin/../sparc-gaisler-elf/bsp/leon3/leon3/mfix-ut700/soft/flat/libbcc.a(_exit.S.o)
 .debug_info    0x0000000000021398      0x12f /home/fsw/rep/tasa/lib/bcc-2.2.3-gcc/bin/../sparc-gaisler-elf/bsp/leon3/leon3/mfix-ut700/soft/flat/libbcc.a(read.c.o)
 .debug_info    0x00000000000214c7      0x138 /home/fsw/rep/tasa/lib/bcc-2.2.3-gcc/bin/../sparc-gaisler-elf/bsp/leon3/leon3/mfix-ut700/soft/flat/libbcc.a(sbrk.c.o)
 .debug_info    0x00000000000215ff       0xbd /home/fsw/rep/tasa/lib/bcc-2.2.3-gcc/bin/../sparc-gaisler-elf/bsp/leon3/leon3/mfix-ut700/soft/flat/libbcc.a(heap.c.o)
 .debug_info    0x00000000000216bc      0x154 /home/fsw/rep/tasa/lib/bcc-2.2.3-gcc/bin/../sparc-gaisler-elf/bsp/leon3/leon3/mfix-ut700/soft/flat/libbcc.a(write.c.o)
 .debug_info    0x0000000000021810       0x26 /home/fsw/rep/tasa/lib/bcc-2.2.3-gcc/bin/../sparc-gaisler-elf/bsp/leon3/leon3/mfix-ut700/soft/flat/libbcc.a(stubs.S.o)
 .debug_info    0x0000000000021836      0x1a7 /home/fsw/rep/tasa/lib/bcc-2.2.3-gcc/bin/../sparc-gaisler-elf/bsp/leon3/leon3/mfix-ut700/soft/flat/libbcc.a(con_apbuart.c.o)
 .debug_info    0x00000000000219dd      0x3b4 /home/fsw/rep/tasa/lib/bcc-2.2.3-gcc/bin/../lib/gcc/sparc-gaisler-elf/10.2.0/leon3/mfix-ut700/soft/flat/libgcc.a(_udivdi3.o)
 .debug_info    0x0000000000021d91      0x3c7 /home/fsw/rep/tasa/lib/bcc-2.2.3-gcc/bin/../lib/gcc/sparc-gaisler-elf/10.2.0/leon3/mfix-ut700/soft/flat/libgcc.a(_umoddi3.o)
 .debug_info    0x0000000000022158      0x726 /home/fsw/rep/tasa/lib/bcc-2.2.3-gcc/bin/../lib/gcc/sparc-gaisler-elf/10.2.0/leon3/mfix-ut700/soft/flat/libgcc.a(_addsub_df.o)
 .debug_info    0x000000000002287e      0x553 /home/fsw/rep/tasa/lib/bcc-2.2.3-gcc/bin/../lib/gcc/sparc-gaisler-elf/10.2.0/leon3/mfix-ut700/soft/flat/libgcc.a(_mul_df.o)
 .debug_info    0x0000000000022dd1      0x42d /home/fsw/rep/tasa/lib/bcc-2.2.3-gcc/bin/../lib/gcc/sparc-gaisler-elf/10.2.0/leon3/mfix-ut700/soft/flat/libgcc.a(_div_df.o)
 .debug_info    0x00000000000231fe      0x317 /home/fsw/rep/tasa/lib/bcc-2.2.3-gcc/bin/../lib/gcc/sparc-gaisler-elf/10.2.0/leon3/mfix-ut700/soft/flat/libgcc.a(_eq_df.o)
 .debug_info    0x0000000000023515      0x317 /home/fsw/rep/tasa/lib/bcc-2.2.3-gcc/bin/../lib/gcc/sparc-gaisler-elf/10.2.0/leon3/mfix-ut700/soft/flat/libgcc.a(_ne_df.o)
 .debug_info    0x000000000002382c      0x317 /home/fsw/rep/tasa/lib/bcc-2.2.3-gcc/bin/../lib/gcc/sparc-gaisler-elf/10.2.0/leon3/mfix-ut700/soft/flat/libgcc.a(_gt_df.o)
 .debug_info    0x0000000000023b43      0x317 /home/fsw/rep/tasa/lib/bcc-2.2.3-gcc/bin/../lib/gcc/sparc-gaisler-elf/10.2.0/leon3/mfix-ut700/soft/flat/libgcc.a(_lt_df.o)
 .debug_info    0x0000000000023e5a      0x317 /home/fsw/rep/tasa/lib/bcc-2.2.3-gcc/bin/../lib/gcc/sparc-gaisler-elf/10.2.0/leon3/mfix-ut700/soft/flat/libgcc.a(_le_df.o)
 .debug_info    0x0000000000024171      0x2f0 /home/fsw/rep/tasa/lib/bcc-2.2.3-gcc/bin/../lib/gcc/sparc-gaisler-elf/10.2.0/leon3/mfix-ut700/soft/flat/libgcc.a(_unord_df.o)
 .debug_info    0x0000000000024461      0x271 /home/fsw/rep/tasa/lib/bcc-2.2.3-gcc/bin/../lib/gcc/sparc-gaisler-elf/10.2.0/leon3/mfix-ut700/soft/flat/libgcc.a(_si_to_df.o)
 .debug_info    0x00000000000246d2      0x2c9 /home/fsw/rep/tasa/lib/bcc-2.2.3-gcc/bin/../lib/gcc/sparc-gaisler-elf/10.2.0/leon3/mfix-ut700/soft/flat/libgcc.a(_df_to_si.o)
 .debug_info    0x000000000002499b      0x168 /home/fsw/rep/tasa/lib/bcc-2.2.3-gcc/bin/../lib/gcc/sparc-gaisler-elf/10.2.0/leon3/mfix-ut700/soft/flat/libgcc.a(_thenan_df.o)
 .debug_info    0x0000000000024b03      0x263 /home/fsw/rep/tasa/lib/bcc-2.2.3-gcc/bin/../lib/gcc/sparc-gaisler-elf/10.2.0/leon3/mfix-ut700/soft/flat/libgcc.a(_usi_to_df.o)
 .debug_info    0x0000000000024d66       0xc9 /home/fsw/rep/tasa/lib/bcc-2.2.3-gcc/bin/../lib/gcc/sparc-gaisler-elf/10.2.0/leon3/mfix-ut700/soft/flat/libgcc.a(_clz.o)
 .debug_info    0x0000000000024e2f      0x13a /home/fsw/rep/tasa/lib/bcc-2.2.3-gcc/bin/../lib/gcc/sparc-gaisler-elf/10.2.0/leon3/mfix-ut700/soft/flat/libgcc.a(_clzsi2.o)
 .debug_info    0x0000000000024f69      0x2da /home/fsw/rep/tasa/lib/bcc-2.2.3-gcc/bin/../lib/gcc/sparc-gaisler-elf/10.2.0/leon3/mfix-ut700/soft/flat/libgcc.a(_pack_df.o)
 .debug_info    0x0000000000025243      0x229 /home/fsw/rep/tasa/lib/bcc-2.2.3-gcc/bin/../lib/gcc/sparc-gaisler-elf/10.2.0/leon3/mfix-ut700/soft/flat/libgcc.a(_unpack_df.o)
 .debug_info    0x000000000002546c      0x23e /home/fsw/rep/tasa/lib/bcc-2.2.3-gcc/bin/../lib/gcc/sparc-gaisler-elf/10.2.0/leon3/mfix-ut700/soft/flat/libgcc.a(_fpcmp_parts_df.o)

.debug_abbrev   0x0000000000000000     0x9682
 *(.debug_abbrev)
 .debug_abbrev  0x0000000000000000       0x14 /home/fsw/rep/tasa/lib/bcc-2.2.3-gcc/bin/../sparc-gaisler-elf/bsp/leon3/leon3/mfix-ut700/soft/flat/trap_table_mvt_tn0018.S.o
 .debug_abbrev  0x0000000000000014       0x14 /home/fsw/rep/tasa/lib/bcc-2.2.3-gcc/bin/../sparc-gaisler-elf/bsp/leon3/leon3/mfix-ut700/soft/flat/crt0.S.o
 .debug_abbrev  0x0000000000000028       0xe8 /tmp/ccyYqly4.o
 .debug_abbrev  0x0000000000000110       0x14 /home/fsw/rep/tasa/lib/bcc-2.2.3-gcc/bin/../sparc-gaisler-elf/bsp/leon3/leon3/mfix-ut700/soft/flat/libbcc.a(reset_trap_mvt.S.o)
 .debug_abbrev  0x0000000000000124       0x14 /home/fsw/rep/tasa/lib/bcc-2.2.3-gcc/bin/../sparc-gaisler-elf/bsp/leon3/leon3/mfix-ut700/soft/flat/libbcc.a(sw_trap_set_pil.S.o)
 .debug_abbrev  0x0000000000000138       0x14 /home/fsw/rep/tasa/lib/bcc-2.2.3-gcc/bin/../sparc-gaisler-elf/bsp/leon3/leon3/mfix-ut700/soft/flat/libbcc.a(init.S.o)
 .debug_abbrev  0x000000000000014c       0x14 /home/fsw/rep/tasa/lib/bcc-2.2.3-gcc/bin/../sparc-gaisler-elf/bsp/leon3/leon3/mfix-ut700/soft/flat/libbcc.a(leon_info.S.o)
 .debug_abbrev  0x0000000000000160       0x14 /home/fsw/rep/tasa/lib/bcc-2.2.3-gcc/bin/../sparc-gaisler-elf/bsp/leon3/leon3/mfix-ut700/soft/flat/libbcc.a(dwzero.S.o)
 .debug_abbrev  0x0000000000000174       0x87 /home/fsw/rep/tasa/lib/bcc-2.2.3-gcc/bin/../sparc-gaisler-elf/bsp/leon3/leon3/mfix-ut700/soft/flat/libbcc.a(copy_data.c.o)
 .debug_abbrev  0x00000000000001fb       0x70 /home/fsw/rep/tasa/lib/bcc-2.2.3-gcc/bin/../sparc-gaisler-elf/bsp/leon3/leon3/mfix-ut700/soft/flat/libbcc.a(argv.c.o)
 .debug_abbrev  0x000000000000026b       0x14 /home/fsw/rep/tasa/lib/bcc-2.2.3-gcc/bin/../sparc-gaisler-elf/bsp/leon3/leon3/mfix-ut700/soft/flat/libbcc.a(interrupt_trap_flat_tn0018.S.o)
 .debug_abbrev  0x000000000000027f      0x132 /home/fsw/rep/tasa/lib/bcc-2.2.3-gcc/bin/../sparc-gaisler-elf/bsp/leon3/leon3/mfix-ut700/soft/flat/libbcc.a(int_irqmp_get_source.c.o)
 .debug_abbrev  0x00000000000003b1      0x16d /home/fsw/rep/tasa/lib/bcc-2.2.3-gcc/bin/../sparc-gaisler-elf/bsp/leon3/leon3/mfix-ut700/soft/flat/libbcc.a(int_irqmp_mp.c.o)
 .debug_abbrev  0x000000000000051e      0x218 /home/fsw/rep/tasa/lib/bcc-2.2.3-gcc/bin/../sparc-gaisler-elf/bsp/leon3/leon3/mfix-ut700/soft/flat/libbcc.a(int_irqmp_init.c.o)
 .debug_abbrev  0x0000000000000736       0xc8 /home/fsw/rep/tasa/lib/bcc-2.2.3-gcc/bin/../sparc-gaisler-elf/bsp/leon3/leon3/mfix-ut700/soft/flat/libbcc.a(con_apbuart_init.c.o)
 .debug_abbrev  0x00000000000007fe      0x115 /home/fsw/rep/tasa/lib/bcc-2.2.3-gcc/bin/../sparc-gaisler-elf/bsp/leon3/leon3/mfix-ut700/soft/flat/libbcc.a(timer_gptimer_init.c.o)
 .debug_abbrev  0x0000000000000913       0xad /home/fsw/rep/tasa/lib/bcc-2.2.3-gcc/bin/../sparc-gaisler-elf/bsp/leon3/leon3/mfix-ut700/soft/flat/libbcc.a(isr.c.o)
 .debug_abbrev  0x00000000000009c0       0x85 /home/fsw/rep/tasa/lib/bcc-2.2.3-gcc/bin/../sparc-gaisler-elf/bsp/leon3/leon3/mfix-ut700/soft/flat/libbcc.a(int_nest.c.o)
 .debug_abbrev  0x0000000000000a45      0x2e4 /home/fsw/rep/tasa/lib/bcc-2.2.3-gcc/bin/../sparc-gaisler-elf/bsp/leon3/leon3/mfix-ut700/soft/flat/libbcc.a(ambapp.c.o)
 .debug_abbrev  0x0000000000000d29      0x129 /home/fsw/rep/tasa/lib/bcc-2.2.3-gcc/bin/../sparc-gaisler-elf/bsp/leon3/leon3/mfix-ut700/soft/flat/libbcc.a(ambapp_findfirst_fn.c.o)
 .debug_abbrev  0x0000000000000e52       0x57 /home/fsw/rep/tasa/lib/bcc-2.2.3-gcc/bin/../sparc-gaisler-elf/bsp/leon3/leon3/mfix-ut700/soft/flat/libbcc.a(int_irqmp_handle.c.o)
 .debug_abbrev  0x0000000000000ea9       0x57 /home/fsw/rep/tasa/lib/bcc-2.2.3-gcc/bin/../sparc-gaisler-elf/bsp/leon3/leon3/mfix-ut700/soft/flat/libbcc.a(con_handle.c.o)
 .debug_abbrev  0x0000000000000f00       0x57 /home/fsw/rep/tasa/lib/bcc-2.2.3-gcc/bin/../sparc-gaisler-elf/bsp/leon3/leon3/mfix-ut700/soft/flat/libbcc.a(timer_handle.c.o)
 .debug_abbrev  0x0000000000000f57       0xb7 /home/fsw/rep/tasa/lib/bcc-2.2.3-gcc/bin/../lib/gcc/sparc-gaisler-elf/10.2.0/../../../../sparc-gaisler-elf/lib/leon3/mfix-ut700/soft/flat/libc.a(lib_a-atexit.o)
 .debug_abbrev  0x000000000000100e      0x1a5 /home/fsw/rep/tasa/lib/bcc-2.2.3-gcc/bin/../lib/gcc/sparc-gaisler-elf/10.2.0/../../../../sparc-gaisler-elf/lib/leon3/mfix-ut700/soft/flat/libc.a(lib_a-exit.o)
 .debug_abbrev  0x00000000000011b3      0x151 /home/fsw/rep/tasa/lib/bcc-2.2.3-gcc/bin/../lib/gcc/sparc-gaisler-elf/10.2.0/../../../../sparc-gaisler-elf/lib/leon3/mfix-ut700/soft/flat/libc.a(lib_a-impure.o)
 .debug_abbrev  0x0000000000001304       0xc7 /home/fsw/rep/tasa/lib/bcc-2.2.3-gcc/bin/../lib/gcc/sparc-gaisler-elf/10.2.0/../../../../sparc-gaisler-elf/lib/leon3/mfix-ut700/soft/flat/libc.a(lib_a-memcpy.o)
 .debug_abbrev  0x00000000000013cb      0x21a /home/fsw/rep/tasa/lib/bcc-2.2.3-gcc/bin/../lib/gcc/sparc-gaisler-elf/10.2.0/../../../../sparc-gaisler-elf/lib/leon3/mfix-ut700/soft/flat/libc.a(lib_a-printf.o)
 .debug_abbrev  0x00000000000015e5      0x215 /home/fsw/rep/tasa/lib/bcc-2.2.3-gcc/bin/../lib/gcc/sparc-gaisler-elf/10.2.0/../../../../sparc-gaisler-elf/lib/leon3/mfix-ut700/soft/flat/libc.a(lib_a-putchar.o)
 .debug_abbrev  0x00000000000017fa      0x252 /home/fsw/rep/tasa/lib/bcc-2.2.3-gcc/bin/../lib/gcc/sparc-gaisler-elf/10.2.0/../../../../sparc-gaisler-elf/lib/leon3/mfix-ut700/soft/flat/libc.a(lib_a-puts.o)
 .debug_abbrev  0x0000000000001a4c       0x8f /home/fsw/rep/tasa/lib/bcc-2.2.3-gcc/bin/../lib/gcc/sparc-gaisler-elf/10.2.0/../../../../sparc-gaisler-elf/lib/leon3/mfix-ut700/soft/flat/libc.a(lib_a-strlen.o)
 .debug_abbrev  0x0000000000001adb      0x406 /home/fsw/rep/tasa/lib/bcc-2.2.3-gcc/bin/../lib/gcc/sparc-gaisler-elf/10.2.0/../../../../sparc-gaisler-elf/lib/leon3/mfix-ut700/soft/flat/libc.a(lib_a-vfprintf.o)
 .debug_abbrev  0x0000000000001ee1      0x1d4 /home/fsw/rep/tasa/lib/bcc-2.2.3-gcc/bin/../lib/gcc/sparc-gaisler-elf/10.2.0/../../../../sparc-gaisler-elf/lib/leon3/mfix-ut700/soft/flat/libc.a(lib_a-wsetup.o)
 .debug_abbrev  0x00000000000020b5      0x1b2 /home/fsw/rep/tasa/lib/bcc-2.2.3-gcc/bin/../lib/gcc/sparc-gaisler-elf/10.2.0/../../../../sparc-gaisler-elf/lib/leon3/mfix-ut700/soft/flat/libc.a(lib_a-__atexit.o)
 .debug_abbrev  0x0000000000002267      0x1a0 /home/fsw/rep/tasa/lib/bcc-2.2.3-gcc/bin/../lib/gcc/sparc-gaisler-elf/10.2.0/../../../../sparc-gaisler-elf/lib/leon3/mfix-ut700/soft/flat/libc.a(lib_a-__call_atexit.o)
 .debug_abbrev  0x0000000000002407      0x2d5 /home/fsw/rep/tasa/lib/bcc-2.2.3-gcc/bin/../lib/gcc/sparc-gaisler-elf/10.2.0/../../../../sparc-gaisler-elf/lib/leon3/mfix-ut700/soft/flat/libc.a(lib_a-dtoa.o)
 .debug_abbrev  0x00000000000026dc      0x2cc /home/fsw/rep/tasa/lib/bcc-2.2.3-gcc/bin/../lib/gcc/sparc-gaisler-elf/10.2.0/../../../../sparc-gaisler-elf/lib/leon3/mfix-ut700/soft/flat/libc.a(lib_a-fflush.o)
 .debug_abbrev  0x00000000000029a8      0x339 /home/fsw/rep/tasa/lib/bcc-2.2.3-gcc/bin/../lib/gcc/sparc-gaisler-elf/10.2.0/../../../../sparc-gaisler-elf/lib/leon3/mfix-ut700/soft/flat/libc.a(lib_a-findfp.o)
 .debug_abbrev  0x0000000000002ce1      0x239 /home/fsw/rep/tasa/lib/bcc-2.2.3-gcc/bin/../lib/gcc/sparc-gaisler-elf/10.2.0/../../../../sparc-gaisler-elf/lib/leon3/mfix-ut700/soft/flat/libc.a(lib_a-freer.o)
 .debug_abbrev  0x0000000000002f1a      0x1f4 /home/fsw/rep/tasa/lib/bcc-2.2.3-gcc/bin/../lib/gcc/sparc-gaisler-elf/10.2.0/../../../../sparc-gaisler-elf/lib/leon3/mfix-ut700/soft/flat/libc.a(lib_a-fvwrite.o)
 .debug_abbrev  0x000000000000310e      0x197 /home/fsw/rep/tasa/lib/bcc-2.2.3-gcc/bin/../lib/gcc/sparc-gaisler-elf/10.2.0/../../../../sparc-gaisler-elf/lib/leon3/mfix-ut700/soft/flat/libc.a(lib_a-fwalk.o)
 .debug_abbrev  0x00000000000032a5      0x24b /home/fsw/rep/tasa/lib/bcc-2.2.3-gcc/bin/../lib/gcc/sparc-gaisler-elf/10.2.0/../../../../sparc-gaisler-elf/lib/leon3/mfix-ut700/soft/flat/libc.a(lib_a-localeconv.o)
 .debug_abbrev  0x00000000000034f0      0x278 /home/fsw/rep/tasa/lib/bcc-2.2.3-gcc/bin/../lib/gcc/sparc-gaisler-elf/10.2.0/../../../../sparc-gaisler-elf/lib/leon3/mfix-ut700/soft/flat/libc.a(lib_a-makebuf.o)
 .debug_abbrev  0x0000000000003768      0x1b6 /home/fsw/rep/tasa/lib/bcc-2.2.3-gcc/bin/../lib/gcc/sparc-gaisler-elf/10.2.0/../../../../sparc-gaisler-elf/lib/leon3/mfix-ut700/soft/flat/libc.a(lib_a-malloc.o)
 .debug_abbrev  0x000000000000391e      0x27e /home/fsw/rep/tasa/lib/bcc-2.2.3-gcc/bin/../lib/gcc/sparc-gaisler-elf/10.2.0/../../../../sparc-gaisler-elf/lib/leon3/mfix-ut700/soft/flat/libc.a(lib_a-mallocr.o)
 .debug_abbrev  0x0000000000003b9c       0xd4 /home/fsw/rep/tasa/lib/bcc-2.2.3-gcc/bin/../lib/gcc/sparc-gaisler-elf/10.2.0/../../../../sparc-gaisler-elf/lib/leon3/mfix-ut700/soft/flat/libc.a(lib_a-memchr.o)
 .debug_abbrev  0x0000000000003c70       0xc0 /home/fsw/rep/tasa/lib/bcc-2.2.3-gcc/bin/../lib/gcc/sparc-gaisler-elf/10.2.0/../../../../sparc-gaisler-elf/lib/leon3/mfix-ut700/soft/flat/libc.a(lib_a-memmove.o)
 .debug_abbrev  0x0000000000003d30       0xb4 /home/fsw/rep/tasa/lib/bcc-2.2.3-gcc/bin/../lib/gcc/sparc-gaisler-elf/10.2.0/../../../../sparc-gaisler-elf/lib/leon3/mfix-ut700/soft/flat/libc.a(lib_a-memset.o)
 .debug_abbrev  0x0000000000003de4      0x174 /home/fsw/rep/tasa/lib/bcc-2.2.3-gcc/bin/../lib/gcc/sparc-gaisler-elf/10.2.0/../../../../sparc-gaisler-elf/lib/leon3/mfix-ut700/soft/flat/libc.a(lib_a-mlock.o)
 .debug_abbrev  0x0000000000003f58      0x446 /home/fsw/rep/tasa/lib/bcc-2.2.3-gcc/bin/../lib/gcc/sparc-gaisler-elf/10.2.0/../../../../sparc-gaisler-elf/lib/leon3/mfix-ut700/soft/flat/libc.a(lib_a-mprec.o)
 .debug_abbrev  0x000000000000439e      0x260 /home/fsw/rep/tasa/lib/bcc-2.2.3-gcc/bin/../lib/gcc/sparc-gaisler-elf/10.2.0/../../../../sparc-gaisler-elf/lib/leon3/mfix-ut700/soft/flat/libc.a(lib_a-putc.o)
 .debug_abbrev  0x00000000000045fe      0x224 /home/fsw/rep/tasa/lib/bcc-2.2.3-gcc/bin/../lib/gcc/sparc-gaisler-elf/10.2.0/../../../../sparc-gaisler-elf/lib/leon3/mfix-ut700/soft/flat/libc.a(lib_a-reallocr.o)
 .debug_abbrev  0x0000000000004822      0x15f /home/fsw/rep/tasa/lib/bcc-2.2.3-gcc/bin/../lib/gcc/sparc-gaisler-elf/10.2.0/../../../../sparc-gaisler-elf/lib/leon3/mfix-ut700/soft/flat/libc.a(lib_a-s_frexp.o)
 .debug_abbrev  0x0000000000004981      0x1d6 /home/fsw/rep/tasa/lib/bcc-2.2.3-gcc/bin/../lib/gcc/sparc-gaisler-elf/10.2.0/../../../../sparc-gaisler-elf/lib/leon3/mfix-ut700/soft/flat/libc.a(lib_a-sbrkr.o)
 .debug_abbrev  0x0000000000004b57      0x208 /home/fsw/rep/tasa/lib/bcc-2.2.3-gcc/bin/../lib/gcc/sparc-gaisler-elf/10.2.0/../../../../sparc-gaisler-elf/lib/leon3/mfix-ut700/soft/flat/libc.a(lib_a-stdio.o)
 .debug_abbrev  0x0000000000004d5f       0xbb /home/fsw/rep/tasa/lib/bcc-2.2.3-gcc/bin/../lib/gcc/sparc-gaisler-elf/10.2.0/../../../../sparc-gaisler-elf/lib/leon3/mfix-ut700/soft/flat/libc.a(lib_a-strncpy.o)
 .debug_abbrev  0x0000000000004e1a      0x3e5 /home/fsw/rep/tasa/lib/bcc-2.2.3-gcc/bin/../lib/gcc/sparc-gaisler-elf/10.2.0/../../../../sparc-gaisler-elf/lib/leon3/mfix-ut700/soft/flat/libc.a(lib_a-vfiprintf.o)
 .debug_abbrev  0x00000000000051ff      0x25b /home/fsw/rep/tasa/lib/bcc-2.2.3-gcc/bin/../lib/gcc/sparc-gaisler-elf/10.2.0/../../../../sparc-gaisler-elf/lib/leon3/mfix-ut700/soft/flat/libc.a(lib_a-wbuf.o)
 .debug_abbrev  0x000000000000545a      0x1b0 /home/fsw/rep/tasa/lib/bcc-2.2.3-gcc/bin/../lib/gcc/sparc-gaisler-elf/10.2.0/../../../../sparc-gaisler-elf/lib/leon3/mfix-ut700/soft/flat/libc.a(lib_a-writer.o)
 .debug_abbrev  0x000000000000560a      0x1da /home/fsw/rep/tasa/lib/bcc-2.2.3-gcc/bin/../lib/gcc/sparc-gaisler-elf/10.2.0/../../../../sparc-gaisler-elf/lib/leon3/mfix-ut700/soft/flat/libc.a(lib_a-callocr.o)
 .debug_abbrev  0x00000000000057e4      0x1ab /home/fsw/rep/tasa/lib/bcc-2.2.3-gcc/bin/../lib/gcc/sparc-gaisler-elf/10.2.0/../../../../sparc-gaisler-elf/lib/leon3/mfix-ut700/soft/flat/libc.a(lib_a-closer.o)
 .debug_abbrev  0x000000000000598f      0x27e /home/fsw/rep/tasa/lib/bcc-2.2.3-gcc/bin/../lib/gcc/sparc-gaisler-elf/10.2.0/../../../../sparc-gaisler-elf/lib/leon3/mfix-ut700/soft/flat/libc.a(lib_a-fclose.o)
 .debug_abbrev  0x0000000000005c0d      0x2c3 /home/fsw/rep/tasa/lib/bcc-2.2.3-gcc/bin/../lib/gcc/sparc-gaisler-elf/10.2.0/../../../../sparc-gaisler-elf/lib/leon3/mfix-ut700/soft/flat/libc.a(lib_a-fputwc.o)
 .debug_abbrev  0x0000000000005ed0      0x1bf /home/fsw/rep/tasa/lib/bcc-2.2.3-gcc/bin/../lib/gcc/sparc-gaisler-elf/10.2.0/../../../../sparc-gaisler-elf/lib/leon3/mfix-ut700/soft/flat/libc.a(lib_a-fstatr.o)
 .debug_abbrev  0x000000000000608f      0x1ab /home/fsw/rep/tasa/lib/bcc-2.2.3-gcc/bin/../lib/gcc/sparc-gaisler-elf/10.2.0/../../../../sparc-gaisler-elf/lib/leon3/mfix-ut700/soft/flat/libc.a(lib_a-isattyr.o)
 .debug_abbrev  0x000000000000623a      0x2b6 /home/fsw/rep/tasa/lib/bcc-2.2.3-gcc/bin/../lib/gcc/sparc-gaisler-elf/10.2.0/../../../../sparc-gaisler-elf/lib/leon3/mfix-ut700/soft/flat/libc.a(lib_a-locale.o)
 .debug_abbrev  0x00000000000064f0      0x1bf /home/fsw/rep/tasa/lib/bcc-2.2.3-gcc/bin/../lib/gcc/sparc-gaisler-elf/10.2.0/../../../../sparc-gaisler-elf/lib/leon3/mfix-ut700/soft/flat/libc.a(lib_a-lseekr.o)
 .debug_abbrev  0x00000000000066af      0x266 /home/fsw/rep/tasa/lib/bcc-2.2.3-gcc/bin/../lib/gcc/sparc-gaisler-elf/10.2.0/../../../../sparc-gaisler-elf/lib/leon3/mfix-ut700/soft/flat/libc.a(lib_a-mbtowc_r.o)
 .debug_abbrev  0x0000000000006915      0x1ab /home/fsw/rep/tasa/lib/bcc-2.2.3-gcc/bin/../lib/gcc/sparc-gaisler-elf/10.2.0/../../../../sparc-gaisler-elf/lib/leon3/mfix-ut700/soft/flat/libc.a(lib_a-readr.o)
 .debug_abbrev  0x0000000000006ac0      0x279 /home/fsw/rep/tasa/lib/bcc-2.2.3-gcc/bin/../lib/gcc/sparc-gaisler-elf/10.2.0/../../../../sparc-gaisler-elf/lib/leon3/mfix-ut700/soft/flat/libc.a(lib_a-reent.o)
 .debug_abbrev  0x0000000000006d39       0x80 /home/fsw/rep/tasa/lib/bcc-2.2.3-gcc/bin/../lib/gcc/sparc-gaisler-elf/10.2.0/../../../../sparc-gaisler-elf/lib/leon3/mfix-ut700/soft/flat/libc.a(lib_a-strcmp.o)
 .debug_abbrev  0x0000000000006db9      0x233 /home/fsw/rep/tasa/lib/bcc-2.2.3-gcc/bin/../lib/gcc/sparc-gaisler-elf/10.2.0/../../../../sparc-gaisler-elf/lib/leon3/mfix-ut700/soft/flat/libc.a(lib_a-wcrtomb.o)
 .debug_abbrev  0x0000000000006fec      0x24e /home/fsw/rep/tasa/lib/bcc-2.2.3-gcc/bin/../lib/gcc/sparc-gaisler-elf/10.2.0/../../../../sparc-gaisler-elf/lib/leon3/mfix-ut700/soft/flat/libc.a(lib_a-wctomb_r.o)
 .debug_abbrev  0x000000000000723a       0x73 /home/fsw/rep/tasa/lib/bcc-2.2.3-gcc/bin/../lib/gcc/sparc-gaisler-elf/10.2.0/../../../../sparc-gaisler-elf/lib/leon3/mfix-ut700/soft/flat/libc.a(lib_a-ctype_.o)
 .debug_abbrev  0x00000000000072ad       0x14 /home/fsw/rep/tasa/lib/bcc-2.2.3-gcc/bin/../sparc-gaisler-elf/bsp/leon3/leon3/mfix-ut700/soft/flat/libbcc.a(_exit.S.o)
 .debug_abbrev  0x00000000000072c1       0xc8 /home/fsw/rep/tasa/lib/bcc-2.2.3-gcc/bin/../sparc-gaisler-elf/bsp/leon3/leon3/mfix-ut700/soft/flat/libbcc.a(read.c.o)
 .debug_abbrev  0x0000000000007389       0xc9 /home/fsw/rep/tasa/lib/bcc-2.2.3-gcc/bin/../sparc-gaisler-elf/bsp/leon3/leon3/mfix-ut700/soft/flat/libbcc.a(sbrk.c.o)
 .debug_abbrev  0x0000000000007452       0x60 /home/fsw/rep/tasa/lib/bcc-2.2.3-gcc/bin/../sparc-gaisler-elf/bsp/leon3/leon3/mfix-ut700/soft/flat/libbcc.a(heap.c.o)
 .debug_abbrev  0x00000000000074b2      0x102 /home/fsw/rep/tasa/lib/bcc-2.2.3-gcc/bin/../sparc-gaisler-elf/bsp/leon3/leon3/mfix-ut700/soft/flat/libbcc.a(write.c.o)
 .debug_abbrev  0x00000000000075b4       0x14 /home/fsw/rep/tasa/lib/bcc-2.2.3-gcc/bin/../sparc-gaisler-elf/bsp/leon3/leon3/mfix-ut700/soft/flat/libbcc.a(stubs.S.o)
 .debug_abbrev  0x00000000000075c8      0x13f /home/fsw/rep/tasa/lib/bcc-2.2.3-gcc/bin/../sparc-gaisler-elf/bsp/leon3/leon3/mfix-ut700/soft/flat/libbcc.a(con_apbuart.c.o)
 .debug_abbrev  0x0000000000007707      0x1a5 /home/fsw/rep/tasa/lib/bcc-2.2.3-gcc/bin/../lib/gcc/sparc-gaisler-elf/10.2.0/leon3/mfix-ut700/soft/flat/libgcc.a(_udivdi3.o)
 .debug_abbrev  0x00000000000078ac      0x1b9 /home/fsw/rep/tasa/lib/bcc-2.2.3-gcc/bin/../lib/gcc/sparc-gaisler-elf/10.2.0/leon3/mfix-ut700/soft/flat/libgcc.a(_umoddi3.o)
 .debug_abbrev  0x0000000000007a65      0x257 /home/fsw/rep/tasa/lib/bcc-2.2.3-gcc/bin/../lib/gcc/sparc-gaisler-elf/10.2.0/leon3/mfix-ut700/soft/flat/libgcc.a(_addsub_df.o)
 .debug_abbrev  0x0000000000007cbc      0x26d /home/fsw/rep/tasa/lib/bcc-2.2.3-gcc/bin/../lib/gcc/sparc-gaisler-elf/10.2.0/leon3/mfix-ut700/soft/flat/libgcc.a(_mul_df.o)
 .debug_abbrev  0x0000000000007f29      0x263 /home/fsw/rep/tasa/lib/bcc-2.2.3-gcc/bin/../lib/gcc/sparc-gaisler-elf/10.2.0/leon3/mfix-ut700/soft/flat/libgcc.a(_div_df.o)
 .debug_abbrev  0x000000000000818c      0x195 /home/fsw/rep/tasa/lib/bcc-2.2.3-gcc/bin/../lib/gcc/sparc-gaisler-elf/10.2.0/leon3/mfix-ut700/soft/flat/libgcc.a(_eq_df.o)
 .debug_abbrev  0x0000000000008321      0x195 /home/fsw/rep/tasa/lib/bcc-2.2.3-gcc/bin/../lib/gcc/sparc-gaisler-elf/10.2.0/leon3/mfix-ut700/soft/flat/libgcc.a(_ne_df.o)
 .debug_abbrev  0x00000000000084b6      0x195 /home/fsw/rep/tasa/lib/bcc-2.2.3-gcc/bin/../lib/gcc/sparc-gaisler-elf/10.2.0/leon3/mfix-ut700/soft/flat/libgcc.a(_gt_df.o)
 .debug_abbrev  0x000000000000864b      0x195 /home/fsw/rep/tasa/lib/bcc-2.2.3-gcc/bin/../lib/gcc/sparc-gaisler-elf/10.2.0/leon3/mfix-ut700/soft/flat/libgcc.a(_lt_df.o)
 .debug_abbrev  0x00000000000087e0      0x195 /home/fsw/rep/tasa/lib/bcc-2.2.3-gcc/bin/../lib/gcc/sparc-gaisler-elf/10.2.0/leon3/mfix-ut700/soft/flat/libgcc.a(_le_df.o)
 .debug_abbrev  0x0000000000008975      0x195 /home/fsw/rep/tasa/lib/bcc-2.2.3-gcc/bin/../lib/gcc/sparc-gaisler-elf/10.2.0/leon3/mfix-ut700/soft/flat/libgcc.a(_unord_df.o)
 .debug_abbrev  0x0000000000008b0a      0x1b8 /home/fsw/rep/tasa/lib/bcc-2.2.3-gcc/bin/../lib/gcc/sparc-gaisler-elf/10.2.0/leon3/mfix-ut700/soft/flat/libgcc.a(_si_to_df.o)
 .debug_abbrev  0x0000000000008cc2      0x19c /home/fsw/rep/tasa/lib/bcc-2.2.3-gcc/bin/../lib/gcc/sparc-gaisler-elf/10.2.0/leon3/mfix-ut700/soft/flat/libgcc.a(_df_to_si.o)
 .debug_abbrev  0x0000000000008e5e       0xca /home/fsw/rep/tasa/lib/bcc-2.2.3-gcc/bin/../lib/gcc/sparc-gaisler-elf/10.2.0/leon3/mfix-ut700/soft/flat/libgcc.a(_thenan_df.o)
 .debug_abbrev  0x0000000000008f28      0x1ce /home/fsw/rep/tasa/lib/bcc-2.2.3-gcc/bin/../lib/gcc/sparc-gaisler-elf/10.2.0/leon3/mfix-ut700/soft/flat/libgcc.a(_usi_to_df.o)
 .debug_abbrev  0x00000000000090f6       0x70 /home/fsw/rep/tasa/lib/bcc-2.2.3-gcc/bin/../lib/gcc/sparc-gaisler-elf/10.2.0/leon3/mfix-ut700/soft/flat/libgcc.a(_clz.o)
 .debug_abbrev  0x0000000000009166       0xbf /home/fsw/rep/tasa/lib/bcc-2.2.3-gcc/bin/../lib/gcc/sparc-gaisler-elf/10.2.0/leon3/mfix-ut700/soft/flat/libgcc.a(_clzsi2.o)
 .debug_abbrev  0x0000000000009225      0x1b7 /home/fsw/rep/tasa/lib/bcc-2.2.3-gcc/bin/../lib/gcc/sparc-gaisler-elf/10.2.0/leon3/mfix-ut700/soft/flat/libgcc.a(_pack_df.o)
 .debug_abbrev  0x00000000000093dc      0x130 /home/fsw/rep/tasa/lib/bcc-2.2.3-gcc/bin/../lib/gcc/sparc-gaisler-elf/10.2.0/leon3/mfix-ut700/soft/flat/libgcc.a(_unpack_df.o)
 .debug_abbrev  0x000000000000950c      0x176 /home/fsw/rep/tasa/lib/bcc-2.2.3-gcc/bin/../lib/gcc/sparc-gaisler-elf/10.2.0/leon3/mfix-ut700/soft/flat/libgcc.a(_fpcmp_parts_df.o)

.debug_line     0x0000000000000000    0x152b7
 *(.debug_line)
 .debug_line    0x0000000000000000       0xda /home/fsw/rep/tasa/lib/bcc-2.2.3-gcc/bin/../sparc-gaisler-elf/bsp/leon3/leon3/mfix-ut700/soft/flat/trap_table_mvt_tn0018.S.o
 .debug_line    0x00000000000000da       0x88 /home/fsw/rep/tasa/lib/bcc-2.2.3-gcc/bin/../sparc-gaisler-elf/bsp/leon3/leon3/mfix-ut700/soft/flat/crt0.S.o
 .debug_line    0x0000000000000162      0x1ae /tmp/ccyYqly4.o
 .debug_line    0x0000000000000310       0x8c /home/fsw/rep/tasa/lib/bcc-2.2.3-gcc/bin/../sparc-gaisler-elf/bsp/leon3/leon3/mfix-ut700/soft/flat/libbcc.a(reset_trap_mvt.S.o)
 .debug_line    0x000000000000039c       0x75 /home/fsw/rep/tasa/lib/bcc-2.2.3-gcc/bin/../sparc-gaisler-elf/bsp/leon3/leon3/mfix-ut700/soft/flat/libbcc.a(sw_trap_set_pil.S.o)
 .debug_line    0x0000000000000411       0x5c /home/fsw/rep/tasa/lib/bcc-2.2.3-gcc/bin/../sparc-gaisler-elf/bsp/leon3/leon3/mfix-ut700/soft/flat/libbcc.a(init.S.o)
 .debug_line    0x000000000000046d       0x84 /home/fsw/rep/tasa/lib/bcc-2.2.3-gcc/bin/../sparc-gaisler-elf/bsp/leon3/leon3/mfix-ut700/soft/flat/libbcc.a(leon_info.S.o)
 .debug_line    0x00000000000004f1       0x67 /home/fsw/rep/tasa/lib/bcc-2.2.3-gcc/bin/../sparc-gaisler-elf/bsp/leon3/leon3/mfix-ut700/soft/flat/libbcc.a(dwzero.S.o)
 .debug_line    0x0000000000000558      0x1e2 /home/fsw/rep/tasa/lib/bcc-2.2.3-gcc/bin/../sparc-gaisler-elf/bsp/leon3/leon3/mfix-ut700/soft/flat/libbcc.a(copy_data.c.o)
 .debug_line    0x000000000000073a       0x8c /home/fsw/rep/tasa/lib/bcc-2.2.3-gcc/bin/../sparc-gaisler-elf/bsp/leon3/leon3/mfix-ut700/soft/flat/libbcc.a(argv.c.o)
 .debug_line    0x00000000000007c6       0xcb /home/fsw/rep/tasa/lib/bcc-2.2.3-gcc/bin/../sparc-gaisler-elf/bsp/leon3/leon3/mfix-ut700/soft/flat/libbcc.a(interrupt_trap_flat_tn0018.S.o)
 .debug_line    0x0000000000000891      0x2a6 /home/fsw/rep/tasa/lib/bcc-2.2.3-gcc/bin/../sparc-gaisler-elf/bsp/leon3/leon3/mfix-ut700/soft/flat/libbcc.a(int_irqmp_get_source.c.o)
 .debug_line    0x0000000000000b37      0x319 /home/fsw/rep/tasa/lib/bcc-2.2.3-gcc/bin/../sparc-gaisler-elf/bsp/leon3/leon3/mfix-ut700/soft/flat/libbcc.a(int_irqmp_mp.c.o)
 .debug_line    0x0000000000000e50      0x49d /home/fsw/rep/tasa/lib/bcc-2.2.3-gcc/bin/../sparc-gaisler-elf/bsp/leon3/leon3/mfix-ut700/soft/flat/libbcc.a(int_irqmp_init.c.o)
 .debug_line    0x00000000000012ed      0x260 /home/fsw/rep/tasa/lib/bcc-2.2.3-gcc/bin/../sparc-gaisler-elf/bsp/leon3/leon3/mfix-ut700/soft/flat/libbcc.a(con_apbuart_init.c.o)
 .debug_line    0x000000000000154d      0x285 /home/fsw/rep/tasa/lib/bcc-2.2.3-gcc/bin/../sparc-gaisler-elf/bsp/leon3/leon3/mfix-ut700/soft/flat/libbcc.a(timer_gptimer_init.c.o)
 .debug_line    0x00000000000017d2       0x93 /home/fsw/rep/tasa/lib/bcc-2.2.3-gcc/bin/../sparc-gaisler-elf/bsp/leon3/leon3/mfix-ut700/soft/flat/libbcc.a(isr.c.o)
 .debug_line    0x0000000000001865      0x1c2 /home/fsw/rep/tasa/lib/bcc-2.2.3-gcc/bin/../sparc-gaisler-elf/bsp/leon3/leon3/mfix-ut700/soft/flat/libbcc.a(int_nest.c.o)
 .debug_line    0x0000000000001a27      0x899 /home/fsw/rep/tasa/lib/bcc-2.2.3-gcc/bin/../sparc-gaisler-elf/bsp/leon3/leon3/mfix-ut700/soft/flat/libbcc.a(ambapp.c.o)
 .debug_line    0x00000000000022c0      0x284 /home/fsw/rep/tasa/lib/bcc-2.2.3-gcc/bin/../sparc-gaisler-elf/bsp/leon3/leon3/mfix-ut700/soft/flat/libbcc.a(ambapp_findfirst_fn.c.o)
 .debug_line    0x0000000000002544      0x201 /home/fsw/rep/tasa/lib/bcc-2.2.3-gcc/bin/../sparc-gaisler-elf/bsp/leon3/leon3/mfix-ut700/soft/flat/libbcc.a(int_irqmp_handle.c.o)
 .debug_line    0x0000000000002745      0x1f9 /home/fsw/rep/tasa/lib/bcc-2.2.3-gcc/bin/../sparc-gaisler-elf/bsp/leon3/leon3/mfix-ut700/soft/flat/libbcc.a(con_handle.c.o)
 .debug_line    0x000000000000293e      0x1f9 /home/fsw/rep/tasa/lib/bcc-2.2.3-gcc/bin/../sparc-gaisler-elf/bsp/leon3/leon3/mfix-ut700/soft/flat/libbcc.a(timer_handle.c.o)
 .debug_line    0x0000000000002b37       0xd3 /home/fsw/rep/tasa/lib/bcc-2.2.3-gcc/bin/../lib/gcc/sparc-gaisler-elf/10.2.0/../../../../sparc-gaisler-elf/lib/leon3/mfix-ut700/soft/flat/libc.a(lib_a-atexit.o)
 .debug_line    0x0000000000002c0a      0x209 /home/fsw/rep/tasa/lib/bcc-2.2.3-gcc/bin/../lib/gcc/sparc-gaisler-elf/10.2.0/../../../../sparc-gaisler-elf/lib/leon3/mfix-ut700/soft/flat/libc.a(lib_a-exit.o)
 .debug_line    0x0000000000002e13      0x16e /home/fsw/rep/tasa/lib/bcc-2.2.3-gcc/bin/../lib/gcc/sparc-gaisler-elf/10.2.0/../../../../sparc-gaisler-elf/lib/leon3/mfix-ut700/soft/flat/libc.a(lib_a-impure.o)
 .debug_line    0x0000000000002f81      0x27d /home/fsw/rep/tasa/lib/bcc-2.2.3-gcc/bin/../lib/gcc/sparc-gaisler-elf/10.2.0/../../../../sparc-gaisler-elf/lib/leon3/mfix-ut700/soft/flat/libc.a(lib_a-memcpy.o)
 .debug_line    0x00000000000031fe      0x35c /home/fsw/rep/tasa/lib/bcc-2.2.3-gcc/bin/../lib/gcc/sparc-gaisler-elf/10.2.0/../../../../sparc-gaisler-elf/lib/leon3/mfix-ut700/soft/flat/libc.a(lib_a-printf.o)
 .debug_line    0x000000000000355a      0x2d6 /home/fsw/rep/tasa/lib/bcc-2.2.3-gcc/bin/../lib/gcc/sparc-gaisler-elf/10.2.0/../../../../sparc-gaisler-elf/lib/leon3/mfix-ut700/soft/flat/libc.a(lib_a-putchar.o)
 .debug_line    0x0000000000003830      0x3f9 /home/fsw/rep/tasa/lib/bcc-2.2.3-gcc/bin/../lib/gcc/sparc-gaisler-elf/10.2.0/../../../../sparc-gaisler-elf/lib/leon3/mfix-ut700/soft/flat/libc.a(lib_a-puts.o)
 .debug_line    0x0000000000003c29      0x1dc /home/fsw/rep/tasa/lib/bcc-2.2.3-gcc/bin/../lib/gcc/sparc-gaisler-elf/10.2.0/../../../../sparc-gaisler-elf/lib/leon3/mfix-ut700/soft/flat/libc.a(lib_a-strlen.o)
 .debug_line    0x0000000000003e05     0x1f64 /home/fsw/rep/tasa/lib/bcc-2.2.3-gcc/bin/../lib/gcc/sparc-gaisler-elf/10.2.0/../../../../sparc-gaisler-elf/lib/leon3/mfix-ut700/soft/flat/libc.a(lib_a-vfprintf.o)
 .debug_line    0x0000000000005d69      0x3b1 /home/fsw/rep/tasa/lib/bcc-2.2.3-gcc/bin/../lib/gcc/sparc-gaisler-elf/10.2.0/../../../../sparc-gaisler-elf/lib/leon3/mfix-ut700/soft/flat/libc.a(lib_a-wsetup.o)
 .debug_line    0x000000000000611a      0x248 /home/fsw/rep/tasa/lib/bcc-2.2.3-gcc/bin/../lib/gcc/sparc-gaisler-elf/10.2.0/../../../../sparc-gaisler-elf/lib/leon3/mfix-ut700/soft/flat/libc.a(lib_a-__atexit.o)
 .debug_line    0x0000000000006362      0x338 /home/fsw/rep/tasa/lib/bcc-2.2.3-gcc/bin/../lib/gcc/sparc-gaisler-elf/10.2.0/../../../../sparc-gaisler-elf/lib/leon3/mfix-ut700/soft/flat/libc.a(lib_a-__call_atexit.o)
 .debug_line    0x000000000000669a     0x1409 /home/fsw/rep/tasa/lib/bcc-2.2.3-gcc/bin/../lib/gcc/sparc-gaisler-elf/10.2.0/../../../../sparc-gaisler-elf/lib/leon3/mfix-ut700/soft/flat/libc.a(lib_a-dtoa.o)
 .debug_line    0x0000000000007aa3      0x555 /home/fsw/rep/tasa/lib/bcc-2.2.3-gcc/bin/../lib/gcc/sparc-gaisler-elf/10.2.0/../../../../sparc-gaisler-elf/lib/leon3/mfix-ut700/soft/flat/libc.a(lib_a-fflush.o)
 .debug_line    0x0000000000007ff8      0x5da /home/fsw/rep/tasa/lib/bcc-2.2.3-gcc/bin/../lib/gcc/sparc-gaisler-elf/10.2.0/../../../../sparc-gaisler-elf/lib/leon3/mfix-ut700/soft/flat/libc.a(lib_a-findfp.o)
 .debug_line    0x00000000000085d2      0x580 /home/fsw/rep/tasa/lib/bcc-2.2.3-gcc/bin/../lib/gcc/sparc-gaisler-elf/10.2.0/../../../../sparc-gaisler-elf/lib/leon3/mfix-ut700/soft/flat/libc.a(lib_a-freer.o)
 .debug_line    0x0000000000008b52      0x633 /home/fsw/rep/tasa/lib/bcc-2.2.3-gcc/bin/../lib/gcc/sparc-gaisler-elf/10.2.0/../../../../sparc-gaisler-elf/lib/leon3/mfix-ut700/soft/flat/libc.a(lib_a-fvwrite.o)
 .debug_line    0x0000000000009185      0x2fe /home/fsw/rep/tasa/lib/bcc-2.2.3-gcc/bin/../lib/gcc/sparc-gaisler-elf/10.2.0/../../../../sparc-gaisler-elf/lib/leon3/mfix-ut700/soft/flat/libc.a(lib_a-fwalk.o)
 .debug_line    0x0000000000009483      0x2bd /home/fsw/rep/tasa/lib/bcc-2.2.3-gcc/bin/../lib/gcc/sparc-gaisler-elf/10.2.0/../../../../sparc-gaisler-elf/lib/leon3/mfix-ut700/soft/flat/libc.a(lib_a-localeconv.o)
 .debug_line    0x0000000000009740      0x3e4 /home/fsw/rep/tasa/lib/bcc-2.2.3-gcc/bin/../lib/gcc/sparc-gaisler-elf/10.2.0/../../../../sparc-gaisler-elf/lib/leon3/mfix-ut700/soft/flat/libc.a(lib_a-makebuf.o)
 .debug_line    0x0000000000009b24      0x1ea /home/fsw/rep/tasa/lib/bcc-2.2.3-gcc/bin/../lib/gcc/sparc-gaisler-elf/10.2.0/../../../../sparc-gaisler-elf/lib/leon3/mfix-ut700/soft/flat/libc.a(lib_a-malloc.o)
 .debug_line    0x0000000000009d0e      0x86b /home/fsw/rep/tasa/lib/bcc-2.2.3-gcc/bin/../lib/gcc/sparc-gaisler-elf/10.2.0/../../../../sparc-gaisler-elf/lib/leon3/mfix-ut700/soft/flat/libc.a(lib_a-mallocr.o)
 .debug_line    0x000000000000a579      0x230 /home/fsw/rep/tasa/lib/bcc-2.2.3-gcc/bin/../lib/gcc/sparc-gaisler-elf/10.2.0/../../../../sparc-gaisler-elf/lib/leon3/mfix-ut700/soft/flat/libc.a(lib_a-memchr.o)
 .debug_line    0x000000000000a7a9      0x2cf /home/fsw/rep/tasa/lib/bcc-2.2.3-gcc/bin/../lib/gcc/sparc-gaisler-elf/10.2.0/../../../../sparc-gaisler-elf/lib/leon3/mfix-ut700/soft/flat/libc.a(lib_a-memmove.o)
 .debug_line    0x000000000000aa78      0x291 /home/fsw/rep/tasa/lib/bcc-2.2.3-gcc/bin/../lib/gcc/sparc-gaisler-elf/10.2.0/../../../../sparc-gaisler-elf/lib/leon3/mfix-ut700/soft/flat/libc.a(lib_a-memset.o)
 .debug_line    0x000000000000ad09      0x180 /home/fsw/rep/tasa/lib/bcc-2.2.3-gcc/bin/../lib/gcc/sparc-gaisler-elf/10.2.0/../../../../sparc-gaisler-elf/lib/leon3/mfix-ut700/soft/flat/libc.a(lib_a-mlock.o)
 .debug_line    0x000000000000ae89     0x1b7d /home/fsw/rep/tasa/lib/bcc-2.2.3-gcc/bin/../lib/gcc/sparc-gaisler-elf/10.2.0/../../../../sparc-gaisler-elf/lib/leon3/mfix-ut700/soft/flat/libc.a(lib_a-mprec.o)
 .debug_line    0x000000000000ca06      0x3a3 /home/fsw/rep/tasa/lib/bcc-2.2.3-gcc/bin/../lib/gcc/sparc-gaisler-elf/10.2.0/../../../../sparc-gaisler-elf/lib/leon3/mfix-ut700/soft/flat/libc.a(lib_a-putc.o)
 .debug_line    0x000000000000cda9      0x737 /home/fsw/rep/tasa/lib/bcc-2.2.3-gcc/bin/../lib/gcc/sparc-gaisler-elf/10.2.0/../../../../sparc-gaisler-elf/lib/leon3/mfix-ut700/soft/flat/libc.a(lib_a-reallocr.o)
 .debug_line    0x000000000000d4e0      0x1ee /home/fsw/rep/tasa/lib/bcc-2.2.3-gcc/bin/../lib/gcc/sparc-gaisler-elf/10.2.0/../../../../sparc-gaisler-elf/lib/leon3/mfix-ut700/soft/flat/libc.a(lib_a-s_frexp.o)
 .debug_line    0x000000000000d6ce      0x1f7 /home/fsw/rep/tasa/lib/bcc-2.2.3-gcc/bin/../lib/gcc/sparc-gaisler-elf/10.2.0/../../../../sparc-gaisler-elf/lib/leon3/mfix-ut700/soft/flat/libc.a(lib_a-sbrkr.o)
 .debug_line    0x000000000000d8c5      0x2e0 /home/fsw/rep/tasa/lib/bcc-2.2.3-gcc/bin/../lib/gcc/sparc-gaisler-elf/10.2.0/../../../../sparc-gaisler-elf/lib/leon3/mfix-ut700/soft/flat/libc.a(lib_a-stdio.o)
 .debug_line    0x000000000000dba5      0x29f /home/fsw/rep/tasa/lib/bcc-2.2.3-gcc/bin/../lib/gcc/sparc-gaisler-elf/10.2.0/../../../../sparc-gaisler-elf/lib/leon3/mfix-ut700/soft/flat/libc.a(lib_a-strncpy.o)
 .debug_line    0x000000000000de44     0x1b24 /home/fsw/rep/tasa/lib/bcc-2.2.3-gcc/bin/../lib/gcc/sparc-gaisler-elf/10.2.0/../../../../sparc-gaisler-elf/lib/leon3/mfix-ut700/soft/flat/libc.a(lib_a-vfiprintf.o)
 .debug_line    0x000000000000f968      0x462 /home/fsw/rep/tasa/lib/bcc-2.2.3-gcc/bin/../lib/gcc/sparc-gaisler-elf/10.2.0/../../../../sparc-gaisler-elf/lib/leon3/mfix-ut700/soft/flat/libc.a(lib_a-wbuf.o)
 .debug_line    0x000000000000fdca      0x208 /home/fsw/rep/tasa/lib/bcc-2.2.3-gcc/bin/../lib/gcc/sparc-gaisler-elf/10.2.0/../../../../sparc-gaisler-elf/lib/leon3/mfix-ut700/soft/flat/libc.a(lib_a-writer.o)
 .debug_line    0x000000000000ffd2      0x259 /home/fsw/rep/tasa/lib/bcc-2.2.3-gcc/bin/../lib/gcc/sparc-gaisler-elf/10.2.0/../../../../sparc-gaisler-elf/lib/leon3/mfix-ut700/soft/flat/libc.a(lib_a-callocr.o)
 .debug_line    0x000000000001022b      0x203 /home/fsw/rep/tasa/lib/bcc-2.2.3-gcc/bin/../lib/gcc/sparc-gaisler-elf/10.2.0/../../../../sparc-gaisler-elf/lib/leon3/mfix-ut700/soft/flat/libc.a(lib_a-closer.o)
 .debug_line    0x000000000001042e      0x42f /home/fsw/rep/tasa/lib/bcc-2.2.3-gcc/bin/../lib/gcc/sparc-gaisler-elf/10.2.0/../../../../sparc-gaisler-elf/lib/leon3/mfix-ut700/soft/flat/libc.a(lib_a-fclose.o)
 .debug_line    0x000000000001085d      0x39f /home/fsw/rep/tasa/lib/bcc-2.2.3-gcc/bin/../lib/gcc/sparc-gaisler-elf/10.2.0/../../../../sparc-gaisler-elf/lib/leon3/mfix-ut700/soft/flat/libc.a(lib_a-fputwc.o)
 .debug_line    0x0000000000010bfc      0x21a /home/fsw/rep/tasa/lib/bcc-2.2.3-gcc/bin/../lib/gcc/sparc-gaisler-elf/10.2.0/../../../../sparc-gaisler-elf/lib/leon3/mfix-ut700/soft/flat/libc.a(lib_a-fstatr.o)
 .debug_line    0x0000000000010e16      0x204 /home/fsw/rep/tasa/lib/bcc-2.2.3-gcc/bin/../lib/gcc/sparc-gaisler-elf/10.2.0/../../../../sparc-gaisler-elf/lib/leon3/mfix-ut700/soft/flat/libc.a(lib_a-isattyr.o)
 .debug_line    0x000000000001101a      0x363 /home/fsw/rep/tasa/lib/bcc-2.2.3-gcc/bin/../lib/gcc/sparc-gaisler-elf/10.2.0/../../../../sparc-gaisler-elf/lib/leon3/mfix-ut700/soft/flat/libc.a(lib_a-locale.o)
 .debug_line    0x000000000001137d      0x208 /home/fsw/rep/tasa/lib/bcc-2.2.3-gcc/bin/../lib/gcc/sparc-gaisler-elf/10.2.0/../../../../sparc-gaisler-elf/lib/leon3/mfix-ut700/soft/flat/libc.a(lib_a-lseekr.o)
 .debug_line    0x0000000000011585      0x2d3 /home/fsw/rep/tasa/lib/bcc-2.2.3-gcc/bin/../lib/gcc/sparc-gaisler-elf/10.2.0/../../../../sparc-gaisler-elf/lib/leon3/mfix-ut700/soft/flat/libc.a(lib_a-mbtowc_r.o)
 .debug_line    0x0000000000011858      0x207 /home/fsw/rep/tasa/lib/bcc-2.2.3-gcc/bin/../lib/gcc/sparc-gaisler-elf/10.2.0/../../../../sparc-gaisler-elf/lib/leon3/mfix-ut700/soft/flat/libc.a(lib_a-readr.o)
 .debug_line    0x0000000000011a5f      0x429 /home/fsw/rep/tasa/lib/bcc-2.2.3-gcc/bin/../lib/gcc/sparc-gaisler-elf/10.2.0/../../../../sparc-gaisler-elf/lib/leon3/mfix-ut700/soft/flat/libc.a(lib_a-reent.o)
 .debug_line    0x0000000000011e88      0x155 /home/fsw/rep/tasa/lib/bcc-2.2.3-gcc/bin/../lib/gcc/sparc-gaisler-elf/10.2.0/../../../../sparc-gaisler-elf/lib/leon3/mfix-ut700/soft/flat/libc.a(lib_a-strcmp.o)
 .debug_line    0x0000000000011fdd      0x39b /home/fsw/rep/tasa/lib/bcc-2.2.3-gcc/bin/../lib/gcc/sparc-gaisler-elf/10.2.0/../../../../sparc-gaisler-elf/lib/leon3/mfix-ut700/soft/flat/libc.a(lib_a-wcrtomb.o)
 .debug_line    0x0000000000012378      0x2bb /home/fsw/rep/tasa/lib/bcc-2.2.3-gcc/bin/../lib/gcc/sparc-gaisler-elf/10.2.0/../../../../sparc-gaisler-elf/lib/leon3/mfix-ut700/soft/flat/libc.a(lib_a-wctomb_r.o)
 .debug_line    0x0000000000012633       0xb6 /home/fsw/rep/tasa/lib/bcc-2.2.3-gcc/bin/../lib/gcc/sparc-gaisler-elf/10.2.0/../../../../sparc-gaisler-elf/lib/leon3/mfix-ut700/soft/flat/libc.a(lib_a-ctype_.o)
 .debug_line    0x00000000000126e9       0x5f /home/fsw/rep/tasa/lib/bcc-2.2.3-gcc/bin/../sparc-gaisler-elf/bsp/leon3/leon3/mfix-ut700/soft/flat/libbcc.a(_exit.S.o)
 .debug_line    0x0000000000012748      0x261 /home/fsw/rep/tasa/lib/bcc-2.2.3-gcc/bin/../sparc-gaisler-elf/bsp/leon3/leon3/mfix-ut700/soft/flat/libbcc.a(read.c.o)
 .debug_line    0x00000000000129a9      0x32e /home/fsw/rep/tasa/lib/bcc-2.2.3-gcc/bin/../sparc-gaisler-elf/bsp/leon3/leon3/mfix-ut700/soft/flat/libbcc.a(sbrk.c.o)
 .debug_line    0x0000000000012cd7      0x1eb /home/fsw/rep/tasa/lib/bcc-2.2.3-gcc/bin/../sparc-gaisler-elf/bsp/leon3/leon3/mfix-ut700/soft/flat/libbcc.a(heap.c.o)
 .debug_line    0x0000000000012ec2      0x282 /home/fsw/rep/tasa/lib/bcc-2.2.3-gcc/bin/../sparc-gaisler-elf/bsp/leon3/leon3/mfix-ut700/soft/flat/libbcc.a(write.c.o)
 .debug_line    0x0000000000013144       0x68 /home/fsw/rep/tasa/lib/bcc-2.2.3-gcc/bin/../sparc-gaisler-elf/bsp/leon3/leon3/mfix-ut700/soft/flat/libbcc.a(stubs.S.o)
 .debug_line    0x00000000000131ac      0x325 /home/fsw/rep/tasa/lib/bcc-2.2.3-gcc/bin/../sparc-gaisler-elf/bsp/leon3/leon3/mfix-ut700/soft/flat/libbcc.a(con_apbuart.c.o)
 .debug_line    0x00000000000134d1      0x16d /home/fsw/rep/tasa/lib/bcc-2.2.3-gcc/bin/../lib/gcc/sparc-gaisler-elf/10.2.0/leon3/mfix-ut700/soft/flat/libgcc.a(_udivdi3.o)
 .debug_line    0x000000000001363e      0x1e3 /home/fsw/rep/tasa/lib/bcc-2.2.3-gcc/bin/../lib/gcc/sparc-gaisler-elf/10.2.0/leon3/mfix-ut700/soft/flat/libgcc.a(_umoddi3.o)
 .debug_line    0x0000000000013821      0x61f /home/fsw/rep/tasa/lib/bcc-2.2.3-gcc/bin/../lib/gcc/sparc-gaisler-elf/10.2.0/leon3/mfix-ut700/soft/flat/libgcc.a(_addsub_df.o)
 .debug_line    0x0000000000013e40      0x2de /home/fsw/rep/tasa/lib/bcc-2.2.3-gcc/bin/../lib/gcc/sparc-gaisler-elf/10.2.0/leon3/mfix-ut700/soft/flat/libgcc.a(_mul_df.o)
 .debug_line    0x000000000001411e      0x254 /home/fsw/rep/tasa/lib/bcc-2.2.3-gcc/bin/../lib/gcc/sparc-gaisler-elf/10.2.0/leon3/mfix-ut700/soft/flat/libgcc.a(_div_df.o)
 .debug_line    0x0000000000014372       0xc4 /home/fsw/rep/tasa/lib/bcc-2.2.3-gcc/bin/../lib/gcc/sparc-gaisler-elf/10.2.0/leon3/mfix-ut700/soft/flat/libgcc.a(_eq_df.o)
 .debug_line    0x0000000000014436       0xc4 /home/fsw/rep/tasa/lib/bcc-2.2.3-gcc/bin/../lib/gcc/sparc-gaisler-elf/10.2.0/leon3/mfix-ut700/soft/flat/libgcc.a(_ne_df.o)
 .debug_line    0x00000000000144fa       0xc4 /home/fsw/rep/tasa/lib/bcc-2.2.3-gcc/bin/../lib/gcc/sparc-gaisler-elf/10.2.0/leon3/mfix-ut700/soft/flat/libgcc.a(_gt_df.o)
 .debug_line    0x00000000000145be       0xc4 /home/fsw/rep/tasa/lib/bcc-2.2.3-gcc/bin/../lib/gcc/sparc-gaisler-elf/10.2.0/leon3/mfix-ut700/soft/flat/libgcc.a(_lt_df.o)
 .debug_line    0x0000000000014682       0xc4 /home/fsw/rep/tasa/lib/bcc-2.2.3-gcc/bin/../lib/gcc/sparc-gaisler-elf/10.2.0/leon3/mfix-ut700/soft/flat/libgcc.a(_le_df.o)
 .debug_line    0x0000000000014746       0xc5 /home/fsw/rep/tasa/lib/bcc-2.2.3-gcc/bin/../lib/gcc/sparc-gaisler-elf/10.2.0/leon3/mfix-ut700/soft/flat/libgcc.a(_unord_df.o)
 .debug_line    0x000000000001480b      0x109 /home/fsw/rep/tasa/lib/bcc-2.2.3-gcc/bin/../lib/gcc/sparc-gaisler-elf/10.2.0/leon3/mfix-ut700/soft/flat/libgcc.a(_si_to_df.o)
 .debug_line    0x0000000000014914       0xf7 /home/fsw/rep/tasa/lib/bcc-2.2.3-gcc/bin/../lib/gcc/sparc-gaisler-elf/10.2.0/leon3/mfix-ut700/soft/flat/libgcc.a(_df_to_si.o)
 .debug_line    0x0000000000014a0b       0x61 /home/fsw/rep/tasa/lib/bcc-2.2.3-gcc/bin/../lib/gcc/sparc-gaisler-elf/10.2.0/leon3/mfix-ut700/soft/flat/libgcc.a(_thenan_df.o)
 .debug_line    0x0000000000014a6c       0xe1 /home/fsw/rep/tasa/lib/bcc-2.2.3-gcc/bin/../lib/gcc/sparc-gaisler-elf/10.2.0/leon3/mfix-ut700/soft/flat/libgcc.a(_usi_to_df.o)
 .debug_line    0x0000000000014b4d       0x63 /home/fsw/rep/tasa/lib/bcc-2.2.3-gcc/bin/../lib/gcc/sparc-gaisler-elf/10.2.0/leon3/mfix-ut700/soft/flat/libgcc.a(_clz.o)
 .debug_line    0x0000000000014bb0       0xd4 /home/fsw/rep/tasa/lib/bcc-2.2.3-gcc/bin/../lib/gcc/sparc-gaisler-elf/10.2.0/leon3/mfix-ut700/soft/flat/libgcc.a(_clzsi2.o)
 .debug_line    0x0000000000014c84      0x2f3 /home/fsw/rep/tasa/lib/bcc-2.2.3-gcc/bin/../lib/gcc/sparc-gaisler-elf/10.2.0/leon3/mfix-ut700/soft/flat/libgcc.a(_pack_df.o)
 .debug_line    0x0000000000014f77      0x17e /home/fsw/rep/tasa/lib/bcc-2.2.3-gcc/bin/../lib/gcc/sparc-gaisler-elf/10.2.0/leon3/mfix-ut700/soft/flat/libgcc.a(_unpack_df.o)
 .debug_line    0x00000000000150f5      0x1c2 /home/fsw/rep/tasa/lib/bcc-2.2.3-gcc/bin/../lib/gcc/sparc-gaisler-elf/10.2.0/leon3/mfix-ut700/soft/flat/libgcc.a(_fpcmp_parts_df.o)

.debug_frame    0x0000000000000000     0x1748
 *(.debug_frame)
 .debug_frame   0x0000000000000000       0x34 /tmp/ccyYqly4.o
 .debug_frame   0x0000000000000034       0x2c /home/fsw/rep/tasa/lib/bcc-2.2.3-gcc/bin/../sparc-gaisler-elf/bsp/leon3/leon3/mfix-ut700/soft/flat/libbcc.a(copy_data.c.o)
 .debug_frame   0x0000000000000060       0x20 /home/fsw/rep/tasa/lib/bcc-2.2.3-gcc/bin/../sparc-gaisler-elf/bsp/leon3/leon3/mfix-ut700/soft/flat/libbcc.a(int_irqmp_get_source.c.o)
 .debug_frame   0x0000000000000080       0x40 /home/fsw/rep/tasa/lib/bcc-2.2.3-gcc/bin/../sparc-gaisler-elf/bsp/leon3/leon3/mfix-ut700/soft/flat/libbcc.a(int_irqmp_mp.c.o)
 .debug_frame   0x00000000000000c0       0x30 /home/fsw/rep/tasa/lib/bcc-2.2.3-gcc/bin/../sparc-gaisler-elf/bsp/leon3/leon3/mfix-ut700/soft/flat/libbcc.a(int_irqmp_init.c.o)
 .debug_frame   0x00000000000000f0       0x30 /home/fsw/rep/tasa/lib/bcc-2.2.3-gcc/bin/../sparc-gaisler-elf/bsp/leon3/leon3/mfix-ut700/soft/flat/libbcc.a(con_apbuart_init.c.o)
 .debug_frame   0x0000000000000120       0x30 /home/fsw/rep/tasa/lib/bcc-2.2.3-gcc/bin/../sparc-gaisler-elf/bsp/leon3/leon3/mfix-ut700/soft/flat/libbcc.a(timer_gptimer_init.c.o)
 .debug_frame   0x0000000000000150       0xa4 /home/fsw/rep/tasa/lib/bcc-2.2.3-gcc/bin/../sparc-gaisler-elf/bsp/leon3/leon3/mfix-ut700/soft/flat/libbcc.a(ambapp.c.o)
 .debug_frame   0x00000000000001f4       0x30 /home/fsw/rep/tasa/lib/bcc-2.2.3-gcc/bin/../sparc-gaisler-elf/bsp/leon3/leon3/mfix-ut700/soft/flat/libbcc.a(ambapp_findfirst_fn.c.o)
 .debug_frame   0x0000000000000224       0x20 /home/fsw/rep/tasa/lib/bcc-2.2.3-gcc/bin/../lib/gcc/sparc-gaisler-elf/10.2.0/../../../../sparc-gaisler-elf/lib/leon3/mfix-ut700/soft/flat/libc.a(lib_a-atexit.o)
 .debug_frame   0x0000000000000244       0x30 /home/fsw/rep/tasa/lib/bcc-2.2.3-gcc/bin/../lib/gcc/sparc-gaisler-elf/10.2.0/../../../../sparc-gaisler-elf/lib/leon3/mfix-ut700/soft/flat/libc.a(lib_a-exit.o)
 .debug_frame   0x0000000000000274       0x2c /home/fsw/rep/tasa/lib/bcc-2.2.3-gcc/bin/../lib/gcc/sparc-gaisler-elf/10.2.0/../../../../sparc-gaisler-elf/lib/leon3/mfix-ut700/soft/flat/libc.a(lib_a-memcpy.o)
 .debug_frame   0x00000000000002a0       0x4c /home/fsw/rep/tasa/lib/bcc-2.2.3-gcc/bin/../lib/gcc/sparc-gaisler-elf/10.2.0/../../../../sparc-gaisler-elf/lib/leon3/mfix-ut700/soft/flat/libc.a(lib_a-printf.o)
 .debug_frame   0x00000000000002ec       0x50 /home/fsw/rep/tasa/lib/bcc-2.2.3-gcc/bin/../lib/gcc/sparc-gaisler-elf/10.2.0/../../../../sparc-gaisler-elf/lib/leon3/mfix-ut700/soft/flat/libc.a(lib_a-putchar.o)
 .debug_frame   0x000000000000033c       0x58 /home/fsw/rep/tasa/lib/bcc-2.2.3-gcc/bin/../lib/gcc/sparc-gaisler-elf/10.2.0/../../../../sparc-gaisler-elf/lib/leon3/mfix-ut700/soft/flat/libc.a(lib_a-puts.o)
 .debug_frame   0x0000000000000394       0x2c /home/fsw/rep/tasa/lib/bcc-2.2.3-gcc/bin/../lib/gcc/sparc-gaisler-elf/10.2.0/../../../../sparc-gaisler-elf/lib/leon3/mfix-ut700/soft/flat/libc.a(lib_a-strlen.o)
 .debug_frame   0x00000000000003c0       0x94 /home/fsw/rep/tasa/lib/bcc-2.2.3-gcc/bin/../lib/gcc/sparc-gaisler-elf/10.2.0/../../../../sparc-gaisler-elf/lib/leon3/mfix-ut700/soft/flat/libc.a(lib_a-vfprintf.o)
 .debug_frame   0x0000000000000454       0x34 /home/fsw/rep/tasa/lib/bcc-2.2.3-gcc/bin/../lib/gcc/sparc-gaisler-elf/10.2.0/../../../../sparc-gaisler-elf/lib/leon3/mfix-ut700/soft/flat/libc.a(lib_a-wsetup.o)
 .debug_frame   0x0000000000000488       0x40 /home/fsw/rep/tasa/lib/bcc-2.2.3-gcc/bin/../lib/gcc/sparc-gaisler-elf/10.2.0/../../../../sparc-gaisler-elf/lib/leon3/mfix-ut700/soft/flat/libc.a(lib_a-__atexit.o)
 .debug_frame   0x00000000000004c8       0x58 /home/fsw/rep/tasa/lib/bcc-2.2.3-gcc/bin/../lib/gcc/sparc-gaisler-elf/10.2.0/../../../../sparc-gaisler-elf/lib/leon3/mfix-ut700/soft/flat/libc.a(lib_a-__call_atexit.o)
 .debug_frame   0x0000000000000520       0x8c /home/fsw/rep/tasa/lib/bcc-2.2.3-gcc/bin/../lib/gcc/sparc-gaisler-elf/10.2.0/../../../../sparc-gaisler-elf/lib/leon3/mfix-ut700/soft/flat/libc.a(lib_a-dtoa.o)
 .debug_frame   0x00000000000005ac       0x74 /home/fsw/rep/tasa/lib/bcc-2.2.3-gcc/bin/../lib/gcc/sparc-gaisler-elf/10.2.0/../../../../sparc-gaisler-elf/lib/leon3/mfix-ut700/soft/flat/libc.a(lib_a-fflush.o)
 .debug_frame   0x0000000000000620       0xc0 /home/fsw/rep/tasa/lib/bcc-2.2.3-gcc/bin/../lib/gcc/sparc-gaisler-elf/10.2.0/../../../../sparc-gaisler-elf/lib/leon3/mfix-ut700/soft/flat/libc.a(lib_a-findfp.o)
 .debug_frame   0x00000000000006e0       0x5c /home/fsw/rep/tasa/lib/bcc-2.2.3-gcc/bin/../lib/gcc/sparc-gaisler-elf/10.2.0/../../../../sparc-gaisler-elf/lib/leon3/mfix-ut700/soft/flat/libc.a(lib_a-freer.o)
 .debug_frame   0x000000000000073c       0x4c /home/fsw/rep/tasa/lib/bcc-2.2.3-gcc/bin/../lib/gcc/sparc-gaisler-elf/10.2.0/../../../../sparc-gaisler-elf/lib/leon3/mfix-ut700/soft/flat/libc.a(lib_a-fvwrite.o)
 .debug_frame   0x0000000000000788       0x6c /home/fsw/rep/tasa/lib/bcc-2.2.3-gcc/bin/../lib/gcc/sparc-gaisler-elf/10.2.0/../../../../sparc-gaisler-elf/lib/leon3/mfix-ut700/soft/flat/libc.a(lib_a-fwalk.o)
 .debug_frame   0x00000000000007f4       0x40 /home/fsw/rep/tasa/lib/bcc-2.2.3-gcc/bin/../lib/gcc/sparc-gaisler-elf/10.2.0/../../../../sparc-gaisler-elf/lib/leon3/mfix-ut700/soft/flat/libc.a(lib_a-localeconv.o)
 .debug_frame   0x0000000000000834       0x64 /home/fsw/rep/tasa/lib/bcc-2.2.3-gcc/bin/../lib/gcc/sparc-gaisler-elf/10.2.0/../../../../sparc-gaisler-elf/lib/leon3/mfix-ut700/soft/flat/libc.a(lib_a-makebuf.o)
 .debug_frame   0x0000000000000898       0x30 /home/fsw/rep/tasa/lib/bcc-2.2.3-gcc/bin/../lib/gcc/sparc-gaisler-elf/10.2.0/../../../../sparc-gaisler-elf/lib/leon3/mfix-ut700/soft/flat/libc.a(lib_a-malloc.o)
 .debug_frame   0x00000000000008c8       0x48 /home/fsw/rep/tasa/lib/bcc-2.2.3-gcc/bin/../lib/gcc/sparc-gaisler-elf/10.2.0/../../../../sparc-gaisler-elf/lib/leon3/mfix-ut700/soft/flat/libc.a(lib_a-mallocr.o)
 .debug_frame   0x0000000000000910       0x2c /home/fsw/rep/tasa/lib/bcc-2.2.3-gcc/bin/../lib/gcc/sparc-gaisler-elf/10.2.0/../../../../sparc-gaisler-elf/lib/leon3/mfix-ut700/soft/flat/libc.a(lib_a-memchr.o)
 .debug_frame   0x000000000000093c       0x2c /home/fsw/rep/tasa/lib/bcc-2.2.3-gcc/bin/../lib/gcc/sparc-gaisler-elf/10.2.0/../../../../sparc-gaisler-elf/lib/leon3/mfix-ut700/soft/flat/libc.a(lib_a-memmove.o)
 .debug_frame   0x0000000000000968       0x2c /home/fsw/rep/tasa/lib/bcc-2.2.3-gcc/bin/../lib/gcc/sparc-gaisler-elf/10.2.0/../../../../sparc-gaisler-elf/lib/leon3/mfix-ut700/soft/flat/libc.a(lib_a-memset.o)
 .debug_frame   0x0000000000000994       0x30 /home/fsw/rep/tasa/lib/bcc-2.2.3-gcc/bin/../lib/gcc/sparc-gaisler-elf/10.2.0/../../../../sparc-gaisler-elf/lib/leon3/mfix-ut700/soft/flat/libc.a(lib_a-mlock.o)
 .debug_frame   0x00000000000009c4      0x2ac /home/fsw/rep/tasa/lib/bcc-2.2.3-gcc/bin/../lib/gcc/sparc-gaisler-elf/10.2.0/../../../../sparc-gaisler-elf/lib/leon3/mfix-ut700/soft/flat/libc.a(lib_a-mprec.o)
 .debug_frame   0x0000000000000c70       0x54 /home/fsw/rep/tasa/lib/bcc-2.2.3-gcc/bin/../lib/gcc/sparc-gaisler-elf/10.2.0/../../../../sparc-gaisler-elf/lib/leon3/mfix-ut700/soft/flat/libc.a(lib_a-putc.o)
 .debug_frame   0x0000000000000cc4       0x48 /home/fsw/rep/tasa/lib/bcc-2.2.3-gcc/bin/../lib/gcc/sparc-gaisler-elf/10.2.0/../../../../sparc-gaisler-elf/lib/leon3/mfix-ut700/soft/flat/libc.a(lib_a-reallocr.o)
 .debug_frame   0x0000000000000d0c       0x30 /home/fsw/rep/tasa/lib/bcc-2.2.3-gcc/bin/../lib/gcc/sparc-gaisler-elf/10.2.0/../../../../sparc-gaisler-elf/lib/leon3/mfix-ut700/soft/flat/libc.a(lib_a-s_frexp.o)
 .debug_frame   0x0000000000000d3c       0x34 /home/fsw/rep/tasa/lib/bcc-2.2.3-gcc/bin/../lib/gcc/sparc-gaisler-elf/10.2.0/../../../../sparc-gaisler-elf/lib/leon3/mfix-ut700/soft/flat/libc.a(lib_a-sbrkr.o)
 .debug_frame   0x0000000000000d70       0x98 /home/fsw/rep/tasa/lib/bcc-2.2.3-gcc/bin/../lib/gcc/sparc-gaisler-elf/10.2.0/../../../../sparc-gaisler-elf/lib/leon3/mfix-ut700/soft/flat/libc.a(lib_a-stdio.o)
 .debug_frame   0x0000000000000e08       0x2c /home/fsw/rep/tasa/lib/bcc-2.2.3-gcc/bin/../lib/gcc/sparc-gaisler-elf/10.2.0/../../../../sparc-gaisler-elf/lib/leon3/mfix-ut700/soft/flat/libc.a(lib_a-strncpy.o)
 .debug_frame   0x0000000000000e34       0xcc /home/fsw/rep/tasa/lib/bcc-2.2.3-gcc/bin/../lib/gcc/sparc-gaisler-elf/10.2.0/../../../../sparc-gaisler-elf/lib/leon3/mfix-ut700/soft/flat/libc.a(lib_a-vfiprintf.o)
 .debug_frame   0x0000000000000f00       0x60 /home/fsw/rep/tasa/lib/bcc-2.2.3-gcc/bin/../lib/gcc/sparc-gaisler-elf/10.2.0/../../../../sparc-gaisler-elf/lib/leon3/mfix-ut700/soft/flat/libc.a(lib_a-wbuf.o)
 .debug_frame   0x0000000000000f60       0x34 /home/fsw/rep/tasa/lib/bcc-2.2.3-gcc/bin/../lib/gcc/sparc-gaisler-elf/10.2.0/../../../../sparc-gaisler-elf/lib/leon3/mfix-ut700/soft/flat/libc.a(lib_a-writer.o)
 .debug_frame   0x0000000000000f94       0x30 /home/fsw/rep/tasa/lib/bcc-2.2.3-gcc/bin/../lib/gcc/sparc-gaisler-elf/10.2.0/../../../../sparc-gaisler-elf/lib/leon3/mfix-ut700/soft/flat/libc.a(lib_a-callocr.o)
 .debug_frame   0x0000000000000fc4       0x34 /home/fsw/rep/tasa/lib/bcc-2.2.3-gcc/bin/../lib/gcc/sparc-gaisler-elf/10.2.0/../../../../sparc-gaisler-elf/lib/leon3/mfix-ut700/soft/flat/libc.a(lib_a-closer.o)
 .debug_frame   0x0000000000000ff8       0x5c /home/fsw/rep/tasa/lib/bcc-2.2.3-gcc/bin/../lib/gcc/sparc-gaisler-elf/10.2.0/../../../../sparc-gaisler-elf/lib/leon3/mfix-ut700/soft/flat/libc.a(lib_a-fclose.o)
 .debug_frame   0x0000000000001054       0x68 /home/fsw/rep/tasa/lib/bcc-2.2.3-gcc/bin/../lib/gcc/sparc-gaisler-elf/10.2.0/../../../../sparc-gaisler-elf/lib/leon3/mfix-ut700/soft/flat/libc.a(lib_a-fputwc.o)
 .debug_frame   0x00000000000010bc       0x34 /home/fsw/rep/tasa/lib/bcc-2.2.3-gcc/bin/../lib/gcc/sparc-gaisler-elf/10.2.0/../../../../sparc-gaisler-elf/lib/leon3/mfix-ut700/soft/flat/libc.a(lib_a-fstatr.o)
 .debug_frame   0x00000000000010f0       0x34 /home/fsw/rep/tasa/lib/bcc-2.2.3-gcc/bin/../lib/gcc/sparc-gaisler-elf/10.2.0/../../../../sparc-gaisler-elf/lib/leon3/mfix-ut700/soft/flat/libc.a(lib_a-isattyr.o)
 .debug_frame   0x0000000000001124       0x88 /home/fsw/rep/tasa/lib/bcc-2.2.3-gcc/bin/../lib/gcc/sparc-gaisler-elf/10.2.0/../../../../sparc-gaisler-elf/lib/leon3/mfix-ut700/soft/flat/libc.a(lib_a-locale.o)
 .debug_frame   0x00000000000011ac       0x34 /home/fsw/rep/tasa/lib/bcc-2.2.3-gcc/bin/../lib/gcc/sparc-gaisler-elf/10.2.0/../../../../sparc-gaisler-elf/lib/leon3/mfix-ut700/soft/flat/libc.a(lib_a-lseekr.o)
 .debug_frame   0x00000000000011e0       0x40 /home/fsw/rep/tasa/lib/bcc-2.2.3-gcc/bin/../lib/gcc/sparc-gaisler-elf/10.2.0/../../../../sparc-gaisler-elf/lib/leon3/mfix-ut700/soft/flat/libc.a(lib_a-mbtowc_r.o)
 .debug_frame   0x0000000000001220       0x34 /home/fsw/rep/tasa/lib/bcc-2.2.3-gcc/bin/../lib/gcc/sparc-gaisler-elf/10.2.0/../../../../sparc-gaisler-elf/lib/leon3/mfix-ut700/soft/flat/libc.a(lib_a-readr.o)
 .debug_frame   0x0000000000001254       0x74 /home/fsw/rep/tasa/lib/bcc-2.2.3-gcc/bin/../lib/gcc/sparc-gaisler-elf/10.2.0/../../../../sparc-gaisler-elf/lib/leon3/mfix-ut700/soft/flat/libc.a(lib_a-reent.o)
 .debug_frame   0x00000000000012c8       0x20 /home/fsw/rep/tasa/lib/bcc-2.2.3-gcc/bin/../lib/gcc/sparc-gaisler-elf/10.2.0/../../../../sparc-gaisler-elf/lib/leon3/mfix-ut700/soft/flat/libc.a(lib_a-strcmp.o)
 .debug_frame   0x00000000000012e8       0x50 /home/fsw/rep/tasa/lib/bcc-2.2.3-gcc/bin/../lib/gcc/sparc-gaisler-elf/10.2.0/../../../../sparc-gaisler-elf/lib/leon3/mfix-ut700/soft/flat/libc.a(lib_a-wcrtomb.o)
 .debug_frame   0x0000000000001338       0x3c /home/fsw/rep/tasa/lib/bcc-2.2.3-gcc/bin/../lib/gcc/sparc-gaisler-elf/10.2.0/../../../../sparc-gaisler-elf/lib/leon3/mfix-ut700/soft/flat/libc.a(lib_a-wctomb_r.o)
 .debug_frame   0x0000000000001374       0x38 /home/fsw/rep/tasa/lib/bcc-2.2.3-gcc/bin/../sparc-gaisler-elf/bsp/leon3/leon3/mfix-ut700/soft/flat/libbcc.a(read.c.o)
 .debug_frame   0x00000000000013ac       0x2c /home/fsw/rep/tasa/lib/bcc-2.2.3-gcc/bin/../sparc-gaisler-elf/bsp/leon3/leon3/mfix-ut700/soft/flat/libbcc.a(sbrk.c.o)
 .debug_frame   0x00000000000013d8       0x38 /home/fsw/rep/tasa/lib/bcc-2.2.3-gcc/bin/../sparc-gaisler-elf/bsp/leon3/leon3/mfix-ut700/soft/flat/libbcc.a(write.c.o)
 .debug_frame   0x0000000000001410       0x30 /home/fsw/rep/tasa/lib/bcc-2.2.3-gcc/bin/../sparc-gaisler-elf/bsp/leon3/leon3/mfix-ut700/soft/flat/libbcc.a(con_apbuart.c.o)
 .debug_frame   0x0000000000001440       0x54 /home/fsw/rep/tasa/lib/bcc-2.2.3-gcc/bin/../lib/gcc/sparc-gaisler-elf/10.2.0/leon3/mfix-ut700/soft/flat/libgcc.a(_addsub_df.o)
 .debug_frame   0x0000000000001494       0x3c /home/fsw/rep/tasa/lib/bcc-2.2.3-gcc/bin/../lib/gcc/sparc-gaisler-elf/10.2.0/leon3/mfix-ut700/soft/flat/libgcc.a(_mul_df.o)
 .debug_frame   0x00000000000014d0       0x3c /home/fsw/rep/tasa/lib/bcc-2.2.3-gcc/bin/../lib/gcc/sparc-gaisler-elf/10.2.0/leon3/mfix-ut700/soft/flat/libgcc.a(_div_df.o)
 .debug_frame   0x000000000000150c       0x2c /home/fsw/rep/tasa/lib/bcc-2.2.3-gcc/bin/../lib/gcc/sparc-gaisler-elf/10.2.0/leon3/mfix-ut700/soft/flat/libgcc.a(_eq_df.o)
 .debug_frame   0x0000000000001538       0x2c /home/fsw/rep/tasa/lib/bcc-2.2.3-gcc/bin/../lib/gcc/sparc-gaisler-elf/10.2.0/leon3/mfix-ut700/soft/flat/libgcc.a(_ne_df.o)
 .debug_frame   0x0000000000001564       0x2c /home/fsw/rep/tasa/lib/bcc-2.2.3-gcc/bin/../lib/gcc/sparc-gaisler-elf/10.2.0/leon3/mfix-ut700/soft/flat/libgcc.a(_gt_df.o)
 .debug_frame   0x0000000000001590       0x2c /home/fsw/rep/tasa/lib/bcc-2.2.3-gcc/bin/../lib/gcc/sparc-gaisler-elf/10.2.0/leon3/mfix-ut700/soft/flat/libgcc.a(_lt_df.o)
 .debug_frame   0x00000000000015bc       0x2c /home/fsw/rep/tasa/lib/bcc-2.2.3-gcc/bin/../lib/gcc/sparc-gaisler-elf/10.2.0/leon3/mfix-ut700/soft/flat/libgcc.a(_le_df.o)
 .debug_frame   0x00000000000015e8       0x2c /home/fsw/rep/tasa/lib/bcc-2.2.3-gcc/bin/../lib/gcc/sparc-gaisler-elf/10.2.0/leon3/mfix-ut700/soft/flat/libgcc.a(_unord_df.o)
 .debug_frame   0x0000000000001614       0x30 /home/fsw/rep/tasa/lib/bcc-2.2.3-gcc/bin/../lib/gcc/sparc-gaisler-elf/10.2.0/leon3/mfix-ut700/soft/flat/libgcc.a(_si_to_df.o)
 .debug_frame   0x0000000000001644       0x2c /home/fsw/rep/tasa/lib/bcc-2.2.3-gcc/bin/../lib/gcc/sparc-gaisler-elf/10.2.0/leon3/mfix-ut700/soft/flat/libgcc.a(_df_to_si.o)
 .debug_frame   0x0000000000001670       0x30 /home/fsw/rep/tasa/lib/bcc-2.2.3-gcc/bin/../lib/gcc/sparc-gaisler-elf/10.2.0/leon3/mfix-ut700/soft/flat/libgcc.a(_usi_to_df.o)
 .debug_frame   0x00000000000016a0       0x20 /home/fsw/rep/tasa/lib/bcc-2.2.3-gcc/bin/../lib/gcc/sparc-gaisler-elf/10.2.0/leon3/mfix-ut700/soft/flat/libgcc.a(_clzsi2.o)
 .debug_frame   0x00000000000016c0       0x30 /home/fsw/rep/tasa/lib/bcc-2.2.3-gcc/bin/../lib/gcc/sparc-gaisler-elf/10.2.0/leon3/mfix-ut700/soft/flat/libgcc.a(_pack_df.o)
 .debug_frame   0x00000000000016f0       0x2c /home/fsw/rep/tasa/lib/bcc-2.2.3-gcc/bin/../lib/gcc/sparc-gaisler-elf/10.2.0/leon3/mfix-ut700/soft/flat/libgcc.a(_unpack_df.o)
 .debug_frame   0x000000000000171c       0x2c /home/fsw/rep/tasa/lib/bcc-2.2.3-gcc/bin/../lib/gcc/sparc-gaisler-elf/10.2.0/leon3/mfix-ut700/soft/flat/libgcc.a(_fpcmp_parts_df.o)

.debug_str      0x0000000000000000     0x35b9
 *(.debug_str)
 .debug_str     0x0000000000000000       0xb3 /home/fsw/rep/tasa/lib/bcc-2.2.3-gcc/bin/../sparc-gaisler-elf/bsp/leon3/leon3/mfix-ut700/soft/flat/trap_table_mvt_tn0018.S.o
 .debug_str     0x00000000000000b3       0x2c /home/fsw/rep/tasa/lib/bcc-2.2.3-gcc/bin/../sparc-gaisler-elf/bsp/leon3/leon3/mfix-ut700/soft/flat/crt0.S.o
                                         0xa4 (size before relaxing)
 .debug_str     0x00000000000000df      0x133 /tmp/ccyYqly4.o
                                        0x18b (size before relaxing)
 .debug_str     0x0000000000000212       0x3b /home/fsw/rep/tasa/lib/bcc-2.2.3-gcc/bin/../sparc-gaisler-elf/bsp/leon3/leon3/mfix-ut700/soft/flat/libbcc.a(reset_trap_mvt.S.o)
                                         0xb3 (size before relaxing)
 .debug_str     0x000000000000024d       0x3c /home/fsw/rep/tasa/lib/bcc-2.2.3-gcc/bin/../sparc-gaisler-elf/bsp/leon3/leon3/mfix-ut700/soft/flat/libbcc.a(sw_trap_set_pil.S.o)
                                         0xb4 (size before relaxing)
 .debug_str     0x0000000000000289       0x2c /home/fsw/rep/tasa/lib/bcc-2.2.3-gcc/bin/../sparc-gaisler-elf/bsp/leon3/leon3/mfix-ut700/soft/flat/libbcc.a(init.S.o)
                                         0xa4 (size before relaxing)
 .debug_str     0x00000000000002b5       0x31 /home/fsw/rep/tasa/lib/bcc-2.2.3-gcc/bin/../sparc-gaisler-elf/bsp/leon3/leon3/mfix-ut700/soft/flat/libbcc.a(leon_info.S.o)
                                         0xa9 (size before relaxing)
 .debug_str     0x00000000000002e6       0x2e /home/fsw/rep/tasa/lib/bcc-2.2.3-gcc/bin/../sparc-gaisler-elf/bsp/leon3/leon3/mfix-ut700/soft/flat/libbcc.a(dwzero.S.o)
                                         0xa6 (size before relaxing)
 .debug_str     0x0000000000000314       0xcd /home/fsw/rep/tasa/lib/bcc-2.2.3-gcc/bin/../sparc-gaisler-elf/bsp/leon3/leon3/mfix-ut700/soft/flat/libbcc.a(copy_data.c.o)
                                        0x1c6 (size before relaxing)
 .debug_str     0x00000000000003e1       0x4e /home/fsw/rep/tasa/lib/bcc-2.2.3-gcc/bin/../sparc-gaisler-elf/bsp/leon3/leon3/mfix-ut700/soft/flat/libbcc.a(argv.c.o)
                                        0x19b (size before relaxing)
 .debug_str     0x000000000000042f       0x40 /home/fsw/rep/tasa/lib/bcc-2.2.3-gcc/bin/../sparc-gaisler-elf/bsp/leon3/leon3/mfix-ut700/soft/flat/libbcc.a(interrupt_trap_flat_tn0018.S.o)
                                         0xb8 (size before relaxing)
 .debug_str     0x000000000000046f      0x17b /home/fsw/rep/tasa/lib/bcc-2.2.3-gcc/bin/../sparc-gaisler-elf/bsp/leon3/leon3/mfix-ut700/soft/flat/libbcc.a(int_irqmp_get_source.c.o)
                                        0x2e8 (size before relaxing)
 .debug_str     0x00000000000005ea       0x93 /home/fsw/rep/tasa/lib/bcc-2.2.3-gcc/bin/../sparc-gaisler-elf/bsp/leon3/leon3/mfix-ut700/soft/flat/libbcc.a(int_irqmp_mp.c.o)
                                        0x325 (size before relaxing)
 .debug_str     0x000000000000067d       0xf3 /home/fsw/rep/tasa/lib/bcc-2.2.3-gcc/bin/../sparc-gaisler-elf/bsp/leon3/leon3/mfix-ut700/soft/flat/libbcc.a(int_irqmp_init.c.o)
                                        0x3ba (size before relaxing)
 .debug_str     0x0000000000000770       0x60 /home/fsw/rep/tasa/lib/bcc-2.2.3-gcc/bin/../sparc-gaisler-elf/bsp/leon3/leon3/mfix-ut700/soft/flat/libbcc.a(con_apbuart_init.c.o)
                                        0x1f7 (size before relaxing)
 .debug_str     0x00000000000007d0       0x7a /home/fsw/rep/tasa/lib/bcc-2.2.3-gcc/bin/../sparc-gaisler-elf/bsp/leon3/leon3/mfix-ut700/soft/flat/libbcc.a(timer_gptimer_init.c.o)
                                        0x25b (size before relaxing)
 .debug_str     0x000000000000084a       0x59 /home/fsw/rep/tasa/lib/bcc-2.2.3-gcc/bin/../sparc-gaisler-elf/bsp/leon3/leon3/mfix-ut700/soft/flat/libbcc.a(isr.c.o)
                                        0x1ad (size before relaxing)
 .debug_str     0x00000000000008a3       0x6d /home/fsw/rep/tasa/lib/bcc-2.2.3-gcc/bin/../sparc-gaisler-elf/bsp/leon3/leon3/mfix-ut700/soft/flat/libbcc.a(int_nest.c.o)
                                        0x1c7 (size before relaxing)
 .debug_str     0x0000000000000910       0xfc /home/fsw/rep/tasa/lib/bcc-2.2.3-gcc/bin/../sparc-gaisler-elf/bsp/leon3/leon3/mfix-ut700/soft/flat/libbcc.a(ambapp.c.o)
                                        0x2ce (size before relaxing)
 .debug_str     0x0000000000000a0c       0x6b /home/fsw/rep/tasa/lib/bcc-2.2.3-gcc/bin/../sparc-gaisler-elf/bsp/leon3/leon3/mfix-ut700/soft/flat/libbcc.a(ambapp_findfirst_fn.c.o)
                                        0x269 (size before relaxing)
 .debug_str     0x0000000000000a77       0x42 /home/fsw/rep/tasa/lib/bcc-2.2.3-gcc/bin/../sparc-gaisler-elf/bsp/leon3/leon3/mfix-ut700/soft/flat/libbcc.a(int_irqmp_handle.c.o)
                                        0x1f1 (size before relaxing)
 .debug_str     0x0000000000000ab9       0x3a /home/fsw/rep/tasa/lib/bcc-2.2.3-gcc/bin/../sparc-gaisler-elf/bsp/leon3/leon3/mfix-ut700/soft/flat/libbcc.a(con_handle.c.o)
                                        0x1ac (size before relaxing)
 .debug_str     0x0000000000000af3       0x3a /home/fsw/rep/tasa/lib/bcc-2.2.3-gcc/bin/../sparc-gaisler-elf/bsp/leon3/leon3/mfix-ut700/soft/flat/libbcc.a(timer_handle.c.o)
                                        0x1c4 (size before relaxing)
 .debug_str     0x0000000000000b2d      0x1bc /home/fsw/rep/tasa/lib/bcc-2.2.3-gcc/bin/../lib/gcc/sparc-gaisler-elf/10.2.0/../../../../sparc-gaisler-elf/lib/leon3/mfix-ut700/soft/flat/libc.a(lib_a-atexit.o)
                                        0x24c (size before relaxing)
 .debug_str     0x0000000000000ce9      0x341 /home/fsw/rep/tasa/lib/bcc-2.2.3-gcc/bin/../lib/gcc/sparc-gaisler-elf/10.2.0/../../../../sparc-gaisler-elf/lib/leon3/mfix-ut700/soft/flat/libc.a(lib_a-exit.o)
                                        0x56a (size before relaxing)
 .debug_str     0x000000000000102a      0x141 /home/fsw/rep/tasa/lib/bcc-2.2.3-gcc/bin/../lib/gcc/sparc-gaisler-elf/10.2.0/../../../../sparc-gaisler-elf/lib/leon3/mfix-ut700/soft/flat/libc.a(lib_a-impure.o)
                                        0x5a0 (size before relaxing)
 .debug_str     0x000000000000116b      0x11f /home/fsw/rep/tasa/lib/bcc-2.2.3-gcc/bin/../lib/gcc/sparc-gaisler-elf/10.2.0/../../../../sparc-gaisler-elf/lib/leon3/mfix-ut700/soft/flat/libc.a(lib_a-memcpy.o)
                                        0x236 (size before relaxing)
 .debug_str     0x000000000000128a      0x135 /home/fsw/rep/tasa/lib/bcc-2.2.3-gcc/bin/../lib/gcc/sparc-gaisler-elf/10.2.0/../../../../sparc-gaisler-elf/lib/leon3/mfix-ut700/soft/flat/libc.a(lib_a-printf.o)
                                        0x590 (size before relaxing)
 .debug_str     0x00000000000013bf       0x57 /home/fsw/rep/tasa/lib/bcc-2.2.3-gcc/bin/../lib/gcc/sparc-gaisler-elf/10.2.0/../../../../sparc-gaisler-elf/lib/leon3/mfix-ut700/soft/flat/libc.a(lib_a-putchar.o)
                                        0x56c (size before relaxing)
 .debug_str     0x0000000000001416       0xa9 /home/fsw/rep/tasa/lib/bcc-2.2.3-gcc/bin/../lib/gcc/sparc-gaisler-elf/10.2.0/../../../../sparc-gaisler-elf/lib/leon3/mfix-ut700/soft/flat/libc.a(lib_a-puts.o)
                                        0x607 (size before relaxing)
 .debug_str     0x00000000000014bf       0x51 /home/fsw/rep/tasa/lib/bcc-2.2.3-gcc/bin/../lib/gcc/sparc-gaisler-elf/10.2.0/../../../../sparc-gaisler-elf/lib/leon3/mfix-ut700/soft/flat/libc.a(lib_a-strlen.o)
                                        0x222 (size before relaxing)
 .debug_str     0x0000000000001510      0x405 /home/fsw/rep/tasa/lib/bcc-2.2.3-gcc/bin/../lib/gcc/sparc-gaisler-elf/10.2.0/../../../../sparc-gaisler-elf/lib/leon3/mfix-ut700/soft/flat/libc.a(lib_a-vfprintf.o)
                                        0xa92 (size before relaxing)
 .debug_str     0x0000000000001915       0x50 /home/fsw/rep/tasa/lib/bcc-2.2.3-gcc/bin/../lib/gcc/sparc-gaisler-elf/10.2.0/../../../../sparc-gaisler-elf/lib/leon3/mfix-ut700/soft/flat/libc.a(lib_a-wsetup.o)
                                        0x5bf (size before relaxing)
 .debug_str     0x0000000000001965       0xbc /home/fsw/rep/tasa/lib/bcc-2.2.3-gcc/bin/../lib/gcc/sparc-gaisler-elf/10.2.0/../../../../sparc-gaisler-elf/lib/leon3/mfix-ut700/soft/flat/libc.a(lib_a-__atexit.o)
                                        0x2eb (size before relaxing)
 .debug_str     0x0000000000001a21       0x67 /home/fsw/rep/tasa/lib/bcc-2.2.3-gcc/bin/../lib/gcc/sparc-gaisler-elf/10.2.0/../../../../sparc-gaisler-elf/lib/leon3/mfix-ut700/soft/flat/libc.a(lib_a-__call_atexit.o)
                                        0x2b8 (size before relaxing)
 .debug_str     0x0000000000001a88      0x180 /home/fsw/rep/tasa/lib/bcc-2.2.3-gcc/bin/../lib/gcc/sparc-gaisler-elf/10.2.0/../../../../sparc-gaisler-elf/lib/leon3/mfix-ut700/soft/flat/libc.a(lib_a-dtoa.o)
                                        0x8f5 (size before relaxing)
 .debug_str     0x0000000000001c08       0x73 /home/fsw/rep/tasa/lib/bcc-2.2.3-gcc/bin/../lib/gcc/sparc-gaisler-elf/10.2.0/../../../../sparc-gaisler-elf/lib/leon3/mfix-ut700/soft/flat/libc.a(lib_a-fflush.o)
                                        0x600 (size before relaxing)
 .debug_str     0x0000000000001c7b      0x100 /home/fsw/rep/tasa/lib/bcc-2.2.3-gcc/bin/../lib/gcc/sparc-gaisler-elf/10.2.0/../../../../sparc-gaisler-elf/lib/leon3/mfix-ut700/soft/flat/libc.a(lib_a-findfp.o)
                                        0x696 (size before relaxing)
 .debug_str     0x0000000000001d7b      0x182 /home/fsw/rep/tasa/lib/bcc-2.2.3-gcc/bin/../lib/gcc/sparc-gaisler-elf/10.2.0/../../../../sparc-gaisler-elf/lib/leon3/mfix-ut700/soft/flat/libc.a(lib_a-freer.o)
                                        0x6b0 (size before relaxing)
 .debug_str     0x0000000000001efd       0x75 /home/fsw/rep/tasa/lib/bcc-2.2.3-gcc/bin/../lib/gcc/sparc-gaisler-elf/10.2.0/../../../../sparc-gaisler-elf/lib/leon3/mfix-ut700/soft/flat/libc.a(lib_a-fvwrite.o)
                                        0x5f3 (size before relaxing)
 .debug_str     0x0000000000001f72       0x58 /home/fsw/rep/tasa/lib/bcc-2.2.3-gcc/bin/../lib/gcc/sparc-gaisler-elf/10.2.0/../../../../sparc-gaisler-elf/lib/leon3/mfix-ut700/soft/flat/libc.a(lib_a-fwalk.o)
                                        0x566 (size before relaxing)
 .debug_str     0x0000000000001fca      0x15e /home/fsw/rep/tasa/lib/bcc-2.2.3-gcc/bin/../lib/gcc/sparc-gaisler-elf/10.2.0/../../../../sparc-gaisler-elf/lib/leon3/mfix-ut700/soft/flat/libc.a(lib_a-localeconv.o)
                                        0x7a2 (size before relaxing)
 .debug_str     0x0000000000002128      0x16a /home/fsw/rep/tasa/lib/bcc-2.2.3-gcc/bin/../lib/gcc/sparc-gaisler-elf/10.2.0/../../../../sparc-gaisler-elf/lib/leon3/mfix-ut700/soft/flat/libc.a(lib_a-makebuf.o)
                                        0x6d0 (size before relaxing)
 .debug_str     0x0000000000002292       0x50 /home/fsw/rep/tasa/lib/bcc-2.2.3-gcc/bin/../lib/gcc/sparc-gaisler-elf/10.2.0/../../../../sparc-gaisler-elf/lib/leon3/mfix-ut700/soft/flat/libc.a(lib_a-malloc.o)
                                        0x575 (size before relaxing)
 .debug_str     0x00000000000022e2       0xdf /home/fsw/rep/tasa/lib/bcc-2.2.3-gcc/bin/../lib/gcc/sparc-gaisler-elf/10.2.0/../../../../sparc-gaisler-elf/lib/leon3/mfix-ut700/soft/flat/libc.a(lib_a-mallocr.o)
                                        0x766 (size before relaxing)
 .debug_str     0x00000000000023c1       0x52 /home/fsw/rep/tasa/lib/bcc-2.2.3-gcc/bin/../lib/gcc/sparc-gaisler-elf/10.2.0/../../../../sparc-gaisler-elf/lib/leon3/mfix-ut700/soft/flat/libc.a(lib_a-memchr.o)
                                        0x229 (size before relaxing)
 .debug_str     0x0000000000002413       0x4e /home/fsw/rep/tasa/lib/bcc-2.2.3-gcc/bin/../lib/gcc/sparc-gaisler-elf/10.2.0/../../../../sparc-gaisler-elf/lib/leon3/mfix-ut700/soft/flat/libc.a(lib_a-memmove.o)
                                        0x242 (size before relaxing)
 .debug_str     0x0000000000002461       0x4b /home/fsw/rep/tasa/lib/bcc-2.2.3-gcc/bin/../lib/gcc/sparc-gaisler-elf/10.2.0/../../../../sparc-gaisler-elf/lib/leon3/mfix-ut700/soft/flat/libc.a(lib_a-memset.o)
                                        0x223 (size before relaxing)
 .debug_str     0x00000000000024ac       0x43 /home/fsw/rep/tasa/lib/bcc-2.2.3-gcc/bin/../lib/gcc/sparc-gaisler-elf/10.2.0/../../../../sparc-gaisler-elf/lib/leon3/mfix-ut700/soft/flat/libc.a(lib_a-mlock.o)
                                        0x555 (size before relaxing)
 .debug_str     0x00000000000024ef       0xae /home/fsw/rep/tasa/lib/bcc-2.2.3-gcc/bin/../lib/gcc/sparc-gaisler-elf/10.2.0/../../../../sparc-gaisler-elf/lib/leon3/mfix-ut700/soft/flat/libc.a(lib_a-mprec.o)
                                        0x851 (size before relaxing)
 .debug_str     0x000000000000259d       0x5a /home/fsw/rep/tasa/lib/bcc-2.2.3-gcc/bin/../lib/gcc/sparc-gaisler-elf/10.2.0/../../../../sparc-gaisler-elf/lib/leon3/mfix-ut700/soft/flat/libc.a(lib_a-putc.o)
                                        0x5cf (size before relaxing)
 .debug_str     0x00000000000025f7       0x4e /home/fsw/rep/tasa/lib/bcc-2.2.3-gcc/bin/../lib/gcc/sparc-gaisler-elf/10.2.0/../../../../sparc-gaisler-elf/lib/leon3/mfix-ut700/soft/flat/libc.a(lib_a-reallocr.o)
                                        0x642 (size before relaxing)
 .debug_str     0x0000000000002645      0x130 /home/fsw/rep/tasa/lib/bcc-2.2.3-gcc/bin/../lib/gcc/sparc-gaisler-elf/10.2.0/../../../../sparc-gaisler-elf/lib/leon3/mfix-ut700/soft/flat/libc.a(lib_a-s_frexp.o)
                                        0x26c (size before relaxing)
 .debug_str     0x0000000000002775       0x56 /home/fsw/rep/tasa/lib/bcc-2.2.3-gcc/bin/../lib/gcc/sparc-gaisler-elf/10.2.0/../../../../sparc-gaisler-elf/lib/leon3/mfix-ut700/soft/flat/libc.a(lib_a-sbrkr.o)
                                        0x557 (size before relaxing)
 .debug_str     0x00000000000027cb       0xa2 /home/fsw/rep/tasa/lib/bcc-2.2.3-gcc/bin/../lib/gcc/sparc-gaisler-elf/10.2.0/../../../../sparc-gaisler-elf/lib/leon3/mfix-ut700/soft/flat/libc.a(lib_a-stdio.o)
                                        0x5b5 (size before relaxing)
 .debug_str     0x000000000000286d       0x45 /home/fsw/rep/tasa/lib/bcc-2.2.3-gcc/bin/../lib/gcc/sparc-gaisler-elf/10.2.0/../../../../sparc-gaisler-elf/lib/leon3/mfix-ut700/soft/flat/libc.a(lib_a-strncpy.o)
                                        0x239 (size before relaxing)
 .debug_str     0x00000000000028b2       0x21 /home/fsw/rep/tasa/lib/bcc-2.2.3-gcc/bin/../lib/gcc/sparc-gaisler-elf/10.2.0/../../../../sparc-gaisler-elf/lib/leon3/mfix-ut700/soft/flat/libc.a(lib_a-vfiprintf.o)
                                        0x98b (size before relaxing)
 .debug_str     0x00000000000028d3       0x49 /home/fsw/rep/tasa/lib/bcc-2.2.3-gcc/bin/../lib/gcc/sparc-gaisler-elf/10.2.0/../../../../sparc-gaisler-elf/lib/leon3/mfix-ut700/soft/flat/libc.a(lib_a-wbuf.o)
                                        0x5c4 (size before relaxing)
 .debug_str     0x000000000000291c       0x43 /home/fsw/rep/tasa/lib/bcc-2.2.3-gcc/bin/../lib/gcc/sparc-gaisler-elf/10.2.0/../../../../sparc-gaisler-elf/lib/leon3/mfix-ut700/soft/flat/libc.a(lib_a-writer.o)
                                        0x55b (size before relaxing)
 .debug_str     0x000000000000295f        0xf /home/fsw/rep/tasa/lib/bcc-2.2.3-gcc/bin/../lib/gcc/sparc-gaisler-elf/10.2.0/../../../../sparc-gaisler-elf/lib/leon3/mfix-ut700/soft/flat/libc.a(lib_a-callocr.o)
                                        0x59a (size before relaxing)
 .debug_str     0x000000000000296e       0x43 /home/fsw/rep/tasa/lib/bcc-2.2.3-gcc/bin/../lib/gcc/sparc-gaisler-elf/10.2.0/../../../../sparc-gaisler-elf/lib/leon3/mfix-ut700/soft/flat/libc.a(lib_a-closer.o)
                                        0x54b (size before relaxing)
 .debug_str     0x00000000000029b1       0x54 /home/fsw/rep/tasa/lib/bcc-2.2.3-gcc/bin/../lib/gcc/sparc-gaisler-elf/10.2.0/../../../../sparc-gaisler-elf/lib/leon3/mfix-ut700/soft/flat/libc.a(lib_a-fclose.o)
                                        0x5c7 (size before relaxing)
 .debug_str     0x0000000000002a05       0x6b /home/fsw/rep/tasa/lib/bcc-2.2.3-gcc/bin/../lib/gcc/sparc-gaisler-elf/10.2.0/../../../../sparc-gaisler-elf/lib/leon3/mfix-ut700/soft/flat/libc.a(lib_a-fputwc.o)
                                        0x605 (size before relaxing)
 .debug_str     0x0000000000002a70       0x49 /home/fsw/rep/tasa/lib/bcc-2.2.3-gcc/bin/../lib/gcc/sparc-gaisler-elf/10.2.0/../../../../sparc-gaisler-elf/lib/leon3/mfix-ut700/soft/flat/libc.a(lib_a-fstatr.o)
                                        0x684 (size before relaxing)
 .debug_str     0x0000000000002ab9       0x4b /home/fsw/rep/tasa/lib/bcc-2.2.3-gcc/bin/../lib/gcc/sparc-gaisler-elf/10.2.0/../../../../sparc-gaisler-elf/lib/leon3/mfix-ut700/soft/flat/libc.a(lib_a-isattyr.o)
                                        0x54e (size before relaxing)
 .debug_str     0x0000000000002b04       0xa8 /home/fsw/rep/tasa/lib/bcc-2.2.3-gcc/bin/../lib/gcc/sparc-gaisler-elf/10.2.0/../../../../sparc-gaisler-elf/lib/leon3/mfix-ut700/soft/flat/libc.a(lib_a-locale.o)
                                        0x7da (size before relaxing)
 .debug_str     0x0000000000002bac       0x49 /home/fsw/rep/tasa/lib/bcc-2.2.3-gcc/bin/../lib/gcc/sparc-gaisler-elf/10.2.0/../../../../sparc-gaisler-elf/lib/leon3/mfix-ut700/soft/flat/libc.a(lib_a-lseekr.o)
                                        0x552 (size before relaxing)
 .debug_str     0x0000000000002bf5       0x65 /home/fsw/rep/tasa/lib/bcc-2.2.3-gcc/bin/../lib/gcc/sparc-gaisler-elf/10.2.0/../../../../sparc-gaisler-elf/lib/leon3/mfix-ut700/soft/flat/libc.a(lib_a-mbtowc_r.o)
                                        0x790 (size before relaxing)
 .debug_str     0x0000000000002c5a       0x42 /home/fsw/rep/tasa/lib/bcc-2.2.3-gcc/bin/../lib/gcc/sparc-gaisler-elf/10.2.0/../../../../sparc-gaisler-elf/lib/leon3/mfix-ut700/soft/flat/libc.a(lib_a-readr.o)
                                        0x558 (size before relaxing)
 .debug_str     0x0000000000002c9c       0x6e /home/fsw/rep/tasa/lib/bcc-2.2.3-gcc/bin/../lib/gcc/sparc-gaisler-elf/10.2.0/../../../../sparc-gaisler-elf/lib/leon3/mfix-ut700/soft/flat/libc.a(lib_a-reent.o)
                                        0x580 (size before relaxing)
 .debug_str     0x0000000000002d0a       0x44 /home/fsw/rep/tasa/lib/bcc-2.2.3-gcc/bin/../lib/gcc/sparc-gaisler-elf/10.2.0/../../../../sparc-gaisler-elf/lib/leon3/mfix-ut700/soft/flat/libc.a(lib_a-strcmp.o)
                                        0x208 (size before relaxing)
 .debug_str     0x0000000000002d4e       0x54 /home/fsw/rep/tasa/lib/bcc-2.2.3-gcc/bin/../lib/gcc/sparc-gaisler-elf/10.2.0/../../../../sparc-gaisler-elf/lib/leon3/mfix-ut700/soft/flat/libc.a(lib_a-wcrtomb.o)
                                        0x77c (size before relaxing)
 .debug_str     0x0000000000002da2       0x66 /home/fsw/rep/tasa/lib/bcc-2.2.3-gcc/bin/../lib/gcc/sparc-gaisler-elf/10.2.0/../../../../sparc-gaisler-elf/lib/leon3/mfix-ut700/soft/flat/libc.a(lib_a-wctomb_r.o)
                                        0x789 (size before relaxing)
 .debug_str     0x0000000000002e08       0xfe /home/fsw/rep/tasa/lib/bcc-2.2.3-gcc/bin/../lib/gcc/sparc-gaisler-elf/10.2.0/../../../../sparc-gaisler-elf/lib/leon3/mfix-ut700/soft/flat/libc.a(lib_a-ctype_.o)
                                        0x210 (size before relaxing)
 .debug_str     0x0000000000002f06       0x2d /home/fsw/rep/tasa/lib/bcc-2.2.3-gcc/bin/../sparc-gaisler-elf/bsp/leon3/leon3/mfix-ut700/soft/flat/libbcc.a(_exit.S.o)
                                         0xa5 (size before relaxing)
 .debug_str     0x0000000000002f33       0x3d /home/fsw/rep/tasa/lib/bcc-2.2.3-gcc/bin/../sparc-gaisler-elf/bsp/leon3/leon3/mfix-ut700/soft/flat/libbcc.a(read.c.o)
                                        0x19c (size before relaxing)
 .debug_str     0x0000000000002f70       0x9d /home/fsw/rep/tasa/lib/bcc-2.2.3-gcc/bin/../sparc-gaisler-elf/bsp/leon3/leon3/mfix-ut700/soft/flat/libbcc.a(sbrk.c.o)
                                        0x210 (size before relaxing)
 .debug_str     0x000000000000300d       0x2c /home/fsw/rep/tasa/lib/bcc-2.2.3-gcc/bin/../sparc-gaisler-elf/bsp/leon3/leon3/mfix-ut700/soft/flat/libbcc.a(heap.c.o)
                                        0x1a9 (size before relaxing)
 .debug_str     0x0000000000003039       0x3f /home/fsw/rep/tasa/lib/bcc-2.2.3-gcc/bin/../sparc-gaisler-elf/bsp/leon3/leon3/mfix-ut700/soft/flat/libbcc.a(write.c.o)
                                        0x19f (size before relaxing)
 .debug_str     0x0000000000003078       0x33 /home/fsw/rep/tasa/lib/bcc-2.2.3-gcc/bin/../sparc-gaisler-elf/bsp/leon3/leon3/mfix-ut700/soft/flat/libbcc.a(stubs.S.o)
                                         0xab (size before relaxing)
 .debug_str     0x00000000000030ab       0x89 /home/fsw/rep/tasa/lib/bcc-2.2.3-gcc/bin/../sparc-gaisler-elf/bsp/leon3/leon3/mfix-ut700/soft/flat/libbcc.a(con_apbuart.c.o)
                                        0x22d (size before relaxing)
 .debug_str     0x0000000000003134      0x1f0 /home/fsw/rep/tasa/lib/bcc-2.2.3-gcc/bin/../lib/gcc/sparc-gaisler-elf/10.2.0/leon3/mfix-ut700/soft/flat/libgcc.a(_udivdi3.o)
                                        0x298 (size before relaxing)
 .debug_str     0x0000000000003324      0x298 /home/fsw/rep/tasa/lib/bcc-2.2.3-gcc/bin/../lib/gcc/sparc-gaisler-elf/10.2.0/leon3/mfix-ut700/soft/flat/libgcc.a(_umoddi3.o)
 .debug_str     0x0000000000003324      0x1f8 /home/fsw/rep/tasa/lib/bcc-2.2.3-gcc/bin/../lib/gcc/sparc-gaisler-elf/10.2.0/leon3/mfix-ut700/soft/flat/libgcc.a(_addsub_df.o)
                                        0x362 (size before relaxing)
 .debug_str     0x000000000000351c       0x37 /home/fsw/rep/tasa/lib/bcc-2.2.3-gcc/bin/../lib/gcc/sparc-gaisler-elf/10.2.0/leon3/mfix-ut700/soft/flat/libgcc.a(_mul_df.o)
                                        0x334 (size before relaxing)
 .debug_str     0x0000000000003553       0x2c /home/fsw/rep/tasa/lib/bcc-2.2.3-gcc/bin/../lib/gcc/sparc-gaisler-elf/10.2.0/leon3/mfix-ut700/soft/flat/libgcc.a(_div_df.o)
                                        0x324 (size before relaxing)
 .debug_str     0x000000000000357f       0x18 /home/fsw/rep/tasa/lib/bcc-2.2.3-gcc/bin/../lib/gcc/sparc-gaisler-elf/10.2.0/leon3/mfix-ut700/soft/flat/libgcc.a(_eq_df.o)
                                        0x2e5 (size before relaxing)
 .debug_str     0x0000000000003597      0x2e5 /home/fsw/rep/tasa/lib/bcc-2.2.3-gcc/bin/../lib/gcc/sparc-gaisler-elf/10.2.0/leon3/mfix-ut700/soft/flat/libgcc.a(_ne_df.o)
 .debug_str     0x0000000000003597      0x2e5 /home/fsw/rep/tasa/lib/bcc-2.2.3-gcc/bin/../lib/gcc/sparc-gaisler-elf/10.2.0/leon3/mfix-ut700/soft/flat/libgcc.a(_gt_df.o)
 .debug_str     0x0000000000003597      0x2e5 /home/fsw/rep/tasa/lib/bcc-2.2.3-gcc/bin/../lib/gcc/sparc-gaisler-elf/10.2.0/leon3/mfix-ut700/soft/flat/libgcc.a(_lt_df.o)
 .debug_str     0x0000000000003597      0x2e5 /home/fsw/rep/tasa/lib/bcc-2.2.3-gcc/bin/../lib/gcc/sparc-gaisler-elf/10.2.0/leon3/mfix-ut700/soft/flat/libgcc.a(_le_df.o)
 .debug_str     0x0000000000003597      0x2d8 /home/fsw/rep/tasa/lib/bcc-2.2.3-gcc/bin/../lib/gcc/sparc-gaisler-elf/10.2.0/leon3/mfix-ut700/soft/flat/libgcc.a(_unord_df.o)
 .debug_str     0x0000000000003597       0x15 /home/fsw/rep/tasa/lib/bcc-2.2.3-gcc/bin/../lib/gcc/sparc-gaisler-elf/10.2.0/leon3/mfix-ut700/soft/flat/libgcc.a(_si_to_df.o)
                                        0x2c0 (size before relaxing)
 .debug_str     0x00000000000035ac      0x2dd /home/fsw/rep/tasa/lib/bcc-2.2.3-gcc/bin/../lib/gcc/sparc-gaisler-elf/10.2.0/leon3/mfix-ut700/soft/flat/libgcc.a(_df_to_si.o)
 .debug_str     0x00000000000035ac      0x27f /home/fsw/rep/tasa/lib/bcc-2.2.3-gcc/bin/../lib/gcc/sparc-gaisler-elf/10.2.0/leon3/mfix-ut700/soft/flat/libgcc.a(_thenan_df.o)
 .debug_str     0x00000000000035ac        0x6 /home/fsw/rep/tasa/lib/bcc-2.2.3-gcc/bin/../lib/gcc/sparc-gaisler-elf/10.2.0/leon3/mfix-ut700/soft/flat/libgcc.a(_usi_to_df.o)
                                        0x2bc (size before relaxing)
 .debug_str     0x00000000000035b2      0x225 /home/fsw/rep/tasa/lib/bcc-2.2.3-gcc/bin/../lib/gcc/sparc-gaisler-elf/10.2.0/leon3/mfix-ut700/soft/flat/libgcc.a(_clz.o)
 .debug_str     0x00000000000035b2      0x242 /home/fsw/rep/tasa/lib/bcc-2.2.3-gcc/bin/../lib/gcc/sparc-gaisler-elf/10.2.0/leon3/mfix-ut700/soft/flat/libgcc.a(_clzsi2.o)
 .debug_str     0x00000000000035b2        0x7 /home/fsw/rep/tasa/lib/bcc-2.2.3-gcc/bin/../lib/gcc/sparc-gaisler-elf/10.2.0/leon3/mfix-ut700/soft/flat/libgcc.a(_pack_df.o)
                                        0x2d1 (size before relaxing)
 .debug_str     0x00000000000035b9      0x2b3 /home/fsw/rep/tasa/lib/bcc-2.2.3-gcc/bin/../lib/gcc/sparc-gaisler-elf/10.2.0/leon3/mfix-ut700/soft/flat/libgcc.a(_unpack_df.o)
 .debug_str     0x00000000000035b9      0x296 /home/fsw/rep/tasa/lib/bcc-2.2.3-gcc/bin/../lib/gcc/sparc-gaisler-elf/10.2.0/leon3/mfix-ut700/soft/flat/libgcc.a(_fpcmp_parts_df.o)

.debug_loc      0x0000000000000000    0x1aa10
 *(.debug_loc)
 .debug_loc     0x0000000000000000       0x51 /tmp/ccyYqly4.o
 .debug_loc     0x0000000000000051       0x58 /home/fsw/rep/tasa/lib/bcc-2.2.3-gcc/bin/../sparc-gaisler-elf/bsp/leon3/leon3/mfix-ut700/soft/flat/libbcc.a(int_irqmp_get_source.c.o)
 .debug_loc     0x00000000000000a9       0xdf /home/fsw/rep/tasa/lib/bcc-2.2.3-gcc/bin/../sparc-gaisler-elf/bsp/leon3/leon3/mfix-ut700/soft/flat/libbcc.a(int_irqmp_mp.c.o)
 .debug_loc     0x0000000000000188      0x2e7 /home/fsw/rep/tasa/lib/bcc-2.2.3-gcc/bin/../sparc-gaisler-elf/bsp/leon3/leon3/mfix-ut700/soft/flat/libbcc.a(int_irqmp_init.c.o)
 .debug_loc     0x000000000000046f      0xcda /home/fsw/rep/tasa/lib/bcc-2.2.3-gcc/bin/../sparc-gaisler-elf/bsp/leon3/leon3/mfix-ut700/soft/flat/libbcc.a(ambapp.c.o)
 .debug_loc     0x0000000000001149      0x2c0 /home/fsw/rep/tasa/lib/bcc-2.2.3-gcc/bin/../sparc-gaisler-elf/bsp/leon3/leon3/mfix-ut700/soft/flat/libbcc.a(ambapp_findfirst_fn.c.o)
 .debug_loc     0x0000000000001409       0x32 /home/fsw/rep/tasa/lib/bcc-2.2.3-gcc/bin/../lib/gcc/sparc-gaisler-elf/10.2.0/../../../../sparc-gaisler-elf/lib/leon3/mfix-ut700/soft/flat/libc.a(lib_a-atexit.o)
 .debug_loc     0x000000000000143b       0x22 /home/fsw/rep/tasa/lib/bcc-2.2.3-gcc/bin/../lib/gcc/sparc-gaisler-elf/10.2.0/../../../../sparc-gaisler-elf/lib/leon3/mfix-ut700/soft/flat/libc.a(lib_a-exit.o)
 .debug_loc     0x000000000000145d      0x4be /home/fsw/rep/tasa/lib/bcc-2.2.3-gcc/bin/../lib/gcc/sparc-gaisler-elf/10.2.0/../../../../sparc-gaisler-elf/lib/leon3/mfix-ut700/soft/flat/libc.a(lib_a-memcpy.o)
 .debug_loc     0x000000000000191b      0x198 /home/fsw/rep/tasa/lib/bcc-2.2.3-gcc/bin/../lib/gcc/sparc-gaisler-elf/10.2.0/../../../../sparc-gaisler-elf/lib/leon3/mfix-ut700/soft/flat/libc.a(lib_a-printf.o)
 .debug_loc     0x0000000000001ab3      0x15b /home/fsw/rep/tasa/lib/bcc-2.2.3-gcc/bin/../lib/gcc/sparc-gaisler-elf/10.2.0/../../../../sparc-gaisler-elf/lib/leon3/mfix-ut700/soft/flat/libc.a(lib_a-putchar.o)
 .debug_loc     0x0000000000001c0e      0x246 /home/fsw/rep/tasa/lib/bcc-2.2.3-gcc/bin/../lib/gcc/sparc-gaisler-elf/10.2.0/../../../../sparc-gaisler-elf/lib/leon3/mfix-ut700/soft/flat/libc.a(lib_a-puts.o)
 .debug_loc     0x0000000000001e54       0x76 /home/fsw/rep/tasa/lib/bcc-2.2.3-gcc/bin/../lib/gcc/sparc-gaisler-elf/10.2.0/../../../../sparc-gaisler-elf/lib/leon3/mfix-ut700/soft/flat/libc.a(lib_a-strlen.o)
 .debug_loc     0x0000000000001eca     0x4eb2 /home/fsw/rep/tasa/lib/bcc-2.2.3-gcc/bin/../lib/gcc/sparc-gaisler-elf/10.2.0/../../../../sparc-gaisler-elf/lib/leon3/mfix-ut700/soft/flat/libc.a(lib_a-vfprintf.o)
 .debug_loc     0x0000000000006d7c       0xaa /home/fsw/rep/tasa/lib/bcc-2.2.3-gcc/bin/../lib/gcc/sparc-gaisler-elf/10.2.0/../../../../sparc-gaisler-elf/lib/leon3/mfix-ut700/soft/flat/libc.a(lib_a-wsetup.o)
 .debug_loc     0x0000000000006e26      0x213 /home/fsw/rep/tasa/lib/bcc-2.2.3-gcc/bin/../lib/gcc/sparc-gaisler-elf/10.2.0/../../../../sparc-gaisler-elf/lib/leon3/mfix-ut700/soft/flat/libc.a(lib_a-__atexit.o)
 .debug_loc     0x0000000000007039      0x2dc /home/fsw/rep/tasa/lib/bcc-2.2.3-gcc/bin/../lib/gcc/sparc-gaisler-elf/10.2.0/../../../../sparc-gaisler-elf/lib/leon3/mfix-ut700/soft/flat/libc.a(lib_a-__call_atexit.o)
 .debug_loc     0x0000000000007315     0x2b27 /home/fsw/rep/tasa/lib/bcc-2.2.3-gcc/bin/../lib/gcc/sparc-gaisler-elf/10.2.0/../../../../sparc-gaisler-elf/lib/leon3/mfix-ut700/soft/flat/libc.a(lib_a-dtoa.o)
 .debug_loc     0x0000000000009e3c      0x485 /home/fsw/rep/tasa/lib/bcc-2.2.3-gcc/bin/../lib/gcc/sparc-gaisler-elf/10.2.0/../../../../sparc-gaisler-elf/lib/leon3/mfix-ut700/soft/flat/libc.a(lib_a-fflush.o)
 .debug_loc     0x000000000000a2c1      0x349 /home/fsw/rep/tasa/lib/bcc-2.2.3-gcc/bin/../lib/gcc/sparc-gaisler-elf/10.2.0/../../../../sparc-gaisler-elf/lib/leon3/mfix-ut700/soft/flat/libc.a(lib_a-findfp.o)
 .debug_loc     0x000000000000a60a      0x6c7 /home/fsw/rep/tasa/lib/bcc-2.2.3-gcc/bin/../lib/gcc/sparc-gaisler-elf/10.2.0/../../../../sparc-gaisler-elf/lib/leon3/mfix-ut700/soft/flat/libc.a(lib_a-freer.o)
 .debug_loc     0x000000000000acd1      0x5dd /home/fsw/rep/tasa/lib/bcc-2.2.3-gcc/bin/../lib/gcc/sparc-gaisler-elf/10.2.0/../../../../sparc-gaisler-elf/lib/leon3/mfix-ut700/soft/flat/libc.a(lib_a-fvwrite.o)
 .debug_loc     0x000000000000b2ae      0x1c1 /home/fsw/rep/tasa/lib/bcc-2.2.3-gcc/bin/../lib/gcc/sparc-gaisler-elf/10.2.0/../../../../sparc-gaisler-elf/lib/leon3/mfix-ut700/soft/flat/libc.a(lib_a-fwalk.o)
 .debug_loc     0x000000000000b46f      0x103 /home/fsw/rep/tasa/lib/bcc-2.2.3-gcc/bin/../lib/gcc/sparc-gaisler-elf/10.2.0/../../../../sparc-gaisler-elf/lib/leon3/mfix-ut700/soft/flat/libc.a(lib_a-localeconv.o)
 .debug_loc     0x000000000000b572      0x499 /home/fsw/rep/tasa/lib/bcc-2.2.3-gcc/bin/../lib/gcc/sparc-gaisler-elf/10.2.0/../../../../sparc-gaisler-elf/lib/leon3/mfix-ut700/soft/flat/libc.a(lib_a-makebuf.o)
 .debug_loc     0x000000000000ba0b       0x64 /home/fsw/rep/tasa/lib/bcc-2.2.3-gcc/bin/../lib/gcc/sparc-gaisler-elf/10.2.0/../../../../sparc-gaisler-elf/lib/leon3/mfix-ut700/soft/flat/libc.a(lib_a-malloc.o)
 .debug_loc     0x000000000000ba6f      0xd06 /home/fsw/rep/tasa/lib/bcc-2.2.3-gcc/bin/../lib/gcc/sparc-gaisler-elf/10.2.0/../../../../sparc-gaisler-elf/lib/leon3/mfix-ut700/soft/flat/libc.a(lib_a-mallocr.o)
 .debug_loc     0x000000000000c775      0x191 /home/fsw/rep/tasa/lib/bcc-2.2.3-gcc/bin/../lib/gcc/sparc-gaisler-elf/10.2.0/../../../../sparc-gaisler-elf/lib/leon3/mfix-ut700/soft/flat/libc.a(lib_a-memchr.o)
 .debug_loc     0x000000000000c906      0x522 /home/fsw/rep/tasa/lib/bcc-2.2.3-gcc/bin/../lib/gcc/sparc-gaisler-elf/10.2.0/../../../../sparc-gaisler-elf/lib/leon3/mfix-ut700/soft/flat/libc.a(lib_a-memmove.o)
 .debug_loc     0x000000000000ce28      0x245 /home/fsw/rep/tasa/lib/bcc-2.2.3-gcc/bin/../lib/gcc/sparc-gaisler-elf/10.2.0/../../../../sparc-gaisler-elf/lib/leon3/mfix-ut700/soft/flat/libc.a(lib_a-memset.o)
 .debug_loc     0x000000000000d06d     0x2fa7 /home/fsw/rep/tasa/lib/bcc-2.2.3-gcc/bin/../lib/gcc/sparc-gaisler-elf/10.2.0/../../../../sparc-gaisler-elf/lib/leon3/mfix-ut700/soft/flat/libc.a(lib_a-mprec.o)
 .debug_loc     0x0000000000010014      0x3c1 /home/fsw/rep/tasa/lib/bcc-2.2.3-gcc/bin/../lib/gcc/sparc-gaisler-elf/10.2.0/../../../../sparc-gaisler-elf/lib/leon3/mfix-ut700/soft/flat/libc.a(lib_a-putc.o)
 .debug_loc     0x00000000000103d5     0x1166 /home/fsw/rep/tasa/lib/bcc-2.2.3-gcc/bin/../lib/gcc/sparc-gaisler-elf/10.2.0/../../../../sparc-gaisler-elf/lib/leon3/mfix-ut700/soft/flat/libc.a(lib_a-reallocr.o)
 .debug_loc     0x000000000001153b       0xfe /home/fsw/rep/tasa/lib/bcc-2.2.3-gcc/bin/../lib/gcc/sparc-gaisler-elf/10.2.0/../../../../sparc-gaisler-elf/lib/leon3/mfix-ut700/soft/flat/libc.a(lib_a-s_frexp.o)
 .debug_loc     0x0000000000011639       0x5c /home/fsw/rep/tasa/lib/bcc-2.2.3-gcc/bin/../lib/gcc/sparc-gaisler-elf/10.2.0/../../../../sparc-gaisler-elf/lib/leon3/mfix-ut700/soft/flat/libc.a(lib_a-sbrkr.o)
 .debug_loc     0x0000000000011695      0x410 /home/fsw/rep/tasa/lib/bcc-2.2.3-gcc/bin/../lib/gcc/sparc-gaisler-elf/10.2.0/../../../../sparc-gaisler-elf/lib/leon3/mfix-ut700/soft/flat/libc.a(lib_a-stdio.o)
 .debug_loc     0x0000000000011aa5      0x26b /home/fsw/rep/tasa/lib/bcc-2.2.3-gcc/bin/../lib/gcc/sparc-gaisler-elf/10.2.0/../../../../sparc-gaisler-elf/lib/leon3/mfix-ut700/soft/flat/libc.a(lib_a-strncpy.o)
 .debug_loc     0x0000000000011d10     0x407d /home/fsw/rep/tasa/lib/bcc-2.2.3-gcc/bin/../lib/gcc/sparc-gaisler-elf/10.2.0/../../../../sparc-gaisler-elf/lib/leon3/mfix-ut700/soft/flat/libc.a(lib_a-vfiprintf.o)
 .debug_loc     0x0000000000015d8d      0x2f3 /home/fsw/rep/tasa/lib/bcc-2.2.3-gcc/bin/../lib/gcc/sparc-gaisler-elf/10.2.0/../../../../sparc-gaisler-elf/lib/leon3/mfix-ut700/soft/flat/libc.a(lib_a-wbuf.o)
 .debug_loc     0x0000000000016080       0xc0 /home/fsw/rep/tasa/lib/bcc-2.2.3-gcc/bin/../lib/gcc/sparc-gaisler-elf/10.2.0/../../../../sparc-gaisler-elf/lib/leon3/mfix-ut700/soft/flat/libc.a(lib_a-writer.o)
 .debug_loc     0x0000000000016140      0x206 /home/fsw/rep/tasa/lib/bcc-2.2.3-gcc/bin/../lib/gcc/sparc-gaisler-elf/10.2.0/../../../../sparc-gaisler-elf/lib/leon3/mfix-ut700/soft/flat/libc.a(lib_a-callocr.o)
 .debug_loc     0x0000000000016346       0x5c /home/fsw/rep/tasa/lib/bcc-2.2.3-gcc/bin/../lib/gcc/sparc-gaisler-elf/10.2.0/../../../../sparc-gaisler-elf/lib/leon3/mfix-ut700/soft/flat/libc.a(lib_a-closer.o)
 .debug_loc     0x00000000000163a2      0x21e /home/fsw/rep/tasa/lib/bcc-2.2.3-gcc/bin/../lib/gcc/sparc-gaisler-elf/10.2.0/../../../../sparc-gaisler-elf/lib/leon3/mfix-ut700/soft/flat/libc.a(lib_a-fclose.o)
 .debug_loc     0x00000000000165c0      0x3b6 /home/fsw/rep/tasa/lib/bcc-2.2.3-gcc/bin/../lib/gcc/sparc-gaisler-elf/10.2.0/../../../../sparc-gaisler-elf/lib/leon3/mfix-ut700/soft/flat/libc.a(lib_a-fputwc.o)
 .debug_loc     0x0000000000016976       0x8e /home/fsw/rep/tasa/lib/bcc-2.2.3-gcc/bin/../lib/gcc/sparc-gaisler-elf/10.2.0/../../../../sparc-gaisler-elf/lib/leon3/mfix-ut700/soft/flat/libc.a(lib_a-fstatr.o)
 .debug_loc     0x0000000000016a04       0x5c /home/fsw/rep/tasa/lib/bcc-2.2.3-gcc/bin/../lib/gcc/sparc-gaisler-elf/10.2.0/../../../../sparc-gaisler-elf/lib/leon3/mfix-ut700/soft/flat/libc.a(lib_a-isattyr.o)
 .debug_loc     0x0000000000016a60      0x20c /home/fsw/rep/tasa/lib/bcc-2.2.3-gcc/bin/../lib/gcc/sparc-gaisler-elf/10.2.0/../../../../sparc-gaisler-elf/lib/leon3/mfix-ut700/soft/flat/libc.a(lib_a-locale.o)
 .debug_loc     0x0000000000016c6c       0xc0 /home/fsw/rep/tasa/lib/bcc-2.2.3-gcc/bin/../lib/gcc/sparc-gaisler-elf/10.2.0/../../../../sparc-gaisler-elf/lib/leon3/mfix-ut700/soft/flat/libc.a(lib_a-lseekr.o)
 .debug_loc     0x0000000000016d2c      0x1c3 /home/fsw/rep/tasa/lib/bcc-2.2.3-gcc/bin/../lib/gcc/sparc-gaisler-elf/10.2.0/../../../../sparc-gaisler-elf/lib/leon3/mfix-ut700/soft/flat/libc.a(lib_a-mbtowc_r.o)
 .debug_loc     0x0000000000016eef       0xc0 /home/fsw/rep/tasa/lib/bcc-2.2.3-gcc/bin/../lib/gcc/sparc-gaisler-elf/10.2.0/../../../../sparc-gaisler-elf/lib/leon3/mfix-ut700/soft/flat/libc.a(lib_a-readr.o)
 .debug_loc     0x0000000000016faf      0x320 /home/fsw/rep/tasa/lib/bcc-2.2.3-gcc/bin/../lib/gcc/sparc-gaisler-elf/10.2.0/../../../../sparc-gaisler-elf/lib/leon3/mfix-ut700/soft/flat/libc.a(lib_a-reent.o)
 .debug_loc     0x00000000000172cf       0xc2 /home/fsw/rep/tasa/lib/bcc-2.2.3-gcc/bin/../lib/gcc/sparc-gaisler-elf/10.2.0/../../../../sparc-gaisler-elf/lib/leon3/mfix-ut700/soft/flat/libc.a(lib_a-strcmp.o)
 .debug_loc     0x0000000000017391      0x2f1 /home/fsw/rep/tasa/lib/bcc-2.2.3-gcc/bin/../lib/gcc/sparc-gaisler-elf/10.2.0/../../../../sparc-gaisler-elf/lib/leon3/mfix-ut700/soft/flat/libc.a(lib_a-wcrtomb.o)
 .debug_loc     0x0000000000017682      0x13f /home/fsw/rep/tasa/lib/bcc-2.2.3-gcc/bin/../lib/gcc/sparc-gaisler-elf/10.2.0/../../../../sparc-gaisler-elf/lib/leon3/mfix-ut700/soft/flat/libc.a(lib_a-wctomb_r.o)
 .debug_loc     0x00000000000177c1      0x140 /home/fsw/rep/tasa/lib/bcc-2.2.3-gcc/bin/../sparc-gaisler-elf/bsp/leon3/leon3/mfix-ut700/soft/flat/libbcc.a(read.c.o)
 .debug_loc     0x0000000000017901       0x69 /home/fsw/rep/tasa/lib/bcc-2.2.3-gcc/bin/../sparc-gaisler-elf/bsp/leon3/leon3/mfix-ut700/soft/flat/libbcc.a(sbrk.c.o)
 .debug_loc     0x000000000001796a       0xd9 /home/fsw/rep/tasa/lib/bcc-2.2.3-gcc/bin/../sparc-gaisler-elf/bsp/leon3/leon3/mfix-ut700/soft/flat/libbcc.a(write.c.o)
 .debug_loc     0x0000000000017a43       0xa7 /home/fsw/rep/tasa/lib/bcc-2.2.3-gcc/bin/../sparc-gaisler-elf/bsp/leon3/leon3/mfix-ut700/soft/flat/libbcc.a(con_apbuart.c.o)
 .debug_loc     0x0000000000017aea      0x508 /home/fsw/rep/tasa/lib/bcc-2.2.3-gcc/bin/../lib/gcc/sparc-gaisler-elf/10.2.0/leon3/mfix-ut700/soft/flat/libgcc.a(_udivdi3.o)
 .debug_loc     0x0000000000017ff2      0x58f /home/fsw/rep/tasa/lib/bcc-2.2.3-gcc/bin/../lib/gcc/sparc-gaisler-elf/10.2.0/leon3/mfix-ut700/soft/flat/libgcc.a(_umoddi3.o)
 .debug_loc     0x0000000000018581      0xf43 /home/fsw/rep/tasa/lib/bcc-2.2.3-gcc/bin/../lib/gcc/sparc-gaisler-elf/10.2.0/leon3/mfix-ut700/soft/flat/libgcc.a(_addsub_df.o)
 .debug_loc     0x00000000000194c4      0x648 /home/fsw/rep/tasa/lib/bcc-2.2.3-gcc/bin/../lib/gcc/sparc-gaisler-elf/10.2.0/leon3/mfix-ut700/soft/flat/libgcc.a(_mul_df.o)
 .debug_loc     0x0000000000019b0c      0x2f2 /home/fsw/rep/tasa/lib/bcc-2.2.3-gcc/bin/../lib/gcc/sparc-gaisler-elf/10.2.0/leon3/mfix-ut700/soft/flat/libgcc.a(_div_df.o)
 .debug_loc     0x0000000000019dfe       0x86 /home/fsw/rep/tasa/lib/bcc-2.2.3-gcc/bin/../lib/gcc/sparc-gaisler-elf/10.2.0/leon3/mfix-ut700/soft/flat/libgcc.a(_eq_df.o)
 .debug_loc     0x0000000000019e84       0x86 /home/fsw/rep/tasa/lib/bcc-2.2.3-gcc/bin/../lib/gcc/sparc-gaisler-elf/10.2.0/leon3/mfix-ut700/soft/flat/libgcc.a(_ne_df.o)
 .debug_loc     0x0000000000019f0a       0x86 /home/fsw/rep/tasa/lib/bcc-2.2.3-gcc/bin/../lib/gcc/sparc-gaisler-elf/10.2.0/leon3/mfix-ut700/soft/flat/libgcc.a(_gt_df.o)
 .debug_loc     0x0000000000019f90       0x86 /home/fsw/rep/tasa/lib/bcc-2.2.3-gcc/bin/../lib/gcc/sparc-gaisler-elf/10.2.0/leon3/mfix-ut700/soft/flat/libgcc.a(_lt_df.o)
 .debug_loc     0x000000000001a016       0x86 /home/fsw/rep/tasa/lib/bcc-2.2.3-gcc/bin/../lib/gcc/sparc-gaisler-elf/10.2.0/leon3/mfix-ut700/soft/flat/libgcc.a(_le_df.o)
 .debug_loc     0x000000000001a09c       0x86 /home/fsw/rep/tasa/lib/bcc-2.2.3-gcc/bin/../lib/gcc/sparc-gaisler-elf/10.2.0/leon3/mfix-ut700/soft/flat/libgcc.a(_unord_df.o)
 .debug_loc     0x000000000001a122       0xc8 /home/fsw/rep/tasa/lib/bcc-2.2.3-gcc/bin/../lib/gcc/sparc-gaisler-elf/10.2.0/leon3/mfix-ut700/soft/flat/libgcc.a(_si_to_df.o)
 .debug_loc     0x000000000001a1ea       0x58 /home/fsw/rep/tasa/lib/bcc-2.2.3-gcc/bin/../lib/gcc/sparc-gaisler-elf/10.2.0/leon3/mfix-ut700/soft/flat/libgcc.a(_df_to_si.o)
 .debug_loc     0x000000000001a242       0x93 /home/fsw/rep/tasa/lib/bcc-2.2.3-gcc/bin/../lib/gcc/sparc-gaisler-elf/10.2.0/leon3/mfix-ut700/soft/flat/libgcc.a(_usi_to_df.o)
 .debug_loc     0x000000000001a2d5       0xbe /home/fsw/rep/tasa/lib/bcc-2.2.3-gcc/bin/../lib/gcc/sparc-gaisler-elf/10.2.0/leon3/mfix-ut700/soft/flat/libgcc.a(_clzsi2.o)
 .debug_loc     0x000000000001a393      0x41e /home/fsw/rep/tasa/lib/bcc-2.2.3-gcc/bin/../lib/gcc/sparc-gaisler-elf/10.2.0/leon3/mfix-ut700/soft/flat/libgcc.a(_pack_df.o)
 .debug_loc     0x000000000001a7b1      0x145 /home/fsw/rep/tasa/lib/bcc-2.2.3-gcc/bin/../lib/gcc/sparc-gaisler-elf/10.2.0/leon3/mfix-ut700/soft/flat/libgcc.a(_unpack_df.o)
 .debug_loc     0x000000000001a8f6      0x11a /home/fsw/rep/tasa/lib/bcc-2.2.3-gcc/bin/../lib/gcc/sparc-gaisler-elf/10.2.0/leon3/mfix-ut700/soft/flat/libgcc.a(_fpcmp_parts_df.o)

.comment        0x0000000000000000       0x19
 .comment       0x0000000000000000       0x19 /home/fsw/rep/tasa/lib/bcc-2.2.3-gcc/bin/../lib/gcc/sparc-gaisler-elf/10.2.0/leon3/mfix-ut700/soft/flat/crtbegin.o
                                         0x1a (size before relaxing)
 .comment       0x0000000000000019       0x1a /tmp/ccyYqly4.o
 .comment       0x0000000000000019       0x1a /home/fsw/rep/tasa/lib/bcc-2.2.3-gcc/bin/../sparc-gaisler-elf/bsp/leon3/leon3/mfix-ut700/soft/flat/libbcc.a(copy_data.c.o)
 .comment       0x0000000000000019       0x1a /home/fsw/rep/tasa/lib/bcc-2.2.3-gcc/bin/../sparc-gaisler-elf/bsp/leon3/leon3/mfix-ut700/soft/flat/libbcc.a(argv.c.o)
 .comment       0x0000000000000019       0x1a /home/fsw/rep/tasa/lib/bcc-2.2.3-gcc/bin/../sparc-gaisler-elf/bsp/leon3/leon3/mfix-ut700/soft/flat/libbcc.a(int_irqmp_get_source.c.o)
 .comment       0x0000000000000019       0x1a /home/fsw/rep/tasa/lib/bcc-2.2.3-gcc/bin/../sparc-gaisler-elf/bsp/leon3/leon3/mfix-ut700/soft/flat/libbcc.a(int_irqmp_mp.c.o)
 .comment       0x0000000000000019       0x1a /home/fsw/rep/tasa/lib/bcc-2.2.3-gcc/bin/../sparc-gaisler-elf/bsp/leon3/leon3/mfix-ut700/soft/flat/libbcc.a(int_irqmp_init.c.o)
 .comment       0x0000000000000019       0x1a /home/fsw/rep/tasa/lib/bcc-2.2.3-gcc/bin/../sparc-gaisler-elf/bsp/leon3/leon3/mfix-ut700/soft/flat/libbcc.a(con_apbuart_init.c.o)
 .comment       0x0000000000000019       0x1a /home/fsw/rep/tasa/lib/bcc-2.2.3-gcc/bin/../sparc-gaisler-elf/bsp/leon3/leon3/mfix-ut700/soft/flat/libbcc.a(timer_gptimer_init.c.o)
 .comment       0x0000000000000019       0x1a /home/fsw/rep/tasa/lib/bcc-2.2.3-gcc/bin/../sparc-gaisler-elf/bsp/leon3/leon3/mfix-ut700/soft/flat/libbcc.a(isr.c.o)
 .comment       0x0000000000000019       0x1a /home/fsw/rep/tasa/lib/bcc-2.2.3-gcc/bin/../sparc-gaisler-elf/bsp/leon3/leon3/mfix-ut700/soft/flat/libbcc.a(int_nest.c.o)
 .comment       0x0000000000000019       0x1a /home/fsw/rep/tasa/lib/bcc-2.2.3-gcc/bin/../sparc-gaisler-elf/bsp/leon3/leon3/mfix-ut700/soft/flat/libbcc.a(ambapp.c.o)
 .comment       0x0000000000000019       0x1a /home/fsw/rep/tasa/lib/bcc-2.2.3-gcc/bin/../sparc-gaisler-elf/bsp/leon3/leon3/mfix-ut700/soft/flat/libbcc.a(ambapp_findfirst_fn.c.o)
 .comment       0x0000000000000019       0x1a /home/fsw/rep/tasa/lib/bcc-2.2.3-gcc/bin/../sparc-gaisler-elf/bsp/leon3/leon3/mfix-ut700/soft/flat/libbcc.a(int_irqmp_handle.c.o)
 .comment       0x0000000000000019       0x1a /home/fsw/rep/tasa/lib/bcc-2.2.3-gcc/bin/../sparc-gaisler-elf/bsp/leon3/leon3/mfix-ut700/soft/flat/libbcc.a(con_handle.c.o)
 .comment       0x0000000000000019       0x1a /home/fsw/rep/tasa/lib/bcc-2.2.3-gcc/bin/../sparc-gaisler-elf/bsp/leon3/leon3/mfix-ut700/soft/flat/libbcc.a(timer_handle.c.o)
 .comment       0x0000000000000019       0x1a /home/fsw/rep/tasa/lib/bcc-2.2.3-gcc/bin/../lib/gcc/sparc-gaisler-elf/10.2.0/../../../../sparc-gaisler-elf/lib/leon3/mfix-ut700/soft/flat/libc.a(lib_a-atexit.o)
 .comment       0x0000000000000019       0x1a /home/fsw/rep/tasa/lib/bcc-2.2.3-gcc/bin/../lib/gcc/sparc-gaisler-elf/10.2.0/../../../../sparc-gaisler-elf/lib/leon3/mfix-ut700/soft/flat/libc.a(lib_a-exit.o)
 .comment       0x0000000000000019       0x1a /home/fsw/rep/tasa/lib/bcc-2.2.3-gcc/bin/../lib/gcc/sparc-gaisler-elf/10.2.0/../../../../sparc-gaisler-elf/lib/leon3/mfix-ut700/soft/flat/libc.a(lib_a-impure.o)
 .comment       0x0000000000000019       0x1a /home/fsw/rep/tasa/lib/bcc-2.2.3-gcc/bin/../lib/gcc/sparc-gaisler-elf/10.2.0/../../../../sparc-gaisler-elf/lib/leon3/mfix-ut700/soft/flat/libc.a(lib_a-memcpy.o)
 .comment       0x0000000000000019       0x1a /home/fsw/rep/tasa/lib/bcc-2.2.3-gcc/bin/../lib/gcc/sparc-gaisler-elf/10.2.0/../../../../sparc-gaisler-elf/lib/leon3/mfix-ut700/soft/flat/libc.a(lib_a-printf.o)
 .comment       0x0000000000000019       0x1a /home/fsw/rep/tasa/lib/bcc-2.2.3-gcc/bin/../lib/gcc/sparc-gaisler-elf/10.2.0/../../../../sparc-gaisler-elf/lib/leon3/mfix-ut700/soft/flat/libc.a(lib_a-putchar.o)
 .comment       0x0000000000000019       0x1a /home/fsw/rep/tasa/lib/bcc-2.2.3-gcc/bin/../lib/gcc/sparc-gaisler-elf/10.2.0/../../../../sparc-gaisler-elf/lib/leon3/mfix-ut700/soft/flat/libc.a(lib_a-puts.o)
 .comment       0x0000000000000019       0x1a /home/fsw/rep/tasa/lib/bcc-2.2.3-gcc/bin/../lib/gcc/sparc-gaisler-elf/10.2.0/../../../../sparc-gaisler-elf/lib/leon3/mfix-ut700/soft/flat/libc.a(lib_a-strlen.o)
 .comment       0x0000000000000019       0x1a /home/fsw/rep/tasa/lib/bcc-2.2.3-gcc/bin/../lib/gcc/sparc-gaisler-elf/10.2.0/../../../../sparc-gaisler-elf/lib/leon3/mfix-ut700/soft/flat/libc.a(lib_a-vfprintf.o)
 .comment       0x0000000000000019       0x1a /home/fsw/rep/tasa/lib/bcc-2.2.3-gcc/bin/../lib/gcc/sparc-gaisler-elf/10.2.0/../../../../sparc-gaisler-elf/lib/leon3/mfix-ut700/soft/flat/libc.a(lib_a-wsetup.o)
 .comment       0x0000000000000019       0x1a /home/fsw/rep/tasa/lib/bcc-2.2.3-gcc/bin/../lib/gcc/sparc-gaisler-elf/10.2.0/../../../../sparc-gaisler-elf/lib/leon3/mfix-ut700/soft/flat/libc.a(lib_a-__atexit.o)
 .comment       0x0000000000000019       0x1a /home/fsw/rep/tasa/lib/bcc-2.2.3-gcc/bin/../lib/gcc/sparc-gaisler-elf/10.2.0/../../../../sparc-gaisler-elf/lib/leon3/mfix-ut700/soft/flat/libc.a(lib_a-__call_atexit.o)
 .comment       0x0000000000000019       0x1a /home/fsw/rep/tasa/lib/bcc-2.2.3-gcc/bin/../lib/gcc/sparc-gaisler-elf/10.2.0/../../../../sparc-gaisler-elf/lib/leon3/mfix-ut700/soft/flat/libc.a(lib_a-dtoa.o)
 .comment       0x0000000000000019       0x1a /home/fsw/rep/tasa/lib/bcc-2.2.3-gcc/bin/../lib/gcc/sparc-gaisler-elf/10.2.0/../../../../sparc-gaisler-elf/lib/leon3/mfix-ut700/soft/flat/libc.a(lib_a-fflush.o)
 .comment       0x0000000000000019       0x1a /home/fsw/rep/tasa/lib/bcc-2.2.3-gcc/bin/../lib/gcc/sparc-gaisler-elf/10.2.0/../../../../sparc-gaisler-elf/lib/leon3/mfix-ut700/soft/flat/libc.a(lib_a-findfp.o)
 .comment       0x0000000000000019       0x1a /home/fsw/rep/tasa/lib/bcc-2.2.3-gcc/bin/../lib/gcc/sparc-gaisler-elf/10.2.0/../../../../sparc-gaisler-elf/lib/leon3/mfix-ut700/soft/flat/libc.a(lib_a-freer.o)
 .comment       0x0000000000000019       0x1a /home/fsw/rep/tasa/lib/bcc-2.2.3-gcc/bin/../lib/gcc/sparc-gaisler-elf/10.2.0/../../../../sparc-gaisler-elf/lib/leon3/mfix-ut700/soft/flat/libc.a(lib_a-fvwrite.o)
 .comment       0x0000000000000019       0x1a /home/fsw/rep/tasa/lib/bcc-2.2.3-gcc/bin/../lib/gcc/sparc-gaisler-elf/10.2.0/../../../../sparc-gaisler-elf/lib/leon3/mfix-ut700/soft/flat/libc.a(lib_a-fwalk.o)
 .comment       0x0000000000000019       0x1a /home/fsw/rep/tasa/lib/bcc-2.2.3-gcc/bin/../lib/gcc/sparc-gaisler-elf/10.2.0/../../../../sparc-gaisler-elf/lib/leon3/mfix-ut700/soft/flat/libc.a(lib_a-localeconv.o)
 .comment       0x0000000000000019       0x1a /home/fsw/rep/tasa/lib/bcc-2.2.3-gcc/bin/../lib/gcc/sparc-gaisler-elf/10.2.0/../../../../sparc-gaisler-elf/lib/leon3/mfix-ut700/soft/flat/libc.a(lib_a-makebuf.o)
 .comment       0x0000000000000019       0x1a /home/fsw/rep/tasa/lib/bcc-2.2.3-gcc/bin/../lib/gcc/sparc-gaisler-elf/10.2.0/../../../../sparc-gaisler-elf/lib/leon3/mfix-ut700/soft/flat/libc.a(lib_a-malloc.o)
 .comment       0x0000000000000019       0x1a /home/fsw/rep/tasa/lib/bcc-2.2.3-gcc/bin/../lib/gcc/sparc-gaisler-elf/10.2.0/../../../../sparc-gaisler-elf/lib/leon3/mfix-ut700/soft/flat/libc.a(lib_a-mallocr.o)
 .comment       0x0000000000000019       0x1a /home/fsw/rep/tasa/lib/bcc-2.2.3-gcc/bin/../lib/gcc/sparc-gaisler-elf/10.2.0/../../../../sparc-gaisler-elf/lib/leon3/mfix-ut700/soft/flat/libc.a(lib_a-memchr.o)
 .comment       0x0000000000000019       0x1a /home/fsw/rep/tasa/lib/bcc-2.2.3-gcc/bin/../lib/gcc/sparc-gaisler-elf/10.2.0/../../../../sparc-gaisler-elf/lib/leon3/mfix-ut700/soft/flat/libc.a(lib_a-memmove.o)
 .comment       0x0000000000000019       0x1a /home/fsw/rep/tasa/lib/bcc-2.2.3-gcc/bin/../lib/gcc/sparc-gaisler-elf/10.2.0/../../../../sparc-gaisler-elf/lib/leon3/mfix-ut700/soft/flat/libc.a(lib_a-memset.o)
 .comment       0x0000000000000019       0x1a /home/fsw/rep/tasa/lib/bcc-2.2.3-gcc/bin/../lib/gcc/sparc-gaisler-elf/10.2.0/../../../../sparc-gaisler-elf/lib/leon3/mfix-ut700/soft/flat/libc.a(lib_a-mlock.o)
 .comment       0x0000000000000019       0x1a /home/fsw/rep/tasa/lib/bcc-2.2.3-gcc/bin/../lib/gcc/sparc-gaisler-elf/10.2.0/../../../../sparc-gaisler-elf/lib/leon3/mfix-ut700/soft/flat/libc.a(lib_a-mprec.o)
 .comment       0x0000000000000019       0x1a /home/fsw/rep/tasa/lib/bcc-2.2.3-gcc/bin/../lib/gcc/sparc-gaisler-elf/10.2.0/../../../../sparc-gaisler-elf/lib/leon3/mfix-ut700/soft/flat/libc.a(lib_a-putc.o)
 .comment       0x0000000000000019       0x1a /home/fsw/rep/tasa/lib/bcc-2.2.3-gcc/bin/../lib/gcc/sparc-gaisler-elf/10.2.0/../../../../sparc-gaisler-elf/lib/leon3/mfix-ut700/soft/flat/libc.a(lib_a-reallocr.o)
 .comment       0x0000000000000019       0x1a /home/fsw/rep/tasa/lib/bcc-2.2.3-gcc/bin/../lib/gcc/sparc-gaisler-elf/10.2.0/../../../../sparc-gaisler-elf/lib/leon3/mfix-ut700/soft/flat/libc.a(lib_a-s_frexp.o)
 .comment       0x0000000000000019       0x1a /home/fsw/rep/tasa/lib/bcc-2.2.3-gcc/bin/../lib/gcc/sparc-gaisler-elf/10.2.0/../../../../sparc-gaisler-elf/lib/leon3/mfix-ut700/soft/flat/libc.a(lib_a-sbrkr.o)
 .comment       0x0000000000000019       0x1a /home/fsw/rep/tasa/lib/bcc-2.2.3-gcc/bin/../lib/gcc/sparc-gaisler-elf/10.2.0/../../../../sparc-gaisler-elf/lib/leon3/mfix-ut700/soft/flat/libc.a(lib_a-stdio.o)
 .comment       0x0000000000000019       0x1a /home/fsw/rep/tasa/lib/bcc-2.2.3-gcc/bin/../lib/gcc/sparc-gaisler-elf/10.2.0/../../../../sparc-gaisler-elf/lib/leon3/mfix-ut700/soft/flat/libc.a(lib_a-strncpy.o)
 .comment       0x0000000000000019       0x1a /home/fsw/rep/tasa/lib/bcc-2.2.3-gcc/bin/../lib/gcc/sparc-gaisler-elf/10.2.0/../../../../sparc-gaisler-elf/lib/leon3/mfix-ut700/soft/flat/libc.a(lib_a-vfiprintf.o)
 .comment       0x0000000000000019       0x1a /home/fsw/rep/tasa/lib/bcc-2.2.3-gcc/bin/../lib/gcc/sparc-gaisler-elf/10.2.0/../../../../sparc-gaisler-elf/lib/leon3/mfix-ut700/soft/flat/libc.a(lib_a-wbuf.o)
 .comment       0x0000000000000019       0x1a /home/fsw/rep/tasa/lib/bcc-2.2.3-gcc/bin/../lib/gcc/sparc-gaisler-elf/10.2.0/../../../../sparc-gaisler-elf/lib/leon3/mfix-ut700/soft/flat/libc.a(lib_a-writer.o)
 .comment       0x0000000000000019       0x1a /home/fsw/rep/tasa/lib/bcc-2.2.3-gcc/bin/../lib/gcc/sparc-gaisler-elf/10.2.0/../../../../sparc-gaisler-elf/lib/leon3/mfix-ut700/soft/flat/libc.a(lib_a-callocr.o)
 .comment       0x0000000000000019       0x1a /home/fsw/rep/tasa/lib/bcc-2.2.3-gcc/bin/../lib/gcc/sparc-gaisler-elf/10.2.0/../../../../sparc-gaisler-elf/lib/leon3/mfix-ut700/soft/flat/libc.a(lib_a-closer.o)
 .comment       0x0000000000000019       0x1a /home/fsw/rep/tasa/lib/bcc-2.2.3-gcc/bin/../lib/gcc/sparc-gaisler-elf/10.2.0/../../../../sparc-gaisler-elf/lib/leon3/mfix-ut700/soft/flat/libc.a(lib_a-fclose.o)
 .comment       0x0000000000000019       0x1a /home/fsw/rep/tasa/lib/bcc-2.2.3-gcc/bin/../lib/gcc/sparc-gaisler-elf/10.2.0/../../../../sparc-gaisler-elf/lib/leon3/mfix-ut700/soft/flat/libc.a(lib_a-fputwc.o)
 .comment       0x0000000000000019       0x1a /home/fsw/rep/tasa/lib/bcc-2.2.3-gcc/bin/../lib/gcc/sparc-gaisler-elf/10.2.0/../../../../sparc-gaisler-elf/lib/leon3/mfix-ut700/soft/flat/libc.a(lib_a-fstatr.o)
 .comment       0x0000000000000019       0x1a /home/fsw/rep/tasa/lib/bcc-2.2.3-gcc/bin/../lib/gcc/sparc-gaisler-elf/10.2.0/../../../../sparc-gaisler-elf/lib/leon3/mfix-ut700/soft/flat/libc.a(lib_a-isattyr.o)
 .comment       0x0000000000000019       0x1a /home/fsw/rep/tasa/lib/bcc-2.2.3-gcc/bin/../lib/gcc/sparc-gaisler-elf/10.2.0/../../../../sparc-gaisler-elf/lib/leon3/mfix-ut700/soft/flat/libc.a(lib_a-locale.o)
 .comment       0x0000000000000019       0x1a /home/fsw/rep/tasa/lib/bcc-2.2.3-gcc/bin/../lib/gcc/sparc-gaisler-elf/10.2.0/../../../../sparc-gaisler-elf/lib/leon3/mfix-ut700/soft/flat/libc.a(lib_a-lseekr.o)
 .comment       0x0000000000000019       0x1a /home/fsw/rep/tasa/lib/bcc-2.2.3-gcc/bin/../lib/gcc/sparc-gaisler-elf/10.2.0/../../../../sparc-gaisler-elf/lib/leon3/mfix-ut700/soft/flat/libc.a(lib_a-mbtowc_r.o)
 .comment       0x0000000000000019       0x1a /home/fsw/rep/tasa/lib/bcc-2.2.3-gcc/bin/../lib/gcc/sparc-gaisler-elf/10.2.0/../../../../sparc-gaisler-elf/lib/leon3/mfix-ut700/soft/flat/libc.a(lib_a-readr.o)
 .comment       0x0000000000000019       0x1a /home/fsw/rep/tasa/lib/bcc-2.2.3-gcc/bin/../lib/gcc/sparc-gaisler-elf/10.2.0/../../../../sparc-gaisler-elf/lib/leon3/mfix-ut700/soft/flat/libc.a(lib_a-reent.o)
 .comment       0x0000000000000019       0x1a /home/fsw/rep/tasa/lib/bcc-2.2.3-gcc/bin/../lib/gcc/sparc-gaisler-elf/10.2.0/../../../../sparc-gaisler-elf/lib/leon3/mfix-ut700/soft/flat/libc.a(lib_a-strcmp.o)
 .comment       0x0000000000000019       0x1a /home/fsw/rep/tasa/lib/bcc-2.2.3-gcc/bin/../lib/gcc/sparc-gaisler-elf/10.2.0/../../../../sparc-gaisler-elf/lib/leon3/mfix-ut700/soft/flat/libc.a(lib_a-wcrtomb.o)
 .comment       0x0000000000000019       0x1a /home/fsw/rep/tasa/lib/bcc-2.2.3-gcc/bin/../lib/gcc/sparc-gaisler-elf/10.2.0/../../../../sparc-gaisler-elf/lib/leon3/mfix-ut700/soft/flat/libc.a(lib_a-wctomb_r.o)
 .comment       0x0000000000000019       0x1a /home/fsw/rep/tasa/lib/bcc-2.2.3-gcc/bin/../lib/gcc/sparc-gaisler-elf/10.2.0/../../../../sparc-gaisler-elf/lib/leon3/mfix-ut700/soft/flat/libc.a(lib_a-ctype_.o)
 .comment       0x0000000000000019       0x1a /home/fsw/rep/tasa/lib/bcc-2.2.3-gcc/bin/../sparc-gaisler-elf/bsp/leon3/leon3/mfix-ut700/soft/flat/libbcc.a(read.c.o)
 .comment       0x0000000000000019       0x1a /home/fsw/rep/tasa/lib/bcc-2.2.3-gcc/bin/../sparc-gaisler-elf/bsp/leon3/leon3/mfix-ut700/soft/flat/libbcc.a(sbrk.c.o)
 .comment       0x0000000000000019       0x1a /home/fsw/rep/tasa/lib/bcc-2.2.3-gcc/bin/../sparc-gaisler-elf/bsp/leon3/leon3/mfix-ut700/soft/flat/libbcc.a(heap.c.o)
 .comment       0x0000000000000019       0x1a /home/fsw/rep/tasa/lib/bcc-2.2.3-gcc/bin/../sparc-gaisler-elf/bsp/leon3/leon3/mfix-ut700/soft/flat/libbcc.a(write.c.o)
 .comment       0x0000000000000019       0x1a /home/fsw/rep/tasa/lib/bcc-2.2.3-gcc/bin/../sparc-gaisler-elf/bsp/leon3/leon3/mfix-ut700/soft/flat/libbcc.a(con_apbuart.c.o)
 .comment       0x0000000000000019       0x1a /home/fsw/rep/tasa/lib/bcc-2.2.3-gcc/bin/../lib/gcc/sparc-gaisler-elf/10.2.0/leon3/mfix-ut700/soft/flat/libgcc.a(_udivdi3.o)
 .comment       0x0000000000000019       0x1a /home/fsw/rep/tasa/lib/bcc-2.2.3-gcc/bin/../lib/gcc/sparc-gaisler-elf/10.2.0/leon3/mfix-ut700/soft/flat/libgcc.a(_umoddi3.o)
 .comment       0x0000000000000019       0x1a /home/fsw/rep/tasa/lib/bcc-2.2.3-gcc/bin/../lib/gcc/sparc-gaisler-elf/10.2.0/leon3/mfix-ut700/soft/flat/libgcc.a(_addsub_df.o)
 .comment       0x0000000000000019       0x1a /home/fsw/rep/tasa/lib/bcc-2.2.3-gcc/bin/../lib/gcc/sparc-gaisler-elf/10.2.0/leon3/mfix-ut700/soft/flat/libgcc.a(_mul_df.o)
 .comment       0x0000000000000019       0x1a /home/fsw/rep/tasa/lib/bcc-2.2.3-gcc/bin/../lib/gcc/sparc-gaisler-elf/10.2.0/leon3/mfix-ut700/soft/flat/libgcc.a(_div_df.o)
 .comment       0x0000000000000019       0x1a /home/fsw/rep/tasa/lib/bcc-2.2.3-gcc/bin/../lib/gcc/sparc-gaisler-elf/10.2.0/leon3/mfix-ut700/soft/flat/libgcc.a(_eq_df.o)
 .comment       0x0000000000000019       0x1a /home/fsw/rep/tasa/lib/bcc-2.2.3-gcc/bin/../lib/gcc/sparc-gaisler-elf/10.2.0/leon3/mfix-ut700/soft/flat/libgcc.a(_ne_df.o)
 .comment       0x0000000000000019       0x1a /home/fsw/rep/tasa/lib/bcc-2.2.3-gcc/bin/../lib/gcc/sparc-gaisler-elf/10.2.0/leon3/mfix-ut700/soft/flat/libgcc.a(_gt_df.o)
 .comment       0x0000000000000019       0x1a /home/fsw/rep/tasa/lib/bcc-2.2.3-gcc/bin/../lib/gcc/sparc-gaisler-elf/10.2.0/leon3/mfix-ut700/soft/flat/libgcc.a(_lt_df.o)
 .comment       0x0000000000000019       0x1a /home/fsw/rep/tasa/lib/bcc-2.2.3-gcc/bin/../lib/gcc/sparc-gaisler-elf/10.2.0/leon3/mfix-ut700/soft/flat/libgcc.a(_le_df.o)
 .comment       0x0000000000000019       0x1a /home/fsw/rep/tasa/lib/bcc-2.2.3-gcc/bin/../lib/gcc/sparc-gaisler-elf/10.2.0/leon3/mfix-ut700/soft/flat/libgcc.a(_unord_df.o)
 .comment       0x0000000000000019       0x1a /home/fsw/rep/tasa/lib/bcc-2.2.3-gcc/bin/../lib/gcc/sparc-gaisler-elf/10.2.0/leon3/mfix-ut700/soft/flat/libgcc.a(_si_to_df.o)
 .comment       0x0000000000000019       0x1a /home/fsw/rep/tasa/lib/bcc-2.2.3-gcc/bin/../lib/gcc/sparc-gaisler-elf/10.2.0/leon3/mfix-ut700/soft/flat/libgcc.a(_df_to_si.o)
 .comment       0x0000000000000019       0x1a /home/fsw/rep/tasa/lib/bcc-2.2.3-gcc/bin/../lib/gcc/sparc-gaisler-elf/10.2.0/leon3/mfix-ut700/soft/flat/libgcc.a(_thenan_df.o)
 .comment       0x0000000000000019       0x1a /home/fsw/rep/tasa/lib/bcc-2.2.3-gcc/bin/../lib/gcc/sparc-gaisler-elf/10.2.0/leon3/mfix-ut700/soft/flat/libgcc.a(_usi_to_df.o)
 .comment       0x0000000000000019       0x1a /home/fsw/rep/tasa/lib/bcc-2.2.3-gcc/bin/../lib/gcc/sparc-gaisler-elf/10.2.0/leon3/mfix-ut700/soft/flat/libgcc.a(_clz.o)
 .comment       0x0000000000000019       0x1a /home/fsw/rep/tasa/lib/bcc-2.2.3-gcc/bin/../lib/gcc/sparc-gaisler-elf/10.2.0/leon3/mfix-ut700/soft/flat/libgcc.a(_clzsi2.o)
 .comment       0x0000000000000019       0x1a /home/fsw/rep/tasa/lib/bcc-2.2.3-gcc/bin/../lib/gcc/sparc-gaisler-elf/10.2.0/leon3/mfix-ut700/soft/flat/libgcc.a(_pack_df.o)
 .comment       0x0000000000000019       0x1a /home/fsw/rep/tasa/lib/bcc-2.2.3-gcc/bin/../lib/gcc/sparc-gaisler-elf/10.2.0/leon3/mfix-ut700/soft/flat/libgcc.a(_unpack_df.o)
 .comment       0x0000000000000019       0x1a /home/fsw/rep/tasa/lib/bcc-2.2.3-gcc/bin/../lib/gcc/sparc-gaisler-elf/10.2.0/leon3/mfix-ut700/soft/flat/libgcc.a(_fpcmp_parts_df.o)
 .comment       0x0000000000000019       0x1a /home/fsw/rep/tasa/lib/bcc-2.2.3-gcc/bin/../lib/gcc/sparc-gaisler-elf/10.2.0/leon3/mfix-ut700/soft/flat/crtend.o

.gnu.attributes
                0x0000000000000000       0x10
 .gnu.attributes
                0x0000000000000000       0x10 /home/fsw/rep/tasa/lib/bcc-2.2.3-gcc/bin/../lib/gcc/sparc-gaisler-elf/10.2.0/../../../../sparc-gaisler-elf/lib/leon3/mfix-ut700/soft/flat/libc.a(lib_a-vfprintf.o)
 .gnu.attributes
                0x0000000000000010       0x10 /home/fsw/rep/tasa/lib/bcc-2.2.3-gcc/bin/../lib/gcc/sparc-gaisler-elf/10.2.0/../../../../sparc-gaisler-elf/lib/leon3/mfix-ut700/soft/flat/libc.a(lib_a-dtoa.o)
 .gnu.attributes
                0x0000000000000020       0x10 /home/fsw/rep/tasa/lib/bcc-2.2.3-gcc/bin/../lib/gcc/sparc-gaisler-elf/10.2.0/../../../../sparc-gaisler-elf/lib/leon3/mfix-ut700/soft/flat/libc.a(lib_a-findfp.o)
 .gnu.attributes
                0x0000000000000030       0x10 /home/fsw/rep/tasa/lib/bcc-2.2.3-gcc/bin/../lib/gcc/sparc-gaisler-elf/10.2.0/../../../../sparc-gaisler-elf/lib/leon3/mfix-ut700/soft/flat/libc.a(lib_a-fvwrite.o)
 .gnu.attributes
                0x0000000000000040       0x10 /home/fsw/rep/tasa/lib/bcc-2.2.3-gcc/bin/../lib/gcc/sparc-gaisler-elf/10.2.0/../../../../sparc-gaisler-elf/lib/leon3/mfix-ut700/soft/flat/libc.a(lib_a-mprec.o)
 .gnu.attributes
                0x0000000000000050       0x10 /home/fsw/rep/tasa/lib/bcc-2.2.3-gcc/bin/../lib/gcc/sparc-gaisler-elf/10.2.0/../../../../sparc-gaisler-elf/lib/leon3/mfix-ut700/soft/flat/libc.a(lib_a-callocr.o)
 .gnu.attributes
                0x0000000000000060       0x10 /home/fsw/rep/tasa/lib/bcc-2.2.3-gcc/bin/../lib/gcc/sparc-gaisler-elf/10.2.0/leon3/mfix-ut700/soft/flat/libgcc.a(_udivdi3.o)
 .gnu.attributes
                0x0000000000000070       0x10 /home/fsw/rep/tasa/lib/bcc-2.2.3-gcc/bin/../lib/gcc/sparc-gaisler-elf/10.2.0/leon3/mfix-ut700/soft/flat/libgcc.a(_umoddi3.o)
 .gnu.attributes
                0x0000000000000080       0x10 /home/fsw/rep/tasa/lib/bcc-2.2.3-gcc/bin/../lib/gcc/sparc-gaisler-elf/10.2.0/leon3/mfix-ut700/soft/flat/libgcc.a(_mul_df.o)

.debug_macinfo
 *(.debug_macinfo)

.debug_weaknames
 *(.debug_weaknames)

.debug_funcnames
 *(.debug_funcnames)

.debug_typenames
 *(.debug_typenames)

.debug_varnames
 *(.debug_varnames)
LOAD /home/fsw/rep/tasa/lib/bcc-2.2.3-gcc/bin/../lib/gcc/sparc-gaisler-elf/10.2.0/leon3/mfix-ut700/soft/flat/libgcc.a
START GROUP
LOAD /home/fsw/rep/tasa/lib/bcc-2.2.3-gcc/bin/../sparc-gaisler-elf/bsp/leon3/leon3/mfix-ut700/soft/flat/libbcc.a
LOAD /home/fsw/rep/tasa/lib/bcc-2.2.3-gcc/bin/../lib/gcc/sparc-gaisler-elf/10.2.0/leon3/mfix-ut700/soft/flat/libatomic.a
LOAD /home/fsw/rep/tasa/lib/bcc-2.2.3-gcc/bin/../lib/gcc/sparc-gaisler-elf/10.2.0/../../../../sparc-gaisler-elf/lib/leon3/mfix-ut700/soft/flat/libc.a
END GROUP
LOAD /home/fsw/rep/tasa/lib/bcc-2.2.3-gcc/bin/../lib/gcc/sparc-gaisler-elf/10.2.0/leon3/mfix-ut700/soft/flat/libgcc.a
LOAD /home/fsw/rep/tasa/lib/bcc-2.2.3-gcc/bin/../lib/gcc/sparc-gaisler-elf/10.2.0/leon3/mfix-ut700/soft/flat/crtend.o
LOAD /home/fsw/rep/tasa/lib/bcc-2.2.3-gcc/bin/../lib/gcc/sparc-gaisler-elf/10.2.0/leon3/mfix-ut700/soft/flat/crtn.o
OUTPUT(bin/leon3/leon3/mfix-ut700/soft/flat/bcc_amp0.elf elf32-sparc)

.debug_ranges   0x0000000000000000     0x1ce0
 .debug_ranges  0x0000000000000000       0x10 /tmp/ccyYqly4.o
 .debug_ranges  0x0000000000000010       0x80 /home/fsw/rep/tasa/lib/bcc-2.2.3-gcc/bin/../sparc-gaisler-elf/bsp/leon3/leon3/mfix-ut700/soft/flat/libbcc.a(int_irqmp_init.c.o)
 .debug_ranges  0x0000000000000090      0x168 /home/fsw/rep/tasa/lib/bcc-2.2.3-gcc/bin/../sparc-gaisler-elf/bsp/leon3/leon3/mfix-ut700/soft/flat/libbcc.a(ambapp.c.o)
 .debug_ranges  0x00000000000001f8       0x18 /home/fsw/rep/tasa/lib/bcc-2.2.3-gcc/bin/../sparc-gaisler-elf/bsp/leon3/leon3/mfix-ut700/soft/flat/libbcc.a(ambapp_findfirst_fn.c.o)
 .debug_ranges  0x0000000000000210       0x68 /home/fsw/rep/tasa/lib/bcc-2.2.3-gcc/bin/../lib/gcc/sparc-gaisler-elf/10.2.0/../../../../sparc-gaisler-elf/lib/leon3/mfix-ut700/soft/flat/libc.a(lib_a-puts.o)
 .debug_ranges  0x0000000000000278      0x2c0 /home/fsw/rep/tasa/lib/bcc-2.2.3-gcc/bin/../lib/gcc/sparc-gaisler-elf/10.2.0/../../../../sparc-gaisler-elf/lib/leon3/mfix-ut700/soft/flat/libc.a(lib_a-vfprintf.o)
 .debug_ranges  0x0000000000000538       0x40 /home/fsw/rep/tasa/lib/bcc-2.2.3-gcc/bin/../lib/gcc/sparc-gaisler-elf/10.2.0/../../../../sparc-gaisler-elf/lib/leon3/mfix-ut700/soft/flat/libc.a(lib_a-wsetup.o)
 .debug_ranges  0x0000000000000578       0x60 /home/fsw/rep/tasa/lib/bcc-2.2.3-gcc/bin/../lib/gcc/sparc-gaisler-elf/10.2.0/../../../../sparc-gaisler-elf/lib/leon3/mfix-ut700/soft/flat/libc.a(lib_a-__call_atexit.o)
 .debug_ranges  0x00000000000005d8       0x18 /home/fsw/rep/tasa/lib/bcc-2.2.3-gcc/bin/../lib/gcc/sparc-gaisler-elf/10.2.0/../../../../sparc-gaisler-elf/lib/leon3/mfix-ut700/soft/flat/libc.a(lib_a-dtoa.o)
 .debug_ranges  0x00000000000005f0       0xb0 /home/fsw/rep/tasa/lib/bcc-2.2.3-gcc/bin/../lib/gcc/sparc-gaisler-elf/10.2.0/../../../../sparc-gaisler-elf/lib/leon3/mfix-ut700/soft/flat/libc.a(lib_a-fflush.o)
 .debug_ranges  0x00000000000006a0       0xf0 /home/fsw/rep/tasa/lib/bcc-2.2.3-gcc/bin/../lib/gcc/sparc-gaisler-elf/10.2.0/../../../../sparc-gaisler-elf/lib/leon3/mfix-ut700/soft/flat/libc.a(lib_a-findfp.o)
 .debug_ranges  0x0000000000000790       0x38 /home/fsw/rep/tasa/lib/bcc-2.2.3-gcc/bin/../lib/gcc/sparc-gaisler-elf/10.2.0/../../../../sparc-gaisler-elf/lib/leon3/mfix-ut700/soft/flat/libc.a(lib_a-fvwrite.o)
 .debug_ranges  0x00000000000007c8       0x70 /home/fsw/rep/tasa/lib/bcc-2.2.3-gcc/bin/../lib/gcc/sparc-gaisler-elf/10.2.0/../../../../sparc-gaisler-elf/lib/leon3/mfix-ut700/soft/flat/libc.a(lib_a-localeconv.o)
 .debug_ranges  0x0000000000000838       0x68 /home/fsw/rep/tasa/lib/bcc-2.2.3-gcc/bin/../lib/gcc/sparc-gaisler-elf/10.2.0/../../../../sparc-gaisler-elf/lib/leon3/mfix-ut700/soft/flat/libc.a(lib_a-makebuf.o)
 .debug_ranges  0x00000000000008a0       0x38 /home/fsw/rep/tasa/lib/bcc-2.2.3-gcc/bin/../lib/gcc/sparc-gaisler-elf/10.2.0/../../../../sparc-gaisler-elf/lib/leon3/mfix-ut700/soft/flat/libc.a(lib_a-mallocr.o)
 .debug_ranges  0x00000000000008d8      0x3e8 /home/fsw/rep/tasa/lib/bcc-2.2.3-gcc/bin/../lib/gcc/sparc-gaisler-elf/10.2.0/../../../../sparc-gaisler-elf/lib/leon3/mfix-ut700/soft/flat/libc.a(lib_a-mprec.o)
 .debug_ranges  0x0000000000000cc0       0x90 /home/fsw/rep/tasa/lib/bcc-2.2.3-gcc/bin/../lib/gcc/sparc-gaisler-elf/10.2.0/../../../../sparc-gaisler-elf/lib/leon3/mfix-ut700/soft/flat/libc.a(lib_a-putc.o)
 .debug_ranges  0x0000000000000d50      0x178 /home/fsw/rep/tasa/lib/bcc-2.2.3-gcc/bin/../lib/gcc/sparc-gaisler-elf/10.2.0/../../../../sparc-gaisler-elf/lib/leon3/mfix-ut700/soft/flat/libc.a(lib_a-reallocr.o)
 .debug_ranges  0x0000000000000ec8       0x30 /home/fsw/rep/tasa/lib/bcc-2.2.3-gcc/bin/../lib/gcc/sparc-gaisler-elf/10.2.0/../../../../sparc-gaisler-elf/lib/leon3/mfix-ut700/soft/flat/libc.a(lib_a-s_frexp.o)
 .debug_ranges  0x0000000000000ef8      0x718 /home/fsw/rep/tasa/lib/bcc-2.2.3-gcc/bin/../lib/gcc/sparc-gaisler-elf/10.2.0/../../../../sparc-gaisler-elf/lib/leon3/mfix-ut700/soft/flat/libc.a(lib_a-vfiprintf.o)
 .debug_ranges  0x0000000000001610       0x98 /home/fsw/rep/tasa/lib/bcc-2.2.3-gcc/bin/../lib/gcc/sparc-gaisler-elf/10.2.0/../../../../sparc-gaisler-elf/lib/leon3/mfix-ut700/soft/flat/libc.a(lib_a-wbuf.o)
 .debug_ranges  0x00000000000016a8       0x40 /home/fsw/rep/tasa/lib/bcc-2.2.3-gcc/bin/../lib/gcc/sparc-gaisler-elf/10.2.0/../../../../sparc-gaisler-elf/lib/leon3/mfix-ut700/soft/flat/libc.a(lib_a-callocr.o)
 .debug_ranges  0x00000000000016e8       0x98 /home/fsw/rep/tasa/lib/bcc-2.2.3-gcc/bin/../lib/gcc/sparc-gaisler-elf/10.2.0/../../../../sparc-gaisler-elf/lib/leon3/mfix-ut700/soft/flat/libc.a(lib_a-fclose.o)
 .debug_ranges  0x0000000000001780       0x50 /home/fsw/rep/tasa/lib/bcc-2.2.3-gcc/bin/../lib/gcc/sparc-gaisler-elf/10.2.0/../../../../sparc-gaisler-elf/lib/leon3/mfix-ut700/soft/flat/libc.a(lib_a-fputwc.o)
 .debug_ranges  0x00000000000017d0       0x50 /home/fsw/rep/tasa/lib/bcc-2.2.3-gcc/bin/../lib/gcc/sparc-gaisler-elf/10.2.0/../../../../sparc-gaisler-elf/lib/leon3/mfix-ut700/soft/flat/libc.a(lib_a-locale.o)
 .debug_ranges  0x0000000000001820       0x28 /home/fsw/rep/tasa/lib/bcc-2.2.3-gcc/bin/../lib/gcc/sparc-gaisler-elf/10.2.0/../../../../sparc-gaisler-elf/lib/leon3/mfix-ut700/soft/flat/libc.a(lib_a-mbtowc_r.o)
 .debug_ranges  0x0000000000001848       0x20 /home/fsw/rep/tasa/lib/bcc-2.2.3-gcc/bin/../lib/gcc/sparc-gaisler-elf/10.2.0/../../../../sparc-gaisler-elf/lib/leon3/mfix-ut700/soft/flat/libc.a(lib_a-reent.o)
 .debug_ranges  0x0000000000001868       0x40 /home/fsw/rep/tasa/lib/bcc-2.2.3-gcc/bin/../lib/gcc/sparc-gaisler-elf/10.2.0/../../../../sparc-gaisler-elf/lib/leon3/mfix-ut700/soft/flat/libc.a(lib_a-wcrtomb.o)
 .debug_ranges  0x00000000000018a8       0x28 /home/fsw/rep/tasa/lib/bcc-2.2.3-gcc/bin/../lib/gcc/sparc-gaisler-elf/10.2.0/../../../../sparc-gaisler-elf/lib/leon3/mfix-ut700/soft/flat/libc.a(lib_a-wctomb_r.o)
 .debug_ranges  0x00000000000018d0       0x18 /home/fsw/rep/tasa/lib/bcc-2.2.3-gcc/bin/../sparc-gaisler-elf/bsp/leon3/leon3/mfix-ut700/soft/flat/libbcc.a(read.c.o)
 .debug_ranges  0x00000000000018e8       0x18 /home/fsw/rep/tasa/lib/bcc-2.2.3-gcc/bin/../sparc-gaisler-elf/bsp/leon3/leon3/mfix-ut700/soft/flat/libbcc.a(write.c.o)
 .debug_ranges  0x0000000000001900       0x50 /home/fsw/rep/tasa/lib/bcc-2.2.3-gcc/bin/../lib/gcc/sparc-gaisler-elf/10.2.0/leon3/mfix-ut700/soft/flat/libgcc.a(_udivdi3.o)
 .debug_ranges  0x0000000000001950       0x58 /home/fsw/rep/tasa/lib/bcc-2.2.3-gcc/bin/../lib/gcc/sparc-gaisler-elf/10.2.0/leon3/mfix-ut700/soft/flat/libgcc.a(_umoddi3.o)
 .debug_ranges  0x00000000000019a8      0x170 /home/fsw/rep/tasa/lib/bcc-2.2.3-gcc/bin/../lib/gcc/sparc-gaisler-elf/10.2.0/leon3/mfix-ut700/soft/flat/libgcc.a(_addsub_df.o)
 .debug_ranges  0x0000000000001b18       0x78 /home/fsw/rep/tasa/lib/bcc-2.2.3-gcc/bin/../lib/gcc/sparc-gaisler-elf/10.2.0/leon3/mfix-ut700/soft/flat/libgcc.a(_mul_df.o)
 .debug_ranges  0x0000000000001b90       0x58 /home/fsw/rep/tasa/lib/bcc-2.2.3-gcc/bin/../lib/gcc/sparc-gaisler-elf/10.2.0/leon3/mfix-ut700/soft/flat/libgcc.a(_div_df.o)
 .debug_ranges  0x0000000000001be8       0x18 /home/fsw/rep/tasa/lib/bcc-2.2.3-gcc/bin/../lib/gcc/sparc-gaisler-elf/10.2.0/leon3/mfix-ut700/soft/flat/libgcc.a(_si_to_df.o)
 .debug_ranges  0x0000000000001c00       0x18 /home/fsw/rep/tasa/lib/bcc-2.2.3-gcc/bin/../lib/gcc/sparc-gaisler-elf/10.2.0/leon3/mfix-ut700/soft/flat/libgcc.a(_usi_to_df.o)
 .debug_ranges  0x0000000000001c18       0x30 /home/fsw/rep/tasa/lib/bcc-2.2.3-gcc/bin/../lib/gcc/sparc-gaisler-elf/10.2.0/leon3/mfix-ut700/soft/flat/libgcc.a(_clzsi2.o)
 .debug_ranges  0x0000000000001c48       0x80 /home/fsw/rep/tasa/lib/bcc-2.2.3-gcc/bin/../lib/gcc/sparc-gaisler-elf/10.2.0/leon3/mfix-ut700/soft/flat/libgcc.a(_pack_df.o)
 .debug_ranges  0x0000000000001cc8       0x18 /home/fsw/rep/tasa/lib/bcc-2.2.3-gcc/bin/../lib/gcc/sparc-gaisler-elf/10.2.0/leon3/mfix-ut700/soft/flat/libgcc.a(_fpcmp_parts_df.o)
