Archive member included to satisfy reference by file (symbol)

/home/fsw/rep/tasa/lib/bcc-2.2.3-gcc/bin/../sparc-gaisler-elf/bsp/leon3/mfix-b2bst/mfix-tn0013/flat/libbcc.a(reset_trap_mvt.S.o)
                              /home/fsw/rep/tasa/lib/bcc-2.2.3-gcc/bin/../sparc-gaisler-elf/bsp/leon3/mfix-b2bst/mfix-tn0013/flat/trap_table_mvt.S.o (__bcc_trap_reset_mvt)
/home/fsw/rep/tasa/lib/bcc-2.2.3-gcc/bin/../sparc-gaisler-elf/bsp/leon3/mfix-b2bst/mfix-tn0013/flat/libbcc.a(interrupt_trap_flat.S.o)
                              /home/fsw/rep/tasa/lib/bcc-2.2.3-gcc/bin/../sparc-gaisler-elf/bsp/leon3/mfix-b2bst/mfix-tn0013/flat/trap_table_mvt.S.o (__bcc_trap_interrupt_flat)
/home/fsw/rep/tasa/lib/bcc-2.2.3-gcc/bin/../sparc-gaisler-elf/bsp/leon3/mfix-b2bst/mfix-tn0013/flat/libbcc.a(sw_trap_set_pil.S.o)
                              /home/fsw/rep/tasa/lib/bcc-2.2.3-gcc/bin/../sparc-gaisler-elf/bsp/leon3/mfix-b2bst/mfix-tn0013/flat/trap_table_mvt.S.o (__bcc_trap_sw_set_pil)
/home/fsw/rep/tasa/lib/bcc-2.2.3-gcc/bin/../sparc-gaisler-elf/bsp/leon3/mfix-b2bst/mfix-tn0013/flat/libbcc.a(isr.c.o)
                              /home/fsw/rep/tasa/lib/bcc-2.2.3-gcc/bin/../sparc-gaisler-elf/bsp/leon3/mfix-b2bst/mfix-tn0013/flat/libbcc.a(interrupt_trap_flat.S.o) (__bcc_isr_list)
/home/fsw/rep/tasa/lib/bcc-2.2.3-gcc/bin/../sparc-gaisler-elf/bsp/leon3/mfix-b2bst/mfix-tn0013/flat/libbcc.a(int_nest.c.o)
                              /home/fsw/rep/tasa/lib/bcc-2.2.3-gcc/bin/../sparc-gaisler-elf/bsp/leon3/mfix-b2bst/mfix-tn0013/flat/libbcc.a(interrupt_trap_flat.S.o) (__bcc_int_nest)
/home/fsw/rep/tasa/lib/bcc-2.2.3-gcc/bin/../sparc-gaisler-elf/bsp/leon3/mfix-b2bst/mfix-tn0013/flat/libbcc.a(init.S.o)
                              /home/fsw/rep/tasa/lib/bcc-2.2.3-gcc/bin/../sparc-gaisler-elf/bsp/leon3/mfix-b2bst/mfix-tn0013/flat/libbcc.a(reset_trap_mvt.S.o) (__bcc_init40)
/home/fsw/rep/tasa/lib/bcc-2.2.3-gcc/bin/../sparc-gaisler-elf/bsp/leon3/mfix-b2bst/mfix-tn0013/flat/libbcc.a(leon_info.S.o)
                              /home/fsw/rep/tasa/lib/bcc-2.2.3-gcc/bin/../sparc-gaisler-elf/bsp/leon3/mfix-b2bst/mfix-tn0013/flat/crt0.S.o (__bcc_get_leon_info)
/home/fsw/rep/tasa/lib/bcc-2.2.3-gcc/bin/../sparc-gaisler-elf/bsp/leon3/mfix-b2bst/mfix-tn0013/flat/libbcc.a(dwzero.S.o)
                              /home/fsw/rep/tasa/lib/bcc-2.2.3-gcc/bin/../sparc-gaisler-elf/bsp/leon3/mfix-b2bst/mfix-tn0013/flat/crt0.S.o (bcc_dwzero)
/home/fsw/rep/tasa/lib/bcc-2.2.3-gcc/bin/../sparc-gaisler-elf/bsp/leon3/mfix-b2bst/mfix-tn0013/flat/libbcc.a(copy_data.c.o)
                              /home/fsw/rep/tasa/lib/bcc-2.2.3-gcc/bin/../sparc-gaisler-elf/bsp/leon3/mfix-b2bst/mfix-tn0013/flat/crt0.S.o (__bcc_copy_data)
/home/fsw/rep/tasa/lib/bcc-2.2.3-gcc/bin/../sparc-gaisler-elf/bsp/leon3/mfix-b2bst/mfix-tn0013/flat/libbcc.a(argv.c.o)
                              /home/fsw/rep/tasa/lib/bcc-2.2.3-gcc/bin/../sparc-gaisler-elf/bsp/leon3/mfix-b2bst/mfix-tn0013/flat/crt0.S.o (__bcc_argvp)
/home/fsw/rep/tasa/lib/bcc-2.2.3-gcc/bin/../sparc-gaisler-elf/bsp/leon3/mfix-b2bst/mfix-tn0013/flat/libbcc.a(int_irqmp_get_source.c.o)
                              /home/fsw/rep/tasa/lib/bcc-2.2.3-gcc/bin/../sparc-gaisler-elf/bsp/leon3/mfix-b2bst/mfix-tn0013/flat/libbcc.a(interrupt_trap_flat.S.o) (__bcc_int_get_source)
/home/fsw/rep/tasa/lib/bcc-2.2.3-gcc/bin/../sparc-gaisler-elf/bsp/leon3/mfix-b2bst/mfix-tn0013/flat/libbcc.a(int_irqmp_mp.c.o)
                              /tmp/ccvGHBjf.o (bcc_get_cpu_count)
/home/fsw/rep/tasa/lib/bcc-2.2.3-gcc/bin/../sparc-gaisler-elf/bsp/leon3/mfix-b2bst/mfix-tn0013/flat/libbcc.a(int_irqmp_init.c.o)
                              /home/fsw/rep/tasa/lib/bcc-2.2.3-gcc/bin/../sparc-gaisler-elf/bsp/leon3/mfix-b2bst/mfix-tn0013/flat/crt0.S.o (__bcc_int_init)
/home/fsw/rep/tasa/lib/bcc-2.2.3-gcc/bin/../sparc-gaisler-elf/bsp/leon3/mfix-b2bst/mfix-tn0013/flat/libbcc.a(con_apbuart_init.c.o)
                              /home/fsw/rep/tasa/lib/bcc-2.2.3-gcc/bin/../sparc-gaisler-elf/bsp/leon3/mfix-b2bst/mfix-tn0013/flat/crt0.S.o (__bcc_con_init)
/home/fsw/rep/tasa/lib/bcc-2.2.3-gcc/bin/../sparc-gaisler-elf/bsp/leon3/mfix-b2bst/mfix-tn0013/flat/libbcc.a(timer_gptimer_init.c.o)
                              /home/fsw/rep/tasa/lib/bcc-2.2.3-gcc/bin/../sparc-gaisler-elf/bsp/leon3/mfix-b2bst/mfix-tn0013/flat/crt0.S.o (__bcc_timer_init)
/home/fsw/rep/tasa/lib/bcc-2.2.3-gcc/bin/../sparc-gaisler-elf/bsp/leon3/mfix-b2bst/mfix-tn0013/flat/libbcc.a(ambapp.c.o)
                              /home/fsw/rep/tasa/lib/bcc-2.2.3-gcc/bin/../sparc-gaisler-elf/bsp/leon3/mfix-b2bst/mfix-tn0013/flat/libbcc.a(int_irqmp_init.c.o) (ambapp_visit)
/home/fsw/rep/tasa/lib/bcc-2.2.3-gcc/bin/../sparc-gaisler-elf/bsp/leon3/mfix-b2bst/mfix-tn0013/flat/libbcc.a(ambapp_findfirst_fn.c.o)
                              /home/fsw/rep/tasa/lib/bcc-2.2.3-gcc/bin/../sparc-gaisler-elf/bsp/leon3/mfix-b2bst/mfix-tn0013/flat/libbcc.a(int_irqmp_init.c.o) (ambapp_findfirst_fn)
/home/fsw/rep/tasa/lib/bcc-2.2.3-gcc/bin/../sparc-gaisler-elf/bsp/leon3/mfix-b2bst/mfix-tn0013/flat/libbcc.a(int_irqmp_handle.c.o)
                              /home/fsw/rep/tasa/lib/bcc-2.2.3-gcc/bin/../sparc-gaisler-elf/bsp/leon3/mfix-b2bst/mfix-tn0013/flat/libbcc.a(int_irqmp_init.c.o) (__bcc_int_irqmp_nts)
/home/fsw/rep/tasa/lib/bcc-2.2.3-gcc/bin/../sparc-gaisler-elf/bsp/leon3/mfix-b2bst/mfix-tn0013/flat/libbcc.a(con_handle.c.o)
                              /home/fsw/rep/tasa/lib/bcc-2.2.3-gcc/bin/../sparc-gaisler-elf/bsp/leon3/mfix-b2bst/mfix-tn0013/flat/libbcc.a(con_apbuart_init.c.o) (__bcc_con_handle)
/home/fsw/rep/tasa/lib/bcc-2.2.3-gcc/bin/../sparc-gaisler-elf/bsp/leon3/mfix-b2bst/mfix-tn0013/flat/libbcc.a(timer_handle.c.o)
                              /home/fsw/rep/tasa/lib/bcc-2.2.3-gcc/bin/../sparc-gaisler-elf/bsp/leon3/mfix-b2bst/mfix-tn0013/flat/libbcc.a(timer_gptimer_init.c.o) (__bcc_timer_interrupt)
/home/fsw/rep/tasa/lib/bcc-2.2.3-gcc/bin/../lib/gcc/sparc-gaisler-elf/10.2.0/../../../../sparc-gaisler-elf/lib/mfix-b2bst/mfix-tn0013/flat/libc.a(lib_a-atexit.o)
                              /home/fsw/rep/tasa/lib/bcc-2.2.3-gcc/bin/../sparc-gaisler-elf/bsp/leon3/mfix-b2bst/mfix-tn0013/flat/crt0.S.o (atexit)
/home/fsw/rep/tasa/lib/bcc-2.2.3-gcc/bin/../lib/gcc/sparc-gaisler-elf/10.2.0/../../../../sparc-gaisler-elf/lib/mfix-b2bst/mfix-tn0013/flat/libc.a(lib_a-exit.o)
                              /home/fsw/rep/tasa/lib/bcc-2.2.3-gcc/bin/../sparc-gaisler-elf/bsp/leon3/mfix-b2bst/mfix-tn0013/flat/crt0.S.o (exit)
/home/fsw/rep/tasa/lib/bcc-2.2.3-gcc/bin/../lib/gcc/sparc-gaisler-elf/10.2.0/../../../../sparc-gaisler-elf/lib/mfix-b2bst/mfix-tn0013/flat/libc.a(lib_a-impure.o)
                              /home/fsw/rep/tasa/lib/bcc-2.2.3-gcc/bin/../lib/gcc/sparc-gaisler-elf/10.2.0/../../../../sparc-gaisler-elf/lib/mfix-b2bst/mfix-tn0013/flat/libc.a(lib_a-exit.o) (_global_impure_ptr)
/home/fsw/rep/tasa/lib/bcc-2.2.3-gcc/bin/../lib/gcc/sparc-gaisler-elf/10.2.0/../../../../sparc-gaisler-elf/lib/mfix-b2bst/mfix-tn0013/flat/libc.a(lib_a-memcpy.o)
                              /home/fsw/rep/tasa/lib/bcc-2.2.3-gcc/bin/../sparc-gaisler-elf/bsp/leon3/mfix-b2bst/mfix-tn0013/flat/libbcc.a(ambapp_findfirst_fn.c.o) (memcpy)
/home/fsw/rep/tasa/lib/bcc-2.2.3-gcc/bin/../lib/gcc/sparc-gaisler-elf/10.2.0/../../../../sparc-gaisler-elf/lib/mfix-b2bst/mfix-tn0013/flat/libc.a(lib_a-printf.o)
                              /tmp/ccvGHBjf.o (printf)
/home/fsw/rep/tasa/lib/bcc-2.2.3-gcc/bin/../lib/gcc/sparc-gaisler-elf/10.2.0/../../../../sparc-gaisler-elf/lib/mfix-b2bst/mfix-tn0013/flat/libc.a(lib_a-putchar.o)
                              /tmp/ccvGHBjf.o (putchar)
/home/fsw/rep/tasa/lib/bcc-2.2.3-gcc/bin/../lib/gcc/sparc-gaisler-elf/10.2.0/../../../../sparc-gaisler-elf/lib/mfix-b2bst/mfix-tn0013/flat/libc.a(lib_a-puts.o)
                              /tmp/ccvGHBjf.o (puts)
/home/fsw/rep/tasa/lib/bcc-2.2.3-gcc/bin/../lib/gcc/sparc-gaisler-elf/10.2.0/../../../../sparc-gaisler-elf/lib/mfix-b2bst/mfix-tn0013/flat/libc.a(lib_a-strlen.o)
                              /home/fsw/rep/tasa/lib/bcc-2.2.3-gcc/bin/../lib/gcc/sparc-gaisler-elf/10.2.0/../../../../sparc-gaisler-elf/lib/mfix-b2bst/mfix-tn0013/flat/libc.a(lib_a-puts.o) (strlen)
/home/fsw/rep/tasa/lib/bcc-2.2.3-gcc/bin/../lib/gcc/sparc-gaisler-elf/10.2.0/../../../../sparc-gaisler-elf/lib/mfix-b2bst/mfix-tn0013/flat/libc.a(lib_a-vfprintf.o)
                              /home/fsw/rep/tasa/lib/bcc-2.2.3-gcc/bin/../lib/gcc/sparc-gaisler-elf/10.2.0/../../../../sparc-gaisler-elf/lib/mfix-b2bst/mfix-tn0013/flat/libc.a(lib_a-printf.o) (_vfprintf_r)
/home/fsw/rep/tasa/lib/bcc-2.2.3-gcc/bin/../lib/gcc/sparc-gaisler-elf/10.2.0/../../../../sparc-gaisler-elf/lib/mfix-b2bst/mfix-tn0013/flat/libc.a(lib_a-wsetup.o)
                              /home/fsw/rep/tasa/lib/bcc-2.2.3-gcc/bin/../lib/gcc/sparc-gaisler-elf/10.2.0/../../../../sparc-gaisler-elf/lib/mfix-b2bst/mfix-tn0013/flat/libc.a(lib_a-vfprintf.o) (__swsetup_r)
/home/fsw/rep/tasa/lib/bcc-2.2.3-gcc/bin/../lib/gcc/sparc-gaisler-elf/10.2.0/../../../../sparc-gaisler-elf/lib/mfix-b2bst/mfix-tn0013/flat/libc.a(lib_a-__atexit.o)
                              /home/fsw/rep/tasa/lib/bcc-2.2.3-gcc/bin/../lib/gcc/sparc-gaisler-elf/10.2.0/../../../../sparc-gaisler-elf/lib/mfix-b2bst/mfix-tn0013/flat/libc.a(lib_a-atexit.o) (__register_exitproc)
/home/fsw/rep/tasa/lib/bcc-2.2.3-gcc/bin/../lib/gcc/sparc-gaisler-elf/10.2.0/../../../../sparc-gaisler-elf/lib/mfix-b2bst/mfix-tn0013/flat/libc.a(lib_a-__call_atexit.o)
                              /home/fsw/rep/tasa/lib/bcc-2.2.3-gcc/bin/../lib/gcc/sparc-gaisler-elf/10.2.0/../../../../sparc-gaisler-elf/lib/mfix-b2bst/mfix-tn0013/flat/libc.a(lib_a-exit.o) (__call_exitprocs)
/home/fsw/rep/tasa/lib/bcc-2.2.3-gcc/bin/../lib/gcc/sparc-gaisler-elf/10.2.0/../../../../sparc-gaisler-elf/lib/mfix-b2bst/mfix-tn0013/flat/libc.a(lib_a-dtoa.o)
                              /home/fsw/rep/tasa/lib/bcc-2.2.3-gcc/bin/../lib/gcc/sparc-gaisler-elf/10.2.0/../../../../sparc-gaisler-elf/lib/mfix-b2bst/mfix-tn0013/flat/libc.a(lib_a-vfprintf.o) (_dtoa_r)
/home/fsw/rep/tasa/lib/bcc-2.2.3-gcc/bin/../lib/gcc/sparc-gaisler-elf/10.2.0/../../../../sparc-gaisler-elf/lib/mfix-b2bst/mfix-tn0013/flat/libc.a(lib_a-fflush.o)
                              /home/fsw/rep/tasa/lib/bcc-2.2.3-gcc/bin/../lib/gcc/sparc-gaisler-elf/10.2.0/../../../../sparc-gaisler-elf/lib/mfix-b2bst/mfix-tn0013/flat/libc.a(lib_a-vfprintf.o) (_fflush_r)
/home/fsw/rep/tasa/lib/bcc-2.2.3-gcc/bin/../lib/gcc/sparc-gaisler-elf/10.2.0/../../../../sparc-gaisler-elf/lib/mfix-b2bst/mfix-tn0013/flat/libc.a(lib_a-findfp.o)
                              /home/fsw/rep/tasa/lib/bcc-2.2.3-gcc/bin/../lib/gcc/sparc-gaisler-elf/10.2.0/../../../../sparc-gaisler-elf/lib/mfix-b2bst/mfix-tn0013/flat/libc.a(lib_a-printf.o) (__sinit)
/home/fsw/rep/tasa/lib/bcc-2.2.3-gcc/bin/../lib/gcc/sparc-gaisler-elf/10.2.0/../../../../sparc-gaisler-elf/lib/mfix-b2bst/mfix-tn0013/flat/libc.a(lib_a-freer.o)
                              /home/fsw/rep/tasa/lib/bcc-2.2.3-gcc/bin/../lib/gcc/sparc-gaisler-elf/10.2.0/../../../../sparc-gaisler-elf/lib/mfix-b2bst/mfix-tn0013/flat/libc.a(lib_a-vfprintf.o) (_free_r)
/home/fsw/rep/tasa/lib/bcc-2.2.3-gcc/bin/../lib/gcc/sparc-gaisler-elf/10.2.0/../../../../sparc-gaisler-elf/lib/mfix-b2bst/mfix-tn0013/flat/libc.a(lib_a-fvwrite.o)
                              /home/fsw/rep/tasa/lib/bcc-2.2.3-gcc/bin/../lib/gcc/sparc-gaisler-elf/10.2.0/../../../../sparc-gaisler-elf/lib/mfix-b2bst/mfix-tn0013/flat/libc.a(lib_a-puts.o) (__sfvwrite_r)
/home/fsw/rep/tasa/lib/bcc-2.2.3-gcc/bin/../lib/gcc/sparc-gaisler-elf/10.2.0/../../../../sparc-gaisler-elf/lib/mfix-b2bst/mfix-tn0013/flat/libc.a(lib_a-fwalk.o)
                              /home/fsw/rep/tasa/lib/bcc-2.2.3-gcc/bin/../lib/gcc/sparc-gaisler-elf/10.2.0/../../../../sparc-gaisler-elf/lib/mfix-b2bst/mfix-tn0013/flat/libc.a(lib_a-fflush.o) (_fwalk_reent)
/home/fsw/rep/tasa/lib/bcc-2.2.3-gcc/bin/../lib/gcc/sparc-gaisler-elf/10.2.0/../../../../sparc-gaisler-elf/lib/mfix-b2bst/mfix-tn0013/flat/libc.a(lib_a-localeconv.o)
                              /home/fsw/rep/tasa/lib/bcc-2.2.3-gcc/bin/../lib/gcc/sparc-gaisler-elf/10.2.0/../../../../sparc-gaisler-elf/lib/mfix-b2bst/mfix-tn0013/flat/libc.a(lib_a-vfprintf.o) (_localeconv_r)
/home/fsw/rep/tasa/lib/bcc-2.2.3-gcc/bin/../lib/gcc/sparc-gaisler-elf/10.2.0/../../../../sparc-gaisler-elf/lib/mfix-b2bst/mfix-tn0013/flat/libc.a(lib_a-makebuf.o)
                              /home/fsw/rep/tasa/lib/bcc-2.2.3-gcc/bin/../lib/gcc/sparc-gaisler-elf/10.2.0/../../../../sparc-gaisler-elf/lib/mfix-b2bst/mfix-tn0013/flat/libc.a(lib_a-wsetup.o) (__smakebuf_r)
/home/fsw/rep/tasa/lib/bcc-2.2.3-gcc/bin/../lib/gcc/sparc-gaisler-elf/10.2.0/../../../../sparc-gaisler-elf/lib/mfix-b2bst/mfix-tn0013/flat/libc.a(lib_a-malloc.o)
                              /home/fsw/rep/tasa/lib/bcc-2.2.3-gcc/bin/../lib/gcc/sparc-gaisler-elf/10.2.0/../../../../sparc-gaisler-elf/lib/mfix-b2bst/mfix-tn0013/flat/libc.a(lib_a-dtoa.o) (malloc)
/home/fsw/rep/tasa/lib/bcc-2.2.3-gcc/bin/../lib/gcc/sparc-gaisler-elf/10.2.0/../../../../sparc-gaisler-elf/lib/mfix-b2bst/mfix-tn0013/flat/libc.a(lib_a-mallocr.o)
                              /home/fsw/rep/tasa/lib/bcc-2.2.3-gcc/bin/../lib/gcc/sparc-gaisler-elf/10.2.0/../../../../sparc-gaisler-elf/lib/mfix-b2bst/mfix-tn0013/flat/libc.a(lib_a-vfprintf.o) (_malloc_r)
/home/fsw/rep/tasa/lib/bcc-2.2.3-gcc/bin/../lib/gcc/sparc-gaisler-elf/10.2.0/../../../../sparc-gaisler-elf/lib/mfix-b2bst/mfix-tn0013/flat/libc.a(lib_a-memchr.o)
                              /home/fsw/rep/tasa/lib/bcc-2.2.3-gcc/bin/../lib/gcc/sparc-gaisler-elf/10.2.0/../../../../sparc-gaisler-elf/lib/mfix-b2bst/mfix-tn0013/flat/libc.a(lib_a-vfprintf.o) (memchr)
/home/fsw/rep/tasa/lib/bcc-2.2.3-gcc/bin/../lib/gcc/sparc-gaisler-elf/10.2.0/../../../../sparc-gaisler-elf/lib/mfix-b2bst/mfix-tn0013/flat/libc.a(lib_a-memmove.o)
                              /home/fsw/rep/tasa/lib/bcc-2.2.3-gcc/bin/../lib/gcc/sparc-gaisler-elf/10.2.0/../../../../sparc-gaisler-elf/lib/mfix-b2bst/mfix-tn0013/flat/libc.a(lib_a-fvwrite.o) (memmove)
/home/fsw/rep/tasa/lib/bcc-2.2.3-gcc/bin/../lib/gcc/sparc-gaisler-elf/10.2.0/../../../../sparc-gaisler-elf/lib/mfix-b2bst/mfix-tn0013/flat/libc.a(lib_a-memset.o)
                              /home/fsw/rep/tasa/lib/bcc-2.2.3-gcc/bin/../lib/gcc/sparc-gaisler-elf/10.2.0/../../../../sparc-gaisler-elf/lib/mfix-b2bst/mfix-tn0013/flat/libc.a(lib_a-findfp.o) (memset)
/home/fsw/rep/tasa/lib/bcc-2.2.3-gcc/bin/../lib/gcc/sparc-gaisler-elf/10.2.0/../../../../sparc-gaisler-elf/lib/mfix-b2bst/mfix-tn0013/flat/libc.a(lib_a-mlock.o)
                              /home/fsw/rep/tasa/lib/bcc-2.2.3-gcc/bin/../lib/gcc/sparc-gaisler-elf/10.2.0/../../../../sparc-gaisler-elf/lib/mfix-b2bst/mfix-tn0013/flat/libc.a(lib_a-freer.o) (__malloc_lock)
/home/fsw/rep/tasa/lib/bcc-2.2.3-gcc/bin/../lib/gcc/sparc-gaisler-elf/10.2.0/../../../../sparc-gaisler-elf/lib/mfix-b2bst/mfix-tn0013/flat/libc.a(lib_a-mprec.o)
                              /home/fsw/rep/tasa/lib/bcc-2.2.3-gcc/bin/../lib/gcc/sparc-gaisler-elf/10.2.0/../../../../sparc-gaisler-elf/lib/mfix-b2bst/mfix-tn0013/flat/libc.a(lib_a-dtoa.o) (_Balloc)
/home/fsw/rep/tasa/lib/bcc-2.2.3-gcc/bin/../lib/gcc/sparc-gaisler-elf/10.2.0/../../../../sparc-gaisler-elf/lib/mfix-b2bst/mfix-tn0013/flat/libc.a(lib_a-putc.o)
                              /home/fsw/rep/tasa/lib/bcc-2.2.3-gcc/bin/../lib/gcc/sparc-gaisler-elf/10.2.0/../../../../sparc-gaisler-elf/lib/mfix-b2bst/mfix-tn0013/flat/libc.a(lib_a-putchar.o) (_putc_r)
/home/fsw/rep/tasa/lib/bcc-2.2.3-gcc/bin/../lib/gcc/sparc-gaisler-elf/10.2.0/../../../../sparc-gaisler-elf/lib/mfix-b2bst/mfix-tn0013/flat/libc.a(lib_a-reallocr.o)
                              /home/fsw/rep/tasa/lib/bcc-2.2.3-gcc/bin/../lib/gcc/sparc-gaisler-elf/10.2.0/../../../../sparc-gaisler-elf/lib/mfix-b2bst/mfix-tn0013/flat/libc.a(lib_a-fvwrite.o) (_realloc_r)
/home/fsw/rep/tasa/lib/bcc-2.2.3-gcc/bin/../lib/gcc/sparc-gaisler-elf/10.2.0/../../../../sparc-gaisler-elf/lib/mfix-b2bst/mfix-tn0013/flat/libc.a(lib_a-s_frexp.o)
                              /home/fsw/rep/tasa/lib/bcc-2.2.3-gcc/bin/../lib/gcc/sparc-gaisler-elf/10.2.0/../../../../sparc-gaisler-elf/lib/mfix-b2bst/mfix-tn0013/flat/libc.a(lib_a-vfprintf.o) (frexp)
/home/fsw/rep/tasa/lib/bcc-2.2.3-gcc/bin/../lib/gcc/sparc-gaisler-elf/10.2.0/../../../../sparc-gaisler-elf/lib/mfix-b2bst/mfix-tn0013/flat/libc.a(lib_a-sbrkr.o)
                              /home/fsw/rep/tasa/lib/bcc-2.2.3-gcc/bin/../lib/gcc/sparc-gaisler-elf/10.2.0/../../../../sparc-gaisler-elf/lib/mfix-b2bst/mfix-tn0013/flat/libc.a(lib_a-freer.o) (_sbrk_r)
/home/fsw/rep/tasa/lib/bcc-2.2.3-gcc/bin/../lib/gcc/sparc-gaisler-elf/10.2.0/../../../../sparc-gaisler-elf/lib/mfix-b2bst/mfix-tn0013/flat/libc.a(lib_a-stdio.o)
                              /home/fsw/rep/tasa/lib/bcc-2.2.3-gcc/bin/../lib/gcc/sparc-gaisler-elf/10.2.0/../../../../sparc-gaisler-elf/lib/mfix-b2bst/mfix-tn0013/flat/libc.a(lib_a-findfp.o) (__sread)
/home/fsw/rep/tasa/lib/bcc-2.2.3-gcc/bin/../lib/gcc/sparc-gaisler-elf/10.2.0/../../../../sparc-gaisler-elf/lib/mfix-b2bst/mfix-tn0013/flat/libc.a(lib_a-strncpy.o)
                              /home/fsw/rep/tasa/lib/bcc-2.2.3-gcc/bin/../lib/gcc/sparc-gaisler-elf/10.2.0/../../../../sparc-gaisler-elf/lib/mfix-b2bst/mfix-tn0013/flat/libc.a(lib_a-vfprintf.o) (strncpy)
/home/fsw/rep/tasa/lib/bcc-2.2.3-gcc/bin/../lib/gcc/sparc-gaisler-elf/10.2.0/../../../../sparc-gaisler-elf/lib/mfix-b2bst/mfix-tn0013/flat/libc.a(lib_a-vfiprintf.o)
                              /home/fsw/rep/tasa/lib/bcc-2.2.3-gcc/bin/../lib/gcc/sparc-gaisler-elf/10.2.0/../../../../sparc-gaisler-elf/lib/mfix-b2bst/mfix-tn0013/flat/libc.a(lib_a-vfprintf.o) (__sprint_r)
/home/fsw/rep/tasa/lib/bcc-2.2.3-gcc/bin/../lib/gcc/sparc-gaisler-elf/10.2.0/../../../../sparc-gaisler-elf/lib/mfix-b2bst/mfix-tn0013/flat/libc.a(lib_a-wbuf.o)
                              /home/fsw/rep/tasa/lib/bcc-2.2.3-gcc/bin/../lib/gcc/sparc-gaisler-elf/10.2.0/../../../../sparc-gaisler-elf/lib/mfix-b2bst/mfix-tn0013/flat/libc.a(lib_a-putc.o) (__swbuf_r)
/home/fsw/rep/tasa/lib/bcc-2.2.3-gcc/bin/../lib/gcc/sparc-gaisler-elf/10.2.0/../../../../sparc-gaisler-elf/lib/mfix-b2bst/mfix-tn0013/flat/libc.a(lib_a-writer.o)
                              /home/fsw/rep/tasa/lib/bcc-2.2.3-gcc/bin/../lib/gcc/sparc-gaisler-elf/10.2.0/../../../../sparc-gaisler-elf/lib/mfix-b2bst/mfix-tn0013/flat/libc.a(lib_a-stdio.o) (_write_r)
/home/fsw/rep/tasa/lib/bcc-2.2.3-gcc/bin/../lib/gcc/sparc-gaisler-elf/10.2.0/../../../../sparc-gaisler-elf/lib/mfix-b2bst/mfix-tn0013/flat/libc.a(lib_a-callocr.o)
                              /home/fsw/rep/tasa/lib/bcc-2.2.3-gcc/bin/../lib/gcc/sparc-gaisler-elf/10.2.0/../../../../sparc-gaisler-elf/lib/mfix-b2bst/mfix-tn0013/flat/libc.a(lib_a-mprec.o) (_calloc_r)
/home/fsw/rep/tasa/lib/bcc-2.2.3-gcc/bin/../lib/gcc/sparc-gaisler-elf/10.2.0/../../../../sparc-gaisler-elf/lib/mfix-b2bst/mfix-tn0013/flat/libc.a(lib_a-closer.o)
                              /home/fsw/rep/tasa/lib/bcc-2.2.3-gcc/bin/../lib/gcc/sparc-gaisler-elf/10.2.0/../../../../sparc-gaisler-elf/lib/mfix-b2bst/mfix-tn0013/flat/libc.a(lib_a-stdio.o) (_close_r)
/home/fsw/rep/tasa/lib/bcc-2.2.3-gcc/bin/../lib/gcc/sparc-gaisler-elf/10.2.0/../../../../sparc-gaisler-elf/lib/mfix-b2bst/mfix-tn0013/flat/libc.a(lib_a-fclose.o)
                              /home/fsw/rep/tasa/lib/bcc-2.2.3-gcc/bin/../lib/gcc/sparc-gaisler-elf/10.2.0/../../../../sparc-gaisler-elf/lib/mfix-b2bst/mfix-tn0013/flat/libc.a(lib_a-findfp.o) (_fclose_r)
/home/fsw/rep/tasa/lib/bcc-2.2.3-gcc/bin/../lib/gcc/sparc-gaisler-elf/10.2.0/../../../../sparc-gaisler-elf/lib/mfix-b2bst/mfix-tn0013/flat/libc.a(lib_a-fputwc.o)
                              /home/fsw/rep/tasa/lib/bcc-2.2.3-gcc/bin/../lib/gcc/sparc-gaisler-elf/10.2.0/../../../../sparc-gaisler-elf/lib/mfix-b2bst/mfix-tn0013/flat/libc.a(lib_a-vfiprintf.o) (_fputwc_r)
/home/fsw/rep/tasa/lib/bcc-2.2.3-gcc/bin/../lib/gcc/sparc-gaisler-elf/10.2.0/../../../../sparc-gaisler-elf/lib/mfix-b2bst/mfix-tn0013/flat/libc.a(lib_a-fstatr.o)
                              /home/fsw/rep/tasa/lib/bcc-2.2.3-gcc/bin/../lib/gcc/sparc-gaisler-elf/10.2.0/../../../../sparc-gaisler-elf/lib/mfix-b2bst/mfix-tn0013/flat/libc.a(lib_a-makebuf.o) (_fstat_r)
/home/fsw/rep/tasa/lib/bcc-2.2.3-gcc/bin/../lib/gcc/sparc-gaisler-elf/10.2.0/../../../../sparc-gaisler-elf/lib/mfix-b2bst/mfix-tn0013/flat/libc.a(lib_a-isattyr.o)
                              /home/fsw/rep/tasa/lib/bcc-2.2.3-gcc/bin/../lib/gcc/sparc-gaisler-elf/10.2.0/../../../../sparc-gaisler-elf/lib/mfix-b2bst/mfix-tn0013/flat/libc.a(lib_a-makebuf.o) (_isatty_r)
/home/fsw/rep/tasa/lib/bcc-2.2.3-gcc/bin/../lib/gcc/sparc-gaisler-elf/10.2.0/../../../../sparc-gaisler-elf/lib/mfix-b2bst/mfix-tn0013/flat/libc.a(lib_a-locale.o)
                              /home/fsw/rep/tasa/lib/bcc-2.2.3-gcc/bin/../lib/gcc/sparc-gaisler-elf/10.2.0/../../../../sparc-gaisler-elf/lib/mfix-b2bst/mfix-tn0013/flat/libc.a(lib_a-fputwc.o) (__locale_mb_cur_max)
/home/fsw/rep/tasa/lib/bcc-2.2.3-gcc/bin/../lib/gcc/sparc-gaisler-elf/10.2.0/../../../../sparc-gaisler-elf/lib/mfix-b2bst/mfix-tn0013/flat/libc.a(lib_a-lseekr.o)
                              /home/fsw/rep/tasa/lib/bcc-2.2.3-gcc/bin/../lib/gcc/sparc-gaisler-elf/10.2.0/../../../../sparc-gaisler-elf/lib/mfix-b2bst/mfix-tn0013/flat/libc.a(lib_a-stdio.o) (_lseek_r)
/home/fsw/rep/tasa/lib/bcc-2.2.3-gcc/bin/../lib/gcc/sparc-gaisler-elf/10.2.0/../../../../sparc-gaisler-elf/lib/mfix-b2bst/mfix-tn0013/flat/libc.a(lib_a-mbtowc_r.o)
                              /home/fsw/rep/tasa/lib/bcc-2.2.3-gcc/bin/../lib/gcc/sparc-gaisler-elf/10.2.0/../../../../sparc-gaisler-elf/lib/mfix-b2bst/mfix-tn0013/flat/libc.a(lib_a-locale.o) (__ascii_mbtowc)
/home/fsw/rep/tasa/lib/bcc-2.2.3-gcc/bin/../lib/gcc/sparc-gaisler-elf/10.2.0/../../../../sparc-gaisler-elf/lib/mfix-b2bst/mfix-tn0013/flat/libc.a(lib_a-readr.o)
                              /home/fsw/rep/tasa/lib/bcc-2.2.3-gcc/bin/../lib/gcc/sparc-gaisler-elf/10.2.0/../../../../sparc-gaisler-elf/lib/mfix-b2bst/mfix-tn0013/flat/libc.a(lib_a-stdio.o) (_read_r)
/home/fsw/rep/tasa/lib/bcc-2.2.3-gcc/bin/../lib/gcc/sparc-gaisler-elf/10.2.0/../../../../sparc-gaisler-elf/lib/mfix-b2bst/mfix-tn0013/flat/libc.a(lib_a-reent.o)
                              /home/fsw/rep/tasa/lib/bcc-2.2.3-gcc/bin/../lib/gcc/sparc-gaisler-elf/10.2.0/../../../../sparc-gaisler-elf/lib/mfix-b2bst/mfix-tn0013/flat/libc.a(lib_a-sbrkr.o) (errno)
/home/fsw/rep/tasa/lib/bcc-2.2.3-gcc/bin/../lib/gcc/sparc-gaisler-elf/10.2.0/../../../../sparc-gaisler-elf/lib/mfix-b2bst/mfix-tn0013/flat/libc.a(lib_a-strcmp.o)
                              /home/fsw/rep/tasa/lib/bcc-2.2.3-gcc/bin/../lib/gcc/sparc-gaisler-elf/10.2.0/../../../../sparc-gaisler-elf/lib/mfix-b2bst/mfix-tn0013/flat/libc.a(lib_a-locale.o) (strcmp)
/home/fsw/rep/tasa/lib/bcc-2.2.3-gcc/bin/../lib/gcc/sparc-gaisler-elf/10.2.0/../../../../sparc-gaisler-elf/lib/mfix-b2bst/mfix-tn0013/flat/libc.a(lib_a-wcrtomb.o)
                              /home/fsw/rep/tasa/lib/bcc-2.2.3-gcc/bin/../lib/gcc/sparc-gaisler-elf/10.2.0/../../../../sparc-gaisler-elf/lib/mfix-b2bst/mfix-tn0013/flat/libc.a(lib_a-fputwc.o) (_wcrtomb_r)
/home/fsw/rep/tasa/lib/bcc-2.2.3-gcc/bin/../lib/gcc/sparc-gaisler-elf/10.2.0/../../../../sparc-gaisler-elf/lib/mfix-b2bst/mfix-tn0013/flat/libc.a(lib_a-wctomb_r.o)
                              /home/fsw/rep/tasa/lib/bcc-2.2.3-gcc/bin/../lib/gcc/sparc-gaisler-elf/10.2.0/../../../../sparc-gaisler-elf/lib/mfix-b2bst/mfix-tn0013/flat/libc.a(lib_a-locale.o) (__ascii_wctomb)
/home/fsw/rep/tasa/lib/bcc-2.2.3-gcc/bin/../lib/gcc/sparc-gaisler-elf/10.2.0/../../../../sparc-gaisler-elf/lib/mfix-b2bst/mfix-tn0013/flat/libc.a(lib_a-ctype_.o)
                              /home/fsw/rep/tasa/lib/bcc-2.2.3-gcc/bin/../lib/gcc/sparc-gaisler-elf/10.2.0/../../../../sparc-gaisler-elf/lib/mfix-b2bst/mfix-tn0013/flat/libc.a(lib_a-locale.o) (_ctype_b)
/home/fsw/rep/tasa/lib/bcc-2.2.3-gcc/bin/../sparc-gaisler-elf/bsp/leon3/mfix-b2bst/mfix-tn0013/flat/libbcc.a(_exit.S.o)
                              /home/fsw/rep/tasa/lib/bcc-2.2.3-gcc/bin/../lib/gcc/sparc-gaisler-elf/10.2.0/../../../../sparc-gaisler-elf/lib/mfix-b2bst/mfix-tn0013/flat/libc.a(lib_a-exit.o) (_exit)
/home/fsw/rep/tasa/lib/bcc-2.2.3-gcc/bin/../sparc-gaisler-elf/bsp/leon3/mfix-b2bst/mfix-tn0013/flat/libbcc.a(read.c.o)
                              /home/fsw/rep/tasa/lib/bcc-2.2.3-gcc/bin/../lib/gcc/sparc-gaisler-elf/10.2.0/../../../../sparc-gaisler-elf/lib/mfix-b2bst/mfix-tn0013/flat/libc.a(lib_a-readr.o) (read)
/home/fsw/rep/tasa/lib/bcc-2.2.3-gcc/bin/../sparc-gaisler-elf/bsp/leon3/mfix-b2bst/mfix-tn0013/flat/libbcc.a(sbrk.c.o)
                              /home/fsw/rep/tasa/lib/bcc-2.2.3-gcc/bin/../lib/gcc/sparc-gaisler-elf/10.2.0/../../../../sparc-gaisler-elf/lib/mfix-b2bst/mfix-tn0013/flat/libc.a(lib_a-sbrkr.o) (sbrk)
/home/fsw/rep/tasa/lib/bcc-2.2.3-gcc/bin/../sparc-gaisler-elf/bsp/leon3/mfix-b2bst/mfix-tn0013/flat/libbcc.a(heap.c.o)
                              /home/fsw/rep/tasa/lib/bcc-2.2.3-gcc/bin/../sparc-gaisler-elf/bsp/leon3/mfix-b2bst/mfix-tn0013/flat/libbcc.a(sbrk.c.o) (__bcc_heap_max)
/home/fsw/rep/tasa/lib/bcc-2.2.3-gcc/bin/../sparc-gaisler-elf/bsp/leon3/mfix-b2bst/mfix-tn0013/flat/libbcc.a(write.c.o)
                              /home/fsw/rep/tasa/lib/bcc-2.2.3-gcc/bin/../lib/gcc/sparc-gaisler-elf/10.2.0/../../../../sparc-gaisler-elf/lib/mfix-b2bst/mfix-tn0013/flat/libc.a(lib_a-writer.o) (write)
/home/fsw/rep/tasa/lib/bcc-2.2.3-gcc/bin/../sparc-gaisler-elf/bsp/leon3/mfix-b2bst/mfix-tn0013/flat/libbcc.a(stubs.S.o)
                              /home/fsw/rep/tasa/lib/bcc-2.2.3-gcc/bin/../lib/gcc/sparc-gaisler-elf/10.2.0/../../../../sparc-gaisler-elf/lib/mfix-b2bst/mfix-tn0013/flat/libc.a(lib_a-closer.o) (close)
/home/fsw/rep/tasa/lib/bcc-2.2.3-gcc/bin/../sparc-gaisler-elf/bsp/leon3/mfix-b2bst/mfix-tn0013/flat/libbcc.a(con_apbuart.c.o)
                              /home/fsw/rep/tasa/lib/bcc-2.2.3-gcc/bin/../sparc-gaisler-elf/bsp/leon3/mfix-b2bst/mfix-tn0013/flat/libbcc.a(write.c.o) (__bcc_con_outbyte)
/home/fsw/rep/tasa/lib/bcc-2.2.3-gcc/bin/../lib/gcc/sparc-gaisler-elf/10.2.0/mfix-b2bst/mfix-tn0013/flat/libgcc.a(_mulsi3.o)
                              /home/fsw/rep/tasa/lib/bcc-2.2.3-gcc/bin/../lib/gcc/sparc-gaisler-elf/10.2.0/../../../../sparc-gaisler-elf/lib/mfix-b2bst/mfix-tn0013/flat/libc.a(lib_a-vfprintf.o) (.umul)
/home/fsw/rep/tasa/lib/bcc-2.2.3-gcc/bin/../lib/gcc/sparc-gaisler-elf/10.2.0/mfix-b2bst/mfix-tn0013/flat/libgcc.a(_divsi3.o)
                              /home/fsw/rep/tasa/lib/bcc-2.2.3-gcc/bin/../lib/gcc/sparc-gaisler-elf/10.2.0/../../../../sparc-gaisler-elf/lib/mfix-b2bst/mfix-tn0013/flat/libc.a(lib_a-dtoa.o) (.udiv)
/home/fsw/rep/tasa/lib/bcc-2.2.3-gcc/bin/../lib/gcc/sparc-gaisler-elf/10.2.0/mfix-b2bst/mfix-tn0013/flat/libgcc.a(_modsi3.o)
                              /home/fsw/rep/tasa/lib/bcc-2.2.3-gcc/bin/../lib/gcc/sparc-gaisler-elf/10.2.0/../../../../sparc-gaisler-elf/lib/mfix-b2bst/mfix-tn0013/flat/libc.a(lib_a-vfprintf.o) (.rem)
/home/fsw/rep/tasa/lib/bcc-2.2.3-gcc/bin/../lib/gcc/sparc-gaisler-elf/10.2.0/mfix-b2bst/mfix-tn0013/flat/libgcc.a(_udivdi3.o)
                              /home/fsw/rep/tasa/lib/bcc-2.2.3-gcc/bin/../lib/gcc/sparc-gaisler-elf/10.2.0/../../../../sparc-gaisler-elf/lib/mfix-b2bst/mfix-tn0013/flat/libc.a(lib_a-vfprintf.o) (__udivdi3)
/home/fsw/rep/tasa/lib/bcc-2.2.3-gcc/bin/../lib/gcc/sparc-gaisler-elf/10.2.0/mfix-b2bst/mfix-tn0013/flat/libgcc.a(_umoddi3.o)
                              /home/fsw/rep/tasa/lib/bcc-2.2.3-gcc/bin/../lib/gcc/sparc-gaisler-elf/10.2.0/../../../../sparc-gaisler-elf/lib/mfix-b2bst/mfix-tn0013/flat/libc.a(lib_a-vfprintf.o) (__umoddi3)
/home/fsw/rep/tasa/lib/bcc-2.2.3-gcc/bin/../lib/gcc/sparc-gaisler-elf/10.2.0/mfix-b2bst/mfix-tn0013/flat/libgcc.a(_clz.o)
                              /home/fsw/rep/tasa/lib/bcc-2.2.3-gcc/bin/../lib/gcc/sparc-gaisler-elf/10.2.0/mfix-b2bst/mfix-tn0013/flat/libgcc.a(_udivdi3.o) (__clz_tab)

Memory Configuration

Name             Origin             Length             Attributes
rom              0x0000000000000000 0x0000000020000000
ram              0x0000000040000000 0x0000000040000000
*default*        0x0000000000000000 0xffffffffffffffff

Linker script and memory map

LOAD /home/fsw/rep/tasa/lib/bcc-2.2.3-gcc/bin/../sparc-gaisler-elf/bsp/leon3/mfix-b2bst/mfix-tn0013/flat/trap_table_mvt.S.o
LOAD /home/fsw/rep/tasa/lib/bcc-2.2.3-gcc/bin/../sparc-gaisler-elf/bsp/leon3/mfix-b2bst/mfix-tn0013/flat/crt0.S.o
LOAD /home/fsw/rep/tasa/lib/bcc-2.2.3-gcc/bin/../lib/gcc/sparc-gaisler-elf/10.2.0/mfix-b2bst/mfix-tn0013/flat/crti.o
LOAD /home/fsw/rep/tasa/lib/bcc-2.2.3-gcc/bin/../lib/gcc/sparc-gaisler-elf/10.2.0/mfix-b2bst/mfix-tn0013/flat/crtbegin.o
LOAD /tmp/ccvGHBjf.o
                0x0000000000000000                PROVIDE (__bcc_cfg_skip_clear_bss = 0x0)

.text           0x0000000040000000    0x109e0
 CREATE_OBJECT_SYMBOLS
                0x0000000040000000                __text_start = .
                0x0000000040000000                . = ALIGN (0x1000)
 *(.text.traptable)
 .text.traptable
                0x0000000040000000     0x1000 /home/fsw/rep/tasa/lib/bcc-2.2.3-gcc/bin/../sparc-gaisler-elf/bsp/leon3/mfix-b2bst/mfix-tn0013/flat/trap_table_mvt.S.o
                0x0000000040000000                __bcc_trap_table
                0x0000000040000000                __bcc_entry_point
 *(.text .text.*)
 .text          0x0000000040001000        0x0 /home/fsw/rep/tasa/lib/bcc-2.2.3-gcc/bin/../sparc-gaisler-elf/bsp/leon3/mfix-b2bst/mfix-tn0013/flat/trap_table_mvt.S.o
 .text          0x0000000040001000       0xc8 /home/fsw/rep/tasa/lib/bcc-2.2.3-gcc/bin/../sparc-gaisler-elf/bsp/leon3/mfix-b2bst/mfix-tn0013/flat/crt0.S.o
                0x0000000040001000                __bcc_crt0
 .text          0x00000000400010c8        0x0 /home/fsw/rep/tasa/lib/bcc-2.2.3-gcc/bin/../lib/gcc/sparc-gaisler-elf/10.2.0/mfix-b2bst/mfix-tn0013/flat/crti.o
 .text          0x00000000400010c8      0x204 /home/fsw/rep/tasa/lib/bcc-2.2.3-gcc/bin/../lib/gcc/sparc-gaisler-elf/10.2.0/mfix-b2bst/mfix-tn0013/flat/crtbegin.o
 .text          0x00000000400012cc        0x0 /tmp/ccvGHBjf.o
 .text.startup  0x00000000400012cc      0x170 /tmp/ccvGHBjf.o
                0x00000000400012cc                main
 .text          0x000000004000143c       0x90 /home/fsw/rep/tasa/lib/bcc-2.2.3-gcc/bin/../sparc-gaisler-elf/bsp/leon3/mfix-b2bst/mfix-tn0013/flat/libbcc.a(reset_trap_mvt.S.o)
                0x000000004000143c                __bcc_trap_reset_mvt
 .text          0x00000000400014cc      0x15c /home/fsw/rep/tasa/lib/bcc-2.2.3-gcc/bin/../sparc-gaisler-elf/bsp/leon3/mfix-b2bst/mfix-tn0013/flat/libbcc.a(interrupt_trap_flat.S.o)
                0x00000000400014cc                __bcc_trap_interrupt_flat_svt
                0x00000000400014d0                __bcc_trap_interrupt_flat
 .text          0x0000000040001628       0x2c /home/fsw/rep/tasa/lib/bcc-2.2.3-gcc/bin/../sparc-gaisler-elf/bsp/leon3/mfix-b2bst/mfix-tn0013/flat/libbcc.a(sw_trap_set_pil.S.o)
                0x0000000040001628                __bcc_trap_sw_set_pil
 .text          0x0000000040001654        0x0 /home/fsw/rep/tasa/lib/bcc-2.2.3-gcc/bin/../sparc-gaisler-elf/bsp/leon3/mfix-b2bst/mfix-tn0013/flat/libbcc.a(isr.c.o)
 .text          0x0000000040001654        0x0 /home/fsw/rep/tasa/lib/bcc-2.2.3-gcc/bin/../sparc-gaisler-elf/bsp/leon3/mfix-b2bst/mfix-tn0013/flat/libbcc.a(int_nest.c.o)
 .text          0x0000000040001654        0x8 /home/fsw/rep/tasa/lib/bcc-2.2.3-gcc/bin/../sparc-gaisler-elf/bsp/leon3/mfix-b2bst/mfix-tn0013/flat/libbcc.a(init.S.o)
                0x0000000040001654                __bcc_init50
                0x0000000040001654                __bcc_init40
                0x0000000040001654                __bcc_init70
                0x0000000040001654                __bcc_init60
 .text          0x000000004000165c       0x98 /home/fsw/rep/tasa/lib/bcc-2.2.3-gcc/bin/../sparc-gaisler-elf/bsp/leon3/mfix-b2bst/mfix-tn0013/flat/libbcc.a(leon_info.S.o)
                0x000000004000165c                __bcc_get_leon_info
                0x00000000400016e4                bcc_get_cpuid
 .text          0x00000000400016f4       0x2c /home/fsw/rep/tasa/lib/bcc-2.2.3-gcc/bin/../sparc-gaisler-elf/bsp/leon3/mfix-b2bst/mfix-tn0013/flat/libbcc.a(dwzero.S.o)
                0x00000000400016f4                bcc_dwzero
 .text          0x0000000040001720       0x78 /home/fsw/rep/tasa/lib/bcc-2.2.3-gcc/bin/../sparc-gaisler-elf/bsp/leon3/mfix-b2bst/mfix-tn0013/flat/libbcc.a(copy_data.c.o)
                0x0000000040001720                __bcc_copy_data
 .text          0x0000000040001798        0x0 /home/fsw/rep/tasa/lib/bcc-2.2.3-gcc/bin/../sparc-gaisler-elf/bsp/leon3/mfix-b2bst/mfix-tn0013/flat/libbcc.a(argv.c.o)
 .text          0x0000000040001798       0x48 /home/fsw/rep/tasa/lib/bcc-2.2.3-gcc/bin/../sparc-gaisler-elf/bsp/leon3/mfix-b2bst/mfix-tn0013/flat/libbcc.a(int_irqmp_get_source.c.o)
                0x0000000040001798                __bcc_int_get_source
 .text          0x00000000400017e0       0xa4 /home/fsw/rep/tasa/lib/bcc-2.2.3-gcc/bin/../sparc-gaisler-elf/bsp/leon3/mfix-b2bst/mfix-tn0013/flat/libbcc.a(int_irqmp_mp.c.o)
                0x00000000400017e0                bcc_send_interrupt
                0x0000000040001820                bcc_get_cpu_count
                0x000000004000184c                bcc_start_processor
 .text          0x0000000040001884      0x1e0 /home/fsw/rep/tasa/lib/bcc-2.2.3-gcc/bin/../sparc-gaisler-elf/bsp/leon3/mfix-b2bst/mfix-tn0013/flat/libbcc.a(int_irqmp_init.c.o)
                0x0000000040001884                __bcc_int_init
 .text          0x0000000040001a64       0x68 /home/fsw/rep/tasa/lib/bcc-2.2.3-gcc/bin/../sparc-gaisler-elf/bsp/leon3/mfix-b2bst/mfix-tn0013/flat/libbcc.a(con_apbuart_init.c.o)
                0x0000000040001a64                __bcc_con_init
 .text          0x0000000040001acc       0x98 /home/fsw/rep/tasa/lib/bcc-2.2.3-gcc/bin/../sparc-gaisler-elf/bsp/leon3/mfix-b2bst/mfix-tn0013/flat/libbcc.a(timer_gptimer_init.c.o)
                0x0000000040001acc                __bcc_timer_init
 .text          0x0000000040001b64      0x80c /home/fsw/rep/tasa/lib/bcc-2.2.3-gcc/bin/../sparc-gaisler-elf/bsp/leon3/mfix-b2bst/mfix-tn0013/flat/libbcc.a(ambapp.c.o)
                0x0000000040001b64                ambapp_get_ahbinfo
                0x0000000040002294                ambapp_get_apbinfo
                0x000000004000233c                ambapp_visit
 .text          0x0000000040002370       0xa8 /home/fsw/rep/tasa/lib/bcc-2.2.3-gcc/bin/../sparc-gaisler-elf/bsp/leon3/mfix-b2bst/mfix-tn0013/flat/libbcc.a(ambapp_findfirst_fn.c.o)
                0x0000000040002370                ambapp_findfirst_fn
 .text          0x0000000040002418        0x0 /home/fsw/rep/tasa/lib/bcc-2.2.3-gcc/bin/../sparc-gaisler-elf/bsp/leon3/mfix-b2bst/mfix-tn0013/flat/libbcc.a(int_irqmp_handle.c.o)
 .text          0x0000000040002418        0x0 /home/fsw/rep/tasa/lib/bcc-2.2.3-gcc/bin/../sparc-gaisler-elf/bsp/leon3/mfix-b2bst/mfix-tn0013/flat/libbcc.a(con_handle.c.o)
 .text          0x0000000040002418        0x0 /home/fsw/rep/tasa/lib/bcc-2.2.3-gcc/bin/../sparc-gaisler-elf/bsp/leon3/mfix-b2bst/mfix-tn0013/flat/libbcc.a(timer_handle.c.o)
 .text          0x0000000040002418       0x1c /home/fsw/rep/tasa/lib/bcc-2.2.3-gcc/bin/../lib/gcc/sparc-gaisler-elf/10.2.0/../../../../sparc-gaisler-elf/lib/mfix-b2bst/mfix-tn0013/flat/libc.a(lib_a-atexit.o)
                0x0000000040002418                atexit
 .text          0x0000000040002434       0x48 /home/fsw/rep/tasa/lib/bcc-2.2.3-gcc/bin/../lib/gcc/sparc-gaisler-elf/10.2.0/../../../../sparc-gaisler-elf/lib/mfix-b2bst/mfix-tn0013/flat/libc.a(lib_a-exit.o)
                0x0000000040002434                exit
 .text          0x000000004000247c        0x0 /home/fsw/rep/tasa/lib/bcc-2.2.3-gcc/bin/../lib/gcc/sparc-gaisler-elf/10.2.0/../../../../sparc-gaisler-elf/lib/mfix-b2bst/mfix-tn0013/flat/libc.a(lib_a-impure.o)
 .text          0x000000004000247c      0x1d0 /home/fsw/rep/tasa/lib/bcc-2.2.3-gcc/bin/../lib/gcc/sparc-gaisler-elf/10.2.0/../../../../sparc-gaisler-elf/lib/mfix-b2bst/mfix-tn0013/flat/libc.a(lib_a-memcpy.o)
                0x000000004000247c                memcpy
 .text          0x000000004000264c      0x148 /home/fsw/rep/tasa/lib/bcc-2.2.3-gcc/bin/../lib/gcc/sparc-gaisler-elf/10.2.0/../../../../sparc-gaisler-elf/lib/mfix-b2bst/mfix-tn0013/flat/libc.a(lib_a-printf.o)
                0x000000004000264c                _printf_r
                0x00000000400026f0                printf
 .text          0x0000000040002794      0x100 /home/fsw/rep/tasa/lib/bcc-2.2.3-gcc/bin/../lib/gcc/sparc-gaisler-elf/10.2.0/../../../../sparc-gaisler-elf/lib/mfix-b2bst/mfix-tn0013/flat/libc.a(lib_a-putchar.o)
                0x0000000040002794                _putchar_r
                0x0000000040002814                putchar
 .text          0x0000000040002894      0x2a8 /home/fsw/rep/tasa/lib/bcc-2.2.3-gcc/bin/../lib/gcc/sparc-gaisler-elf/10.2.0/../../../../sparc-gaisler-elf/lib/mfix-b2bst/mfix-tn0013/flat/libc.a(lib_a-puts.o)
                0x0000000040002894                _puts_r
                0x00000000400029e8                puts
 .text          0x0000000040002b3c       0xd0 /home/fsw/rep/tasa/lib/bcc-2.2.3-gcc/bin/../lib/gcc/sparc-gaisler-elf/10.2.0/../../../../sparc-gaisler-elf/lib/mfix-b2bst/mfix-tn0013/flat/libc.a(lib_a-strlen.o)
                0x0000000040002b3c                strlen
 .text          0x0000000040002c0c     0x2e04 /home/fsw/rep/tasa/lib/bcc-2.2.3-gcc/bin/../lib/gcc/sparc-gaisler-elf/10.2.0/../../../../sparc-gaisler-elf/lib/mfix-b2bst/mfix-tn0013/flat/libc.a(lib_a-vfprintf.o)
                0x0000000040002d78                _vfprintf_r
                0x0000000040005924                vfprintf
 .text          0x0000000040005a10      0x204 /home/fsw/rep/tasa/lib/bcc-2.2.3-gcc/bin/../lib/gcc/sparc-gaisler-elf/10.2.0/../../../../sparc-gaisler-elf/lib/mfix-b2bst/mfix-tn0013/flat/libc.a(lib_a-wsetup.o)
                0x0000000040005a10                __swsetup_r
 .text          0x0000000040005c14      0x1a4 /home/fsw/rep/tasa/lib/bcc-2.2.3-gcc/bin/../lib/gcc/sparc-gaisler-elf/10.2.0/../../../../sparc-gaisler-elf/lib/mfix-b2bst/mfix-tn0013/flat/libc.a(lib_a-__atexit.o)
                0x0000000040005c14                __register_exitproc
 .text          0x0000000040005db8      0x320 /home/fsw/rep/tasa/lib/bcc-2.2.3-gcc/bin/../lib/gcc/sparc-gaisler-elf/10.2.0/../../../../sparc-gaisler-elf/lib/mfix-b2bst/mfix-tn0013/flat/libc.a(lib_a-__call_atexit.o)
                0x0000000040005db8                __call_exitprocs
 .text          0x00000000400060d8     0x1658 /home/fsw/rep/tasa/lib/bcc-2.2.3-gcc/bin/../lib/gcc/sparc-gaisler-elf/10.2.0/../../../../sparc-gaisler-elf/lib/mfix-b2bst/mfix-tn0013/flat/libc.a(lib_a-dtoa.o)
                0x000000004000633c                _dtoa_r
 .text          0x0000000040007730      0x4a4 /home/fsw/rep/tasa/lib/bcc-2.2.3-gcc/bin/../lib/gcc/sparc-gaisler-elf/10.2.0/../../../../sparc-gaisler-elf/lib/mfix-b2bst/mfix-tn0013/flat/libc.a(lib_a-fflush.o)
                0x0000000040007730                __sflush_r
                0x00000000400079d0                _fflush_r
                0x0000000040007aac                fflush
 .text          0x0000000040007bd4      0x3d8 /home/fsw/rep/tasa/lib/bcc-2.2.3-gcc/bin/../lib/gcc/sparc-gaisler-elf/10.2.0/../../../../sparc-gaisler-elf/lib/mfix-b2bst/mfix-tn0013/flat/libc.a(lib_a-findfp.o)
                0x0000000040007bd4                _cleanup_r
                0x0000000040007be8                __sfmoreglue
                0x0000000040007c60                __sfp
                0x0000000040007f6c                _cleanup
                0x0000000040007f88                __sinit
 .text          0x0000000040007fac      0x4a8 /home/fsw/rep/tasa/lib/bcc-2.2.3-gcc/bin/../lib/gcc/sparc-gaisler-elf/10.2.0/../../../../sparc-gaisler-elf/lib/mfix-b2bst/mfix-tn0013/flat/libc.a(lib_a-freer.o)
                0x0000000040007fac                _malloc_trim_r
                0x00000000400080d4                _free_r
 .text          0x0000000040008454      0x57c /home/fsw/rep/tasa/lib/bcc-2.2.3-gcc/bin/../lib/gcc/sparc-gaisler-elf/10.2.0/../../../../sparc-gaisler-elf/lib/mfix-b2bst/mfix-tn0013/flat/libc.a(lib_a-fvwrite.o)
                0x0000000040008454                __sfvwrite_r
 .text          0x00000000400089d0      0x150 /home/fsw/rep/tasa/lib/bcc-2.2.3-gcc/bin/../lib/gcc/sparc-gaisler-elf/10.2.0/../../../../sparc-gaisler-elf/lib/mfix-b2bst/mfix-tn0013/flat/libc.a(lib_a-fwalk.o)
                0x00000000400089d0                _fwalk
                0x0000000040008a74                _fwalk_reent
 .text          0x0000000040008b20       0x60 /home/fsw/rep/tasa/lib/bcc-2.2.3-gcc/bin/../lib/gcc/sparc-gaisler-elf/10.2.0/../../../../sparc-gaisler-elf/lib/mfix-b2bst/mfix-tn0013/flat/libc.a(lib_a-localeconv.o)
                0x0000000040008b20                __localeconv_l
                0x0000000040008b28                _localeconv_r
                0x0000000040008b54                localeconv
 .text          0x0000000040008b80      0x29c /home/fsw/rep/tasa/lib/bcc-2.2.3-gcc/bin/../lib/gcc/sparc-gaisler-elf/10.2.0/../../../../sparc-gaisler-elf/lib/mfix-b2bst/mfix-tn0013/flat/libc.a(lib_a-makebuf.o)
                0x0000000040008b80                __smakebuf_r
                0x0000000040008d3c                __swhatbuf_r
 .text          0x0000000040008e1c       0x30 /home/fsw/rep/tasa/lib/bcc-2.2.3-gcc/bin/../lib/gcc/sparc-gaisler-elf/10.2.0/../../../../sparc-gaisler-elf/lib/mfix-b2bst/mfix-tn0013/flat/libc.a(lib_a-malloc.o)
                0x0000000040008e1c                malloc
                0x0000000040008e34                free
 .text          0x0000000040008e4c      0x87c /home/fsw/rep/tasa/lib/bcc-2.2.3-gcc/bin/../lib/gcc/sparc-gaisler-elf/10.2.0/../../../../sparc-gaisler-elf/lib/mfix-b2bst/mfix-tn0013/flat/libc.a(lib_a-mallocr.o)
                0x0000000040008e4c                _malloc_r
 .text          0x00000000400096c8      0x120 /home/fsw/rep/tasa/lib/bcc-2.2.3-gcc/bin/../lib/gcc/sparc-gaisler-elf/10.2.0/../../../../sparc-gaisler-elf/lib/mfix-b2bst/mfix-tn0013/flat/libc.a(lib_a-memchr.o)
                0x00000000400096c8                memchr
 .text          0x00000000400097e8      0x22c /home/fsw/rep/tasa/lib/bcc-2.2.3-gcc/bin/../lib/gcc/sparc-gaisler-elf/10.2.0/../../../../sparc-gaisler-elf/lib/mfix-b2bst/mfix-tn0013/flat/libc.a(lib_a-memmove.o)
                0x00000000400097e8                memmove
 .text          0x0000000040009a14      0x13c /home/fsw/rep/tasa/lib/bcc-2.2.3-gcc/bin/../lib/gcc/sparc-gaisler-elf/10.2.0/../../../../sparc-gaisler-elf/lib/mfix-b2bst/mfix-tn0013/flat/libc.a(lib_a-memset.o)
                0x0000000040009a14                memset
 .text          0x0000000040009b50       0x10 /home/fsw/rep/tasa/lib/bcc-2.2.3-gcc/bin/../lib/gcc/sparc-gaisler-elf/10.2.0/../../../../sparc-gaisler-elf/lib/mfix-b2bst/mfix-tn0013/flat/libc.a(lib_a-mlock.o)
                0x0000000040009b50                __malloc_lock
                0x0000000040009b58                __malloc_unlock
 .text          0x0000000040009b60     0x1a90 /home/fsw/rep/tasa/lib/bcc-2.2.3-gcc/bin/../lib/gcc/sparc-gaisler-elf/10.2.0/../../../../sparc-gaisler-elf/lib/mfix-b2bst/mfix-tn0013/flat/libc.a(lib_a-mprec.o)
                0x0000000040009b60                _Balloc
                0x0000000040009c5c                _Bfree
                0x0000000040009cdc                __multadd
                0x0000000040009e58                __s2b
                0x0000000040009f80                __hi0bits
                0x000000004000a014                __lo0bits
                0x000000004000a0ec                __i2b
                0x000000004000a214                __multiply
                0x000000004000a4d8                __pow5mult
                0x000000004000a6a4                __lshift
                0x000000004000a8d0                __mcmp
                0x000000004000a958                __mdiff
                0x000000004000abbc                __ulp
                0x000000004000ac4c                __b2d
                0x000000004000ae04                __d2b
                0x000000004000b238                __ratio
                0x000000004000b498                _mprec_log10
                0x000000004000b4d8                __copybits
                0x000000004000b56c                __any_on
 .text          0x000000004000b5f0      0x24c /home/fsw/rep/tasa/lib/bcc-2.2.3-gcc/bin/../lib/gcc/sparc-gaisler-elf/10.2.0/../../../../sparc-gaisler-elf/lib/mfix-b2bst/mfix-tn0013/flat/libc.a(lib_a-putc.o)
                0x000000004000b5f0                _putc_r
                0x000000004000b708                putc
 .text          0x000000004000b83c      0x5c8 /home/fsw/rep/tasa/lib/bcc-2.2.3-gcc/bin/../lib/gcc/sparc-gaisler-elf/10.2.0/../../../../sparc-gaisler-elf/lib/mfix-b2bst/mfix-tn0013/flat/libc.a(lib_a-reallocr.o)
                0x000000004000b83c                _realloc_r
 .text          0x000000004000be04       0xc0 /home/fsw/rep/tasa/lib/bcc-2.2.3-gcc/bin/../lib/gcc/sparc-gaisler-elf/10.2.0/../../../../sparc-gaisler-elf/lib/mfix-b2bst/mfix-tn0013/flat/libc.a(lib_a-s_frexp.o)
                0x000000004000be04                frexp
 .text          0x000000004000bec4       0x6c /home/fsw/rep/tasa/lib/bcc-2.2.3-gcc/bin/../lib/gcc/sparc-gaisler-elf/10.2.0/../../../../sparc-gaisler-elf/lib/mfix-b2bst/mfix-tn0013/flat/libc.a(lib_a-sbrkr.o)
                0x000000004000bec4                _sbrk_r
 .text          0x000000004000bf30      0x1ac /home/fsw/rep/tasa/lib/bcc-2.2.3-gcc/bin/../lib/gcc/sparc-gaisler-elf/10.2.0/../../../../sparc-gaisler-elf/lib/mfix-b2bst/mfix-tn0013/flat/libc.a(lib_a-stdio.o)
                0x000000004000bf30                __sread
                0x000000004000bf98                __seofread
                0x000000004000bfa0                __swrite
                0x000000004000c060                __sseek
                0x000000004000c0cc                __sclose
 .text          0x000000004000c0dc      0x1d0 /home/fsw/rep/tasa/lib/bcc-2.2.3-gcc/bin/../lib/gcc/sparc-gaisler-elf/10.2.0/../../../../sparc-gaisler-elf/lib/mfix-b2bst/mfix-tn0013/flat/libc.a(lib_a-strncpy.o)
                0x000000004000c0dc                strncpy
 .text          0x000000004000c2ac     0x1ff0 /home/fsw/rep/tasa/lib/bcc-2.2.3-gcc/bin/../lib/gcc/sparc-gaisler-elf/10.2.0/../../../../sparc-gaisler-elf/lib/mfix-b2bst/mfix-tn0013/flat/libc.a(lib_a-vfiprintf.o)
                0x000000004000c418                __sprint_r
                0x000000004000c538                _vfiprintf_r
                0x000000004000e1b0                vfiprintf
 .text          0x000000004000e29c      0x3c4 /home/fsw/rep/tasa/lib/bcc-2.2.3-gcc/bin/../lib/gcc/sparc-gaisler-elf/10.2.0/../../../../sparc-gaisler-elf/lib/mfix-b2bst/mfix-tn0013/flat/libc.a(lib_a-wbuf.o)
                0x000000004000e29c                __swbuf_r
                0x000000004000e47c                __swbuf
 .text          0x000000004000e660       0x74 /home/fsw/rep/tasa/lib/bcc-2.2.3-gcc/bin/../lib/gcc/sparc-gaisler-elf/10.2.0/../../../../sparc-gaisler-elf/lib/mfix-b2bst/mfix-tn0013/flat/libc.a(lib_a-writer.o)
                0x000000004000e660                _write_r
 .text          0x000000004000e6d4       0xd4 /home/fsw/rep/tasa/lib/bcc-2.2.3-gcc/bin/../lib/gcc/sparc-gaisler-elf/10.2.0/../../../../sparc-gaisler-elf/lib/mfix-b2bst/mfix-tn0013/flat/libc.a(lib_a-callocr.o)
                0x000000004000e6d4                _calloc_r
 .text          0x000000004000e7a8       0x6c /home/fsw/rep/tasa/lib/bcc-2.2.3-gcc/bin/../lib/gcc/sparc-gaisler-elf/10.2.0/../../../../sparc-gaisler-elf/lib/mfix-b2bst/mfix-tn0013/flat/libc.a(lib_a-closer.o)
                0x000000004000e7a8                _close_r
 .text          0x000000004000e814      0x31c /home/fsw/rep/tasa/lib/bcc-2.2.3-gcc/bin/../lib/gcc/sparc-gaisler-elf/10.2.0/../../../../sparc-gaisler-elf/lib/mfix-b2bst/mfix-tn0013/flat/libc.a(lib_a-fclose.o)
                0x000000004000e814                _fclose_r
                0x000000004000e9a0                fclose
 .text          0x000000004000eb30      0x24c /home/fsw/rep/tasa/lib/bcc-2.2.3-gcc/bin/../lib/gcc/sparc-gaisler-elf/10.2.0/../../../../sparc-gaisler-elf/lib/mfix-b2bst/mfix-tn0013/flat/libc.a(lib_a-fputwc.o)
                0x000000004000eb30                __fputwc
                0x000000004000ec64                _fputwc_r
                0x000000004000ec94                fputwc
 .text          0x000000004000ed7c       0x70 /home/fsw/rep/tasa/lib/bcc-2.2.3-gcc/bin/../lib/gcc/sparc-gaisler-elf/10.2.0/../../../../sparc-gaisler-elf/lib/mfix-b2bst/mfix-tn0013/flat/libc.a(lib_a-fstatr.o)
                0x000000004000ed7c                _fstat_r
 .text          0x000000004000edec       0x6c /home/fsw/rep/tasa/lib/bcc-2.2.3-gcc/bin/../lib/gcc/sparc-gaisler-elf/10.2.0/../../../../sparc-gaisler-elf/lib/mfix-b2bst/mfix-tn0013/flat/libc.a(lib_a-isattyr.o)
                0x000000004000edec                _isatty_r
 .text          0x000000004000ee58      0x188 /home/fsw/rep/tasa/lib/bcc-2.2.3-gcc/bin/../lib/gcc/sparc-gaisler-elf/10.2.0/../../../../sparc-gaisler-elf/lib/mfix-b2bst/mfix-tn0013/flat/libc.a(lib_a-locale.o)
                0x000000004000ee58                _setlocale_r
                0x000000004000eeec                __locale_mb_cur_max
                0x000000004000ef18                __locale_ctype_ptr_l
                0x000000004000ef20                __locale_ctype_ptr
                0x000000004000ef4c                setlocale
 .text          0x000000004000efe0       0x74 /home/fsw/rep/tasa/lib/bcc-2.2.3-gcc/bin/../lib/gcc/sparc-gaisler-elf/10.2.0/../../../../sparc-gaisler-elf/lib/mfix-b2bst/mfix-tn0013/flat/libc.a(lib_a-lseekr.o)
                0x000000004000efe0                _lseek_r
 .text          0x000000004000f054       0xb4 /home/fsw/rep/tasa/lib/bcc-2.2.3-gcc/bin/../lib/gcc/sparc-gaisler-elf/10.2.0/../../../../sparc-gaisler-elf/lib/mfix-b2bst/mfix-tn0013/flat/libc.a(lib_a-mbtowc_r.o)
                0x000000004000f054                _mbtowc_r
                0x000000004000f0b4                __ascii_mbtowc
 .text          0x000000004000f108       0x74 /home/fsw/rep/tasa/lib/bcc-2.2.3-gcc/bin/../lib/gcc/sparc-gaisler-elf/10.2.0/../../../../sparc-gaisler-elf/lib/mfix-b2bst/mfix-tn0013/flat/libc.a(lib_a-readr.o)
                0x000000004000f108                _read_r
 .text          0x000000004000f17c      0x3d0 /home/fsw/rep/tasa/lib/bcc-2.2.3-gcc/bin/../lib/gcc/sparc-gaisler-elf/10.2.0/../../../../sparc-gaisler-elf/lib/mfix-b2bst/mfix-tn0013/flat/libc.a(lib_a-reent.o)
                0x000000004000f17c                cleanup_glue
                0x000000004000f238                _reclaim_reent
 .text          0x000000004000f54c       0xc0 /home/fsw/rep/tasa/lib/bcc-2.2.3-gcc/bin/../lib/gcc/sparc-gaisler-elf/10.2.0/../../../../sparc-gaisler-elf/lib/mfix-b2bst/mfix-tn0013/flat/libc.a(lib_a-strcmp.o)
                0x000000004000f54c                strcmp
 .text          0x000000004000f60c      0x1a4 /home/fsw/rep/tasa/lib/bcc-2.2.3-gcc/bin/../lib/gcc/sparc-gaisler-elf/10.2.0/../../../../sparc-gaisler-elf/lib/mfix-b2bst/mfix-tn0013/flat/libc.a(lib_a-wcrtomb.o)
                0x000000004000f60c                _wcrtomb_r
                0x000000004000f6dc                wcrtomb
 .text          0x000000004000f7b0       0x98 /home/fsw/rep/tasa/lib/bcc-2.2.3-gcc/bin/../lib/gcc/sparc-gaisler-elf/10.2.0/../../../../sparc-gaisler-elf/lib/mfix-b2bst/mfix-tn0013/flat/libc.a(lib_a-wctomb_r.o)
                0x000000004000f7b0                _wctomb_r
                0x000000004000f810                __ascii_wctomb
 .text          0x000000004000f848        0x0 /home/fsw/rep/tasa/lib/bcc-2.2.3-gcc/bin/../lib/gcc/sparc-gaisler-elf/10.2.0/../../../../sparc-gaisler-elf/lib/mfix-b2bst/mfix-tn0013/flat/libc.a(lib_a-ctype_.o)
 .text          0x000000004000f848       0x10 /home/fsw/rep/tasa/lib/bcc-2.2.3-gcc/bin/../sparc-gaisler-elf/bsp/leon3/mfix-b2bst/mfix-tn0013/flat/libbcc.a(_exit.S.o)
                0x000000004000f848                _exit
 .text          0x000000004000f858       0x80 /home/fsw/rep/tasa/lib/bcc-2.2.3-gcc/bin/../sparc-gaisler-elf/bsp/leon3/mfix-b2bst/mfix-tn0013/flat/libbcc.a(read.c.o)
                0x000000004000f858                read
 .text          0x000000004000f8d8       0xd0 /home/fsw/rep/tasa/lib/bcc-2.2.3-gcc/bin/../sparc-gaisler-elf/bsp/leon3/mfix-b2bst/mfix-tn0013/flat/libbcc.a(sbrk.c.o)
                0x000000004000f8d8                sbrk
 .text          0x000000004000f9a8        0x0 /home/fsw/rep/tasa/lib/bcc-2.2.3-gcc/bin/../sparc-gaisler-elf/bsp/leon3/mfix-b2bst/mfix-tn0013/flat/libbcc.a(heap.c.o)
 .text          0x000000004000f9a8       0xa4 /home/fsw/rep/tasa/lib/bcc-2.2.3-gcc/bin/../sparc-gaisler-elf/bsp/leon3/mfix-b2bst/mfix-tn0013/flat/libbcc.a(write.c.o)
                0x000000004000f9a8                write
 .text          0x000000004000fa4c       0x20 /home/fsw/rep/tasa/lib/bcc-2.2.3-gcc/bin/../sparc-gaisler-elf/bsp/leon3/mfix-b2bst/mfix-tn0013/flat/libbcc.a(stubs.S.o)
                0x000000004000fa4c                execve
                0x000000004000fa4c                lseek
                0x000000004000fa4c                fstat
                0x000000004000fa4c                kill
                0x000000004000fa4c                wait
                0x000000004000fa4c                unlink
                0x000000004000fa4c                fork
                0x000000004000fa4c                stat
                0x000000004000fa4c                link
                0x000000004000fa4c                open
                0x000000004000fa4c                close
                0x000000004000fa64                getpid
                0x000000004000fa64                isatty
 .text          0x000000004000fa6c       0xc4 /home/fsw/rep/tasa/lib/bcc-2.2.3-gcc/bin/../sparc-gaisler-elf/bsp/leon3/mfix-b2bst/mfix-tn0013/flat/libbcc.a(con_apbuart.c.o)
                0x000000004000fa6c                __bcc_con_outbyte
                0x000000004000fafc                __bcc_con_inbyte
 .text          0x000000004000fb30       0xe8 /home/fsw/rep/tasa/lib/bcc-2.2.3-gcc/bin/../lib/gcc/sparc-gaisler-elf/10.2.0/mfix-b2bst/mfix-tn0013/flat/libgcc.a(_mulsi3.o)
                0x000000004000fb30                .umul
 .text          0x000000004000fc18      0x2b0 /home/fsw/rep/tasa/lib/bcc-2.2.3-gcc/bin/../lib/gcc/sparc-gaisler-elf/10.2.0/mfix-b2bst/mfix-tn0013/flat/libgcc.a(_divsi3.o)
                0x000000004000fc18                .udiv
                0x000000004000fc20                .div
 .text          0x000000004000fec8      0x2b0 /home/fsw/rep/tasa/lib/bcc-2.2.3-gcc/bin/../lib/gcc/sparc-gaisler-elf/10.2.0/mfix-b2bst/mfix-tn0013/flat/libgcc.a(_modsi3.o)
                0x000000004000fec8                .urem
                0x000000004000fed0                .rem
 .text          0x0000000040010178      0x380 /home/fsw/rep/tasa/lib/bcc-2.2.3-gcc/bin/../lib/gcc/sparc-gaisler-elf/10.2.0/mfix-b2bst/mfix-tn0013/flat/libgcc.a(_udivdi3.o)
                0x0000000040010178                __udivdi3
 .text          0x00000000400104f8      0x378 /home/fsw/rep/tasa/lib/bcc-2.2.3-gcc/bin/../lib/gcc/sparc-gaisler-elf/10.2.0/mfix-b2bst/mfix-tn0013/flat/libgcc.a(_umoddi3.o)
                0x00000000400104f8                __umoddi3
 .text          0x0000000040010870        0x0 /home/fsw/rep/tasa/lib/bcc-2.2.3-gcc/bin/../lib/gcc/sparc-gaisler-elf/10.2.0/mfix-b2bst/mfix-tn0013/flat/libgcc.a(_clz.o)
 .text          0x0000000040010870       0x70 /home/fsw/rep/tasa/lib/bcc-2.2.3-gcc/bin/../lib/gcc/sparc-gaisler-elf/10.2.0/mfix-b2bst/mfix-tn0013/flat/crtend.o
 .text          0x00000000400108e0        0x0 /home/fsw/rep/tasa/lib/bcc-2.2.3-gcc/bin/../lib/gcc/sparc-gaisler-elf/10.2.0/mfix-b2bst/mfix-tn0013/flat/crtn.o
                0x00000000400108e0                . = ALIGN (0x10)
 *(.eh_frame)
 .eh_frame      0x00000000400108e0        0x0 /home/fsw/rep/tasa/lib/bcc-2.2.3-gcc/bin/../lib/gcc/sparc-gaisler-elf/10.2.0/mfix-b2bst/mfix-tn0013/flat/crtbegin.o
 .eh_frame      0x00000000400108e0       0x38 /home/fsw/rep/tasa/lib/bcc-2.2.3-gcc/bin/../lib/gcc/sparc-gaisler-elf/10.2.0/mfix-b2bst/mfix-tn0013/flat/libgcc.a(_udivdi3.o)
 .eh_frame      0x0000000040010918       0x38 /home/fsw/rep/tasa/lib/bcc-2.2.3-gcc/bin/../lib/gcc/sparc-gaisler-elf/10.2.0/mfix-b2bst/mfix-tn0013/flat/libgcc.a(_umoddi3.o)
 .eh_frame      0x0000000040010950        0x4 /home/fsw/rep/tasa/lib/bcc-2.2.3-gcc/bin/../lib/gcc/sparc-gaisler-elf/10.2.0/mfix-b2bst/mfix-tn0013/flat/crtend.o
                0x0000000040010960                . = ALIGN (0x10)
 *fill*         0x0000000040010954        0xc 
 *(.gnu.linkonce.t*)
                0x0000000040010960                ___CTOR_LIST__ = .
                0x0000000040010960        0x4 LONG 0x2 (((___CTOR_END__ - ___CTOR_LIST__) / 0x4) - 0x2)
 *(SORT_BY_NAME(.ctors.*))
 *(.ctors)
 .ctors         0x0000000040010964        0x4 /home/fsw/rep/tasa/lib/bcc-2.2.3-gcc/bin/../lib/gcc/sparc-gaisler-elf/10.2.0/mfix-b2bst/mfix-tn0013/flat/crtbegin.o
 .ctors         0x0000000040010968        0x4 /home/fsw/rep/tasa/lib/bcc-2.2.3-gcc/bin/../lib/gcc/sparc-gaisler-elf/10.2.0/mfix-b2bst/mfix-tn0013/flat/crtend.o
                0x000000004001096c        0x4 LONG 0x0
                0x0000000040010970                ___CTOR_END__ = .
                0x0000000040010970                ___DTOR_LIST__ = .
                0x0000000040010970        0x4 LONG 0x2 (((___DTOR_END__ - ___DTOR_LIST__) / 0x4) - 0x2)
 *(SORT_BY_NAME(.dtors.*))
 *(.dtors)
 .dtors         0x0000000040010974        0x4 /home/fsw/rep/tasa/lib/bcc-2.2.3-gcc/bin/../lib/gcc/sparc-gaisler-elf/10.2.0/mfix-b2bst/mfix-tn0013/flat/crtbegin.o
 .dtors         0x0000000040010978        0x4 /home/fsw/rep/tasa/lib/bcc-2.2.3-gcc/bin/../lib/gcc/sparc-gaisler-elf/10.2.0/mfix-b2bst/mfix-tn0013/flat/crtend.o
                0x0000000040010978                __DTOR_END__
                0x000000004001097c        0x4 LONG 0x0
                0x0000000040010980                ___DTOR_END__ = .
 *(.gnu.linkonce*)
 *(.init)
 .init          0x0000000040010980        0xc /home/fsw/rep/tasa/lib/bcc-2.2.3-gcc/bin/../lib/gcc/sparc-gaisler-elf/10.2.0/mfix-b2bst/mfix-tn0013/flat/crti.o
                0x0000000040010980                _init
 .init          0x000000004001098c        0x8 /home/fsw/rep/tasa/lib/bcc-2.2.3-gcc/bin/../lib/gcc/sparc-gaisler-elf/10.2.0/mfix-b2bst/mfix-tn0013/flat/crtbegin.o
 .init          0x0000000040010994        0x8 /home/fsw/rep/tasa/lib/bcc-2.2.3-gcc/bin/../lib/gcc/sparc-gaisler-elf/10.2.0/mfix-b2bst/mfix-tn0013/flat/crtend.o
 .init          0x000000004001099c       0x14 /home/fsw/rep/tasa/lib/bcc-2.2.3-gcc/bin/../lib/gcc/sparc-gaisler-elf/10.2.0/mfix-b2bst/mfix-tn0013/flat/crtn.o
 *(.fini)
 .fini          0x00000000400109b0        0xc /home/fsw/rep/tasa/lib/bcc-2.2.3-gcc/bin/../lib/gcc/sparc-gaisler-elf/10.2.0/mfix-b2bst/mfix-tn0013/flat/crti.o
                0x00000000400109b0                _fini
 .fini          0x00000000400109bc        0x8 /home/fsw/rep/tasa/lib/bcc-2.2.3-gcc/bin/../lib/gcc/sparc-gaisler-elf/10.2.0/mfix-b2bst/mfix-tn0013/flat/crtbegin.o
 .fini          0x00000000400109c4       0x14 /home/fsw/rep/tasa/lib/bcc-2.2.3-gcc/bin/../lib/gcc/sparc-gaisler-elf/10.2.0/mfix-b2bst/mfix-tn0013/flat/crtn.o
 *(.lit)
 *(.shdata)
                0x00000000400109e0                . = ALIGN (0x10)
 *fill*         0x00000000400109d8        0x8 
                0x00000000400109e0                __text_end = .

.gcc_except_table
 *(.gcc_except_table.*)

.rodata         0x00000000400109e0      0x740
                0x00000000400109e0                __rodata_start = .
 *(.rodata*)
 .rodata.str1.8
                0x00000000400109e0       0xcf /tmp/ccvGHBjf.o
 *fill*         0x0000000040010aaf        0x1 
 .rodata        0x0000000040010ab0        0x5 /tmp/ccvGHBjf.o
 *fill*         0x0000000040010ab5        0x3 
 .rodata        0x0000000040010ab8        0x4 /home/fsw/rep/tasa/lib/bcc-2.2.3-gcc/bin/../lib/gcc/sparc-gaisler-elf/10.2.0/../../../../sparc-gaisler-elf/lib/mfix-b2bst/mfix-tn0013/flat/libc.a(lib_a-impure.o)
                0x0000000040010ab8                _global_impure_ptr
 *fill*         0x0000000040010abc        0x4 
 .rodata.str1.8
                0x0000000040010ac0        0x2 /home/fsw/rep/tasa/lib/bcc-2.2.3-gcc/bin/../lib/gcc/sparc-gaisler-elf/10.2.0/../../../../sparc-gaisler-elf/lib/mfix-b2bst/mfix-tn0013/flat/libc.a(lib_a-puts.o)
 *fill*         0x0000000040010ac2        0x6 
 .rodata.str1.8
                0x0000000040010ac8       0x5a /home/fsw/rep/tasa/lib/bcc-2.2.3-gcc/bin/../lib/gcc/sparc-gaisler-elf/10.2.0/../../../../sparc-gaisler-elf/lib/mfix-b2bst/mfix-tn0013/flat/libc.a(lib_a-vfprintf.o)
 *fill*         0x0000000040010b22        0x6 
 .rodata.cst8   0x0000000040010b28       0x28 /home/fsw/rep/tasa/lib/bcc-2.2.3-gcc/bin/../lib/gcc/sparc-gaisler-elf/10.2.0/../../../../sparc-gaisler-elf/lib/mfix-b2bst/mfix-tn0013/flat/libc.a(lib_a-vfprintf.o)
 .rodata        0x0000000040010b50       0x20 /home/fsw/rep/tasa/lib/bcc-2.2.3-gcc/bin/../lib/gcc/sparc-gaisler-elf/10.2.0/../../../../sparc-gaisler-elf/lib/mfix-b2bst/mfix-tn0013/flat/libc.a(lib_a-vfprintf.o)
 .rodata.str1.8
                0x0000000040010b70       0x14 /home/fsw/rep/tasa/lib/bcc-2.2.3-gcc/bin/../lib/gcc/sparc-gaisler-elf/10.2.0/../../../../sparc-gaisler-elf/lib/mfix-b2bst/mfix-tn0013/flat/libc.a(lib_a-dtoa.o)
                                         0x1a (size before relaxing)
 *fill*         0x0000000040010b84        0x4 
 .rodata.cst8   0x0000000040010b88       0x48 /home/fsw/rep/tasa/lib/bcc-2.2.3-gcc/bin/../lib/gcc/sparc-gaisler-elf/10.2.0/../../../../sparc-gaisler-elf/lib/mfix-b2bst/mfix-tn0013/flat/libc.a(lib_a-dtoa.o)
                                         0x50 (size before relaxing)
 .rodata        0x0000000040010bd0       0x60 /home/fsw/rep/tasa/lib/bcc-2.2.3-gcc/bin/../lib/gcc/sparc-gaisler-elf/10.2.0/../../../../sparc-gaisler-elf/lib/mfix-b2bst/mfix-tn0013/flat/libc.a(lib_a-findfp.o)
                0x0000000040010bd0                __sf_fake_stderr
                0x0000000040010bf0                __sf_fake_stdout
                0x0000000040010c10                __sf_fake_stdin
 .rodata.cst8   0x0000000040010c30       0x10 /home/fsw/rep/tasa/lib/bcc-2.2.3-gcc/bin/../lib/gcc/sparc-gaisler-elf/10.2.0/../../../../sparc-gaisler-elf/lib/mfix-b2bst/mfix-tn0013/flat/libc.a(lib_a-mprec.o)
 .rodata        0x0000000040010c30      0x128 /home/fsw/rep/tasa/lib/bcc-2.2.3-gcc/bin/../lib/gcc/sparc-gaisler-elf/10.2.0/../../../../sparc-gaisler-elf/lib/mfix-b2bst/mfix-tn0013/flat/libc.a(lib_a-mprec.o)
                0x0000000040010c40                __mprec_tinytens
                0x0000000040010c68                __mprec_bigtens
                0x0000000040010c90                __mprec_tens
 .rodata.cst8   0x0000000040010d58        0x8 /home/fsw/rep/tasa/lib/bcc-2.2.3-gcc/bin/../lib/gcc/sparc-gaisler-elf/10.2.0/../../../../sparc-gaisler-elf/lib/mfix-b2bst/mfix-tn0013/flat/libc.a(lib_a-s_frexp.o)
 .rodata.str1.8
                0x0000000040010d60       0x37 /home/fsw/rep/tasa/lib/bcc-2.2.3-gcc/bin/../lib/gcc/sparc-gaisler-elf/10.2.0/../../../../sparc-gaisler-elf/lib/mfix-b2bst/mfix-tn0013/flat/libc.a(lib_a-vfiprintf.o)
 .rodata        0x0000000040010d60       0x20 /home/fsw/rep/tasa/lib/bcc-2.2.3-gcc/bin/../lib/gcc/sparc-gaisler-elf/10.2.0/../../../../sparc-gaisler-elf/lib/mfix-b2bst/mfix-tn0013/flat/libc.a(lib_a-vfiprintf.o)
 .rodata.str1.8
                0x0000000040010d80       0x12 /home/fsw/rep/tasa/lib/bcc-2.2.3-gcc/bin/../lib/gcc/sparc-gaisler-elf/10.2.0/../../../../sparc-gaisler-elf/lib/mfix-b2bst/mfix-tn0013/flat/libc.a(lib_a-locale.o)
                                         0x1a (size before relaxing)
 *fill*         0x0000000040010d92        0x6 
 .rodata        0x0000000040010d98      0x288 /home/fsw/rep/tasa/lib/bcc-2.2.3-gcc/bin/../lib/gcc/sparc-gaisler-elf/10.2.0/../../../../sparc-gaisler-elf/lib/mfix-b2bst/mfix-tn0013/flat/libc.a(lib_a-ctype_.o)
                0x0000000040010d98                _ctype_
                0x0000000040010ea0                _ctype_b
 .rodata        0x0000000040011020      0x100 /home/fsw/rep/tasa/lib/bcc-2.2.3-gcc/bin/../lib/gcc/sparc-gaisler-elf/10.2.0/mfix-b2bst/mfix-tn0013/flat/libgcc.a(_clz.o)
                0x0000000040011020                __clz_tab
 *(.gnu.linkonce.r*)
                0x0000000040011120                . = ALIGN (0x10)
                0x0000000040011120                __rodata_end = .

.rela.dyn       0x0000000040011120        0x0
 .rela.iplt     0x0000000040011120        0x0 /home/fsw/rep/tasa/lib/bcc-2.2.3-gcc/bin/../sparc-gaisler-elf/bsp/leon3/mfix-b2bst/mfix-tn0013/flat/trap_table_mvt.S.o
 .rela.text.traptable
                0x0000000040011120        0x0 /home/fsw/rep/tasa/lib/bcc-2.2.3-gcc/bin/../sparc-gaisler-elf/bsp/leon3/mfix-b2bst/mfix-tn0013/flat/trap_table_mvt.S.o
 .rela.text     0x0000000040011120        0x0 /home/fsw/rep/tasa/lib/bcc-2.2.3-gcc/bin/../sparc-gaisler-elf/bsp/leon3/mfix-b2bst/mfix-tn0013/flat/trap_table_mvt.S.o

.ext.data       0x0000000040011120        0x0
                0x0000000040011120                . = ALIGN (0x8)
                0x0000000040011120                __extdata_start = .
 *(.data.ext)
                0x0000000040011120                . = ALIGN (0x8)
                0x0000000040011120                __extdata_end = .
                0x0000000040011120                __extdata_start_lma = LOADADDR (.ext.data)
                0x0000000000000000                __extdata_size = SIZEOF (.ext.data)

.data           0x0000000040011120      0x610
                0x0000000040011120                . = ALIGN (0x8)
                0x0000000040011120                __data_start = .
 *(.data .data.*)
 .data          0x0000000040011120        0x0 /home/fsw/rep/tasa/lib/bcc-2.2.3-gcc/bin/../sparc-gaisler-elf/bsp/leon3/mfix-b2bst/mfix-tn0013/flat/trap_table_mvt.S.o
 .data          0x0000000040011120        0x0 /home/fsw/rep/tasa/lib/bcc-2.2.3-gcc/bin/../sparc-gaisler-elf/bsp/leon3/mfix-b2bst/mfix-tn0013/flat/crt0.S.o
 .data          0x0000000040011120        0x0 /home/fsw/rep/tasa/lib/bcc-2.2.3-gcc/bin/../lib/gcc/sparc-gaisler-elf/10.2.0/mfix-b2bst/mfix-tn0013/flat/crti.o
 .data          0x0000000040011120        0x4 /home/fsw/rep/tasa/lib/bcc-2.2.3-gcc/bin/../lib/gcc/sparc-gaisler-elf/10.2.0/mfix-b2bst/mfix-tn0013/flat/crtbegin.o
                0x0000000040011120                __dso_handle
 .data          0x0000000040011124        0x0 /tmp/ccvGHBjf.o
 .data          0x0000000040011124        0x0 /home/fsw/rep/tasa/lib/bcc-2.2.3-gcc/bin/../sparc-gaisler-elf/bsp/leon3/mfix-b2bst/mfix-tn0013/flat/libbcc.a(reset_trap_mvt.S.o)
 .data          0x0000000040011124        0x0 /home/fsw/rep/tasa/lib/bcc-2.2.3-gcc/bin/../sparc-gaisler-elf/bsp/leon3/mfix-b2bst/mfix-tn0013/flat/libbcc.a(interrupt_trap_flat.S.o)
 .data          0x0000000040011124        0x0 /home/fsw/rep/tasa/lib/bcc-2.2.3-gcc/bin/../sparc-gaisler-elf/bsp/leon3/mfix-b2bst/mfix-tn0013/flat/libbcc.a(sw_trap_set_pil.S.o)
 .data          0x0000000040011124        0x0 /home/fsw/rep/tasa/lib/bcc-2.2.3-gcc/bin/../sparc-gaisler-elf/bsp/leon3/mfix-b2bst/mfix-tn0013/flat/libbcc.a(isr.c.o)
 *fill*         0x0000000040011124        0x4 
 .data          0x0000000040011128       0x10 /home/fsw/rep/tasa/lib/bcc-2.2.3-gcc/bin/../sparc-gaisler-elf/bsp/leon3/mfix-b2bst/mfix-tn0013/flat/libbcc.a(int_nest.c.o)
                0x0000000040011128                __bcc_int_nest
 .data          0x0000000040011138        0x0 /home/fsw/rep/tasa/lib/bcc-2.2.3-gcc/bin/../sparc-gaisler-elf/bsp/leon3/mfix-b2bst/mfix-tn0013/flat/libbcc.a(init.S.o)
 .data          0x0000000040011138       0x10 /home/fsw/rep/tasa/lib/bcc-2.2.3-gcc/bin/../sparc-gaisler-elf/bsp/leon3/mfix-b2bst/mfix-tn0013/flat/libbcc.a(leon_info.S.o)
                0x0000000040011138                __bcc_leon_version
                0x000000004001113c                __bcc_nwindows_min1
                0x0000000040011140                __bcc_nwindows
                0x0000000040011144                __bcc_cpuid
 .data          0x0000000040011148        0x0 /home/fsw/rep/tasa/lib/bcc-2.2.3-gcc/bin/../sparc-gaisler-elf/bsp/leon3/mfix-b2bst/mfix-tn0013/flat/libbcc.a(dwzero.S.o)
 .data          0x0000000040011148        0x0 /home/fsw/rep/tasa/lib/bcc-2.2.3-gcc/bin/../sparc-gaisler-elf/bsp/leon3/mfix-b2bst/mfix-tn0013/flat/libbcc.a(copy_data.c.o)
 .data          0x0000000040011148        0x4 /home/fsw/rep/tasa/lib/bcc-2.2.3-gcc/bin/../sparc-gaisler-elf/bsp/leon3/mfix-b2bst/mfix-tn0013/flat/libbcc.a(argv.c.o)
                0x0000000040011148                __bcc_argvp
 .data          0x000000004001114c        0x0 /home/fsw/rep/tasa/lib/bcc-2.2.3-gcc/bin/../sparc-gaisler-elf/bsp/leon3/mfix-b2bst/mfix-tn0013/flat/libbcc.a(int_irqmp_get_source.c.o)
 .data          0x000000004001114c        0x0 /home/fsw/rep/tasa/lib/bcc-2.2.3-gcc/bin/../sparc-gaisler-elf/bsp/leon3/mfix-b2bst/mfix-tn0013/flat/libbcc.a(int_irqmp_mp.c.o)
 .data          0x000000004001114c        0x0 /home/fsw/rep/tasa/lib/bcc-2.2.3-gcc/bin/../sparc-gaisler-elf/bsp/leon3/mfix-b2bst/mfix-tn0013/flat/libbcc.a(int_irqmp_init.c.o)
 .data          0x000000004001114c        0x0 /home/fsw/rep/tasa/lib/bcc-2.2.3-gcc/bin/../sparc-gaisler-elf/bsp/leon3/mfix-b2bst/mfix-tn0013/flat/libbcc.a(con_apbuart_init.c.o)
 .data          0x000000004001114c        0x0 /home/fsw/rep/tasa/lib/bcc-2.2.3-gcc/bin/../sparc-gaisler-elf/bsp/leon3/mfix-b2bst/mfix-tn0013/flat/libbcc.a(timer_gptimer_init.c.o)
 .data          0x000000004001114c        0x0 /home/fsw/rep/tasa/lib/bcc-2.2.3-gcc/bin/../sparc-gaisler-elf/bsp/leon3/mfix-b2bst/mfix-tn0013/flat/libbcc.a(ambapp.c.o)
 .data          0x000000004001114c        0x0 /home/fsw/rep/tasa/lib/bcc-2.2.3-gcc/bin/../sparc-gaisler-elf/bsp/leon3/mfix-b2bst/mfix-tn0013/flat/libbcc.a(ambapp_findfirst_fn.c.o)
 .data          0x000000004001114c        0x0 /home/fsw/rep/tasa/lib/bcc-2.2.3-gcc/bin/../sparc-gaisler-elf/bsp/leon3/mfix-b2bst/mfix-tn0013/flat/libbcc.a(int_irqmp_handle.c.o)
 .data          0x000000004001114c        0x0 /home/fsw/rep/tasa/lib/bcc-2.2.3-gcc/bin/../sparc-gaisler-elf/bsp/leon3/mfix-b2bst/mfix-tn0013/flat/libbcc.a(con_handle.c.o)
 .data          0x000000004001114c        0x0 /home/fsw/rep/tasa/lib/bcc-2.2.3-gcc/bin/../sparc-gaisler-elf/bsp/leon3/mfix-b2bst/mfix-tn0013/flat/libbcc.a(timer_handle.c.o)
 .data          0x000000004001114c        0x0 /home/fsw/rep/tasa/lib/bcc-2.2.3-gcc/bin/../lib/gcc/sparc-gaisler-elf/10.2.0/../../../../sparc-gaisler-elf/lib/mfix-b2bst/mfix-tn0013/flat/libc.a(lib_a-atexit.o)
 .data          0x000000004001114c        0x0 /home/fsw/rep/tasa/lib/bcc-2.2.3-gcc/bin/../lib/gcc/sparc-gaisler-elf/10.2.0/../../../../sparc-gaisler-elf/lib/mfix-b2bst/mfix-tn0013/flat/libc.a(lib_a-exit.o)
 .data          0x000000004001114c       0x64 /home/fsw/rep/tasa/lib/bcc-2.2.3-gcc/bin/../lib/gcc/sparc-gaisler-elf/10.2.0/../../../../sparc-gaisler-elf/lib/mfix-b2bst/mfix-tn0013/flat/libc.a(lib_a-impure.o)
                0x000000004001114c                _impure_ptr
 .data          0x00000000400111b0        0x0 /home/fsw/rep/tasa/lib/bcc-2.2.3-gcc/bin/../lib/gcc/sparc-gaisler-elf/10.2.0/../../../../sparc-gaisler-elf/lib/mfix-b2bst/mfix-tn0013/flat/libc.a(lib_a-memcpy.o)
 .data          0x00000000400111b0        0x0 /home/fsw/rep/tasa/lib/bcc-2.2.3-gcc/bin/../lib/gcc/sparc-gaisler-elf/10.2.0/../../../../sparc-gaisler-elf/lib/mfix-b2bst/mfix-tn0013/flat/libc.a(lib_a-printf.o)
 .data          0x00000000400111b0        0x0 /home/fsw/rep/tasa/lib/bcc-2.2.3-gcc/bin/../lib/gcc/sparc-gaisler-elf/10.2.0/../../../../sparc-gaisler-elf/lib/mfix-b2bst/mfix-tn0013/flat/libc.a(lib_a-putchar.o)
 .data          0x00000000400111b0        0x0 /home/fsw/rep/tasa/lib/bcc-2.2.3-gcc/bin/../lib/gcc/sparc-gaisler-elf/10.2.0/../../../../sparc-gaisler-elf/lib/mfix-b2bst/mfix-tn0013/flat/libc.a(lib_a-puts.o)
 .data          0x00000000400111b0        0x0 /home/fsw/rep/tasa/lib/bcc-2.2.3-gcc/bin/../lib/gcc/sparc-gaisler-elf/10.2.0/../../../../sparc-gaisler-elf/lib/mfix-b2bst/mfix-tn0013/flat/libc.a(lib_a-strlen.o)
 .data          0x00000000400111b0        0x0 /home/fsw/rep/tasa/lib/bcc-2.2.3-gcc/bin/../lib/gcc/sparc-gaisler-elf/10.2.0/../../../../sparc-gaisler-elf/lib/mfix-b2bst/mfix-tn0013/flat/libc.a(lib_a-vfprintf.o)
 .data          0x00000000400111b0        0x0 /home/fsw/rep/tasa/lib/bcc-2.2.3-gcc/bin/../lib/gcc/sparc-gaisler-elf/10.2.0/../../../../sparc-gaisler-elf/lib/mfix-b2bst/mfix-tn0013/flat/libc.a(lib_a-wsetup.o)
 .data          0x00000000400111b0        0x0 /home/fsw/rep/tasa/lib/bcc-2.2.3-gcc/bin/../lib/gcc/sparc-gaisler-elf/10.2.0/../../../../sparc-gaisler-elf/lib/mfix-b2bst/mfix-tn0013/flat/libc.a(lib_a-__atexit.o)
 .data          0x00000000400111b0        0x0 /home/fsw/rep/tasa/lib/bcc-2.2.3-gcc/bin/../lib/gcc/sparc-gaisler-elf/10.2.0/../../../../sparc-gaisler-elf/lib/mfix-b2bst/mfix-tn0013/flat/libc.a(lib_a-__call_atexit.o)
 .data          0x00000000400111b0        0x0 /home/fsw/rep/tasa/lib/bcc-2.2.3-gcc/bin/../lib/gcc/sparc-gaisler-elf/10.2.0/../../../../sparc-gaisler-elf/lib/mfix-b2bst/mfix-tn0013/flat/libc.a(lib_a-dtoa.o)
 .data          0x00000000400111b0        0x0 /home/fsw/rep/tasa/lib/bcc-2.2.3-gcc/bin/../lib/gcc/sparc-gaisler-elf/10.2.0/../../../../sparc-gaisler-elf/lib/mfix-b2bst/mfix-tn0013/flat/libc.a(lib_a-fflush.o)
 .data          0x00000000400111b0        0x0 /home/fsw/rep/tasa/lib/bcc-2.2.3-gcc/bin/../lib/gcc/sparc-gaisler-elf/10.2.0/../../../../sparc-gaisler-elf/lib/mfix-b2bst/mfix-tn0013/flat/libc.a(lib_a-findfp.o)
 .data          0x00000000400111b0        0x0 /home/fsw/rep/tasa/lib/bcc-2.2.3-gcc/bin/../lib/gcc/sparc-gaisler-elf/10.2.0/../../../../sparc-gaisler-elf/lib/mfix-b2bst/mfix-tn0013/flat/libc.a(lib_a-freer.o)
 .data          0x00000000400111b0        0x0 /home/fsw/rep/tasa/lib/bcc-2.2.3-gcc/bin/../lib/gcc/sparc-gaisler-elf/10.2.0/../../../../sparc-gaisler-elf/lib/mfix-b2bst/mfix-tn0013/flat/libc.a(lib_a-fvwrite.o)
 .data          0x00000000400111b0        0x0 /home/fsw/rep/tasa/lib/bcc-2.2.3-gcc/bin/../lib/gcc/sparc-gaisler-elf/10.2.0/../../../../sparc-gaisler-elf/lib/mfix-b2bst/mfix-tn0013/flat/libc.a(lib_a-fwalk.o)
 .data          0x00000000400111b0        0x0 /home/fsw/rep/tasa/lib/bcc-2.2.3-gcc/bin/../lib/gcc/sparc-gaisler-elf/10.2.0/../../../../sparc-gaisler-elf/lib/mfix-b2bst/mfix-tn0013/flat/libc.a(lib_a-localeconv.o)
 .data          0x00000000400111b0        0x0 /home/fsw/rep/tasa/lib/bcc-2.2.3-gcc/bin/../lib/gcc/sparc-gaisler-elf/10.2.0/../../../../sparc-gaisler-elf/lib/mfix-b2bst/mfix-tn0013/flat/libc.a(lib_a-makebuf.o)
 .data          0x00000000400111b0        0x0 /home/fsw/rep/tasa/lib/bcc-2.2.3-gcc/bin/../lib/gcc/sparc-gaisler-elf/10.2.0/../../../../sparc-gaisler-elf/lib/mfix-b2bst/mfix-tn0013/flat/libc.a(lib_a-malloc.o)
 .data          0x00000000400111b0      0x410 /home/fsw/rep/tasa/lib/bcc-2.2.3-gcc/bin/../lib/gcc/sparc-gaisler-elf/10.2.0/../../../../sparc-gaisler-elf/lib/mfix-b2bst/mfix-tn0013/flat/libc.a(lib_a-mallocr.o)
                0x00000000400111b0                __malloc_sbrk_base
                0x00000000400111b4                __malloc_trim_threshold
                0x00000000400111b8                __malloc_av_
 .data          0x00000000400115c0        0x0 /home/fsw/rep/tasa/lib/bcc-2.2.3-gcc/bin/../lib/gcc/sparc-gaisler-elf/10.2.0/../../../../sparc-gaisler-elf/lib/mfix-b2bst/mfix-tn0013/flat/libc.a(lib_a-memchr.o)
 .data          0x00000000400115c0        0x0 /home/fsw/rep/tasa/lib/bcc-2.2.3-gcc/bin/../lib/gcc/sparc-gaisler-elf/10.2.0/../../../../sparc-gaisler-elf/lib/mfix-b2bst/mfix-tn0013/flat/libc.a(lib_a-memmove.o)
 .data          0x00000000400115c0        0x0 /home/fsw/rep/tasa/lib/bcc-2.2.3-gcc/bin/../lib/gcc/sparc-gaisler-elf/10.2.0/../../../../sparc-gaisler-elf/lib/mfix-b2bst/mfix-tn0013/flat/libc.a(lib_a-memset.o)
 .data          0x00000000400115c0        0x0 /home/fsw/rep/tasa/lib/bcc-2.2.3-gcc/bin/../lib/gcc/sparc-gaisler-elf/10.2.0/../../../../sparc-gaisler-elf/lib/mfix-b2bst/mfix-tn0013/flat/libc.a(lib_a-mlock.o)
 .data          0x00000000400115c0        0x0 /home/fsw/rep/tasa/lib/bcc-2.2.3-gcc/bin/../lib/gcc/sparc-gaisler-elf/10.2.0/../../../../sparc-gaisler-elf/lib/mfix-b2bst/mfix-tn0013/flat/libc.a(lib_a-mprec.o)
 .data          0x00000000400115c0        0x0 /home/fsw/rep/tasa/lib/bcc-2.2.3-gcc/bin/../lib/gcc/sparc-gaisler-elf/10.2.0/../../../../sparc-gaisler-elf/lib/mfix-b2bst/mfix-tn0013/flat/libc.a(lib_a-putc.o)
 .data          0x00000000400115c0        0x0 /home/fsw/rep/tasa/lib/bcc-2.2.3-gcc/bin/../lib/gcc/sparc-gaisler-elf/10.2.0/../../../../sparc-gaisler-elf/lib/mfix-b2bst/mfix-tn0013/flat/libc.a(lib_a-reallocr.o)
 .data          0x00000000400115c0        0x0 /home/fsw/rep/tasa/lib/bcc-2.2.3-gcc/bin/../lib/gcc/sparc-gaisler-elf/10.2.0/../../../../sparc-gaisler-elf/lib/mfix-b2bst/mfix-tn0013/flat/libc.a(lib_a-s_frexp.o)
 .data          0x00000000400115c0        0x0 /home/fsw/rep/tasa/lib/bcc-2.2.3-gcc/bin/../lib/gcc/sparc-gaisler-elf/10.2.0/../../../../sparc-gaisler-elf/lib/mfix-b2bst/mfix-tn0013/flat/libc.a(lib_a-sbrkr.o)
 .data          0x00000000400115c0        0x0 /home/fsw/rep/tasa/lib/bcc-2.2.3-gcc/bin/../lib/gcc/sparc-gaisler-elf/10.2.0/../../../../sparc-gaisler-elf/lib/mfix-b2bst/mfix-tn0013/flat/libc.a(lib_a-stdio.o)
 .data          0x00000000400115c0        0x0 /home/fsw/rep/tasa/lib/bcc-2.2.3-gcc/bin/../lib/gcc/sparc-gaisler-elf/10.2.0/../../../../sparc-gaisler-elf/lib/mfix-b2bst/mfix-tn0013/flat/libc.a(lib_a-strncpy.o)
 .data          0x00000000400115c0        0x0 /home/fsw/rep/tasa/lib/bcc-2.2.3-gcc/bin/../lib/gcc/sparc-gaisler-elf/10.2.0/../../../../sparc-gaisler-elf/lib/mfix-b2bst/mfix-tn0013/flat/libc.a(lib_a-vfiprintf.o)
 .data          0x00000000400115c0        0x0 /home/fsw/rep/tasa/lib/bcc-2.2.3-gcc/bin/../lib/gcc/sparc-gaisler-elf/10.2.0/../../../../sparc-gaisler-elf/lib/mfix-b2bst/mfix-tn0013/flat/libc.a(lib_a-wbuf.o)
 .data          0x00000000400115c0        0x0 /home/fsw/rep/tasa/lib/bcc-2.2.3-gcc/bin/../lib/gcc/sparc-gaisler-elf/10.2.0/../../../../sparc-gaisler-elf/lib/mfix-b2bst/mfix-tn0013/flat/libc.a(lib_a-writer.o)
 .data          0x00000000400115c0        0x0 /home/fsw/rep/tasa/lib/bcc-2.2.3-gcc/bin/../lib/gcc/sparc-gaisler-elf/10.2.0/../../../../sparc-gaisler-elf/lib/mfix-b2bst/mfix-tn0013/flat/libc.a(lib_a-callocr.o)
 .data          0x00000000400115c0        0x0 /home/fsw/rep/tasa/lib/bcc-2.2.3-gcc/bin/../lib/gcc/sparc-gaisler-elf/10.2.0/../../../../sparc-gaisler-elf/lib/mfix-b2bst/mfix-tn0013/flat/libc.a(lib_a-closer.o)
 .data          0x00000000400115c0        0x0 /home/fsw/rep/tasa/lib/bcc-2.2.3-gcc/bin/../lib/gcc/sparc-gaisler-elf/10.2.0/../../../../sparc-gaisler-elf/lib/mfix-b2bst/mfix-tn0013/flat/libc.a(lib_a-fclose.o)
 .data          0x00000000400115c0        0x0 /home/fsw/rep/tasa/lib/bcc-2.2.3-gcc/bin/../lib/gcc/sparc-gaisler-elf/10.2.0/../../../../sparc-gaisler-elf/lib/mfix-b2bst/mfix-tn0013/flat/libc.a(lib_a-fputwc.o)
 .data          0x00000000400115c0        0x0 /home/fsw/rep/tasa/lib/bcc-2.2.3-gcc/bin/../lib/gcc/sparc-gaisler-elf/10.2.0/../../../../sparc-gaisler-elf/lib/mfix-b2bst/mfix-tn0013/flat/libc.a(lib_a-fstatr.o)
 .data          0x00000000400115c0        0x0 /home/fsw/rep/tasa/lib/bcc-2.2.3-gcc/bin/../lib/gcc/sparc-gaisler-elf/10.2.0/../../../../sparc-gaisler-elf/lib/mfix-b2bst/mfix-tn0013/flat/libc.a(lib_a-isattyr.o)
 .data          0x00000000400115c0      0x16c /home/fsw/rep/tasa/lib/bcc-2.2.3-gcc/bin/../lib/gcc/sparc-gaisler-elf/10.2.0/../../../../sparc-gaisler-elf/lib/mfix-b2bst/mfix-tn0013/flat/libc.a(lib_a-locale.o)
                0x00000000400115c0                __global_locale
 .data          0x000000004001172c        0x0 /home/fsw/rep/tasa/lib/bcc-2.2.3-gcc/bin/../lib/gcc/sparc-gaisler-elf/10.2.0/../../../../sparc-gaisler-elf/lib/mfix-b2bst/mfix-tn0013/flat/libc.a(lib_a-lseekr.o)
 .data          0x000000004001172c        0x0 /home/fsw/rep/tasa/lib/bcc-2.2.3-gcc/bin/../lib/gcc/sparc-gaisler-elf/10.2.0/../../../../sparc-gaisler-elf/lib/mfix-b2bst/mfix-tn0013/flat/libc.a(lib_a-mbtowc_r.o)
 .data          0x000000004001172c        0x0 /home/fsw/rep/tasa/lib/bcc-2.2.3-gcc/bin/../lib/gcc/sparc-gaisler-elf/10.2.0/../../../../sparc-gaisler-elf/lib/mfix-b2bst/mfix-tn0013/flat/libc.a(lib_a-readr.o)
 .data          0x000000004001172c        0x0 /home/fsw/rep/tasa/lib/bcc-2.2.3-gcc/bin/../lib/gcc/sparc-gaisler-elf/10.2.0/../../../../sparc-gaisler-elf/lib/mfix-b2bst/mfix-tn0013/flat/libc.a(lib_a-reent.o)
 .data          0x000000004001172c        0x0 /home/fsw/rep/tasa/lib/bcc-2.2.3-gcc/bin/../lib/gcc/sparc-gaisler-elf/10.2.0/../../../../sparc-gaisler-elf/lib/mfix-b2bst/mfix-tn0013/flat/libc.a(lib_a-strcmp.o)
 .data          0x000000004001172c        0x0 /home/fsw/rep/tasa/lib/bcc-2.2.3-gcc/bin/../lib/gcc/sparc-gaisler-elf/10.2.0/../../../../sparc-gaisler-elf/lib/mfix-b2bst/mfix-tn0013/flat/libc.a(lib_a-wcrtomb.o)
 .data          0x000000004001172c        0x0 /home/fsw/rep/tasa/lib/bcc-2.2.3-gcc/bin/../lib/gcc/sparc-gaisler-elf/10.2.0/../../../../sparc-gaisler-elf/lib/mfix-b2bst/mfix-tn0013/flat/libc.a(lib_a-wctomb_r.o)
 .data          0x000000004001172c        0x0 /home/fsw/rep/tasa/lib/bcc-2.2.3-gcc/bin/../lib/gcc/sparc-gaisler-elf/10.2.0/../../../../sparc-gaisler-elf/lib/mfix-b2bst/mfix-tn0013/flat/libc.a(lib_a-ctype_.o)
 .data          0x000000004001172c        0x0 /home/fsw/rep/tasa/lib/bcc-2.2.3-gcc/bin/../sparc-gaisler-elf/bsp/leon3/mfix-b2bst/mfix-tn0013/flat/libbcc.a(_exit.S.o)
 .data          0x000000004001172c        0x0 /home/fsw/rep/tasa/lib/bcc-2.2.3-gcc/bin/../sparc-gaisler-elf/bsp/leon3/mfix-b2bst/mfix-tn0013/flat/libbcc.a(read.c.o)
 .data          0x000000004001172c        0x0 /home/fsw/rep/tasa/lib/bcc-2.2.3-gcc/bin/../sparc-gaisler-elf/bsp/leon3/mfix-b2bst/mfix-tn0013/flat/libbcc.a(sbrk.c.o)
 .data          0x000000004001172c        0x0 /home/fsw/rep/tasa/lib/bcc-2.2.3-gcc/bin/../sparc-gaisler-elf/bsp/leon3/mfix-b2bst/mfix-tn0013/flat/libbcc.a(heap.c.o)
 .data          0x000000004001172c        0x0 /home/fsw/rep/tasa/lib/bcc-2.2.3-gcc/bin/../sparc-gaisler-elf/bsp/leon3/mfix-b2bst/mfix-tn0013/flat/libbcc.a(write.c.o)
 .data          0x000000004001172c        0x0 /home/fsw/rep/tasa/lib/bcc-2.2.3-gcc/bin/../sparc-gaisler-elf/bsp/leon3/mfix-b2bst/mfix-tn0013/flat/libbcc.a(stubs.S.o)
 .data          0x000000004001172c        0x0 /home/fsw/rep/tasa/lib/bcc-2.2.3-gcc/bin/../sparc-gaisler-elf/bsp/leon3/mfix-b2bst/mfix-tn0013/flat/libbcc.a(con_apbuart.c.o)
 .data          0x000000004001172c        0x0 /home/fsw/rep/tasa/lib/bcc-2.2.3-gcc/bin/../lib/gcc/sparc-gaisler-elf/10.2.0/mfix-b2bst/mfix-tn0013/flat/libgcc.a(_mulsi3.o)
 .data          0x000000004001172c        0x0 /home/fsw/rep/tasa/lib/bcc-2.2.3-gcc/bin/../lib/gcc/sparc-gaisler-elf/10.2.0/mfix-b2bst/mfix-tn0013/flat/libgcc.a(_divsi3.o)
 .data          0x000000004001172c        0x0 /home/fsw/rep/tasa/lib/bcc-2.2.3-gcc/bin/../lib/gcc/sparc-gaisler-elf/10.2.0/mfix-b2bst/mfix-tn0013/flat/libgcc.a(_modsi3.o)
 .data          0x000000004001172c        0x0 /home/fsw/rep/tasa/lib/bcc-2.2.3-gcc/bin/../lib/gcc/sparc-gaisler-elf/10.2.0/mfix-b2bst/mfix-tn0013/flat/libgcc.a(_udivdi3.o)
 .data          0x000000004001172c        0x0 /home/fsw/rep/tasa/lib/bcc-2.2.3-gcc/bin/../lib/gcc/sparc-gaisler-elf/10.2.0/mfix-b2bst/mfix-tn0013/flat/libgcc.a(_umoddi3.o)
 .data          0x000000004001172c        0x0 /home/fsw/rep/tasa/lib/bcc-2.2.3-gcc/bin/../lib/gcc/sparc-gaisler-elf/10.2.0/mfix-b2bst/mfix-tn0013/flat/libgcc.a(_clz.o)
 .data          0x000000004001172c        0x0 /home/fsw/rep/tasa/lib/bcc-2.2.3-gcc/bin/../lib/gcc/sparc-gaisler-elf/10.2.0/mfix-b2bst/mfix-tn0013/flat/crtend.o
 .data          0x000000004001172c        0x0 /home/fsw/rep/tasa/lib/bcc-2.2.3-gcc/bin/../lib/gcc/sparc-gaisler-elf/10.2.0/mfix-b2bst/mfix-tn0013/flat/crtn.o
                0x0000000040011730                . = ALIGN (0x8)
 *fill*         0x000000004001172c        0x4 
                0x0000000040011730                __data_end = .
                0x0000000040011120                __data_start_lma = LOADADDR (.data)
                0x0000000000000610                __data_size = SIZEOF (.data)

.iplt           0x0000000040011730        0x0
 .iplt          0x0000000040011730        0x0 /home/fsw/rep/tasa/lib/bcc-2.2.3-gcc/bin/../sparc-gaisler-elf/bsp/leon3/mfix-b2bst/mfix-tn0013/flat/trap_table_mvt.S.o

.tm_clone_table
                0x0000000040011730        0x0
 .tm_clone_table
                0x0000000040011730        0x0 /home/fsw/rep/tasa/lib/bcc-2.2.3-gcc/bin/../lib/gcc/sparc-gaisler-elf/10.2.0/mfix-b2bst/mfix-tn0013/flat/crtbegin.o
 .tm_clone_table
                0x0000000040011730        0x0 /home/fsw/rep/tasa/lib/bcc-2.2.3-gcc/bin/../lib/gcc/sparc-gaisler-elf/10.2.0/mfix-b2bst/mfix-tn0013/flat/crtend.o

.bss            0x0000000040011730      0x1a8
                0x0000000040011730                . = ALIGN (0x8)
                0x0000000040011730                __bss_start = .
 *(.bss .bss.*)
 .bss           0x0000000040011730        0x0 /home/fsw/rep/tasa/lib/bcc-2.2.3-gcc/bin/../sparc-gaisler-elf/bsp/leon3/mfix-b2bst/mfix-tn0013/flat/trap_table_mvt.S.o
 .bss           0x0000000040011730        0x4 /home/fsw/rep/tasa/lib/bcc-2.2.3-gcc/bin/../sparc-gaisler-elf/bsp/leon3/mfix-b2bst/mfix-tn0013/flat/crt0.S.o
                0x0000000040011730                __bcc_sp_at_entry
 .bss           0x0000000040011734        0x0 /home/fsw/rep/tasa/lib/bcc-2.2.3-gcc/bin/../lib/gcc/sparc-gaisler-elf/10.2.0/mfix-b2bst/mfix-tn0013/flat/crti.o
 .bss           0x0000000040011734       0x20 /home/fsw/rep/tasa/lib/bcc-2.2.3-gcc/bin/../lib/gcc/sparc-gaisler-elf/10.2.0/mfix-b2bst/mfix-tn0013/flat/crtbegin.o
 .bss           0x0000000040011754        0x0 /tmp/ccvGHBjf.o
 .bss           0x0000000040011754        0x0 /home/fsw/rep/tasa/lib/bcc-2.2.3-gcc/bin/../sparc-gaisler-elf/bsp/leon3/mfix-b2bst/mfix-tn0013/flat/libbcc.a(reset_trap_mvt.S.o)
 .bss           0x0000000040011754        0x0 /home/fsw/rep/tasa/lib/bcc-2.2.3-gcc/bin/../sparc-gaisler-elf/bsp/leon3/mfix-b2bst/mfix-tn0013/flat/libbcc.a(interrupt_trap_flat.S.o)
 .bss           0x0000000040011754        0x0 /home/fsw/rep/tasa/lib/bcc-2.2.3-gcc/bin/../sparc-gaisler-elf/bsp/leon3/mfix-b2bst/mfix-tn0013/flat/libbcc.a(sw_trap_set_pil.S.o)
 .bss           0x0000000040011754       0x80 /home/fsw/rep/tasa/lib/bcc-2.2.3-gcc/bin/../sparc-gaisler-elf/bsp/leon3/mfix-b2bst/mfix-tn0013/flat/libbcc.a(isr.c.o)
                0x0000000040011754                __bcc_isr_list
 .bss           0x00000000400117d4        0x0 /home/fsw/rep/tasa/lib/bcc-2.2.3-gcc/bin/../sparc-gaisler-elf/bsp/leon3/mfix-b2bst/mfix-tn0013/flat/libbcc.a(int_nest.c.o)
 .bss           0x00000000400117d4        0x0 /home/fsw/rep/tasa/lib/bcc-2.2.3-gcc/bin/../sparc-gaisler-elf/bsp/leon3/mfix-b2bst/mfix-tn0013/flat/libbcc.a(init.S.o)
 .bss           0x00000000400117d4        0x0 /home/fsw/rep/tasa/lib/bcc-2.2.3-gcc/bin/../sparc-gaisler-elf/bsp/leon3/mfix-b2bst/mfix-tn0013/flat/libbcc.a(leon_info.S.o)
 .bss           0x00000000400117d4        0x0 /home/fsw/rep/tasa/lib/bcc-2.2.3-gcc/bin/../sparc-gaisler-elf/bsp/leon3/mfix-b2bst/mfix-tn0013/flat/libbcc.a(dwzero.S.o)
 .bss           0x00000000400117d4        0x0 /home/fsw/rep/tasa/lib/bcc-2.2.3-gcc/bin/../sparc-gaisler-elf/bsp/leon3/mfix-b2bst/mfix-tn0013/flat/libbcc.a(copy_data.c.o)
 .bss           0x00000000400117d4        0x8 /home/fsw/rep/tasa/lib/bcc-2.2.3-gcc/bin/../sparc-gaisler-elf/bsp/leon3/mfix-b2bst/mfix-tn0013/flat/libbcc.a(argv.c.o)
                0x00000000400117d8                __bcc_argc
 .bss           0x00000000400117dc        0x0 /home/fsw/rep/tasa/lib/bcc-2.2.3-gcc/bin/../sparc-gaisler-elf/bsp/leon3/mfix-b2bst/mfix-tn0013/flat/libbcc.a(int_irqmp_get_source.c.o)
 .bss           0x00000000400117dc        0x0 /home/fsw/rep/tasa/lib/bcc-2.2.3-gcc/bin/../sparc-gaisler-elf/bsp/leon3/mfix-b2bst/mfix-tn0013/flat/libbcc.a(int_irqmp_mp.c.o)
 .bss           0x00000000400117dc        0x0 /home/fsw/rep/tasa/lib/bcc-2.2.3-gcc/bin/../sparc-gaisler-elf/bsp/leon3/mfix-b2bst/mfix-tn0013/flat/libbcc.a(int_irqmp_init.c.o)
 .bss           0x00000000400117dc        0x0 /home/fsw/rep/tasa/lib/bcc-2.2.3-gcc/bin/../sparc-gaisler-elf/bsp/leon3/mfix-b2bst/mfix-tn0013/flat/libbcc.a(con_apbuart_init.c.o)
 .bss           0x00000000400117dc        0x0 /home/fsw/rep/tasa/lib/bcc-2.2.3-gcc/bin/../sparc-gaisler-elf/bsp/leon3/mfix-b2bst/mfix-tn0013/flat/libbcc.a(timer_gptimer_init.c.o)
 .bss           0x00000000400117dc        0x0 /home/fsw/rep/tasa/lib/bcc-2.2.3-gcc/bin/../sparc-gaisler-elf/bsp/leon3/mfix-b2bst/mfix-tn0013/flat/libbcc.a(ambapp.c.o)
 .bss           0x00000000400117dc        0x0 /home/fsw/rep/tasa/lib/bcc-2.2.3-gcc/bin/../sparc-gaisler-elf/bsp/leon3/mfix-b2bst/mfix-tn0013/flat/libbcc.a(ambapp_findfirst_fn.c.o)
 .bss           0x00000000400117dc       0x10 /home/fsw/rep/tasa/lib/bcc-2.2.3-gcc/bin/../sparc-gaisler-elf/bsp/leon3/mfix-b2bst/mfix-tn0013/flat/libbcc.a(int_irqmp_handle.c.o)
                0x00000000400117dc                __bcc_int_irqmp_nts
                0x00000000400117e0                __bcc_int_irqmp_map
                0x00000000400117e4                __bcc_int_irqmp_eirq
                0x00000000400117e8                __bcc_int_handle
 .bss           0x00000000400117ec        0x4 /home/fsw/rep/tasa/lib/bcc-2.2.3-gcc/bin/../sparc-gaisler-elf/bsp/leon3/mfix-b2bst/mfix-tn0013/flat/libbcc.a(con_handle.c.o)
                0x00000000400117ec                __bcc_con_handle
 .bss           0x00000000400117f0        0x8 /home/fsw/rep/tasa/lib/bcc-2.2.3-gcc/bin/../sparc-gaisler-elf/bsp/leon3/mfix-b2bst/mfix-tn0013/flat/libbcc.a(timer_handle.c.o)
                0x00000000400117f0                __bcc_timer_interrupt
                0x00000000400117f4                __bcc_timer_handle
 .bss           0x00000000400117f8        0x0 /home/fsw/rep/tasa/lib/bcc-2.2.3-gcc/bin/../lib/gcc/sparc-gaisler-elf/10.2.0/../../../../sparc-gaisler-elf/lib/mfix-b2bst/mfix-tn0013/flat/libc.a(lib_a-atexit.o)
 .bss           0x00000000400117f8        0x0 /home/fsw/rep/tasa/lib/bcc-2.2.3-gcc/bin/../lib/gcc/sparc-gaisler-elf/10.2.0/../../../../sparc-gaisler-elf/lib/mfix-b2bst/mfix-tn0013/flat/libc.a(lib_a-exit.o)
 .bss           0x00000000400117f8        0x0 /home/fsw/rep/tasa/lib/bcc-2.2.3-gcc/bin/../lib/gcc/sparc-gaisler-elf/10.2.0/../../../../sparc-gaisler-elf/lib/mfix-b2bst/mfix-tn0013/flat/libc.a(lib_a-impure.o)
 .bss           0x00000000400117f8        0x0 /home/fsw/rep/tasa/lib/bcc-2.2.3-gcc/bin/../lib/gcc/sparc-gaisler-elf/10.2.0/../../../../sparc-gaisler-elf/lib/mfix-b2bst/mfix-tn0013/flat/libc.a(lib_a-memcpy.o)
 .bss           0x00000000400117f8        0x0 /home/fsw/rep/tasa/lib/bcc-2.2.3-gcc/bin/../lib/gcc/sparc-gaisler-elf/10.2.0/../../../../sparc-gaisler-elf/lib/mfix-b2bst/mfix-tn0013/flat/libc.a(lib_a-printf.o)
 .bss           0x00000000400117f8        0x0 /home/fsw/rep/tasa/lib/bcc-2.2.3-gcc/bin/../lib/gcc/sparc-gaisler-elf/10.2.0/../../../../sparc-gaisler-elf/lib/mfix-b2bst/mfix-tn0013/flat/libc.a(lib_a-putchar.o)
 .bss           0x00000000400117f8        0x0 /home/fsw/rep/tasa/lib/bcc-2.2.3-gcc/bin/../lib/gcc/sparc-gaisler-elf/10.2.0/../../../../sparc-gaisler-elf/lib/mfix-b2bst/mfix-tn0013/flat/libc.a(lib_a-puts.o)
 .bss           0x00000000400117f8        0x0 /home/fsw/rep/tasa/lib/bcc-2.2.3-gcc/bin/../lib/gcc/sparc-gaisler-elf/10.2.0/../../../../sparc-gaisler-elf/lib/mfix-b2bst/mfix-tn0013/flat/libc.a(lib_a-strlen.o)
 .bss           0x00000000400117f8        0x0 /home/fsw/rep/tasa/lib/bcc-2.2.3-gcc/bin/../lib/gcc/sparc-gaisler-elf/10.2.0/../../../../sparc-gaisler-elf/lib/mfix-b2bst/mfix-tn0013/flat/libc.a(lib_a-vfprintf.o)
 .bss           0x00000000400117f8        0x0 /home/fsw/rep/tasa/lib/bcc-2.2.3-gcc/bin/../lib/gcc/sparc-gaisler-elf/10.2.0/../../../../sparc-gaisler-elf/lib/mfix-b2bst/mfix-tn0013/flat/libc.a(lib_a-wsetup.o)
 .bss           0x00000000400117f8       0x8c /home/fsw/rep/tasa/lib/bcc-2.2.3-gcc/bin/../lib/gcc/sparc-gaisler-elf/10.2.0/../../../../sparc-gaisler-elf/lib/mfix-b2bst/mfix-tn0013/flat/libc.a(lib_a-__atexit.o)
 .bss           0x0000000040011884        0x4 /home/fsw/rep/tasa/lib/bcc-2.2.3-gcc/bin/../lib/gcc/sparc-gaisler-elf/10.2.0/../../../../sparc-gaisler-elf/lib/mfix-b2bst/mfix-tn0013/flat/libc.a(lib_a-__call_atexit.o)
                0x0000000040011884                _global_atexit
 .bss           0x0000000040011888        0x0 /home/fsw/rep/tasa/lib/bcc-2.2.3-gcc/bin/../lib/gcc/sparc-gaisler-elf/10.2.0/../../../../sparc-gaisler-elf/lib/mfix-b2bst/mfix-tn0013/flat/libc.a(lib_a-dtoa.o)
 .bss           0x0000000040011888        0x0 /home/fsw/rep/tasa/lib/bcc-2.2.3-gcc/bin/../lib/gcc/sparc-gaisler-elf/10.2.0/../../../../sparc-gaisler-elf/lib/mfix-b2bst/mfix-tn0013/flat/libc.a(lib_a-fflush.o)
 .bss           0x0000000040011888        0x0 /home/fsw/rep/tasa/lib/bcc-2.2.3-gcc/bin/../lib/gcc/sparc-gaisler-elf/10.2.0/../../../../sparc-gaisler-elf/lib/mfix-b2bst/mfix-tn0013/flat/libc.a(lib_a-findfp.o)
 .bss           0x0000000040011888        0x0 /home/fsw/rep/tasa/lib/bcc-2.2.3-gcc/bin/../lib/gcc/sparc-gaisler-elf/10.2.0/../../../../sparc-gaisler-elf/lib/mfix-b2bst/mfix-tn0013/flat/libc.a(lib_a-freer.o)
 .bss           0x0000000040011888        0x0 /home/fsw/rep/tasa/lib/bcc-2.2.3-gcc/bin/../lib/gcc/sparc-gaisler-elf/10.2.0/../../../../sparc-gaisler-elf/lib/mfix-b2bst/mfix-tn0013/flat/libc.a(lib_a-fvwrite.o)
 .bss           0x0000000040011888        0x0 /home/fsw/rep/tasa/lib/bcc-2.2.3-gcc/bin/../lib/gcc/sparc-gaisler-elf/10.2.0/../../../../sparc-gaisler-elf/lib/mfix-b2bst/mfix-tn0013/flat/libc.a(lib_a-fwalk.o)
 .bss           0x0000000040011888        0x0 /home/fsw/rep/tasa/lib/bcc-2.2.3-gcc/bin/../lib/gcc/sparc-gaisler-elf/10.2.0/../../../../sparc-gaisler-elf/lib/mfix-b2bst/mfix-tn0013/flat/libc.a(lib_a-localeconv.o)
 .bss           0x0000000040011888        0x0 /home/fsw/rep/tasa/lib/bcc-2.2.3-gcc/bin/../lib/gcc/sparc-gaisler-elf/10.2.0/../../../../sparc-gaisler-elf/lib/mfix-b2bst/mfix-tn0013/flat/libc.a(lib_a-makebuf.o)
 .bss           0x0000000040011888        0x0 /home/fsw/rep/tasa/lib/bcc-2.2.3-gcc/bin/../lib/gcc/sparc-gaisler-elf/10.2.0/../../../../sparc-gaisler-elf/lib/mfix-b2bst/mfix-tn0013/flat/libc.a(lib_a-malloc.o)
 .bss           0x0000000040011888       0x34 /home/fsw/rep/tasa/lib/bcc-2.2.3-gcc/bin/../lib/gcc/sparc-gaisler-elf/10.2.0/../../../../sparc-gaisler-elf/lib/mfix-b2bst/mfix-tn0013/flat/libc.a(lib_a-mallocr.o)
                0x0000000040011888                __malloc_current_mallinfo
                0x00000000400118b0                __malloc_max_total_mem
                0x00000000400118b4                __malloc_max_sbrked_mem
                0x00000000400118b8                __malloc_top_pad
 .bss           0x00000000400118bc        0x0 /home/fsw/rep/tasa/lib/bcc-2.2.3-gcc/bin/../lib/gcc/sparc-gaisler-elf/10.2.0/../../../../sparc-gaisler-elf/lib/mfix-b2bst/mfix-tn0013/flat/libc.a(lib_a-memchr.o)
 .bss           0x00000000400118bc        0x0 /home/fsw/rep/tasa/lib/bcc-2.2.3-gcc/bin/../lib/gcc/sparc-gaisler-elf/10.2.0/../../../../sparc-gaisler-elf/lib/mfix-b2bst/mfix-tn0013/flat/libc.a(lib_a-memmove.o)
 .bss           0x00000000400118bc        0x0 /home/fsw/rep/tasa/lib/bcc-2.2.3-gcc/bin/../lib/gcc/sparc-gaisler-elf/10.2.0/../../../../sparc-gaisler-elf/lib/mfix-b2bst/mfix-tn0013/flat/libc.a(lib_a-memset.o)
 .bss           0x00000000400118bc        0x0 /home/fsw/rep/tasa/lib/bcc-2.2.3-gcc/bin/../lib/gcc/sparc-gaisler-elf/10.2.0/../../../../sparc-gaisler-elf/lib/mfix-b2bst/mfix-tn0013/flat/libc.a(lib_a-mlock.o)
 .bss           0x00000000400118bc        0x0 /home/fsw/rep/tasa/lib/bcc-2.2.3-gcc/bin/../lib/gcc/sparc-gaisler-elf/10.2.0/../../../../sparc-gaisler-elf/lib/mfix-b2bst/mfix-tn0013/flat/libc.a(lib_a-mprec.o)
 .bss           0x00000000400118bc        0x0 /home/fsw/rep/tasa/lib/bcc-2.2.3-gcc/bin/../lib/gcc/sparc-gaisler-elf/10.2.0/../../../../sparc-gaisler-elf/lib/mfix-b2bst/mfix-tn0013/flat/libc.a(lib_a-putc.o)
 .bss           0x00000000400118bc        0x0 /home/fsw/rep/tasa/lib/bcc-2.2.3-gcc/bin/../lib/gcc/sparc-gaisler-elf/10.2.0/../../../../sparc-gaisler-elf/lib/mfix-b2bst/mfix-tn0013/flat/libc.a(lib_a-reallocr.o)
 .bss           0x00000000400118bc        0x0 /home/fsw/rep/tasa/lib/bcc-2.2.3-gcc/bin/../lib/gcc/sparc-gaisler-elf/10.2.0/../../../../sparc-gaisler-elf/lib/mfix-b2bst/mfix-tn0013/flat/libc.a(lib_a-s_frexp.o)
 .bss           0x00000000400118bc        0x0 /home/fsw/rep/tasa/lib/bcc-2.2.3-gcc/bin/../lib/gcc/sparc-gaisler-elf/10.2.0/../../../../sparc-gaisler-elf/lib/mfix-b2bst/mfix-tn0013/flat/libc.a(lib_a-sbrkr.o)
 .bss           0x00000000400118bc        0x0 /home/fsw/rep/tasa/lib/bcc-2.2.3-gcc/bin/../lib/gcc/sparc-gaisler-elf/10.2.0/../../../../sparc-gaisler-elf/lib/mfix-b2bst/mfix-tn0013/flat/libc.a(lib_a-stdio.o)
 .bss           0x00000000400118bc        0x0 /home/fsw/rep/tasa/lib/bcc-2.2.3-gcc/bin/../lib/gcc/sparc-gaisler-elf/10.2.0/../../../../sparc-gaisler-elf/lib/mfix-b2bst/mfix-tn0013/flat/libc.a(lib_a-strncpy.o)
 .bss           0x00000000400118bc        0x0 /home/fsw/rep/tasa/lib/bcc-2.2.3-gcc/bin/../lib/gcc/sparc-gaisler-elf/10.2.0/../../../../sparc-gaisler-elf/lib/mfix-b2bst/mfix-tn0013/flat/libc.a(lib_a-vfiprintf.o)
 .bss           0x00000000400118bc        0x0 /home/fsw/rep/tasa/lib/bcc-2.2.3-gcc/bin/../lib/gcc/sparc-gaisler-elf/10.2.0/../../../../sparc-gaisler-elf/lib/mfix-b2bst/mfix-tn0013/flat/libc.a(lib_a-wbuf.o)
 .bss           0x00000000400118bc        0x0 /home/fsw/rep/tasa/lib/bcc-2.2.3-gcc/bin/../lib/gcc/sparc-gaisler-elf/10.2.0/../../../../sparc-gaisler-elf/lib/mfix-b2bst/mfix-tn0013/flat/libc.a(lib_a-writer.o)
 .bss           0x00000000400118bc        0x0 /home/fsw/rep/tasa/lib/bcc-2.2.3-gcc/bin/../lib/gcc/sparc-gaisler-elf/10.2.0/../../../../sparc-gaisler-elf/lib/mfix-b2bst/mfix-tn0013/flat/libc.a(lib_a-callocr.o)
 .bss           0x00000000400118bc        0x0 /home/fsw/rep/tasa/lib/bcc-2.2.3-gcc/bin/../lib/gcc/sparc-gaisler-elf/10.2.0/../../../../sparc-gaisler-elf/lib/mfix-b2bst/mfix-tn0013/flat/libc.a(lib_a-closer.o)
 .bss           0x00000000400118bc        0x0 /home/fsw/rep/tasa/lib/bcc-2.2.3-gcc/bin/../lib/gcc/sparc-gaisler-elf/10.2.0/../../../../sparc-gaisler-elf/lib/mfix-b2bst/mfix-tn0013/flat/libc.a(lib_a-fclose.o)
 .bss           0x00000000400118bc        0x0 /home/fsw/rep/tasa/lib/bcc-2.2.3-gcc/bin/../lib/gcc/sparc-gaisler-elf/10.2.0/../../../../sparc-gaisler-elf/lib/mfix-b2bst/mfix-tn0013/flat/libc.a(lib_a-fputwc.o)
 .bss           0x00000000400118bc        0x0 /home/fsw/rep/tasa/lib/bcc-2.2.3-gcc/bin/../lib/gcc/sparc-gaisler-elf/10.2.0/../../../../sparc-gaisler-elf/lib/mfix-b2bst/mfix-tn0013/flat/libc.a(lib_a-fstatr.o)
 .bss           0x00000000400118bc        0x0 /home/fsw/rep/tasa/lib/bcc-2.2.3-gcc/bin/../lib/gcc/sparc-gaisler-elf/10.2.0/../../../../sparc-gaisler-elf/lib/mfix-b2bst/mfix-tn0013/flat/libc.a(lib_a-isattyr.o)
 .bss           0x00000000400118bc        0x4 /home/fsw/rep/tasa/lib/bcc-2.2.3-gcc/bin/../lib/gcc/sparc-gaisler-elf/10.2.0/../../../../sparc-gaisler-elf/lib/mfix-b2bst/mfix-tn0013/flat/libc.a(lib_a-locale.o)
                0x00000000400118bc                _PathLocale
 .bss           0x00000000400118c0        0x0 /home/fsw/rep/tasa/lib/bcc-2.2.3-gcc/bin/../lib/gcc/sparc-gaisler-elf/10.2.0/../../../../sparc-gaisler-elf/lib/mfix-b2bst/mfix-tn0013/flat/libc.a(lib_a-lseekr.o)
 .bss           0x00000000400118c0        0x0 /home/fsw/rep/tasa/lib/bcc-2.2.3-gcc/bin/../lib/gcc/sparc-gaisler-elf/10.2.0/../../../../sparc-gaisler-elf/lib/mfix-b2bst/mfix-tn0013/flat/libc.a(lib_a-mbtowc_r.o)
 .bss           0x00000000400118c0        0x0 /home/fsw/rep/tasa/lib/bcc-2.2.3-gcc/bin/../lib/gcc/sparc-gaisler-elf/10.2.0/../../../../sparc-gaisler-elf/lib/mfix-b2bst/mfix-tn0013/flat/libc.a(lib_a-readr.o)
 .bss           0x00000000400118c0        0x4 /home/fsw/rep/tasa/lib/bcc-2.2.3-gcc/bin/../lib/gcc/sparc-gaisler-elf/10.2.0/../../../../sparc-gaisler-elf/lib/mfix-b2bst/mfix-tn0013/flat/libc.a(lib_a-reent.o)
                0x00000000400118c0                errno
 .bss           0x00000000400118c4        0x0 /home/fsw/rep/tasa/lib/bcc-2.2.3-gcc/bin/../lib/gcc/sparc-gaisler-elf/10.2.0/../../../../sparc-gaisler-elf/lib/mfix-b2bst/mfix-tn0013/flat/libc.a(lib_a-strcmp.o)
 .bss           0x00000000400118c4        0x0 /home/fsw/rep/tasa/lib/bcc-2.2.3-gcc/bin/../lib/gcc/sparc-gaisler-elf/10.2.0/../../../../sparc-gaisler-elf/lib/mfix-b2bst/mfix-tn0013/flat/libc.a(lib_a-wcrtomb.o)
 .bss           0x00000000400118c4        0x0 /home/fsw/rep/tasa/lib/bcc-2.2.3-gcc/bin/../lib/gcc/sparc-gaisler-elf/10.2.0/../../../../sparc-gaisler-elf/lib/mfix-b2bst/mfix-tn0013/flat/libc.a(lib_a-wctomb_r.o)
 .bss           0x00000000400118c4        0x0 /home/fsw/rep/tasa/lib/bcc-2.2.3-gcc/bin/../lib/gcc/sparc-gaisler-elf/10.2.0/../../../../sparc-gaisler-elf/lib/mfix-b2bst/mfix-tn0013/flat/libc.a(lib_a-ctype_.o)
 .bss           0x00000000400118c4        0x0 /home/fsw/rep/tasa/lib/bcc-2.2.3-gcc/bin/../sparc-gaisler-elf/bsp/leon3/mfix-b2bst/mfix-tn0013/flat/libbcc.a(_exit.S.o)
 .bss           0x00000000400118c4        0x0 /home/fsw/rep/tasa/lib/bcc-2.2.3-gcc/bin/../sparc-gaisler-elf/bsp/leon3/mfix-b2bst/mfix-tn0013/flat/libbcc.a(read.c.o)
 .bss           0x00000000400118c4        0x4 /home/fsw/rep/tasa/lib/bcc-2.2.3-gcc/bin/../sparc-gaisler-elf/bsp/leon3/mfix-b2bst/mfix-tn0013/flat/libbcc.a(sbrk.c.o)
 .bss           0x00000000400118c8        0x8 /home/fsw/rep/tasa/lib/bcc-2.2.3-gcc/bin/../sparc-gaisler-elf/bsp/leon3/mfix-b2bst/mfix-tn0013/flat/libbcc.a(heap.c.o)
                0x00000000400118c8                __bcc_heap_max
                0x00000000400118cc                __bcc_heap_min
 .bss           0x00000000400118d0        0x0 /home/fsw/rep/tasa/lib/bcc-2.2.3-gcc/bin/../sparc-gaisler-elf/bsp/leon3/mfix-b2bst/mfix-tn0013/flat/libbcc.a(write.c.o)
 .bss           0x00000000400118d0        0x0 /home/fsw/rep/tasa/lib/bcc-2.2.3-gcc/bin/../sparc-gaisler-elf/bsp/leon3/mfix-b2bst/mfix-tn0013/flat/libbcc.a(stubs.S.o)
 .bss           0x00000000400118d0        0x4 /home/fsw/rep/tasa/lib/bcc-2.2.3-gcc/bin/../sparc-gaisler-elf/bsp/leon3/mfix-b2bst/mfix-tn0013/flat/libbcc.a(con_apbuart.c.o)
 .bss           0x00000000400118d4        0x0 /home/fsw/rep/tasa/lib/bcc-2.2.3-gcc/bin/../lib/gcc/sparc-gaisler-elf/10.2.0/mfix-b2bst/mfix-tn0013/flat/libgcc.a(_mulsi3.o)
 .bss           0x00000000400118d4        0x0 /home/fsw/rep/tasa/lib/bcc-2.2.3-gcc/bin/../lib/gcc/sparc-gaisler-elf/10.2.0/mfix-b2bst/mfix-tn0013/flat/libgcc.a(_divsi3.o)
 .bss           0x00000000400118d4        0x0 /home/fsw/rep/tasa/lib/bcc-2.2.3-gcc/bin/../lib/gcc/sparc-gaisler-elf/10.2.0/mfix-b2bst/mfix-tn0013/flat/libgcc.a(_modsi3.o)
 .bss           0x00000000400118d4        0x0 /home/fsw/rep/tasa/lib/bcc-2.2.3-gcc/bin/../lib/gcc/sparc-gaisler-elf/10.2.0/mfix-b2bst/mfix-tn0013/flat/libgcc.a(_udivdi3.o)
 .bss           0x00000000400118d4        0x0 /home/fsw/rep/tasa/lib/bcc-2.2.3-gcc/bin/../lib/gcc/sparc-gaisler-elf/10.2.0/mfix-b2bst/mfix-tn0013/flat/libgcc.a(_umoddi3.o)
 .bss           0x00000000400118d4        0x0 /home/fsw/rep/tasa/lib/bcc-2.2.3-gcc/bin/../lib/gcc/sparc-gaisler-elf/10.2.0/mfix-b2bst/mfix-tn0013/flat/libgcc.a(_clz.o)
 .bss           0x00000000400118d4        0x0 /home/fsw/rep/tasa/lib/bcc-2.2.3-gcc/bin/../lib/gcc/sparc-gaisler-elf/10.2.0/mfix-b2bst/mfix-tn0013/flat/crtend.o
 .bss           0x00000000400118d4        0x0 /home/fsw/rep/tasa/lib/bcc-2.2.3-gcc/bin/../lib/gcc/sparc-gaisler-elf/10.2.0/mfix-b2bst/mfix-tn0013/flat/crtn.o
 *(COMMON)
                0x00000000400118d8                . = ALIGN (0x8)
 *fill*         0x00000000400118d4        0x4 
                0x00000000400118d8                __bss_end = .
                0x00000000400118d8                __heap_min = .
                0x00000000400118d8                . = ALIGN (0x8)

.jcr
 *(.jcr)

.stab
 *(.stab)

.stabstr
 *(.stabstr)

.debug
 *(.debug)

.line
 *(.line)

.debug_srcinfo
 *(.debug_srcinfo)

.debug_sfnames
 *(.debug_sfnames)

.debug_aranges  0x0000000000000000      0xa90
 *(.debug_aranges)
 .debug_aranges
                0x0000000000000000       0x20 /home/fsw/rep/tasa/lib/bcc-2.2.3-gcc/bin/../sparc-gaisler-elf/bsp/leon3/mfix-b2bst/mfix-tn0013/flat/trap_table_mvt.S.o
 .debug_aranges
                0x0000000000000020       0x20 /home/fsw/rep/tasa/lib/bcc-2.2.3-gcc/bin/../sparc-gaisler-elf/bsp/leon3/mfix-b2bst/mfix-tn0013/flat/crt0.S.o
 .debug_aranges
                0x0000000000000040       0x20 /tmp/ccvGHBjf.o
 .debug_aranges
                0x0000000000000060       0x20 /home/fsw/rep/tasa/lib/bcc-2.2.3-gcc/bin/../sparc-gaisler-elf/bsp/leon3/mfix-b2bst/mfix-tn0013/flat/libbcc.a(reset_trap_mvt.S.o)
 .debug_aranges
                0x0000000000000080       0x20 /home/fsw/rep/tasa/lib/bcc-2.2.3-gcc/bin/../sparc-gaisler-elf/bsp/leon3/mfix-b2bst/mfix-tn0013/flat/libbcc.a(interrupt_trap_flat.S.o)
 .debug_aranges
                0x00000000000000a0       0x20 /home/fsw/rep/tasa/lib/bcc-2.2.3-gcc/bin/../sparc-gaisler-elf/bsp/leon3/mfix-b2bst/mfix-tn0013/flat/libbcc.a(sw_trap_set_pil.S.o)
 .debug_aranges
                0x00000000000000c0       0x18 /home/fsw/rep/tasa/lib/bcc-2.2.3-gcc/bin/../sparc-gaisler-elf/bsp/leon3/mfix-b2bst/mfix-tn0013/flat/libbcc.a(isr.c.o)
 .debug_aranges
                0x00000000000000d8       0x18 /home/fsw/rep/tasa/lib/bcc-2.2.3-gcc/bin/../sparc-gaisler-elf/bsp/leon3/mfix-b2bst/mfix-tn0013/flat/libbcc.a(int_nest.c.o)
 .debug_aranges
                0x00000000000000f0       0x20 /home/fsw/rep/tasa/lib/bcc-2.2.3-gcc/bin/../sparc-gaisler-elf/bsp/leon3/mfix-b2bst/mfix-tn0013/flat/libbcc.a(init.S.o)
 .debug_aranges
                0x0000000000000110       0x20 /home/fsw/rep/tasa/lib/bcc-2.2.3-gcc/bin/../sparc-gaisler-elf/bsp/leon3/mfix-b2bst/mfix-tn0013/flat/libbcc.a(leon_info.S.o)
 .debug_aranges
                0x0000000000000130       0x20 /home/fsw/rep/tasa/lib/bcc-2.2.3-gcc/bin/../sparc-gaisler-elf/bsp/leon3/mfix-b2bst/mfix-tn0013/flat/libbcc.a(dwzero.S.o)
 .debug_aranges
                0x0000000000000150       0x20 /home/fsw/rep/tasa/lib/bcc-2.2.3-gcc/bin/../sparc-gaisler-elf/bsp/leon3/mfix-b2bst/mfix-tn0013/flat/libbcc.a(copy_data.c.o)
 .debug_aranges
                0x0000000000000170       0x18 /home/fsw/rep/tasa/lib/bcc-2.2.3-gcc/bin/../sparc-gaisler-elf/bsp/leon3/mfix-b2bst/mfix-tn0013/flat/libbcc.a(argv.c.o)
 .debug_aranges
                0x0000000000000188       0x20 /home/fsw/rep/tasa/lib/bcc-2.2.3-gcc/bin/../sparc-gaisler-elf/bsp/leon3/mfix-b2bst/mfix-tn0013/flat/libbcc.a(int_irqmp_get_source.c.o)
 .debug_aranges
                0x00000000000001a8       0x20 /home/fsw/rep/tasa/lib/bcc-2.2.3-gcc/bin/../sparc-gaisler-elf/bsp/leon3/mfix-b2bst/mfix-tn0013/flat/libbcc.a(int_irqmp_mp.c.o)
 .debug_aranges
                0x00000000000001c8       0x20 /home/fsw/rep/tasa/lib/bcc-2.2.3-gcc/bin/../sparc-gaisler-elf/bsp/leon3/mfix-b2bst/mfix-tn0013/flat/libbcc.a(int_irqmp_init.c.o)
 .debug_aranges
                0x00000000000001e8       0x20 /home/fsw/rep/tasa/lib/bcc-2.2.3-gcc/bin/../sparc-gaisler-elf/bsp/leon3/mfix-b2bst/mfix-tn0013/flat/libbcc.a(con_apbuart_init.c.o)
 .debug_aranges
                0x0000000000000208       0x20 /home/fsw/rep/tasa/lib/bcc-2.2.3-gcc/bin/../sparc-gaisler-elf/bsp/leon3/mfix-b2bst/mfix-tn0013/flat/libbcc.a(timer_gptimer_init.c.o)
 .debug_aranges
                0x0000000000000228       0x20 /home/fsw/rep/tasa/lib/bcc-2.2.3-gcc/bin/../sparc-gaisler-elf/bsp/leon3/mfix-b2bst/mfix-tn0013/flat/libbcc.a(ambapp.c.o)
 .debug_aranges
                0x0000000000000248       0x20 /home/fsw/rep/tasa/lib/bcc-2.2.3-gcc/bin/../sparc-gaisler-elf/bsp/leon3/mfix-b2bst/mfix-tn0013/flat/libbcc.a(ambapp_findfirst_fn.c.o)
 .debug_aranges
                0x0000000000000268       0x18 /home/fsw/rep/tasa/lib/bcc-2.2.3-gcc/bin/../sparc-gaisler-elf/bsp/leon3/mfix-b2bst/mfix-tn0013/flat/libbcc.a(int_irqmp_handle.c.o)
 .debug_aranges
                0x0000000000000280       0x18 /home/fsw/rep/tasa/lib/bcc-2.2.3-gcc/bin/../sparc-gaisler-elf/bsp/leon3/mfix-b2bst/mfix-tn0013/flat/libbcc.a(con_handle.c.o)
 .debug_aranges
                0x0000000000000298       0x18 /home/fsw/rep/tasa/lib/bcc-2.2.3-gcc/bin/../sparc-gaisler-elf/bsp/leon3/mfix-b2bst/mfix-tn0013/flat/libbcc.a(timer_handle.c.o)
 .debug_aranges
                0x00000000000002b0       0x20 /home/fsw/rep/tasa/lib/bcc-2.2.3-gcc/bin/../lib/gcc/sparc-gaisler-elf/10.2.0/../../../../sparc-gaisler-elf/lib/mfix-b2bst/mfix-tn0013/flat/libc.a(lib_a-atexit.o)
 .debug_aranges
                0x00000000000002d0       0x20 /home/fsw/rep/tasa/lib/bcc-2.2.3-gcc/bin/../lib/gcc/sparc-gaisler-elf/10.2.0/../../../../sparc-gaisler-elf/lib/mfix-b2bst/mfix-tn0013/flat/libc.a(lib_a-exit.o)
 .debug_aranges
                0x00000000000002f0       0x18 /home/fsw/rep/tasa/lib/bcc-2.2.3-gcc/bin/../lib/gcc/sparc-gaisler-elf/10.2.0/../../../../sparc-gaisler-elf/lib/mfix-b2bst/mfix-tn0013/flat/libc.a(lib_a-impure.o)
 .debug_aranges
                0x0000000000000308       0x20 /home/fsw/rep/tasa/lib/bcc-2.2.3-gcc/bin/../lib/gcc/sparc-gaisler-elf/10.2.0/../../../../sparc-gaisler-elf/lib/mfix-b2bst/mfix-tn0013/flat/libc.a(lib_a-memcpy.o)
 .debug_aranges
                0x0000000000000328       0x20 /home/fsw/rep/tasa/lib/bcc-2.2.3-gcc/bin/../lib/gcc/sparc-gaisler-elf/10.2.0/../../../../sparc-gaisler-elf/lib/mfix-b2bst/mfix-tn0013/flat/libc.a(lib_a-printf.o)
 .debug_aranges
                0x0000000000000348       0x20 /home/fsw/rep/tasa/lib/bcc-2.2.3-gcc/bin/../lib/gcc/sparc-gaisler-elf/10.2.0/../../../../sparc-gaisler-elf/lib/mfix-b2bst/mfix-tn0013/flat/libc.a(lib_a-putchar.o)
 .debug_aranges
                0x0000000000000368       0x20 /home/fsw/rep/tasa/lib/bcc-2.2.3-gcc/bin/../lib/gcc/sparc-gaisler-elf/10.2.0/../../../../sparc-gaisler-elf/lib/mfix-b2bst/mfix-tn0013/flat/libc.a(lib_a-puts.o)
 .debug_aranges
                0x0000000000000388       0x20 /home/fsw/rep/tasa/lib/bcc-2.2.3-gcc/bin/../lib/gcc/sparc-gaisler-elf/10.2.0/../../../../sparc-gaisler-elf/lib/mfix-b2bst/mfix-tn0013/flat/libc.a(lib_a-strlen.o)
 .debug_aranges
                0x00000000000003a8       0x20 /home/fsw/rep/tasa/lib/bcc-2.2.3-gcc/bin/../lib/gcc/sparc-gaisler-elf/10.2.0/../../../../sparc-gaisler-elf/lib/mfix-b2bst/mfix-tn0013/flat/libc.a(lib_a-vfprintf.o)
 .debug_aranges
                0x00000000000003c8       0x20 /home/fsw/rep/tasa/lib/bcc-2.2.3-gcc/bin/../lib/gcc/sparc-gaisler-elf/10.2.0/../../../../sparc-gaisler-elf/lib/mfix-b2bst/mfix-tn0013/flat/libc.a(lib_a-wsetup.o)
 .debug_aranges
                0x00000000000003e8       0x20 /home/fsw/rep/tasa/lib/bcc-2.2.3-gcc/bin/../lib/gcc/sparc-gaisler-elf/10.2.0/../../../../sparc-gaisler-elf/lib/mfix-b2bst/mfix-tn0013/flat/libc.a(lib_a-__atexit.o)
 .debug_aranges
                0x0000000000000408       0x20 /home/fsw/rep/tasa/lib/bcc-2.2.3-gcc/bin/../lib/gcc/sparc-gaisler-elf/10.2.0/../../../../sparc-gaisler-elf/lib/mfix-b2bst/mfix-tn0013/flat/libc.a(lib_a-__call_atexit.o)
 .debug_aranges
                0x0000000000000428       0x20 /home/fsw/rep/tasa/lib/bcc-2.2.3-gcc/bin/../lib/gcc/sparc-gaisler-elf/10.2.0/../../../../sparc-gaisler-elf/lib/mfix-b2bst/mfix-tn0013/flat/libc.a(lib_a-dtoa.o)
 .debug_aranges
                0x0000000000000448       0x20 /home/fsw/rep/tasa/lib/bcc-2.2.3-gcc/bin/../lib/gcc/sparc-gaisler-elf/10.2.0/../../../../sparc-gaisler-elf/lib/mfix-b2bst/mfix-tn0013/flat/libc.a(lib_a-fflush.o)
 .debug_aranges
                0x0000000000000468       0x20 /home/fsw/rep/tasa/lib/bcc-2.2.3-gcc/bin/../lib/gcc/sparc-gaisler-elf/10.2.0/../../../../sparc-gaisler-elf/lib/mfix-b2bst/mfix-tn0013/flat/libc.a(lib_a-findfp.o)
 .debug_aranges
                0x0000000000000488       0x20 /home/fsw/rep/tasa/lib/bcc-2.2.3-gcc/bin/../lib/gcc/sparc-gaisler-elf/10.2.0/../../../../sparc-gaisler-elf/lib/mfix-b2bst/mfix-tn0013/flat/libc.a(lib_a-freer.o)
 .debug_aranges
                0x00000000000004a8       0x20 /home/fsw/rep/tasa/lib/bcc-2.2.3-gcc/bin/../lib/gcc/sparc-gaisler-elf/10.2.0/../../../../sparc-gaisler-elf/lib/mfix-b2bst/mfix-tn0013/flat/libc.a(lib_a-fvwrite.o)
 .debug_aranges
                0x00000000000004c8       0x20 /home/fsw/rep/tasa/lib/bcc-2.2.3-gcc/bin/../lib/gcc/sparc-gaisler-elf/10.2.0/../../../../sparc-gaisler-elf/lib/mfix-b2bst/mfix-tn0013/flat/libc.a(lib_a-fwalk.o)
 .debug_aranges
                0x00000000000004e8       0x20 /home/fsw/rep/tasa/lib/bcc-2.2.3-gcc/bin/../lib/gcc/sparc-gaisler-elf/10.2.0/../../../../sparc-gaisler-elf/lib/mfix-b2bst/mfix-tn0013/flat/libc.a(lib_a-localeconv.o)
 .debug_aranges
                0x0000000000000508       0x20 /home/fsw/rep/tasa/lib/bcc-2.2.3-gcc/bin/../lib/gcc/sparc-gaisler-elf/10.2.0/../../../../sparc-gaisler-elf/lib/mfix-b2bst/mfix-tn0013/flat/libc.a(lib_a-makebuf.o)
 .debug_aranges
                0x0000000000000528       0x20 /home/fsw/rep/tasa/lib/bcc-2.2.3-gcc/bin/../lib/gcc/sparc-gaisler-elf/10.2.0/../../../../sparc-gaisler-elf/lib/mfix-b2bst/mfix-tn0013/flat/libc.a(lib_a-malloc.o)
 .debug_aranges
                0x0000000000000548       0x20 /home/fsw/rep/tasa/lib/bcc-2.2.3-gcc/bin/../lib/gcc/sparc-gaisler-elf/10.2.0/../../../../sparc-gaisler-elf/lib/mfix-b2bst/mfix-tn0013/flat/libc.a(lib_a-mallocr.o)
 .debug_aranges
                0x0000000000000568       0x20 /home/fsw/rep/tasa/lib/bcc-2.2.3-gcc/bin/../lib/gcc/sparc-gaisler-elf/10.2.0/../../../../sparc-gaisler-elf/lib/mfix-b2bst/mfix-tn0013/flat/libc.a(lib_a-memchr.o)
 .debug_aranges
                0x0000000000000588       0x20 /home/fsw/rep/tasa/lib/bcc-2.2.3-gcc/bin/../lib/gcc/sparc-gaisler-elf/10.2.0/../../../../sparc-gaisler-elf/lib/mfix-b2bst/mfix-tn0013/flat/libc.a(lib_a-memmove.o)
 .debug_aranges
                0x00000000000005a8       0x20 /home/fsw/rep/tasa/lib/bcc-2.2.3-gcc/bin/../lib/gcc/sparc-gaisler-elf/10.2.0/../../../../sparc-gaisler-elf/lib/mfix-b2bst/mfix-tn0013/flat/libc.a(lib_a-memset.o)
 .debug_aranges
                0x00000000000005c8       0x20 /home/fsw/rep/tasa/lib/bcc-2.2.3-gcc/bin/../lib/gcc/sparc-gaisler-elf/10.2.0/../../../../sparc-gaisler-elf/lib/mfix-b2bst/mfix-tn0013/flat/libc.a(lib_a-mlock.o)
 .debug_aranges
                0x00000000000005e8       0x20 /home/fsw/rep/tasa/lib/bcc-2.2.3-gcc/bin/../lib/gcc/sparc-gaisler-elf/10.2.0/../../../../sparc-gaisler-elf/lib/mfix-b2bst/mfix-tn0013/flat/libc.a(lib_a-mprec.o)
 .debug_aranges
                0x0000000000000608       0x20 /home/fsw/rep/tasa/lib/bcc-2.2.3-gcc/bin/../lib/gcc/sparc-gaisler-elf/10.2.0/../../../../sparc-gaisler-elf/lib/mfix-b2bst/mfix-tn0013/flat/libc.a(lib_a-putc.o)
 .debug_aranges
                0x0000000000000628       0x20 /home/fsw/rep/tasa/lib/bcc-2.2.3-gcc/bin/../lib/gcc/sparc-gaisler-elf/10.2.0/../../../../sparc-gaisler-elf/lib/mfix-b2bst/mfix-tn0013/flat/libc.a(lib_a-reallocr.o)
 .debug_aranges
                0x0000000000000648       0x20 /home/fsw/rep/tasa/lib/bcc-2.2.3-gcc/bin/../lib/gcc/sparc-gaisler-elf/10.2.0/../../../../sparc-gaisler-elf/lib/mfix-b2bst/mfix-tn0013/flat/libc.a(lib_a-s_frexp.o)
 .debug_aranges
                0x0000000000000668       0x20 /home/fsw/rep/tasa/lib/bcc-2.2.3-gcc/bin/../lib/gcc/sparc-gaisler-elf/10.2.0/../../../../sparc-gaisler-elf/lib/mfix-b2bst/mfix-tn0013/flat/libc.a(lib_a-sbrkr.o)
 .debug_aranges
                0x0000000000000688       0x20 /home/fsw/rep/tasa/lib/bcc-2.2.3-gcc/bin/../lib/gcc/sparc-gaisler-elf/10.2.0/../../../../sparc-gaisler-elf/lib/mfix-b2bst/mfix-tn0013/flat/libc.a(lib_a-stdio.o)
 .debug_aranges
                0x00000000000006a8       0x20 /home/fsw/rep/tasa/lib/bcc-2.2.3-gcc/bin/../lib/gcc/sparc-gaisler-elf/10.2.0/../../../../sparc-gaisler-elf/lib/mfix-b2bst/mfix-tn0013/flat/libc.a(lib_a-strncpy.o)
 .debug_aranges
                0x00000000000006c8       0x20 /home/fsw/rep/tasa/lib/bcc-2.2.3-gcc/bin/../lib/gcc/sparc-gaisler-elf/10.2.0/../../../../sparc-gaisler-elf/lib/mfix-b2bst/mfix-tn0013/flat/libc.a(lib_a-vfiprintf.o)
 .debug_aranges
                0x00000000000006e8       0x20 /home/fsw/rep/tasa/lib/bcc-2.2.3-gcc/bin/../lib/gcc/sparc-gaisler-elf/10.2.0/../../../../sparc-gaisler-elf/lib/mfix-b2bst/mfix-tn0013/flat/libc.a(lib_a-wbuf.o)
 .debug_aranges
                0x0000000000000708       0x20 /home/fsw/rep/tasa/lib/bcc-2.2.3-gcc/bin/../lib/gcc/sparc-gaisler-elf/10.2.0/../../../../sparc-gaisler-elf/lib/mfix-b2bst/mfix-tn0013/flat/libc.a(lib_a-writer.o)
 .debug_aranges
                0x0000000000000728       0x20 /home/fsw/rep/tasa/lib/bcc-2.2.3-gcc/bin/../lib/gcc/sparc-gaisler-elf/10.2.0/../../../../sparc-gaisler-elf/lib/mfix-b2bst/mfix-tn0013/flat/libc.a(lib_a-callocr.o)
 .debug_aranges
                0x0000000000000748       0x20 /home/fsw/rep/tasa/lib/bcc-2.2.3-gcc/bin/../lib/gcc/sparc-gaisler-elf/10.2.0/../../../../sparc-gaisler-elf/lib/mfix-b2bst/mfix-tn0013/flat/libc.a(lib_a-closer.o)
 .debug_aranges
                0x0000000000000768       0x20 /home/fsw/rep/tasa/lib/bcc-2.2.3-gcc/bin/../lib/gcc/sparc-gaisler-elf/10.2.0/../../../../sparc-gaisler-elf/lib/mfix-b2bst/mfix-tn0013/flat/libc.a(lib_a-fclose.o)
 .debug_aranges
                0x0000000000000788       0x20 /home/fsw/rep/tasa/lib/bcc-2.2.3-gcc/bin/../lib/gcc/sparc-gaisler-elf/10.2.0/../../../../sparc-gaisler-elf/lib/mfix-b2bst/mfix-tn0013/flat/libc.a(lib_a-fputwc.o)
 .debug_aranges
                0x00000000000007a8       0x20 /home/fsw/rep/tasa/lib/bcc-2.2.3-gcc/bin/../lib/gcc/sparc-gaisler-elf/10.2.0/../../../../sparc-gaisler-elf/lib/mfix-b2bst/mfix-tn0013/flat/libc.a(lib_a-fstatr.o)
 .debug_aranges
                0x00000000000007c8       0x20 /home/fsw/rep/tasa/lib/bcc-2.2.3-gcc/bin/../lib/gcc/sparc-gaisler-elf/10.2.0/../../../../sparc-gaisler-elf/lib/mfix-b2bst/mfix-tn0013/flat/libc.a(lib_a-isattyr.o)
 .debug_aranges
                0x00000000000007e8       0x20 /home/fsw/rep/tasa/lib/bcc-2.2.3-gcc/bin/../lib/gcc/sparc-gaisler-elf/10.2.0/../../../../sparc-gaisler-elf/lib/mfix-b2bst/mfix-tn0013/flat/libc.a(lib_a-locale.o)
 .debug_aranges
                0x0000000000000808       0x20 /home/fsw/rep/tasa/lib/bcc-2.2.3-gcc/bin/../lib/gcc/sparc-gaisler-elf/10.2.0/../../../../sparc-gaisler-elf/lib/mfix-b2bst/mfix-tn0013/flat/libc.a(lib_a-lseekr.o)
 .debug_aranges
                0x0000000000000828       0x20 /home/fsw/rep/tasa/lib/bcc-2.2.3-gcc/bin/../lib/gcc/sparc-gaisler-elf/10.2.0/../../../../sparc-gaisler-elf/lib/mfix-b2bst/mfix-tn0013/flat/libc.a(lib_a-mbtowc_r.o)
 .debug_aranges
                0x0000000000000848       0x20 /home/fsw/rep/tasa/lib/bcc-2.2.3-gcc/bin/../lib/gcc/sparc-gaisler-elf/10.2.0/../../../../sparc-gaisler-elf/lib/mfix-b2bst/mfix-tn0013/flat/libc.a(lib_a-readr.o)
 .debug_aranges
                0x0000000000000868       0x20 /home/fsw/rep/tasa/lib/bcc-2.2.3-gcc/bin/../lib/gcc/sparc-gaisler-elf/10.2.0/../../../../sparc-gaisler-elf/lib/mfix-b2bst/mfix-tn0013/flat/libc.a(lib_a-reent.o)
 .debug_aranges
                0x0000000000000888       0x20 /home/fsw/rep/tasa/lib/bcc-2.2.3-gcc/bin/../lib/gcc/sparc-gaisler-elf/10.2.0/../../../../sparc-gaisler-elf/lib/mfix-b2bst/mfix-tn0013/flat/libc.a(lib_a-strcmp.o)
 .debug_aranges
                0x00000000000008a8       0x20 /home/fsw/rep/tasa/lib/bcc-2.2.3-gcc/bin/../lib/gcc/sparc-gaisler-elf/10.2.0/../../../../sparc-gaisler-elf/lib/mfix-b2bst/mfix-tn0013/flat/libc.a(lib_a-wcrtomb.o)
 .debug_aranges
                0x00000000000008c8       0x20 /home/fsw/rep/tasa/lib/bcc-2.2.3-gcc/bin/../lib/gcc/sparc-gaisler-elf/10.2.0/../../../../sparc-gaisler-elf/lib/mfix-b2bst/mfix-tn0013/flat/libc.a(lib_a-wctomb_r.o)
 .debug_aranges
                0x00000000000008e8       0x18 /home/fsw/rep/tasa/lib/bcc-2.2.3-gcc/bin/../lib/gcc/sparc-gaisler-elf/10.2.0/../../../../sparc-gaisler-elf/lib/mfix-b2bst/mfix-tn0013/flat/libc.a(lib_a-ctype_.o)
 .debug_aranges
                0x0000000000000900       0x20 /home/fsw/rep/tasa/lib/bcc-2.2.3-gcc/bin/../sparc-gaisler-elf/bsp/leon3/mfix-b2bst/mfix-tn0013/flat/libbcc.a(_exit.S.o)
 .debug_aranges
                0x0000000000000920       0x20 /home/fsw/rep/tasa/lib/bcc-2.2.3-gcc/bin/../sparc-gaisler-elf/bsp/leon3/mfix-b2bst/mfix-tn0013/flat/libbcc.a(read.c.o)
 .debug_aranges
                0x0000000000000940       0x20 /home/fsw/rep/tasa/lib/bcc-2.2.3-gcc/bin/../sparc-gaisler-elf/bsp/leon3/mfix-b2bst/mfix-tn0013/flat/libbcc.a(sbrk.c.o)
 .debug_aranges
                0x0000000000000960       0x18 /home/fsw/rep/tasa/lib/bcc-2.2.3-gcc/bin/../sparc-gaisler-elf/bsp/leon3/mfix-b2bst/mfix-tn0013/flat/libbcc.a(heap.c.o)
 .debug_aranges
                0x0000000000000978       0x20 /home/fsw/rep/tasa/lib/bcc-2.2.3-gcc/bin/../sparc-gaisler-elf/bsp/leon3/mfix-b2bst/mfix-tn0013/flat/libbcc.a(write.c.o)
 .debug_aranges
                0x0000000000000998       0x20 /home/fsw/rep/tasa/lib/bcc-2.2.3-gcc/bin/../sparc-gaisler-elf/bsp/leon3/mfix-b2bst/mfix-tn0013/flat/libbcc.a(stubs.S.o)
 .debug_aranges
                0x00000000000009b8       0x20 /home/fsw/rep/tasa/lib/bcc-2.2.3-gcc/bin/../sparc-gaisler-elf/bsp/leon3/mfix-b2bst/mfix-tn0013/flat/libbcc.a(con_apbuart.c.o)
 .debug_aranges
                0x00000000000009d8       0x20 /home/fsw/rep/tasa/lib/bcc-2.2.3-gcc/bin/../lib/gcc/sparc-gaisler-elf/10.2.0/mfix-b2bst/mfix-tn0013/flat/libgcc.a(_mulsi3.o)
 .debug_aranges
                0x00000000000009f8       0x20 /home/fsw/rep/tasa/lib/bcc-2.2.3-gcc/bin/../lib/gcc/sparc-gaisler-elf/10.2.0/mfix-b2bst/mfix-tn0013/flat/libgcc.a(_divsi3.o)
 .debug_aranges
                0x0000000000000a18       0x20 /home/fsw/rep/tasa/lib/bcc-2.2.3-gcc/bin/../lib/gcc/sparc-gaisler-elf/10.2.0/mfix-b2bst/mfix-tn0013/flat/libgcc.a(_modsi3.o)
 .debug_aranges
                0x0000000000000a38       0x20 /home/fsw/rep/tasa/lib/bcc-2.2.3-gcc/bin/../lib/gcc/sparc-gaisler-elf/10.2.0/mfix-b2bst/mfix-tn0013/flat/libgcc.a(_udivdi3.o)
 .debug_aranges
                0x0000000000000a58       0x20 /home/fsw/rep/tasa/lib/bcc-2.2.3-gcc/bin/../lib/gcc/sparc-gaisler-elf/10.2.0/mfix-b2bst/mfix-tn0013/flat/libgcc.a(_umoddi3.o)
 .debug_aranges
                0x0000000000000a78       0x18 /home/fsw/rep/tasa/lib/bcc-2.2.3-gcc/bin/../lib/gcc/sparc-gaisler-elf/10.2.0/mfix-b2bst/mfix-tn0013/flat/libgcc.a(_clz.o)

.debug_pubnames
 *(.debug_pubnames)

.debug_info     0x0000000000000000    0x21fc7
 *(.debug_info)
 .debug_info    0x0000000000000000       0x26 /home/fsw/rep/tasa/lib/bcc-2.2.3-gcc/bin/../sparc-gaisler-elf/bsp/leon3/mfix-b2bst/mfix-tn0013/flat/trap_table_mvt.S.o
 .debug_info    0x0000000000000026       0x26 /home/fsw/rep/tasa/lib/bcc-2.2.3-gcc/bin/../sparc-gaisler-elf/bsp/leon3/mfix-b2bst/mfix-tn0013/flat/crt0.S.o
 .debug_info    0x000000000000004c      0x368 /tmp/ccvGHBjf.o
 .debug_info    0x00000000000003b4       0x26 /home/fsw/rep/tasa/lib/bcc-2.2.3-gcc/bin/../sparc-gaisler-elf/bsp/leon3/mfix-b2bst/mfix-tn0013/flat/libbcc.a(reset_trap_mvt.S.o)
 .debug_info    0x00000000000003da       0x26 /home/fsw/rep/tasa/lib/bcc-2.2.3-gcc/bin/../sparc-gaisler-elf/bsp/leon3/mfix-b2bst/mfix-tn0013/flat/libbcc.a(interrupt_trap_flat.S.o)
 .debug_info    0x0000000000000400       0x26 /home/fsw/rep/tasa/lib/bcc-2.2.3-gcc/bin/../sparc-gaisler-elf/bsp/leon3/mfix-b2bst/mfix-tn0013/flat/libbcc.a(sw_trap_set_pil.S.o)
 .debug_info    0x0000000000000426       0xf5 /home/fsw/rep/tasa/lib/bcc-2.2.3-gcc/bin/../sparc-gaisler-elf/bsp/leon3/mfix-b2bst/mfix-tn0013/flat/libbcc.a(isr.c.o)
 .debug_info    0x000000000000051b       0xcd /home/fsw/rep/tasa/lib/bcc-2.2.3-gcc/bin/../sparc-gaisler-elf/bsp/leon3/mfix-b2bst/mfix-tn0013/flat/libbcc.a(int_nest.c.o)
 .debug_info    0x00000000000005e8       0x26 /home/fsw/rep/tasa/lib/bcc-2.2.3-gcc/bin/../sparc-gaisler-elf/bsp/leon3/mfix-b2bst/mfix-tn0013/flat/libbcc.a(init.S.o)
 .debug_info    0x000000000000060e       0x26 /home/fsw/rep/tasa/lib/bcc-2.2.3-gcc/bin/../sparc-gaisler-elf/bsp/leon3/mfix-b2bst/mfix-tn0013/flat/libbcc.a(leon_info.S.o)
 .debug_info    0x0000000000000634       0x26 /home/fsw/rep/tasa/lib/bcc-2.2.3-gcc/bin/../sparc-gaisler-elf/bsp/leon3/mfix-b2bst/mfix-tn0013/flat/libbcc.a(dwzero.S.o)
 .debug_info    0x000000000000065a       0xe8 /home/fsw/rep/tasa/lib/bcc-2.2.3-gcc/bin/../sparc-gaisler-elf/bsp/leon3/mfix-b2bst/mfix-tn0013/flat/libbcc.a(copy_data.c.o)
 .debug_info    0x0000000000000742       0xd9 /home/fsw/rep/tasa/lib/bcc-2.2.3-gcc/bin/../sparc-gaisler-elf/bsp/leon3/mfix-b2bst/mfix-tn0013/flat/libbcc.a(argv.c.o)
 .debug_info    0x000000000000081b      0x2db /home/fsw/rep/tasa/lib/bcc-2.2.3-gcc/bin/../sparc-gaisler-elf/bsp/leon3/mfix-b2bst/mfix-tn0013/flat/libbcc.a(int_irqmp_get_source.c.o)
 .debug_info    0x0000000000000af6      0x3a6 /home/fsw/rep/tasa/lib/bcc-2.2.3-gcc/bin/../sparc-gaisler-elf/bsp/leon3/mfix-b2bst/mfix-tn0013/flat/libbcc.a(int_irqmp_mp.c.o)
 .debug_info    0x0000000000000e9c      0x5c8 /home/fsw/rep/tasa/lib/bcc-2.2.3-gcc/bin/../sparc-gaisler-elf/bsp/leon3/mfix-b2bst/mfix-tn0013/flat/libbcc.a(int_irqmp_init.c.o)
 .debug_info    0x0000000000001464      0x121 /home/fsw/rep/tasa/lib/bcc-2.2.3-gcc/bin/../sparc-gaisler-elf/bsp/leon3/mfix-b2bst/mfix-tn0013/flat/libbcc.a(con_apbuart_init.c.o)
 .debug_info    0x0000000000001585      0x1d6 /home/fsw/rep/tasa/lib/bcc-2.2.3-gcc/bin/../sparc-gaisler-elf/bsp/leon3/mfix-b2bst/mfix-tn0013/flat/libbcc.a(timer_gptimer_init.c.o)
 .debug_info    0x000000000000175b      0x8ee /home/fsw/rep/tasa/lib/bcc-2.2.3-gcc/bin/../sparc-gaisler-elf/bsp/leon3/mfix-b2bst/mfix-tn0013/flat/libbcc.a(ambapp.c.o)
 .debug_info    0x0000000000002049      0x33b /home/fsw/rep/tasa/lib/bcc-2.2.3-gcc/bin/../sparc-gaisler-elf/bsp/leon3/mfix-b2bst/mfix-tn0013/flat/libbcc.a(ambapp_findfirst_fn.c.o)
 .debug_info    0x0000000000002384       0xeb /home/fsw/rep/tasa/lib/bcc-2.2.3-gcc/bin/../sparc-gaisler-elf/bsp/leon3/mfix-b2bst/mfix-tn0013/flat/libbcc.a(int_irqmp_handle.c.o)
 .debug_info    0x000000000000246f       0x9d /home/fsw/rep/tasa/lib/bcc-2.2.3-gcc/bin/../sparc-gaisler-elf/bsp/leon3/mfix-b2bst/mfix-tn0013/flat/libbcc.a(con_handle.c.o)
 .debug_info    0x000000000000250c       0xb7 /home/fsw/rep/tasa/lib/bcc-2.2.3-gcc/bin/../sparc-gaisler-elf/bsp/leon3/mfix-b2bst/mfix-tn0013/flat/libbcc.a(timer_handle.c.o)
 .debug_info    0x00000000000025c3      0x100 /home/fsw/rep/tasa/lib/bcc-2.2.3-gcc/bin/../lib/gcc/sparc-gaisler-elf/10.2.0/../../../../sparc-gaisler-elf/lib/mfix-b2bst/mfix-tn0013/flat/libc.a(lib_a-atexit.o)
 .debug_info    0x00000000000026c3      0x7de /home/fsw/rep/tasa/lib/bcc-2.2.3-gcc/bin/../lib/gcc/sparc-gaisler-elf/10.2.0/../../../../sparc-gaisler-elf/lib/mfix-b2bst/mfix-tn0013/flat/libc.a(lib_a-exit.o)
 .debug_info    0x0000000000002ea1      0x83e /home/fsw/rep/tasa/lib/bcc-2.2.3-gcc/bin/../lib/gcc/sparc-gaisler-elf/10.2.0/../../../../sparc-gaisler-elf/lib/mfix-b2bst/mfix-tn0013/flat/libc.a(lib_a-impure.o)
 .debug_info    0x00000000000036df      0x15c /home/fsw/rep/tasa/lib/bcc-2.2.3-gcc/bin/../lib/gcc/sparc-gaisler-elf/10.2.0/../../../../sparc-gaisler-elf/lib/mfix-b2bst/mfix-tn0013/flat/libc.a(lib_a-memcpy.o)
 .debug_info    0x000000000000383b      0x903 /home/fsw/rep/tasa/lib/bcc-2.2.3-gcc/bin/../lib/gcc/sparc-gaisler-elf/10.2.0/../../../../sparc-gaisler-elf/lib/mfix-b2bst/mfix-tn0013/flat/libc.a(lib_a-printf.o)
 .debug_info    0x000000000000413e      0x875 /home/fsw/rep/tasa/lib/bcc-2.2.3-gcc/bin/../lib/gcc/sparc-gaisler-elf/10.2.0/../../../../sparc-gaisler-elf/lib/mfix-b2bst/mfix-tn0013/flat/libc.a(lib_a-putchar.o)
 .debug_info    0x00000000000049b3      0xaf5 /home/fsw/rep/tasa/lib/bcc-2.2.3-gcc/bin/../lib/gcc/sparc-gaisler-elf/10.2.0/../../../../sparc-gaisler-elf/lib/mfix-b2bst/mfix-tn0013/flat/libc.a(lib_a-puts.o)
 .debug_info    0x00000000000054a8       0xee /home/fsw/rep/tasa/lib/bcc-2.2.3-gcc/bin/../lib/gcc/sparc-gaisler-elf/10.2.0/../../../../sparc-gaisler-elf/lib/mfix-b2bst/mfix-tn0013/flat/libc.a(lib_a-strlen.o)
 .debug_info    0x0000000000005596     0x1de3 /home/fsw/rep/tasa/lib/bcc-2.2.3-gcc/bin/../lib/gcc/sparc-gaisler-elf/10.2.0/../../../../sparc-gaisler-elf/lib/mfix-b2bst/mfix-tn0013/flat/libc.a(lib_a-vfprintf.o)
 .debug_info    0x0000000000007379      0x8dd /home/fsw/rep/tasa/lib/bcc-2.2.3-gcc/bin/../lib/gcc/sparc-gaisler-elf/10.2.0/../../../../sparc-gaisler-elf/lib/mfix-b2bst/mfix-tn0013/flat/libc.a(lib_a-wsetup.o)
 .debug_info    0x0000000000007c56      0x264 /home/fsw/rep/tasa/lib/bcc-2.2.3-gcc/bin/../lib/gcc/sparc-gaisler-elf/10.2.0/../../../../sparc-gaisler-elf/lib/mfix-b2bst/mfix-tn0013/flat/libc.a(lib_a-__atexit.o)
 .debug_info    0x0000000000007eba      0x28d /home/fsw/rep/tasa/lib/bcc-2.2.3-gcc/bin/../lib/gcc/sparc-gaisler-elf/10.2.0/../../../../sparc-gaisler-elf/lib/mfix-b2bst/mfix-tn0013/flat/libc.a(lib_a-__call_atexit.o)
 .debug_info    0x0000000000008147     0x1577 /home/fsw/rep/tasa/lib/bcc-2.2.3-gcc/bin/../lib/gcc/sparc-gaisler-elf/10.2.0/../../../../sparc-gaisler-elf/lib/mfix-b2bst/mfix-tn0013/flat/libc.a(lib_a-dtoa.o)
 .debug_info    0x00000000000096be      0xae9 /home/fsw/rep/tasa/lib/bcc-2.2.3-gcc/bin/../lib/gcc/sparc-gaisler-elf/10.2.0/../../../../sparc-gaisler-elf/lib/mfix-b2bst/mfix-tn0013/flat/libc.a(lib_a-fflush.o)
 .debug_info    0x000000000000a1a7      0xddb /home/fsw/rep/tasa/lib/bcc-2.2.3-gcc/bin/../lib/gcc/sparc-gaisler-elf/10.2.0/../../../../sparc-gaisler-elf/lib/mfix-b2bst/mfix-tn0013/flat/libc.a(lib_a-findfp.o)
 .debug_info    0x000000000000af82      0xb85 /home/fsw/rep/tasa/lib/bcc-2.2.3-gcc/bin/../lib/gcc/sparc-gaisler-elf/10.2.0/../../../../sparc-gaisler-elf/lib/mfix-b2bst/mfix-tn0013/flat/libc.a(lib_a-freer.o)
 .debug_info    0x000000000000bb07      0xb27 /home/fsw/rep/tasa/lib/bcc-2.2.3-gcc/bin/../lib/gcc/sparc-gaisler-elf/10.2.0/../../../../sparc-gaisler-elf/lib/mfix-b2bst/mfix-tn0013/flat/libc.a(lib_a-fvwrite.o)
 .debug_info    0x000000000000c62e      0x8db /home/fsw/rep/tasa/lib/bcc-2.2.3-gcc/bin/../lib/gcc/sparc-gaisler-elf/10.2.0/../../../../sparc-gaisler-elf/lib/mfix-b2bst/mfix-tn0013/flat/libc.a(lib_a-fwalk.o)
 .debug_info    0x000000000000cf09      0xb4b /home/fsw/rep/tasa/lib/bcc-2.2.3-gcc/bin/../lib/gcc/sparc-gaisler-elf/10.2.0/../../../../sparc-gaisler-elf/lib/mfix-b2bst/mfix-tn0013/flat/libc.a(lib_a-localeconv.o)
 .debug_info    0x000000000000da54      0xc44 /home/fsw/rep/tasa/lib/bcc-2.2.3-gcc/bin/../lib/gcc/sparc-gaisler-elf/10.2.0/../../../../sparc-gaisler-elf/lib/mfix-b2bst/mfix-tn0013/flat/libc.a(lib_a-makebuf.o)
 .debug_info    0x000000000000e698      0x80d /home/fsw/rep/tasa/lib/bcc-2.2.3-gcc/bin/../lib/gcc/sparc-gaisler-elf/10.2.0/../../../../sparc-gaisler-elf/lib/mfix-b2bst/mfix-tn0013/flat/libc.a(lib_a-malloc.o)
 .debug_info    0x000000000000eea5      0xcee /home/fsw/rep/tasa/lib/bcc-2.2.3-gcc/bin/../lib/gcc/sparc-gaisler-elf/10.2.0/../../../../sparc-gaisler-elf/lib/mfix-b2bst/mfix-tn0013/flat/libc.a(lib_a-mallocr.o)
 .debug_info    0x000000000000fb93      0x14e /home/fsw/rep/tasa/lib/bcc-2.2.3-gcc/bin/../lib/gcc/sparc-gaisler-elf/10.2.0/../../../../sparc-gaisler-elf/lib/mfix-b2bst/mfix-tn0013/flat/libc.a(lib_a-memchr.o)
 .debug_info    0x000000000000fce1      0x152 /home/fsw/rep/tasa/lib/bcc-2.2.3-gcc/bin/../lib/gcc/sparc-gaisler-elf/10.2.0/../../../../sparc-gaisler-elf/lib/mfix-b2bst/mfix-tn0013/flat/libc.a(lib_a-memmove.o)
 .debug_info    0x000000000000fe33      0x137 /home/fsw/rep/tasa/lib/bcc-2.2.3-gcc/bin/../lib/gcc/sparc-gaisler-elf/10.2.0/../../../../sparc-gaisler-elf/lib/mfix-b2bst/mfix-tn0013/flat/libc.a(lib_a-memset.o)
 .debug_info    0x000000000000ff6a      0x7aa /home/fsw/rep/tasa/lib/bcc-2.2.3-gcc/bin/../lib/gcc/sparc-gaisler-elf/10.2.0/../../../../sparc-gaisler-elf/lib/mfix-b2bst/mfix-tn0013/flat/libc.a(lib_a-mlock.o)
 .debug_info    0x0000000000010714     0x213c /home/fsw/rep/tasa/lib/bcc-2.2.3-gcc/bin/../lib/gcc/sparc-gaisler-elf/10.2.0/../../../../sparc-gaisler-elf/lib/mfix-b2bst/mfix-tn0013/flat/libc.a(lib_a-mprec.o)
 .debug_info    0x0000000000012850      0xa11 /home/fsw/rep/tasa/lib/bcc-2.2.3-gcc/bin/../lib/gcc/sparc-gaisler-elf/10.2.0/../../../../sparc-gaisler-elf/lib/mfix-b2bst/mfix-tn0013/flat/libc.a(lib_a-putc.o)
 .debug_info    0x0000000000013261      0xbfb /home/fsw/rep/tasa/lib/bcc-2.2.3-gcc/bin/../lib/gcc/sparc-gaisler-elf/10.2.0/../../../../sparc-gaisler-elf/lib/mfix-b2bst/mfix-tn0013/flat/libc.a(lib_a-reallocr.o)
 .debug_info    0x0000000000013e5c      0x1cf /home/fsw/rep/tasa/lib/bcc-2.2.3-gcc/bin/../lib/gcc/sparc-gaisler-elf/10.2.0/../../../../sparc-gaisler-elf/lib/mfix-b2bst/mfix-tn0013/flat/libc.a(lib_a-s_frexp.o)
 .debug_info    0x000000000001402b      0x802 /home/fsw/rep/tasa/lib/bcc-2.2.3-gcc/bin/../lib/gcc/sparc-gaisler-elf/10.2.0/../../../../sparc-gaisler-elf/lib/mfix-b2bst/mfix-tn0013/flat/libc.a(lib_a-sbrkr.o)
 .debug_info    0x000000000001482d      0xab8 /home/fsw/rep/tasa/lib/bcc-2.2.3-gcc/bin/../lib/gcc/sparc-gaisler-elf/10.2.0/../../../../sparc-gaisler-elf/lib/mfix-b2bst/mfix-tn0013/flat/libc.a(lib_a-stdio.o)
 .debug_info    0x00000000000152e5      0x153 /home/fsw/rep/tasa/lib/bcc-2.2.3-gcc/bin/../lib/gcc/sparc-gaisler-elf/10.2.0/../../../../sparc-gaisler-elf/lib/mfix-b2bst/mfix-tn0013/flat/libc.a(lib_a-strncpy.o)
 .debug_info    0x0000000000015438     0x23f4 /home/fsw/rep/tasa/lib/bcc-2.2.3-gcc/bin/../lib/gcc/sparc-gaisler-elf/10.2.0/../../../../sparc-gaisler-elf/lib/mfix-b2bst/mfix-tn0013/flat/libc.a(lib_a-vfiprintf.o)
 .debug_info    0x000000000001782c      0xa46 /home/fsw/rep/tasa/lib/bcc-2.2.3-gcc/bin/../lib/gcc/sparc-gaisler-elf/10.2.0/../../../../sparc-gaisler-elf/lib/mfix-b2bst/mfix-tn0013/flat/libc.a(lib_a-wbuf.o)
 .debug_info    0x0000000000018272      0x834 /home/fsw/rep/tasa/lib/bcc-2.2.3-gcc/bin/../lib/gcc/sparc-gaisler-elf/10.2.0/../../../../sparc-gaisler-elf/lib/mfix-b2bst/mfix-tn0013/flat/libc.a(lib_a-writer.o)
 .debug_info    0x0000000000018aa6      0x8f6 /home/fsw/rep/tasa/lib/bcc-2.2.3-gcc/bin/../lib/gcc/sparc-gaisler-elf/10.2.0/../../../../sparc-gaisler-elf/lib/mfix-b2bst/mfix-tn0013/flat/libc.a(lib_a-callocr.o)
 .debug_info    0x000000000001939c      0x7df /home/fsw/rep/tasa/lib/bcc-2.2.3-gcc/bin/../lib/gcc/sparc-gaisler-elf/10.2.0/../../../../sparc-gaisler-elf/lib/mfix-b2bst/mfix-tn0013/flat/libc.a(lib_a-closer.o)
 .debug_info    0x0000000000019b7b      0xa2b /home/fsw/rep/tasa/lib/bcc-2.2.3-gcc/bin/../lib/gcc/sparc-gaisler-elf/10.2.0/../../../../sparc-gaisler-elf/lib/mfix-b2bst/mfix-tn0013/flat/libc.a(lib_a-fclose.o)
 .debug_info    0x000000000001a5a6      0xb11 /home/fsw/rep/tasa/lib/bcc-2.2.3-gcc/bin/../lib/gcc/sparc-gaisler-elf/10.2.0/../../../../sparc-gaisler-elf/lib/mfix-b2bst/mfix-tn0013/flat/libc.a(lib_a-fputwc.o)
 .debug_info    0x000000000001b0b7      0x9df /home/fsw/rep/tasa/lib/bcc-2.2.3-gcc/bin/../lib/gcc/sparc-gaisler-elf/10.2.0/../../../../sparc-gaisler-elf/lib/mfix-b2bst/mfix-tn0013/flat/libc.a(lib_a-fstatr.o)
 .debug_info    0x000000000001ba96      0x7df /home/fsw/rep/tasa/lib/bcc-2.2.3-gcc/bin/../lib/gcc/sparc-gaisler-elf/10.2.0/../../../../sparc-gaisler-elf/lib/mfix-b2bst/mfix-tn0013/flat/libc.a(lib_a-isattyr.o)
 .debug_info    0x000000000001c275      0xcd7 /home/fsw/rep/tasa/lib/bcc-2.2.3-gcc/bin/../lib/gcc/sparc-gaisler-elf/10.2.0/../../../../sparc-gaisler-elf/lib/mfix-b2bst/mfix-tn0013/flat/libc.a(lib_a-locale.o)
 .debug_info    0x000000000001cf4c      0x815 /home/fsw/rep/tasa/lib/bcc-2.2.3-gcc/bin/../lib/gcc/sparc-gaisler-elf/10.2.0/../../../../sparc-gaisler-elf/lib/mfix-b2bst/mfix-tn0013/flat/libc.a(lib_a-lseekr.o)
 .debug_info    0x000000000001d761      0xb55 /home/fsw/rep/tasa/lib/bcc-2.2.3-gcc/bin/../lib/gcc/sparc-gaisler-elf/10.2.0/../../../../sparc-gaisler-elf/lib/mfix-b2bst/mfix-tn0013/flat/libc.a(lib_a-mbtowc_r.o)
 .debug_info    0x000000000001e2b6      0x82d /home/fsw/rep/tasa/lib/bcc-2.2.3-gcc/bin/../lib/gcc/sparc-gaisler-elf/10.2.0/../../../../sparc-gaisler-elf/lib/mfix-b2bst/mfix-tn0013/flat/libc.a(lib_a-readr.o)
 .debug_info    0x000000000001eae3      0xca4 /home/fsw/rep/tasa/lib/bcc-2.2.3-gcc/bin/../lib/gcc/sparc-gaisler-elf/10.2.0/../../../../sparc-gaisler-elf/lib/mfix-b2bst/mfix-tn0013/flat/libc.a(lib_a-reent.o)
 .debug_info    0x000000000001f787       0xf2 /home/fsw/rep/tasa/lib/bcc-2.2.3-gcc/bin/../lib/gcc/sparc-gaisler-elf/10.2.0/../../../../sparc-gaisler-elf/lib/mfix-b2bst/mfix-tn0013/flat/libc.a(lib_a-strcmp.o)
 .debug_info    0x000000000001f879      0xc02 /home/fsw/rep/tasa/lib/bcc-2.2.3-gcc/bin/../lib/gcc/sparc-gaisler-elf/10.2.0/../../../../sparc-gaisler-elf/lib/mfix-b2bst/mfix-tn0013/flat/libc.a(lib_a-wcrtomb.o)
 .debug_info    0x000000000002047b      0xb13 /home/fsw/rep/tasa/lib/bcc-2.2.3-gcc/bin/../lib/gcc/sparc-gaisler-elf/10.2.0/../../../../sparc-gaisler-elf/lib/mfix-b2bst/mfix-tn0013/flat/libc.a(lib_a-wctomb_r.o)
 .debug_info    0x0000000000020f8e       0xec /home/fsw/rep/tasa/lib/bcc-2.2.3-gcc/bin/../lib/gcc/sparc-gaisler-elf/10.2.0/../../../../sparc-gaisler-elf/lib/mfix-b2bst/mfix-tn0013/flat/libc.a(lib_a-ctype_.o)
 .debug_info    0x000000000002107a       0x26 /home/fsw/rep/tasa/lib/bcc-2.2.3-gcc/bin/../sparc-gaisler-elf/bsp/leon3/mfix-b2bst/mfix-tn0013/flat/libbcc.a(_exit.S.o)
 .debug_info    0x00000000000210a0      0x12f /home/fsw/rep/tasa/lib/bcc-2.2.3-gcc/bin/../sparc-gaisler-elf/bsp/leon3/mfix-b2bst/mfix-tn0013/flat/libbcc.a(read.c.o)
 .debug_info    0x00000000000211cf      0x138 /home/fsw/rep/tasa/lib/bcc-2.2.3-gcc/bin/../sparc-gaisler-elf/bsp/leon3/mfix-b2bst/mfix-tn0013/flat/libbcc.a(sbrk.c.o)
 .debug_info    0x0000000000021307       0xbd /home/fsw/rep/tasa/lib/bcc-2.2.3-gcc/bin/../sparc-gaisler-elf/bsp/leon3/mfix-b2bst/mfix-tn0013/flat/libbcc.a(heap.c.o)
 .debug_info    0x00000000000213c4      0x154 /home/fsw/rep/tasa/lib/bcc-2.2.3-gcc/bin/../sparc-gaisler-elf/bsp/leon3/mfix-b2bst/mfix-tn0013/flat/libbcc.a(write.c.o)
 .debug_info    0x0000000000021518       0x26 /home/fsw/rep/tasa/lib/bcc-2.2.3-gcc/bin/../sparc-gaisler-elf/bsp/leon3/mfix-b2bst/mfix-tn0013/flat/libbcc.a(stubs.S.o)
 .debug_info    0x000000000002153e      0x1a7 /home/fsw/rep/tasa/lib/bcc-2.2.3-gcc/bin/../sparc-gaisler-elf/bsp/leon3/mfix-b2bst/mfix-tn0013/flat/libbcc.a(con_apbuart.c.o)
 .debug_info    0x00000000000216e5       0x26 /home/fsw/rep/tasa/lib/bcc-2.2.3-gcc/bin/../lib/gcc/sparc-gaisler-elf/10.2.0/mfix-b2bst/mfix-tn0013/flat/libgcc.a(_mulsi3.o)
 .debug_info    0x000000000002170b       0x26 /home/fsw/rep/tasa/lib/bcc-2.2.3-gcc/bin/../lib/gcc/sparc-gaisler-elf/10.2.0/mfix-b2bst/mfix-tn0013/flat/libgcc.a(_divsi3.o)
 .debug_info    0x0000000000021731       0x26 /home/fsw/rep/tasa/lib/bcc-2.2.3-gcc/bin/../lib/gcc/sparc-gaisler-elf/10.2.0/mfix-b2bst/mfix-tn0013/flat/libgcc.a(_modsi3.o)
 .debug_info    0x0000000000021757      0x3ca /home/fsw/rep/tasa/lib/bcc-2.2.3-gcc/bin/../lib/gcc/sparc-gaisler-elf/10.2.0/mfix-b2bst/mfix-tn0013/flat/libgcc.a(_udivdi3.o)
 .debug_info    0x0000000000021b21      0x3dd /home/fsw/rep/tasa/lib/bcc-2.2.3-gcc/bin/../lib/gcc/sparc-gaisler-elf/10.2.0/mfix-b2bst/mfix-tn0013/flat/libgcc.a(_umoddi3.o)
 .debug_info    0x0000000000021efe       0xc9 /home/fsw/rep/tasa/lib/bcc-2.2.3-gcc/bin/../lib/gcc/sparc-gaisler-elf/10.2.0/mfix-b2bst/mfix-tn0013/flat/libgcc.a(_clz.o)

.debug_abbrev   0x0000000000000000     0x7b4b
 *(.debug_abbrev)
 .debug_abbrev  0x0000000000000000       0x14 /home/fsw/rep/tasa/lib/bcc-2.2.3-gcc/bin/../sparc-gaisler-elf/bsp/leon3/mfix-b2bst/mfix-tn0013/flat/trap_table_mvt.S.o
 .debug_abbrev  0x0000000000000014       0x14 /home/fsw/rep/tasa/lib/bcc-2.2.3-gcc/bin/../sparc-gaisler-elf/bsp/leon3/mfix-b2bst/mfix-tn0013/flat/crt0.S.o
 .debug_abbrev  0x0000000000000028       0xe8 /tmp/ccvGHBjf.o
 .debug_abbrev  0x0000000000000110       0x14 /home/fsw/rep/tasa/lib/bcc-2.2.3-gcc/bin/../sparc-gaisler-elf/bsp/leon3/mfix-b2bst/mfix-tn0013/flat/libbcc.a(reset_trap_mvt.S.o)
 .debug_abbrev  0x0000000000000124       0x14 /home/fsw/rep/tasa/lib/bcc-2.2.3-gcc/bin/../sparc-gaisler-elf/bsp/leon3/mfix-b2bst/mfix-tn0013/flat/libbcc.a(interrupt_trap_flat.S.o)
 .debug_abbrev  0x0000000000000138       0x14 /home/fsw/rep/tasa/lib/bcc-2.2.3-gcc/bin/../sparc-gaisler-elf/bsp/leon3/mfix-b2bst/mfix-tn0013/flat/libbcc.a(sw_trap_set_pil.S.o)
 .debug_abbrev  0x000000000000014c       0xad /home/fsw/rep/tasa/lib/bcc-2.2.3-gcc/bin/../sparc-gaisler-elf/bsp/leon3/mfix-b2bst/mfix-tn0013/flat/libbcc.a(isr.c.o)
 .debug_abbrev  0x00000000000001f9       0x85 /home/fsw/rep/tasa/lib/bcc-2.2.3-gcc/bin/../sparc-gaisler-elf/bsp/leon3/mfix-b2bst/mfix-tn0013/flat/libbcc.a(int_nest.c.o)
 .debug_abbrev  0x000000000000027e       0x14 /home/fsw/rep/tasa/lib/bcc-2.2.3-gcc/bin/../sparc-gaisler-elf/bsp/leon3/mfix-b2bst/mfix-tn0013/flat/libbcc.a(init.S.o)
 .debug_abbrev  0x0000000000000292       0x14 /home/fsw/rep/tasa/lib/bcc-2.2.3-gcc/bin/../sparc-gaisler-elf/bsp/leon3/mfix-b2bst/mfix-tn0013/flat/libbcc.a(leon_info.S.o)
 .debug_abbrev  0x00000000000002a6       0x14 /home/fsw/rep/tasa/lib/bcc-2.2.3-gcc/bin/../sparc-gaisler-elf/bsp/leon3/mfix-b2bst/mfix-tn0013/flat/libbcc.a(dwzero.S.o)
 .debug_abbrev  0x00000000000002ba       0x87 /home/fsw/rep/tasa/lib/bcc-2.2.3-gcc/bin/../sparc-gaisler-elf/bsp/leon3/mfix-b2bst/mfix-tn0013/flat/libbcc.a(copy_data.c.o)
 .debug_abbrev  0x0000000000000341       0x70 /home/fsw/rep/tasa/lib/bcc-2.2.3-gcc/bin/../sparc-gaisler-elf/bsp/leon3/mfix-b2bst/mfix-tn0013/flat/libbcc.a(argv.c.o)
 .debug_abbrev  0x00000000000003b1      0x132 /home/fsw/rep/tasa/lib/bcc-2.2.3-gcc/bin/../sparc-gaisler-elf/bsp/leon3/mfix-b2bst/mfix-tn0013/flat/libbcc.a(int_irqmp_get_source.c.o)
 .debug_abbrev  0x00000000000004e3      0x16d /home/fsw/rep/tasa/lib/bcc-2.2.3-gcc/bin/../sparc-gaisler-elf/bsp/leon3/mfix-b2bst/mfix-tn0013/flat/libbcc.a(int_irqmp_mp.c.o)
 .debug_abbrev  0x0000000000000650      0x216 /home/fsw/rep/tasa/lib/bcc-2.2.3-gcc/bin/../sparc-gaisler-elf/bsp/leon3/mfix-b2bst/mfix-tn0013/flat/libbcc.a(int_irqmp_init.c.o)
 .debug_abbrev  0x0000000000000866       0xc8 /home/fsw/rep/tasa/lib/bcc-2.2.3-gcc/bin/../sparc-gaisler-elf/bsp/leon3/mfix-b2bst/mfix-tn0013/flat/libbcc.a(con_apbuart_init.c.o)
 .debug_abbrev  0x000000000000092e      0x115 /home/fsw/rep/tasa/lib/bcc-2.2.3-gcc/bin/../sparc-gaisler-elf/bsp/leon3/mfix-b2bst/mfix-tn0013/flat/libbcc.a(timer_gptimer_init.c.o)
 .debug_abbrev  0x0000000000000a43      0x2e4 /home/fsw/rep/tasa/lib/bcc-2.2.3-gcc/bin/../sparc-gaisler-elf/bsp/leon3/mfix-b2bst/mfix-tn0013/flat/libbcc.a(ambapp.c.o)
 .debug_abbrev  0x0000000000000d27      0x12b /home/fsw/rep/tasa/lib/bcc-2.2.3-gcc/bin/../sparc-gaisler-elf/bsp/leon3/mfix-b2bst/mfix-tn0013/flat/libbcc.a(ambapp_findfirst_fn.c.o)
 .debug_abbrev  0x0000000000000e52       0x57 /home/fsw/rep/tasa/lib/bcc-2.2.3-gcc/bin/../sparc-gaisler-elf/bsp/leon3/mfix-b2bst/mfix-tn0013/flat/libbcc.a(int_irqmp_handle.c.o)
 .debug_abbrev  0x0000000000000ea9       0x57 /home/fsw/rep/tasa/lib/bcc-2.2.3-gcc/bin/../sparc-gaisler-elf/bsp/leon3/mfix-b2bst/mfix-tn0013/flat/libbcc.a(con_handle.c.o)
 .debug_abbrev  0x0000000000000f00       0x57 /home/fsw/rep/tasa/lib/bcc-2.2.3-gcc/bin/../sparc-gaisler-elf/bsp/leon3/mfix-b2bst/mfix-tn0013/flat/libbcc.a(timer_handle.c.o)
 .debug_abbrev  0x0000000000000f57       0xb7 /home/fsw/rep/tasa/lib/bcc-2.2.3-gcc/bin/../lib/gcc/sparc-gaisler-elf/10.2.0/../../../../sparc-gaisler-elf/lib/mfix-b2bst/mfix-tn0013/flat/libc.a(lib_a-atexit.o)
 .debug_abbrev  0x000000000000100e      0x1a5 /home/fsw/rep/tasa/lib/bcc-2.2.3-gcc/bin/../lib/gcc/sparc-gaisler-elf/10.2.0/../../../../sparc-gaisler-elf/lib/mfix-b2bst/mfix-tn0013/flat/libc.a(lib_a-exit.o)
 .debug_abbrev  0x00000000000011b3      0x151 /home/fsw/rep/tasa/lib/bcc-2.2.3-gcc/bin/../lib/gcc/sparc-gaisler-elf/10.2.0/../../../../sparc-gaisler-elf/lib/mfix-b2bst/mfix-tn0013/flat/libc.a(lib_a-impure.o)
 .debug_abbrev  0x0000000000001304       0xc7 /home/fsw/rep/tasa/lib/bcc-2.2.3-gcc/bin/../lib/gcc/sparc-gaisler-elf/10.2.0/../../../../sparc-gaisler-elf/lib/mfix-b2bst/mfix-tn0013/flat/libc.a(lib_a-memcpy.o)
 .debug_abbrev  0x00000000000013cb      0x21a /home/fsw/rep/tasa/lib/bcc-2.2.3-gcc/bin/../lib/gcc/sparc-gaisler-elf/10.2.0/../../../../sparc-gaisler-elf/lib/mfix-b2bst/mfix-tn0013/flat/libc.a(lib_a-printf.o)
 .debug_abbrev  0x00000000000015e5      0x215 /home/fsw/rep/tasa/lib/bcc-2.2.3-gcc/bin/../lib/gcc/sparc-gaisler-elf/10.2.0/../../../../sparc-gaisler-elf/lib/mfix-b2bst/mfix-tn0013/flat/libc.a(lib_a-putchar.o)
 .debug_abbrev  0x00000000000017fa      0x252 /home/fsw/rep/tasa/lib/bcc-2.2.3-gcc/bin/../lib/gcc/sparc-gaisler-elf/10.2.0/../../../../sparc-gaisler-elf/lib/mfix-b2bst/mfix-tn0013/flat/libc.a(lib_a-puts.o)
 .debug_abbrev  0x0000000000001a4c       0x8f /home/fsw/rep/tasa/lib/bcc-2.2.3-gcc/bin/../lib/gcc/sparc-gaisler-elf/10.2.0/../../../../sparc-gaisler-elf/lib/mfix-b2bst/mfix-tn0013/flat/libc.a(lib_a-strlen.o)
 .debug_abbrev  0x0000000000001adb      0x406 /home/fsw/rep/tasa/lib/bcc-2.2.3-gcc/bin/../lib/gcc/sparc-gaisler-elf/10.2.0/../../../../sparc-gaisler-elf/lib/mfix-b2bst/mfix-tn0013/flat/libc.a(lib_a-vfprintf.o)
 .debug_abbrev  0x0000000000001ee1      0x1d4 /home/fsw/rep/tasa/lib/bcc-2.2.3-gcc/bin/../lib/gcc/sparc-gaisler-elf/10.2.0/../../../../sparc-gaisler-elf/lib/mfix-b2bst/mfix-tn0013/flat/libc.a(lib_a-wsetup.o)
 .debug_abbrev  0x00000000000020b5      0x1b2 /home/fsw/rep/tasa/lib/bcc-2.2.3-gcc/bin/../lib/gcc/sparc-gaisler-elf/10.2.0/../../../../sparc-gaisler-elf/lib/mfix-b2bst/mfix-tn0013/flat/libc.a(lib_a-__atexit.o)
 .debug_abbrev  0x0000000000002267      0x1a0 /home/fsw/rep/tasa/lib/bcc-2.2.3-gcc/bin/../lib/gcc/sparc-gaisler-elf/10.2.0/../../../../sparc-gaisler-elf/lib/mfix-b2bst/mfix-tn0013/flat/libc.a(lib_a-__call_atexit.o)
 .debug_abbrev  0x0000000000002407      0x2d5 /home/fsw/rep/tasa/lib/bcc-2.2.3-gcc/bin/../lib/gcc/sparc-gaisler-elf/10.2.0/../../../../sparc-gaisler-elf/lib/mfix-b2bst/mfix-tn0013/flat/libc.a(lib_a-dtoa.o)
 .debug_abbrev  0x00000000000026dc      0x2cc /home/fsw/rep/tasa/lib/bcc-2.2.3-gcc/bin/../lib/gcc/sparc-gaisler-elf/10.2.0/../../../../sparc-gaisler-elf/lib/mfix-b2bst/mfix-tn0013/flat/libc.a(lib_a-fflush.o)
 .debug_abbrev  0x00000000000029a8      0x33b /home/fsw/rep/tasa/lib/bcc-2.2.3-gcc/bin/../lib/gcc/sparc-gaisler-elf/10.2.0/../../../../sparc-gaisler-elf/lib/mfix-b2bst/mfix-tn0013/flat/libc.a(lib_a-findfp.o)
 .debug_abbrev  0x0000000000002ce3      0x239 /home/fsw/rep/tasa/lib/bcc-2.2.3-gcc/bin/../lib/gcc/sparc-gaisler-elf/10.2.0/../../../../sparc-gaisler-elf/lib/mfix-b2bst/mfix-tn0013/flat/libc.a(lib_a-freer.o)
 .debug_abbrev  0x0000000000002f1c      0x20c /home/fsw/rep/tasa/lib/bcc-2.2.3-gcc/bin/../lib/gcc/sparc-gaisler-elf/10.2.0/../../../../sparc-gaisler-elf/lib/mfix-b2bst/mfix-tn0013/flat/libc.a(lib_a-fvwrite.o)
 .debug_abbrev  0x0000000000003128      0x197 /home/fsw/rep/tasa/lib/bcc-2.2.3-gcc/bin/../lib/gcc/sparc-gaisler-elf/10.2.0/../../../../sparc-gaisler-elf/lib/mfix-b2bst/mfix-tn0013/flat/libc.a(lib_a-fwalk.o)
 .debug_abbrev  0x00000000000032bf      0x24b /home/fsw/rep/tasa/lib/bcc-2.2.3-gcc/bin/../lib/gcc/sparc-gaisler-elf/10.2.0/../../../../sparc-gaisler-elf/lib/mfix-b2bst/mfix-tn0013/flat/libc.a(lib_a-localeconv.o)
 .debug_abbrev  0x000000000000350a      0x278 /home/fsw/rep/tasa/lib/bcc-2.2.3-gcc/bin/../lib/gcc/sparc-gaisler-elf/10.2.0/../../../../sparc-gaisler-elf/lib/mfix-b2bst/mfix-tn0013/flat/libc.a(lib_a-makebuf.o)
 .debug_abbrev  0x0000000000003782      0x1b6 /home/fsw/rep/tasa/lib/bcc-2.2.3-gcc/bin/../lib/gcc/sparc-gaisler-elf/10.2.0/../../../../sparc-gaisler-elf/lib/mfix-b2bst/mfix-tn0013/flat/libc.a(lib_a-malloc.o)
 .debug_abbrev  0x0000000000003938      0x27e /home/fsw/rep/tasa/lib/bcc-2.2.3-gcc/bin/../lib/gcc/sparc-gaisler-elf/10.2.0/../../../../sparc-gaisler-elf/lib/mfix-b2bst/mfix-tn0013/flat/libc.a(lib_a-mallocr.o)
 .debug_abbrev  0x0000000000003bb6       0xd4 /home/fsw/rep/tasa/lib/bcc-2.2.3-gcc/bin/../lib/gcc/sparc-gaisler-elf/10.2.0/../../../../sparc-gaisler-elf/lib/mfix-b2bst/mfix-tn0013/flat/libc.a(lib_a-memchr.o)
 .debug_abbrev  0x0000000000003c8a       0xc0 /home/fsw/rep/tasa/lib/bcc-2.2.3-gcc/bin/../lib/gcc/sparc-gaisler-elf/10.2.0/../../../../sparc-gaisler-elf/lib/mfix-b2bst/mfix-tn0013/flat/libc.a(lib_a-memmove.o)
 .debug_abbrev  0x0000000000003d4a       0xb4 /home/fsw/rep/tasa/lib/bcc-2.2.3-gcc/bin/../lib/gcc/sparc-gaisler-elf/10.2.0/../../../../sparc-gaisler-elf/lib/mfix-b2bst/mfix-tn0013/flat/libc.a(lib_a-memset.o)
 .debug_abbrev  0x0000000000003dfe      0x174 /home/fsw/rep/tasa/lib/bcc-2.2.3-gcc/bin/../lib/gcc/sparc-gaisler-elf/10.2.0/../../../../sparc-gaisler-elf/lib/mfix-b2bst/mfix-tn0013/flat/libc.a(lib_a-mlock.o)
 .debug_abbrev  0x0000000000003f72      0x42e /home/fsw/rep/tasa/lib/bcc-2.2.3-gcc/bin/../lib/gcc/sparc-gaisler-elf/10.2.0/../../../../sparc-gaisler-elf/lib/mfix-b2bst/mfix-tn0013/flat/libc.a(lib_a-mprec.o)
 .debug_abbrev  0x00000000000043a0      0x260 /home/fsw/rep/tasa/lib/bcc-2.2.3-gcc/bin/../lib/gcc/sparc-gaisler-elf/10.2.0/../../../../sparc-gaisler-elf/lib/mfix-b2bst/mfix-tn0013/flat/libc.a(lib_a-putc.o)
 .debug_abbrev  0x0000000000004600      0x224 /home/fsw/rep/tasa/lib/bcc-2.2.3-gcc/bin/../lib/gcc/sparc-gaisler-elf/10.2.0/../../../../sparc-gaisler-elf/lib/mfix-b2bst/mfix-tn0013/flat/libc.a(lib_a-reallocr.o)
 .debug_abbrev  0x0000000000004824      0x14b /home/fsw/rep/tasa/lib/bcc-2.2.3-gcc/bin/../lib/gcc/sparc-gaisler-elf/10.2.0/../../../../sparc-gaisler-elf/lib/mfix-b2bst/mfix-tn0013/flat/libc.a(lib_a-s_frexp.o)
 .debug_abbrev  0x000000000000496f      0x1d6 /home/fsw/rep/tasa/lib/bcc-2.2.3-gcc/bin/../lib/gcc/sparc-gaisler-elf/10.2.0/../../../../sparc-gaisler-elf/lib/mfix-b2bst/mfix-tn0013/flat/libc.a(lib_a-sbrkr.o)
 .debug_abbrev  0x0000000000004b45      0x208 /home/fsw/rep/tasa/lib/bcc-2.2.3-gcc/bin/../lib/gcc/sparc-gaisler-elf/10.2.0/../../../../sparc-gaisler-elf/lib/mfix-b2bst/mfix-tn0013/flat/libc.a(lib_a-stdio.o)
 .debug_abbrev  0x0000000000004d4d       0xbb /home/fsw/rep/tasa/lib/bcc-2.2.3-gcc/bin/../lib/gcc/sparc-gaisler-elf/10.2.0/../../../../sparc-gaisler-elf/lib/mfix-b2bst/mfix-tn0013/flat/libc.a(lib_a-strncpy.o)
 .debug_abbrev  0x0000000000004e08      0x3e5 /home/fsw/rep/tasa/lib/bcc-2.2.3-gcc/bin/../lib/gcc/sparc-gaisler-elf/10.2.0/../../../../sparc-gaisler-elf/lib/mfix-b2bst/mfix-tn0013/flat/libc.a(lib_a-vfiprintf.o)
 .debug_abbrev  0x00000000000051ed      0x25b /home/fsw/rep/tasa/lib/bcc-2.2.3-gcc/bin/../lib/gcc/sparc-gaisler-elf/10.2.0/../../../../sparc-gaisler-elf/lib/mfix-b2bst/mfix-tn0013/flat/libc.a(lib_a-wbuf.o)
 .debug_abbrev  0x0000000000005448      0x1b0 /home/fsw/rep/tasa/lib/bcc-2.2.3-gcc/bin/../lib/gcc/sparc-gaisler-elf/10.2.0/../../../../sparc-gaisler-elf/lib/mfix-b2bst/mfix-tn0013/flat/libc.a(lib_a-writer.o)
 .debug_abbrev  0x00000000000055f8      0x1f2 /home/fsw/rep/tasa/lib/bcc-2.2.3-gcc/bin/../lib/gcc/sparc-gaisler-elf/10.2.0/../../../../sparc-gaisler-elf/lib/mfix-b2bst/mfix-tn0013/flat/libc.a(lib_a-callocr.o)
 .debug_abbrev  0x00000000000057ea      0x1ab /home/fsw/rep/tasa/lib/bcc-2.2.3-gcc/bin/../lib/gcc/sparc-gaisler-elf/10.2.0/../../../../sparc-gaisler-elf/lib/mfix-b2bst/mfix-tn0013/flat/libc.a(lib_a-closer.o)
 .debug_abbrev  0x0000000000005995      0x27e /home/fsw/rep/tasa/lib/bcc-2.2.3-gcc/bin/../lib/gcc/sparc-gaisler-elf/10.2.0/../../../../sparc-gaisler-elf/lib/mfix-b2bst/mfix-tn0013/flat/libc.a(lib_a-fclose.o)
 .debug_abbrev  0x0000000000005c13      0x2c3 /home/fsw/rep/tasa/lib/bcc-2.2.3-gcc/bin/../lib/gcc/sparc-gaisler-elf/10.2.0/../../../../sparc-gaisler-elf/lib/mfix-b2bst/mfix-tn0013/flat/libc.a(lib_a-fputwc.o)
 .debug_abbrev  0x0000000000005ed6      0x1bf /home/fsw/rep/tasa/lib/bcc-2.2.3-gcc/bin/../lib/gcc/sparc-gaisler-elf/10.2.0/../../../../sparc-gaisler-elf/lib/mfix-b2bst/mfix-tn0013/flat/libc.a(lib_a-fstatr.o)
 .debug_abbrev  0x0000000000006095      0x1ab /home/fsw/rep/tasa/lib/bcc-2.2.3-gcc/bin/../lib/gcc/sparc-gaisler-elf/10.2.0/../../../../sparc-gaisler-elf/lib/mfix-b2bst/mfix-tn0013/flat/libc.a(lib_a-isattyr.o)
 .debug_abbrev  0x0000000000006240      0x2b6 /home/fsw/rep/tasa/lib/bcc-2.2.3-gcc/bin/../lib/gcc/sparc-gaisler-elf/10.2.0/../../../../sparc-gaisler-elf/lib/mfix-b2bst/mfix-tn0013/flat/libc.a(lib_a-locale.o)
 .debug_abbrev  0x00000000000064f6      0x1bf /home/fsw/rep/tasa/lib/bcc-2.2.3-gcc/bin/../lib/gcc/sparc-gaisler-elf/10.2.0/../../../../sparc-gaisler-elf/lib/mfix-b2bst/mfix-tn0013/flat/libc.a(lib_a-lseekr.o)
 .debug_abbrev  0x00000000000066b5      0x266 /home/fsw/rep/tasa/lib/bcc-2.2.3-gcc/bin/../lib/gcc/sparc-gaisler-elf/10.2.0/../../../../sparc-gaisler-elf/lib/mfix-b2bst/mfix-tn0013/flat/libc.a(lib_a-mbtowc_r.o)
 .debug_abbrev  0x000000000000691b      0x1ab /home/fsw/rep/tasa/lib/bcc-2.2.3-gcc/bin/../lib/gcc/sparc-gaisler-elf/10.2.0/../../../../sparc-gaisler-elf/lib/mfix-b2bst/mfix-tn0013/flat/libc.a(lib_a-readr.o)
 .debug_abbrev  0x0000000000006ac6      0x279 /home/fsw/rep/tasa/lib/bcc-2.2.3-gcc/bin/../lib/gcc/sparc-gaisler-elf/10.2.0/../../../../sparc-gaisler-elf/lib/mfix-b2bst/mfix-tn0013/flat/libc.a(lib_a-reent.o)
 .debug_abbrev  0x0000000000006d3f       0x80 /home/fsw/rep/tasa/lib/bcc-2.2.3-gcc/bin/../lib/gcc/sparc-gaisler-elf/10.2.0/../../../../sparc-gaisler-elf/lib/mfix-b2bst/mfix-tn0013/flat/libc.a(lib_a-strcmp.o)
 .debug_abbrev  0x0000000000006dbf      0x233 /home/fsw/rep/tasa/lib/bcc-2.2.3-gcc/bin/../lib/gcc/sparc-gaisler-elf/10.2.0/../../../../sparc-gaisler-elf/lib/mfix-b2bst/mfix-tn0013/flat/libc.a(lib_a-wcrtomb.o)
 .debug_abbrev  0x0000000000006ff2      0x24e /home/fsw/rep/tasa/lib/bcc-2.2.3-gcc/bin/../lib/gcc/sparc-gaisler-elf/10.2.0/../../../../sparc-gaisler-elf/lib/mfix-b2bst/mfix-tn0013/flat/libc.a(lib_a-wctomb_r.o)
 .debug_abbrev  0x0000000000007240       0x73 /home/fsw/rep/tasa/lib/bcc-2.2.3-gcc/bin/../lib/gcc/sparc-gaisler-elf/10.2.0/../../../../sparc-gaisler-elf/lib/mfix-b2bst/mfix-tn0013/flat/libc.a(lib_a-ctype_.o)
 .debug_abbrev  0x00000000000072b3       0x14 /home/fsw/rep/tasa/lib/bcc-2.2.3-gcc/bin/../sparc-gaisler-elf/bsp/leon3/mfix-b2bst/mfix-tn0013/flat/libbcc.a(_exit.S.o)
 .debug_abbrev  0x00000000000072c7       0xc8 /home/fsw/rep/tasa/lib/bcc-2.2.3-gcc/bin/../sparc-gaisler-elf/bsp/leon3/mfix-b2bst/mfix-tn0013/flat/libbcc.a(read.c.o)
 .debug_abbrev  0x000000000000738f       0xc9 /home/fsw/rep/tasa/lib/bcc-2.2.3-gcc/bin/../sparc-gaisler-elf/bsp/leon3/mfix-b2bst/mfix-tn0013/flat/libbcc.a(sbrk.c.o)
 .debug_abbrev  0x0000000000007458       0x60 /home/fsw/rep/tasa/lib/bcc-2.2.3-gcc/bin/../sparc-gaisler-elf/bsp/leon3/mfix-b2bst/mfix-tn0013/flat/libbcc.a(heap.c.o)
 .debug_abbrev  0x00000000000074b8      0x102 /home/fsw/rep/tasa/lib/bcc-2.2.3-gcc/bin/../sparc-gaisler-elf/bsp/leon3/mfix-b2bst/mfix-tn0013/flat/libbcc.a(write.c.o)
 .debug_abbrev  0x00000000000075ba       0x14 /home/fsw/rep/tasa/lib/bcc-2.2.3-gcc/bin/../sparc-gaisler-elf/bsp/leon3/mfix-b2bst/mfix-tn0013/flat/libbcc.a(stubs.S.o)
 .debug_abbrev  0x00000000000075ce      0x13f /home/fsw/rep/tasa/lib/bcc-2.2.3-gcc/bin/../sparc-gaisler-elf/bsp/leon3/mfix-b2bst/mfix-tn0013/flat/libbcc.a(con_apbuart.c.o)
 .debug_abbrev  0x000000000000770d       0x14 /home/fsw/rep/tasa/lib/bcc-2.2.3-gcc/bin/../lib/gcc/sparc-gaisler-elf/10.2.0/mfix-b2bst/mfix-tn0013/flat/libgcc.a(_mulsi3.o)
 .debug_abbrev  0x0000000000007721       0x14 /home/fsw/rep/tasa/lib/bcc-2.2.3-gcc/bin/../lib/gcc/sparc-gaisler-elf/10.2.0/mfix-b2bst/mfix-tn0013/flat/libgcc.a(_divsi3.o)
 .debug_abbrev  0x0000000000007735       0x14 /home/fsw/rep/tasa/lib/bcc-2.2.3-gcc/bin/../lib/gcc/sparc-gaisler-elf/10.2.0/mfix-b2bst/mfix-tn0013/flat/libgcc.a(_modsi3.o)
 .debug_abbrev  0x0000000000007749      0x1bf /home/fsw/rep/tasa/lib/bcc-2.2.3-gcc/bin/../lib/gcc/sparc-gaisler-elf/10.2.0/mfix-b2bst/mfix-tn0013/flat/libgcc.a(_udivdi3.o)
 .debug_abbrev  0x0000000000007908      0x1d3 /home/fsw/rep/tasa/lib/bcc-2.2.3-gcc/bin/../lib/gcc/sparc-gaisler-elf/10.2.0/mfix-b2bst/mfix-tn0013/flat/libgcc.a(_umoddi3.o)
 .debug_abbrev  0x0000000000007adb       0x70 /home/fsw/rep/tasa/lib/bcc-2.2.3-gcc/bin/../lib/gcc/sparc-gaisler-elf/10.2.0/mfix-b2bst/mfix-tn0013/flat/libgcc.a(_clz.o)

.debug_line     0x0000000000000000    0x138e0
 *(.debug_line)
 .debug_line    0x0000000000000000       0xda /home/fsw/rep/tasa/lib/bcc-2.2.3-gcc/bin/../sparc-gaisler-elf/bsp/leon3/mfix-b2bst/mfix-tn0013/flat/trap_table_mvt.S.o
 .debug_line    0x00000000000000da       0x88 /home/fsw/rep/tasa/lib/bcc-2.2.3-gcc/bin/../sparc-gaisler-elf/bsp/leon3/mfix-b2bst/mfix-tn0013/flat/crt0.S.o
 .debug_line    0x0000000000000162      0x1a2 /tmp/ccvGHBjf.o
 .debug_line    0x0000000000000304       0x8c /home/fsw/rep/tasa/lib/bcc-2.2.3-gcc/bin/../sparc-gaisler-elf/bsp/leon3/mfix-b2bst/mfix-tn0013/flat/libbcc.a(reset_trap_mvt.S.o)
 .debug_line    0x0000000000000390       0xc8 /home/fsw/rep/tasa/lib/bcc-2.2.3-gcc/bin/../sparc-gaisler-elf/bsp/leon3/mfix-b2bst/mfix-tn0013/flat/libbcc.a(interrupt_trap_flat.S.o)
 .debug_line    0x0000000000000458       0x75 /home/fsw/rep/tasa/lib/bcc-2.2.3-gcc/bin/../sparc-gaisler-elf/bsp/leon3/mfix-b2bst/mfix-tn0013/flat/libbcc.a(sw_trap_set_pil.S.o)
 .debug_line    0x00000000000004cd       0x93 /home/fsw/rep/tasa/lib/bcc-2.2.3-gcc/bin/../sparc-gaisler-elf/bsp/leon3/mfix-b2bst/mfix-tn0013/flat/libbcc.a(isr.c.o)
 .debug_line    0x0000000000000560      0x1c2 /home/fsw/rep/tasa/lib/bcc-2.2.3-gcc/bin/../sparc-gaisler-elf/bsp/leon3/mfix-b2bst/mfix-tn0013/flat/libbcc.a(int_nest.c.o)
 .debug_line    0x0000000000000722       0x5c /home/fsw/rep/tasa/lib/bcc-2.2.3-gcc/bin/../sparc-gaisler-elf/bsp/leon3/mfix-b2bst/mfix-tn0013/flat/libbcc.a(init.S.o)
 .debug_line    0x000000000000077e       0x84 /home/fsw/rep/tasa/lib/bcc-2.2.3-gcc/bin/../sparc-gaisler-elf/bsp/leon3/mfix-b2bst/mfix-tn0013/flat/libbcc.a(leon_info.S.o)
 .debug_line    0x0000000000000802       0x67 /home/fsw/rep/tasa/lib/bcc-2.2.3-gcc/bin/../sparc-gaisler-elf/bsp/leon3/mfix-b2bst/mfix-tn0013/flat/libbcc.a(dwzero.S.o)
 .debug_line    0x0000000000000869      0x1e2 /home/fsw/rep/tasa/lib/bcc-2.2.3-gcc/bin/../sparc-gaisler-elf/bsp/leon3/mfix-b2bst/mfix-tn0013/flat/libbcc.a(copy_data.c.o)
 .debug_line    0x0000000000000a4b       0x8c /home/fsw/rep/tasa/lib/bcc-2.2.3-gcc/bin/../sparc-gaisler-elf/bsp/leon3/mfix-b2bst/mfix-tn0013/flat/libbcc.a(argv.c.o)
 .debug_line    0x0000000000000ad7      0x2a3 /home/fsw/rep/tasa/lib/bcc-2.2.3-gcc/bin/../sparc-gaisler-elf/bsp/leon3/mfix-b2bst/mfix-tn0013/flat/libbcc.a(int_irqmp_get_source.c.o)
 .debug_line    0x0000000000000d7a      0x323 /home/fsw/rep/tasa/lib/bcc-2.2.3-gcc/bin/../sparc-gaisler-elf/bsp/leon3/mfix-b2bst/mfix-tn0013/flat/libbcc.a(int_irqmp_mp.c.o)
 .debug_line    0x000000000000109d      0x48b /home/fsw/rep/tasa/lib/bcc-2.2.3-gcc/bin/../sparc-gaisler-elf/bsp/leon3/mfix-b2bst/mfix-tn0013/flat/libbcc.a(int_irqmp_init.c.o)
 .debug_line    0x0000000000001528      0x256 /home/fsw/rep/tasa/lib/bcc-2.2.3-gcc/bin/../sparc-gaisler-elf/bsp/leon3/mfix-b2bst/mfix-tn0013/flat/libbcc.a(con_apbuart_init.c.o)
 .debug_line    0x000000000000177e      0x271 /home/fsw/rep/tasa/lib/bcc-2.2.3-gcc/bin/../sparc-gaisler-elf/bsp/leon3/mfix-b2bst/mfix-tn0013/flat/libbcc.a(timer_gptimer_init.c.o)
 .debug_line    0x00000000000019ef      0x8a5 /home/fsw/rep/tasa/lib/bcc-2.2.3-gcc/bin/../sparc-gaisler-elf/bsp/leon3/mfix-b2bst/mfix-tn0013/flat/libbcc.a(ambapp.c.o)
 .debug_line    0x0000000000002294      0x272 /home/fsw/rep/tasa/lib/bcc-2.2.3-gcc/bin/../sparc-gaisler-elf/bsp/leon3/mfix-b2bst/mfix-tn0013/flat/libbcc.a(ambapp_findfirst_fn.c.o)
 .debug_line    0x0000000000002506      0x201 /home/fsw/rep/tasa/lib/bcc-2.2.3-gcc/bin/../sparc-gaisler-elf/bsp/leon3/mfix-b2bst/mfix-tn0013/flat/libbcc.a(int_irqmp_handle.c.o)
 .debug_line    0x0000000000002707      0x1f9 /home/fsw/rep/tasa/lib/bcc-2.2.3-gcc/bin/../sparc-gaisler-elf/bsp/leon3/mfix-b2bst/mfix-tn0013/flat/libbcc.a(con_handle.c.o)
 .debug_line    0x0000000000002900      0x1f9 /home/fsw/rep/tasa/lib/bcc-2.2.3-gcc/bin/../sparc-gaisler-elf/bsp/leon3/mfix-b2bst/mfix-tn0013/flat/libbcc.a(timer_handle.c.o)
 .debug_line    0x0000000000002af9       0xd3 /home/fsw/rep/tasa/lib/bcc-2.2.3-gcc/bin/../lib/gcc/sparc-gaisler-elf/10.2.0/../../../../sparc-gaisler-elf/lib/mfix-b2bst/mfix-tn0013/flat/libc.a(lib_a-atexit.o)
 .debug_line    0x0000000000002bcc      0x202 /home/fsw/rep/tasa/lib/bcc-2.2.3-gcc/bin/../lib/gcc/sparc-gaisler-elf/10.2.0/../../../../sparc-gaisler-elf/lib/mfix-b2bst/mfix-tn0013/flat/libc.a(lib_a-exit.o)
 .debug_line    0x0000000000002dce      0x16e /home/fsw/rep/tasa/lib/bcc-2.2.3-gcc/bin/../lib/gcc/sparc-gaisler-elf/10.2.0/../../../../sparc-gaisler-elf/lib/mfix-b2bst/mfix-tn0013/flat/libc.a(lib_a-impure.o)
 .debug_line    0x0000000000002f3c      0x275 /home/fsw/rep/tasa/lib/bcc-2.2.3-gcc/bin/../lib/gcc/sparc-gaisler-elf/10.2.0/../../../../sparc-gaisler-elf/lib/mfix-b2bst/mfix-tn0013/flat/libc.a(lib_a-memcpy.o)
 .debug_line    0x00000000000031b1      0x32d /home/fsw/rep/tasa/lib/bcc-2.2.3-gcc/bin/../lib/gcc/sparc-gaisler-elf/10.2.0/../../../../sparc-gaisler-elf/lib/mfix-b2bst/mfix-tn0013/flat/libc.a(lib_a-printf.o)
 .debug_line    0x00000000000034de      0x2b8 /home/fsw/rep/tasa/lib/bcc-2.2.3-gcc/bin/../lib/gcc/sparc-gaisler-elf/10.2.0/../../../../sparc-gaisler-elf/lib/mfix-b2bst/mfix-tn0013/flat/libc.a(lib_a-putchar.o)
 .debug_line    0x0000000000003796      0x3ef /home/fsw/rep/tasa/lib/bcc-2.2.3-gcc/bin/../lib/gcc/sparc-gaisler-elf/10.2.0/../../../../sparc-gaisler-elf/lib/mfix-b2bst/mfix-tn0013/flat/libc.a(lib_a-puts.o)
 .debug_line    0x0000000000003b85      0x1e9 /home/fsw/rep/tasa/lib/bcc-2.2.3-gcc/bin/../lib/gcc/sparc-gaisler-elf/10.2.0/../../../../sparc-gaisler-elf/lib/mfix-b2bst/mfix-tn0013/flat/libc.a(lib_a-strlen.o)
 .debug_line    0x0000000000003d6e     0x1f6e /home/fsw/rep/tasa/lib/bcc-2.2.3-gcc/bin/../lib/gcc/sparc-gaisler-elf/10.2.0/../../../../sparc-gaisler-elf/lib/mfix-b2bst/mfix-tn0013/flat/libc.a(lib_a-vfprintf.o)
 .debug_line    0x0000000000005cdc      0x3b3 /home/fsw/rep/tasa/lib/bcc-2.2.3-gcc/bin/../lib/gcc/sparc-gaisler-elf/10.2.0/../../../../sparc-gaisler-elf/lib/mfix-b2bst/mfix-tn0013/flat/libc.a(lib_a-wsetup.o)
 .debug_line    0x000000000000608f      0x238 /home/fsw/rep/tasa/lib/bcc-2.2.3-gcc/bin/../lib/gcc/sparc-gaisler-elf/10.2.0/../../../../sparc-gaisler-elf/lib/mfix-b2bst/mfix-tn0013/flat/libc.a(lib_a-__atexit.o)
 .debug_line    0x00000000000062c7      0x330 /home/fsw/rep/tasa/lib/bcc-2.2.3-gcc/bin/../lib/gcc/sparc-gaisler-elf/10.2.0/../../../../sparc-gaisler-elf/lib/mfix-b2bst/mfix-tn0013/flat/libc.a(lib_a-__call_atexit.o)
 .debug_line    0x00000000000065f7     0x13ed /home/fsw/rep/tasa/lib/bcc-2.2.3-gcc/bin/../lib/gcc/sparc-gaisler-elf/10.2.0/../../../../sparc-gaisler-elf/lib/mfix-b2bst/mfix-tn0013/flat/libc.a(lib_a-dtoa.o)
 .debug_line    0x00000000000079e4      0x52a /home/fsw/rep/tasa/lib/bcc-2.2.3-gcc/bin/../lib/gcc/sparc-gaisler-elf/10.2.0/../../../../sparc-gaisler-elf/lib/mfix-b2bst/mfix-tn0013/flat/libc.a(lib_a-fflush.o)
 .debug_line    0x0000000000007f0e      0x59b /home/fsw/rep/tasa/lib/bcc-2.2.3-gcc/bin/../lib/gcc/sparc-gaisler-elf/10.2.0/../../../../sparc-gaisler-elf/lib/mfix-b2bst/mfix-tn0013/flat/libc.a(lib_a-findfp.o)
 .debug_line    0x00000000000084a9      0x564 /home/fsw/rep/tasa/lib/bcc-2.2.3-gcc/bin/../lib/gcc/sparc-gaisler-elf/10.2.0/../../../../sparc-gaisler-elf/lib/mfix-b2bst/mfix-tn0013/flat/libc.a(lib_a-freer.o)
 .debug_line    0x0000000000008a0d      0x661 /home/fsw/rep/tasa/lib/bcc-2.2.3-gcc/bin/../lib/gcc/sparc-gaisler-elf/10.2.0/../../../../sparc-gaisler-elf/lib/mfix-b2bst/mfix-tn0013/flat/libc.a(lib_a-fvwrite.o)
 .debug_line    0x000000000000906e      0x2f9 /home/fsw/rep/tasa/lib/bcc-2.2.3-gcc/bin/../lib/gcc/sparc-gaisler-elf/10.2.0/../../../../sparc-gaisler-elf/lib/mfix-b2bst/mfix-tn0013/flat/libc.a(lib_a-fwalk.o)
 .debug_line    0x0000000000009367      0x2bd /home/fsw/rep/tasa/lib/bcc-2.2.3-gcc/bin/../lib/gcc/sparc-gaisler-elf/10.2.0/../../../../sparc-gaisler-elf/lib/mfix-b2bst/mfix-tn0013/flat/libc.a(lib_a-localeconv.o)
 .debug_line    0x0000000000009624      0x3e5 /home/fsw/rep/tasa/lib/bcc-2.2.3-gcc/bin/../lib/gcc/sparc-gaisler-elf/10.2.0/../../../../sparc-gaisler-elf/lib/mfix-b2bst/mfix-tn0013/flat/libc.a(lib_a-makebuf.o)
 .debug_line    0x0000000000009a09      0x1ea /home/fsw/rep/tasa/lib/bcc-2.2.3-gcc/bin/../lib/gcc/sparc-gaisler-elf/10.2.0/../../../../sparc-gaisler-elf/lib/mfix-b2bst/mfix-tn0013/flat/libc.a(lib_a-malloc.o)
 .debug_line    0x0000000000009bf3      0x837 /home/fsw/rep/tasa/lib/bcc-2.2.3-gcc/bin/../lib/gcc/sparc-gaisler-elf/10.2.0/../../../../sparc-gaisler-elf/lib/mfix-b2bst/mfix-tn0013/flat/libc.a(lib_a-mallocr.o)
 .debug_line    0x000000000000a42a      0x230 /home/fsw/rep/tasa/lib/bcc-2.2.3-gcc/bin/../lib/gcc/sparc-gaisler-elf/10.2.0/../../../../sparc-gaisler-elf/lib/mfix-b2bst/mfix-tn0013/flat/libc.a(lib_a-memchr.o)
 .debug_line    0x000000000000a65a      0x2ca /home/fsw/rep/tasa/lib/bcc-2.2.3-gcc/bin/../lib/gcc/sparc-gaisler-elf/10.2.0/../../../../sparc-gaisler-elf/lib/mfix-b2bst/mfix-tn0013/flat/libc.a(lib_a-memmove.o)
 .debug_line    0x000000000000a924      0x28d /home/fsw/rep/tasa/lib/bcc-2.2.3-gcc/bin/../lib/gcc/sparc-gaisler-elf/10.2.0/../../../../sparc-gaisler-elf/lib/mfix-b2bst/mfix-tn0013/flat/libc.a(lib_a-memset.o)
 .debug_line    0x000000000000abb1      0x180 /home/fsw/rep/tasa/lib/bcc-2.2.3-gcc/bin/../lib/gcc/sparc-gaisler-elf/10.2.0/../../../../sparc-gaisler-elf/lib/mfix-b2bst/mfix-tn0013/flat/libc.a(lib_a-mlock.o)
 .debug_line    0x000000000000ad31     0x1b72 /home/fsw/rep/tasa/lib/bcc-2.2.3-gcc/bin/../lib/gcc/sparc-gaisler-elf/10.2.0/../../../../sparc-gaisler-elf/lib/mfix-b2bst/mfix-tn0013/flat/libc.a(lib_a-mprec.o)
 .debug_line    0x000000000000c8a3      0x398 /home/fsw/rep/tasa/lib/bcc-2.2.3-gcc/bin/../lib/gcc/sparc-gaisler-elf/10.2.0/../../../../sparc-gaisler-elf/lib/mfix-b2bst/mfix-tn0013/flat/libc.a(lib_a-putc.o)
 .debug_line    0x000000000000cc3b      0x6fd /home/fsw/rep/tasa/lib/bcc-2.2.3-gcc/bin/../lib/gcc/sparc-gaisler-elf/10.2.0/../../../../sparc-gaisler-elf/lib/mfix-b2bst/mfix-tn0013/flat/libc.a(lib_a-reallocr.o)
 .debug_line    0x000000000000d338      0x1fb /home/fsw/rep/tasa/lib/bcc-2.2.3-gcc/bin/../lib/gcc/sparc-gaisler-elf/10.2.0/../../../../sparc-gaisler-elf/lib/mfix-b2bst/mfix-tn0013/flat/libc.a(lib_a-s_frexp.o)
 .debug_line    0x000000000000d533      0x1f7 /home/fsw/rep/tasa/lib/bcc-2.2.3-gcc/bin/../lib/gcc/sparc-gaisler-elf/10.2.0/../../../../sparc-gaisler-elf/lib/mfix-b2bst/mfix-tn0013/flat/libc.a(lib_a-sbrkr.o)
 .debug_line    0x000000000000d72a      0x2dd /home/fsw/rep/tasa/lib/bcc-2.2.3-gcc/bin/../lib/gcc/sparc-gaisler-elf/10.2.0/../../../../sparc-gaisler-elf/lib/mfix-b2bst/mfix-tn0013/flat/libc.a(lib_a-stdio.o)
 .debug_line    0x000000000000da07      0x2a1 /home/fsw/rep/tasa/lib/bcc-2.2.3-gcc/bin/../lib/gcc/sparc-gaisler-elf/10.2.0/../../../../sparc-gaisler-elf/lib/mfix-b2bst/mfix-tn0013/flat/libc.a(lib_a-strncpy.o)
 .debug_line    0x000000000000dca8     0x1afa /home/fsw/rep/tasa/lib/bcc-2.2.3-gcc/bin/../lib/gcc/sparc-gaisler-elf/10.2.0/../../../../sparc-gaisler-elf/lib/mfix-b2bst/mfix-tn0013/flat/libc.a(lib_a-vfiprintf.o)
 .debug_line    0x000000000000f7a2      0x454 /home/fsw/rep/tasa/lib/bcc-2.2.3-gcc/bin/../lib/gcc/sparc-gaisler-elf/10.2.0/../../../../sparc-gaisler-elf/lib/mfix-b2bst/mfix-tn0013/flat/libc.a(lib_a-wbuf.o)
 .debug_line    0x000000000000fbf6      0x20b /home/fsw/rep/tasa/lib/bcc-2.2.3-gcc/bin/../lib/gcc/sparc-gaisler-elf/10.2.0/../../../../sparc-gaisler-elf/lib/mfix-b2bst/mfix-tn0013/flat/libc.a(lib_a-writer.o)
 .debug_line    0x000000000000fe01      0x26b /home/fsw/rep/tasa/lib/bcc-2.2.3-gcc/bin/../lib/gcc/sparc-gaisler-elf/10.2.0/../../../../sparc-gaisler-elf/lib/mfix-b2bst/mfix-tn0013/flat/libc.a(lib_a-callocr.o)
 .debug_line    0x000000000001006c      0x203 /home/fsw/rep/tasa/lib/bcc-2.2.3-gcc/bin/../lib/gcc/sparc-gaisler-elf/10.2.0/../../../../sparc-gaisler-elf/lib/mfix-b2bst/mfix-tn0013/flat/libc.a(lib_a-closer.o)
 .debug_line    0x000000000001026f      0x40e /home/fsw/rep/tasa/lib/bcc-2.2.3-gcc/bin/../lib/gcc/sparc-gaisler-elf/10.2.0/../../../../sparc-gaisler-elf/lib/mfix-b2bst/mfix-tn0013/flat/libc.a(lib_a-fclose.o)
 .debug_line    0x000000000001067d      0x393 /home/fsw/rep/tasa/lib/bcc-2.2.3-gcc/bin/../lib/gcc/sparc-gaisler-elf/10.2.0/../../../../sparc-gaisler-elf/lib/mfix-b2bst/mfix-tn0013/flat/libc.a(lib_a-fputwc.o)
 .debug_line    0x0000000000010a10      0x21f /home/fsw/rep/tasa/lib/bcc-2.2.3-gcc/bin/../lib/gcc/sparc-gaisler-elf/10.2.0/../../../../sparc-gaisler-elf/lib/mfix-b2bst/mfix-tn0013/flat/libc.a(lib_a-fstatr.o)
 .debug_line    0x0000000000010c2f      0x204 /home/fsw/rep/tasa/lib/bcc-2.2.3-gcc/bin/../lib/gcc/sparc-gaisler-elf/10.2.0/../../../../sparc-gaisler-elf/lib/mfix-b2bst/mfix-tn0013/flat/libc.a(lib_a-isattyr.o)
 .debug_line    0x0000000000010e33      0x353 /home/fsw/rep/tasa/lib/bcc-2.2.3-gcc/bin/../lib/gcc/sparc-gaisler-elf/10.2.0/../../../../sparc-gaisler-elf/lib/mfix-b2bst/mfix-tn0013/flat/libc.a(lib_a-locale.o)
 .debug_line    0x0000000000011186      0x20b /home/fsw/rep/tasa/lib/bcc-2.2.3-gcc/bin/../lib/gcc/sparc-gaisler-elf/10.2.0/../../../../sparc-gaisler-elf/lib/mfix-b2bst/mfix-tn0013/flat/libc.a(lib_a-lseekr.o)
 .debug_line    0x0000000000011391      0x2c3 /home/fsw/rep/tasa/lib/bcc-2.2.3-gcc/bin/../lib/gcc/sparc-gaisler-elf/10.2.0/../../../../sparc-gaisler-elf/lib/mfix-b2bst/mfix-tn0013/flat/libc.a(lib_a-mbtowc_r.o)
 .debug_line    0x0000000000011654      0x20a /home/fsw/rep/tasa/lib/bcc-2.2.3-gcc/bin/../lib/gcc/sparc-gaisler-elf/10.2.0/../../../../sparc-gaisler-elf/lib/mfix-b2bst/mfix-tn0013/flat/libc.a(lib_a-readr.o)
 .debug_line    0x000000000001185e      0x427 /home/fsw/rep/tasa/lib/bcc-2.2.3-gcc/bin/../lib/gcc/sparc-gaisler-elf/10.2.0/../../../../sparc-gaisler-elf/lib/mfix-b2bst/mfix-tn0013/flat/libc.a(lib_a-reent.o)
 .debug_line    0x0000000000011c85      0x149 /home/fsw/rep/tasa/lib/bcc-2.2.3-gcc/bin/../lib/gcc/sparc-gaisler-elf/10.2.0/../../../../sparc-gaisler-elf/lib/mfix-b2bst/mfix-tn0013/flat/libc.a(lib_a-strcmp.o)
 .debug_line    0x0000000000011dce      0x372 /home/fsw/rep/tasa/lib/bcc-2.2.3-gcc/bin/../lib/gcc/sparc-gaisler-elf/10.2.0/../../../../sparc-gaisler-elf/lib/mfix-b2bst/mfix-tn0013/flat/libc.a(lib_a-wcrtomb.o)
 .debug_line    0x0000000000012140      0x2ab /home/fsw/rep/tasa/lib/bcc-2.2.3-gcc/bin/../lib/gcc/sparc-gaisler-elf/10.2.0/../../../../sparc-gaisler-elf/lib/mfix-b2bst/mfix-tn0013/flat/libc.a(lib_a-wctomb_r.o)
 .debug_line    0x00000000000123eb       0xb6 /home/fsw/rep/tasa/lib/bcc-2.2.3-gcc/bin/../lib/gcc/sparc-gaisler-elf/10.2.0/../../../../sparc-gaisler-elf/lib/mfix-b2bst/mfix-tn0013/flat/libc.a(lib_a-ctype_.o)
 .debug_line    0x00000000000124a1       0x5f /home/fsw/rep/tasa/lib/bcc-2.2.3-gcc/bin/../sparc-gaisler-elf/bsp/leon3/mfix-b2bst/mfix-tn0013/flat/libbcc.a(_exit.S.o)
 .debug_line    0x0000000000012500      0x254 /home/fsw/rep/tasa/lib/bcc-2.2.3-gcc/bin/../sparc-gaisler-elf/bsp/leon3/mfix-b2bst/mfix-tn0013/flat/libbcc.a(read.c.o)
 .debug_line    0x0000000000012754      0x325 /home/fsw/rep/tasa/lib/bcc-2.2.3-gcc/bin/../sparc-gaisler-elf/bsp/leon3/mfix-b2bst/mfix-tn0013/flat/libbcc.a(sbrk.c.o)
 .debug_line    0x0000000000012a79      0x1eb /home/fsw/rep/tasa/lib/bcc-2.2.3-gcc/bin/../sparc-gaisler-elf/bsp/leon3/mfix-b2bst/mfix-tn0013/flat/libbcc.a(heap.c.o)
 .debug_line    0x0000000000012c64      0x275 /home/fsw/rep/tasa/lib/bcc-2.2.3-gcc/bin/../sparc-gaisler-elf/bsp/leon3/mfix-b2bst/mfix-tn0013/flat/libbcc.a(write.c.o)
 .debug_line    0x0000000000012ed9       0x68 /home/fsw/rep/tasa/lib/bcc-2.2.3-gcc/bin/../sparc-gaisler-elf/bsp/leon3/mfix-b2bst/mfix-tn0013/flat/libbcc.a(stubs.S.o)
 .debug_line    0x0000000000012f41      0x325 /home/fsw/rep/tasa/lib/bcc-2.2.3-gcc/bin/../sparc-gaisler-elf/bsp/leon3/mfix-b2bst/mfix-tn0013/flat/libbcc.a(con_apbuart.c.o)
 .debug_line    0x0000000000013266       0xaa /home/fsw/rep/tasa/lib/bcc-2.2.3-gcc/bin/../lib/gcc/sparc-gaisler-elf/10.2.0/mfix-b2bst/mfix-tn0013/flat/libgcc.a(_mulsi3.o)
 .debug_line    0x0000000000013310      0x11f /home/fsw/rep/tasa/lib/bcc-2.2.3-gcc/bin/../lib/gcc/sparc-gaisler-elf/10.2.0/mfix-b2bst/mfix-tn0013/flat/libgcc.a(_divsi3.o)
 .debug_line    0x000000000001342f      0x11f /home/fsw/rep/tasa/lib/bcc-2.2.3-gcc/bin/../lib/gcc/sparc-gaisler-elf/10.2.0/mfix-b2bst/mfix-tn0013/flat/libgcc.a(_modsi3.o)
 .debug_line    0x000000000001354e      0x181 /home/fsw/rep/tasa/lib/bcc-2.2.3-gcc/bin/../lib/gcc/sparc-gaisler-elf/10.2.0/mfix-b2bst/mfix-tn0013/flat/libgcc.a(_udivdi3.o)
 .debug_line    0x00000000000136cf      0x1ae /home/fsw/rep/tasa/lib/bcc-2.2.3-gcc/bin/../lib/gcc/sparc-gaisler-elf/10.2.0/mfix-b2bst/mfix-tn0013/flat/libgcc.a(_umoddi3.o)
 .debug_line    0x000000000001387d       0x63 /home/fsw/rep/tasa/lib/bcc-2.2.3-gcc/bin/../lib/gcc/sparc-gaisler-elf/10.2.0/mfix-b2bst/mfix-tn0013/flat/libgcc.a(_clz.o)

.debug_frame    0x0000000000000000     0x13e0
 *(.debug_frame)
 .debug_frame   0x0000000000000000       0x34 /tmp/ccvGHBjf.o
 .debug_frame   0x0000000000000034       0x2c /home/fsw/rep/tasa/lib/bcc-2.2.3-gcc/bin/../sparc-gaisler-elf/bsp/leon3/mfix-b2bst/mfix-tn0013/flat/libbcc.a(copy_data.c.o)
 .debug_frame   0x0000000000000060       0x20 /home/fsw/rep/tasa/lib/bcc-2.2.3-gcc/bin/../sparc-gaisler-elf/bsp/leon3/mfix-b2bst/mfix-tn0013/flat/libbcc.a(int_irqmp_get_source.c.o)
 .debug_frame   0x0000000000000080       0x40 /home/fsw/rep/tasa/lib/bcc-2.2.3-gcc/bin/../sparc-gaisler-elf/bsp/leon3/mfix-b2bst/mfix-tn0013/flat/libbcc.a(int_irqmp_mp.c.o)
 .debug_frame   0x00000000000000c0       0x30 /home/fsw/rep/tasa/lib/bcc-2.2.3-gcc/bin/../sparc-gaisler-elf/bsp/leon3/mfix-b2bst/mfix-tn0013/flat/libbcc.a(int_irqmp_init.c.o)
 .debug_frame   0x00000000000000f0       0x30 /home/fsw/rep/tasa/lib/bcc-2.2.3-gcc/bin/../sparc-gaisler-elf/bsp/leon3/mfix-b2bst/mfix-tn0013/flat/libbcc.a(con_apbuart_init.c.o)
 .debug_frame   0x0000000000000120       0x30 /home/fsw/rep/tasa/lib/bcc-2.2.3-gcc/bin/../sparc-gaisler-elf/bsp/leon3/mfix-b2bst/mfix-tn0013/flat/libbcc.a(timer_gptimer_init.c.o)
 .debug_frame   0x0000000000000150       0xa0 /home/fsw/rep/tasa/lib/bcc-2.2.3-gcc/bin/../sparc-gaisler-elf/bsp/leon3/mfix-b2bst/mfix-tn0013/flat/libbcc.a(ambapp.c.o)
 .debug_frame   0x00000000000001f0       0x30 /home/fsw/rep/tasa/lib/bcc-2.2.3-gcc/bin/../sparc-gaisler-elf/bsp/leon3/mfix-b2bst/mfix-tn0013/flat/libbcc.a(ambapp_findfirst_fn.c.o)
 .debug_frame   0x0000000000000220       0x20 /home/fsw/rep/tasa/lib/bcc-2.2.3-gcc/bin/../lib/gcc/sparc-gaisler-elf/10.2.0/../../../../sparc-gaisler-elf/lib/mfix-b2bst/mfix-tn0013/flat/libc.a(lib_a-atexit.o)
 .debug_frame   0x0000000000000240       0x30 /home/fsw/rep/tasa/lib/bcc-2.2.3-gcc/bin/../lib/gcc/sparc-gaisler-elf/10.2.0/../../../../sparc-gaisler-elf/lib/mfix-b2bst/mfix-tn0013/flat/libc.a(lib_a-exit.o)
 .debug_frame   0x0000000000000270       0x2c /home/fsw/rep/tasa/lib/bcc-2.2.3-gcc/bin/../lib/gcc/sparc-gaisler-elf/10.2.0/../../../../sparc-gaisler-elf/lib/mfix-b2bst/mfix-tn0013/flat/libc.a(lib_a-memcpy.o)
 .debug_frame   0x000000000000029c       0x4c /home/fsw/rep/tasa/lib/bcc-2.2.3-gcc/bin/../lib/gcc/sparc-gaisler-elf/10.2.0/../../../../sparc-gaisler-elf/lib/mfix-b2bst/mfix-tn0013/flat/libc.a(lib_a-printf.o)
 .debug_frame   0x00000000000002e8       0x4c /home/fsw/rep/tasa/lib/bcc-2.2.3-gcc/bin/../lib/gcc/sparc-gaisler-elf/10.2.0/../../../../sparc-gaisler-elf/lib/mfix-b2bst/mfix-tn0013/flat/libc.a(lib_a-putchar.o)
 .debug_frame   0x0000000000000334       0x58 /home/fsw/rep/tasa/lib/bcc-2.2.3-gcc/bin/../lib/gcc/sparc-gaisler-elf/10.2.0/../../../../sparc-gaisler-elf/lib/mfix-b2bst/mfix-tn0013/flat/libc.a(lib_a-puts.o)
 .debug_frame   0x000000000000038c       0x2c /home/fsw/rep/tasa/lib/bcc-2.2.3-gcc/bin/../lib/gcc/sparc-gaisler-elf/10.2.0/../../../../sparc-gaisler-elf/lib/mfix-b2bst/mfix-tn0013/flat/libc.a(lib_a-strlen.o)
 .debug_frame   0x00000000000003b8       0x8c /home/fsw/rep/tasa/lib/bcc-2.2.3-gcc/bin/../lib/gcc/sparc-gaisler-elf/10.2.0/../../../../sparc-gaisler-elf/lib/mfix-b2bst/mfix-tn0013/flat/libc.a(lib_a-vfprintf.o)
 .debug_frame   0x0000000000000444       0x34 /home/fsw/rep/tasa/lib/bcc-2.2.3-gcc/bin/../lib/gcc/sparc-gaisler-elf/10.2.0/../../../../sparc-gaisler-elf/lib/mfix-b2bst/mfix-tn0013/flat/libc.a(lib_a-wsetup.o)
 .debug_frame   0x0000000000000478       0x40 /home/fsw/rep/tasa/lib/bcc-2.2.3-gcc/bin/../lib/gcc/sparc-gaisler-elf/10.2.0/../../../../sparc-gaisler-elf/lib/mfix-b2bst/mfix-tn0013/flat/libc.a(lib_a-__atexit.o)
 .debug_frame   0x00000000000004b8       0x54 /home/fsw/rep/tasa/lib/bcc-2.2.3-gcc/bin/../lib/gcc/sparc-gaisler-elf/10.2.0/../../../../sparc-gaisler-elf/lib/mfix-b2bst/mfix-tn0013/flat/libc.a(lib_a-__call_atexit.o)
 .debug_frame   0x000000000000050c       0xa0 /home/fsw/rep/tasa/lib/bcc-2.2.3-gcc/bin/../lib/gcc/sparc-gaisler-elf/10.2.0/../../../../sparc-gaisler-elf/lib/mfix-b2bst/mfix-tn0013/flat/libc.a(lib_a-dtoa.o)
 .debug_frame   0x00000000000005ac       0x74 /home/fsw/rep/tasa/lib/bcc-2.2.3-gcc/bin/../lib/gcc/sparc-gaisler-elf/10.2.0/../../../../sparc-gaisler-elf/lib/mfix-b2bst/mfix-tn0013/flat/libc.a(lib_a-fflush.o)
 .debug_frame   0x0000000000000620       0xb8 /home/fsw/rep/tasa/lib/bcc-2.2.3-gcc/bin/../lib/gcc/sparc-gaisler-elf/10.2.0/../../../../sparc-gaisler-elf/lib/mfix-b2bst/mfix-tn0013/flat/libc.a(lib_a-findfp.o)
 .debug_frame   0x00000000000006d8       0x58 /home/fsw/rep/tasa/lib/bcc-2.2.3-gcc/bin/../lib/gcc/sparc-gaisler-elf/10.2.0/../../../../sparc-gaisler-elf/lib/mfix-b2bst/mfix-tn0013/flat/libc.a(lib_a-freer.o)
 .debug_frame   0x0000000000000730       0x4c /home/fsw/rep/tasa/lib/bcc-2.2.3-gcc/bin/../lib/gcc/sparc-gaisler-elf/10.2.0/../../../../sparc-gaisler-elf/lib/mfix-b2bst/mfix-tn0013/flat/libc.a(lib_a-fvwrite.o)
 .debug_frame   0x000000000000077c       0x6c /home/fsw/rep/tasa/lib/bcc-2.2.3-gcc/bin/../lib/gcc/sparc-gaisler-elf/10.2.0/../../../../sparc-gaisler-elf/lib/mfix-b2bst/mfix-tn0013/flat/libc.a(lib_a-fwalk.o)
 .debug_frame   0x00000000000007e8       0x40 /home/fsw/rep/tasa/lib/bcc-2.2.3-gcc/bin/../lib/gcc/sparc-gaisler-elf/10.2.0/../../../../sparc-gaisler-elf/lib/mfix-b2bst/mfix-tn0013/flat/libc.a(lib_a-localeconv.o)
 .debug_frame   0x0000000000000828       0x60 /home/fsw/rep/tasa/lib/bcc-2.2.3-gcc/bin/../lib/gcc/sparc-gaisler-elf/10.2.0/../../../../sparc-gaisler-elf/lib/mfix-b2bst/mfix-tn0013/flat/libc.a(lib_a-makebuf.o)
 .debug_frame   0x0000000000000888       0x30 /home/fsw/rep/tasa/lib/bcc-2.2.3-gcc/bin/../lib/gcc/sparc-gaisler-elf/10.2.0/../../../../sparc-gaisler-elf/lib/mfix-b2bst/mfix-tn0013/flat/libc.a(lib_a-malloc.o)
 .debug_frame   0x00000000000008b8       0x48 /home/fsw/rep/tasa/lib/bcc-2.2.3-gcc/bin/../lib/gcc/sparc-gaisler-elf/10.2.0/../../../../sparc-gaisler-elf/lib/mfix-b2bst/mfix-tn0013/flat/libc.a(lib_a-mallocr.o)
 .debug_frame   0x0000000000000900       0x2c /home/fsw/rep/tasa/lib/bcc-2.2.3-gcc/bin/../lib/gcc/sparc-gaisler-elf/10.2.0/../../../../sparc-gaisler-elf/lib/mfix-b2bst/mfix-tn0013/flat/libc.a(lib_a-memchr.o)
 .debug_frame   0x000000000000092c       0x2c /home/fsw/rep/tasa/lib/bcc-2.2.3-gcc/bin/../lib/gcc/sparc-gaisler-elf/10.2.0/../../../../sparc-gaisler-elf/lib/mfix-b2bst/mfix-tn0013/flat/libc.a(lib_a-memmove.o)
 .debug_frame   0x0000000000000958       0x2c /home/fsw/rep/tasa/lib/bcc-2.2.3-gcc/bin/../lib/gcc/sparc-gaisler-elf/10.2.0/../../../../sparc-gaisler-elf/lib/mfix-b2bst/mfix-tn0013/flat/libc.a(lib_a-memset.o)
 .debug_frame   0x0000000000000984       0x30 /home/fsw/rep/tasa/lib/bcc-2.2.3-gcc/bin/../lib/gcc/sparc-gaisler-elf/10.2.0/../../../../sparc-gaisler-elf/lib/mfix-b2bst/mfix-tn0013/flat/libc.a(lib_a-mlock.o)
 .debug_frame   0x00000000000009b4      0x2b0 /home/fsw/rep/tasa/lib/bcc-2.2.3-gcc/bin/../lib/gcc/sparc-gaisler-elf/10.2.0/../../../../sparc-gaisler-elf/lib/mfix-b2bst/mfix-tn0013/flat/libc.a(lib_a-mprec.o)
 .debug_frame   0x0000000000000c64       0x50 /home/fsw/rep/tasa/lib/bcc-2.2.3-gcc/bin/../lib/gcc/sparc-gaisler-elf/10.2.0/../../../../sparc-gaisler-elf/lib/mfix-b2bst/mfix-tn0013/flat/libc.a(lib_a-putc.o)
 .debug_frame   0x0000000000000cb4       0x44 /home/fsw/rep/tasa/lib/bcc-2.2.3-gcc/bin/../lib/gcc/sparc-gaisler-elf/10.2.0/../../../../sparc-gaisler-elf/lib/mfix-b2bst/mfix-tn0013/flat/libc.a(lib_a-reallocr.o)
 .debug_frame   0x0000000000000cf8       0x2c /home/fsw/rep/tasa/lib/bcc-2.2.3-gcc/bin/../lib/gcc/sparc-gaisler-elf/10.2.0/../../../../sparc-gaisler-elf/lib/mfix-b2bst/mfix-tn0013/flat/libc.a(lib_a-s_frexp.o)
 .debug_frame   0x0000000000000d24       0x30 /home/fsw/rep/tasa/lib/bcc-2.2.3-gcc/bin/../lib/gcc/sparc-gaisler-elf/10.2.0/../../../../sparc-gaisler-elf/lib/mfix-b2bst/mfix-tn0013/flat/libc.a(lib_a-sbrkr.o)
 .debug_frame   0x0000000000000d54       0x98 /home/fsw/rep/tasa/lib/bcc-2.2.3-gcc/bin/../lib/gcc/sparc-gaisler-elf/10.2.0/../../../../sparc-gaisler-elf/lib/mfix-b2bst/mfix-tn0013/flat/libc.a(lib_a-stdio.o)
 .debug_frame   0x0000000000000dec       0x2c /home/fsw/rep/tasa/lib/bcc-2.2.3-gcc/bin/../lib/gcc/sparc-gaisler-elf/10.2.0/../../../../sparc-gaisler-elf/lib/mfix-b2bst/mfix-tn0013/flat/libc.a(lib_a-strncpy.o)
 .debug_frame   0x0000000000000e18       0xc0 /home/fsw/rep/tasa/lib/bcc-2.2.3-gcc/bin/../lib/gcc/sparc-gaisler-elf/10.2.0/../../../../sparc-gaisler-elf/lib/mfix-b2bst/mfix-tn0013/flat/libc.a(lib_a-vfiprintf.o)
 .debug_frame   0x0000000000000ed8       0x60 /home/fsw/rep/tasa/lib/bcc-2.2.3-gcc/bin/../lib/gcc/sparc-gaisler-elf/10.2.0/../../../../sparc-gaisler-elf/lib/mfix-b2bst/mfix-tn0013/flat/libc.a(lib_a-wbuf.o)
 .debug_frame   0x0000000000000f38       0x30 /home/fsw/rep/tasa/lib/bcc-2.2.3-gcc/bin/../lib/gcc/sparc-gaisler-elf/10.2.0/../../../../sparc-gaisler-elf/lib/mfix-b2bst/mfix-tn0013/flat/libc.a(lib_a-writer.o)
 .debug_frame   0x0000000000000f68       0x30 /home/fsw/rep/tasa/lib/bcc-2.2.3-gcc/bin/../lib/gcc/sparc-gaisler-elf/10.2.0/../../../../sparc-gaisler-elf/lib/mfix-b2bst/mfix-tn0013/flat/libc.a(lib_a-callocr.o)
 .debug_frame   0x0000000000000f98       0x30 /home/fsw/rep/tasa/lib/bcc-2.2.3-gcc/bin/../lib/gcc/sparc-gaisler-elf/10.2.0/../../../../sparc-gaisler-elf/lib/mfix-b2bst/mfix-tn0013/flat/libc.a(lib_a-closer.o)
 .debug_frame   0x0000000000000fc8       0x58 /home/fsw/rep/tasa/lib/bcc-2.2.3-gcc/bin/../lib/gcc/sparc-gaisler-elf/10.2.0/../../../../sparc-gaisler-elf/lib/mfix-b2bst/mfix-tn0013/flat/libc.a(lib_a-fclose.o)
 .debug_frame   0x0000000000001020       0x60 /home/fsw/rep/tasa/lib/bcc-2.2.3-gcc/bin/../lib/gcc/sparc-gaisler-elf/10.2.0/../../../../sparc-gaisler-elf/lib/mfix-b2bst/mfix-tn0013/flat/libc.a(lib_a-fputwc.o)
 .debug_frame   0x0000000000001080       0x30 /home/fsw/rep/tasa/lib/bcc-2.2.3-gcc/bin/../lib/gcc/sparc-gaisler-elf/10.2.0/../../../../sparc-gaisler-elf/lib/mfix-b2bst/mfix-tn0013/flat/libc.a(lib_a-fstatr.o)
 .debug_frame   0x00000000000010b0       0x30 /home/fsw/rep/tasa/lib/bcc-2.2.3-gcc/bin/../lib/gcc/sparc-gaisler-elf/10.2.0/../../../../sparc-gaisler-elf/lib/mfix-b2bst/mfix-tn0013/flat/libc.a(lib_a-isattyr.o)
 .debug_frame   0x00000000000010e0       0x80 /home/fsw/rep/tasa/lib/bcc-2.2.3-gcc/bin/../lib/gcc/sparc-gaisler-elf/10.2.0/../../../../sparc-gaisler-elf/lib/mfix-b2bst/mfix-tn0013/flat/libc.a(lib_a-locale.o)
 .debug_frame   0x0000000000001160       0x30 /home/fsw/rep/tasa/lib/bcc-2.2.3-gcc/bin/../lib/gcc/sparc-gaisler-elf/10.2.0/../../../../sparc-gaisler-elf/lib/mfix-b2bst/mfix-tn0013/flat/libc.a(lib_a-lseekr.o)
 .debug_frame   0x0000000000001190       0x40 /home/fsw/rep/tasa/lib/bcc-2.2.3-gcc/bin/../lib/gcc/sparc-gaisler-elf/10.2.0/../../../../sparc-gaisler-elf/lib/mfix-b2bst/mfix-tn0013/flat/libc.a(lib_a-mbtowc_r.o)
 .debug_frame   0x00000000000011d0       0x30 /home/fsw/rep/tasa/lib/bcc-2.2.3-gcc/bin/../lib/gcc/sparc-gaisler-elf/10.2.0/../../../../sparc-gaisler-elf/lib/mfix-b2bst/mfix-tn0013/flat/libc.a(lib_a-readr.o)
 .debug_frame   0x0000000000001200       0x70 /home/fsw/rep/tasa/lib/bcc-2.2.3-gcc/bin/../lib/gcc/sparc-gaisler-elf/10.2.0/../../../../sparc-gaisler-elf/lib/mfix-b2bst/mfix-tn0013/flat/libc.a(lib_a-reent.o)
 .debug_frame   0x0000000000001270       0x20 /home/fsw/rep/tasa/lib/bcc-2.2.3-gcc/bin/../lib/gcc/sparc-gaisler-elf/10.2.0/../../../../sparc-gaisler-elf/lib/mfix-b2bst/mfix-tn0013/flat/libc.a(lib_a-strcmp.o)
 .debug_frame   0x0000000000001290       0x50 /home/fsw/rep/tasa/lib/bcc-2.2.3-gcc/bin/../lib/gcc/sparc-gaisler-elf/10.2.0/../../../../sparc-gaisler-elf/lib/mfix-b2bst/mfix-tn0013/flat/libc.a(lib_a-wcrtomb.o)
 .debug_frame   0x00000000000012e0       0x3c /home/fsw/rep/tasa/lib/bcc-2.2.3-gcc/bin/../lib/gcc/sparc-gaisler-elf/10.2.0/../../../../sparc-gaisler-elf/lib/mfix-b2bst/mfix-tn0013/flat/libc.a(lib_a-wctomb_r.o)
 .debug_frame   0x000000000000131c       0x34 /home/fsw/rep/tasa/lib/bcc-2.2.3-gcc/bin/../sparc-gaisler-elf/bsp/leon3/mfix-b2bst/mfix-tn0013/flat/libbcc.a(read.c.o)
 .debug_frame   0x0000000000001350       0x2c /home/fsw/rep/tasa/lib/bcc-2.2.3-gcc/bin/../sparc-gaisler-elf/bsp/leon3/mfix-b2bst/mfix-tn0013/flat/libbcc.a(sbrk.c.o)
 .debug_frame   0x000000000000137c       0x34 /home/fsw/rep/tasa/lib/bcc-2.2.3-gcc/bin/../sparc-gaisler-elf/bsp/leon3/mfix-b2bst/mfix-tn0013/flat/libbcc.a(write.c.o)
 .debug_frame   0x00000000000013b0       0x30 /home/fsw/rep/tasa/lib/bcc-2.2.3-gcc/bin/../sparc-gaisler-elf/bsp/leon3/mfix-b2bst/mfix-tn0013/flat/libbcc.a(con_apbuart.c.o)

.debug_str      0x0000000000000000     0x3379
 *(.debug_str)
 .debug_str     0x0000000000000000       0xb3 /home/fsw/rep/tasa/lib/bcc-2.2.3-gcc/bin/../sparc-gaisler-elf/bsp/leon3/mfix-b2bst/mfix-tn0013/flat/trap_table_mvt.S.o
 .debug_str     0x00000000000000b3       0x2c /home/fsw/rep/tasa/lib/bcc-2.2.3-gcc/bin/../sparc-gaisler-elf/bsp/leon3/mfix-b2bst/mfix-tn0013/flat/crt0.S.o
                                         0xa4 (size before relaxing)
 .debug_str     0x00000000000000df      0x130 /tmp/ccvGHBjf.o
                                        0x188 (size before relaxing)
 .debug_str     0x000000000000020f       0x3b /home/fsw/rep/tasa/lib/bcc-2.2.3-gcc/bin/../sparc-gaisler-elf/bsp/leon3/mfix-b2bst/mfix-tn0013/flat/libbcc.a(reset_trap_mvt.S.o)
                                         0xb3 (size before relaxing)
 .debug_str     0x000000000000024a       0x40 /home/fsw/rep/tasa/lib/bcc-2.2.3-gcc/bin/../sparc-gaisler-elf/bsp/leon3/mfix-b2bst/mfix-tn0013/flat/libbcc.a(interrupt_trap_flat.S.o)
                                         0xb8 (size before relaxing)
 .debug_str     0x000000000000028a       0x3c /home/fsw/rep/tasa/lib/bcc-2.2.3-gcc/bin/../sparc-gaisler-elf/bsp/leon3/mfix-b2bst/mfix-tn0013/flat/libbcc.a(sw_trap_set_pil.S.o)
                                         0xb4 (size before relaxing)
 .debug_str     0x00000000000002c6       0xae /home/fsw/rep/tasa/lib/bcc-2.2.3-gcc/bin/../sparc-gaisler-elf/bsp/leon3/mfix-b2bst/mfix-tn0013/flat/libbcc.a(isr.c.o)
                                        0x1aa (size before relaxing)
 .debug_str     0x0000000000000374       0x77 /home/fsw/rep/tasa/lib/bcc-2.2.3-gcc/bin/../sparc-gaisler-elf/bsp/leon3/mfix-b2bst/mfix-tn0013/flat/libbcc.a(int_nest.c.o)
                                        0x1c4 (size before relaxing)
 .debug_str     0x00000000000003eb       0x2c /home/fsw/rep/tasa/lib/bcc-2.2.3-gcc/bin/../sparc-gaisler-elf/bsp/leon3/mfix-b2bst/mfix-tn0013/flat/libbcc.a(init.S.o)
                                         0xa4 (size before relaxing)
 .debug_str     0x0000000000000417       0x31 /home/fsw/rep/tasa/lib/bcc-2.2.3-gcc/bin/../sparc-gaisler-elf/bsp/leon3/mfix-b2bst/mfix-tn0013/flat/libbcc.a(leon_info.S.o)
                                         0xa9 (size before relaxing)
 .debug_str     0x0000000000000448       0x2e /home/fsw/rep/tasa/lib/bcc-2.2.3-gcc/bin/../sparc-gaisler-elf/bsp/leon3/mfix-b2bst/mfix-tn0013/flat/libbcc.a(dwzero.S.o)
                                         0xa6 (size before relaxing)
 .debug_str     0x0000000000000476       0x75 /home/fsw/rep/tasa/lib/bcc-2.2.3-gcc/bin/../sparc-gaisler-elf/bsp/leon3/mfix-b2bst/mfix-tn0013/flat/libbcc.a(copy_data.c.o)
                                        0x1c3 (size before relaxing)
 .debug_str     0x00000000000004eb       0x4e /home/fsw/rep/tasa/lib/bcc-2.2.3-gcc/bin/../sparc-gaisler-elf/bsp/leon3/mfix-b2bst/mfix-tn0013/flat/libbcc.a(argv.c.o)
                                        0x198 (size before relaxing)
 .debug_str     0x0000000000000539      0x17b /home/fsw/rep/tasa/lib/bcc-2.2.3-gcc/bin/../sparc-gaisler-elf/bsp/leon3/mfix-b2bst/mfix-tn0013/flat/libbcc.a(int_irqmp_get_source.c.o)
                                        0x2e5 (size before relaxing)
 .debug_str     0x00000000000006b4       0x93 /home/fsw/rep/tasa/lib/bcc-2.2.3-gcc/bin/../sparc-gaisler-elf/bsp/leon3/mfix-b2bst/mfix-tn0013/flat/libbcc.a(int_irqmp_mp.c.o)
                                        0x322 (size before relaxing)
 .debug_str     0x0000000000000747       0xe9 /home/fsw/rep/tasa/lib/bcc-2.2.3-gcc/bin/../sparc-gaisler-elf/bsp/leon3/mfix-b2bst/mfix-tn0013/flat/libbcc.a(int_irqmp_init.c.o)
                                        0x3b7 (size before relaxing)
 .debug_str     0x0000000000000830       0x60 /home/fsw/rep/tasa/lib/bcc-2.2.3-gcc/bin/../sparc-gaisler-elf/bsp/leon3/mfix-b2bst/mfix-tn0013/flat/libbcc.a(con_apbuart_init.c.o)
                                        0x1f4 (size before relaxing)
 .debug_str     0x0000000000000890       0x7a /home/fsw/rep/tasa/lib/bcc-2.2.3-gcc/bin/../sparc-gaisler-elf/bsp/leon3/mfix-b2bst/mfix-tn0013/flat/libbcc.a(timer_gptimer_init.c.o)
                                        0x258 (size before relaxing)
 .debug_str     0x000000000000090a       0xfc /home/fsw/rep/tasa/lib/bcc-2.2.3-gcc/bin/../sparc-gaisler-elf/bsp/leon3/mfix-b2bst/mfix-tn0013/flat/libbcc.a(ambapp.c.o)
                                        0x2cb (size before relaxing)
 .debug_str     0x0000000000000a06       0x6b /home/fsw/rep/tasa/lib/bcc-2.2.3-gcc/bin/../sparc-gaisler-elf/bsp/leon3/mfix-b2bst/mfix-tn0013/flat/libbcc.a(ambapp_findfirst_fn.c.o)
                                        0x266 (size before relaxing)
 .debug_str     0x0000000000000a71       0x42 /home/fsw/rep/tasa/lib/bcc-2.2.3-gcc/bin/../sparc-gaisler-elf/bsp/leon3/mfix-b2bst/mfix-tn0013/flat/libbcc.a(int_irqmp_handle.c.o)
                                        0x1ee (size before relaxing)
 .debug_str     0x0000000000000ab3       0x3a /home/fsw/rep/tasa/lib/bcc-2.2.3-gcc/bin/../sparc-gaisler-elf/bsp/leon3/mfix-b2bst/mfix-tn0013/flat/libbcc.a(con_handle.c.o)
                                        0x1a9 (size before relaxing)
 .debug_str     0x0000000000000aed       0x3a /home/fsw/rep/tasa/lib/bcc-2.2.3-gcc/bin/../sparc-gaisler-elf/bsp/leon3/mfix-b2bst/mfix-tn0013/flat/libbcc.a(timer_handle.c.o)
                                        0x1c1 (size before relaxing)
 .debug_str     0x0000000000000b27      0x1ae /home/fsw/rep/tasa/lib/bcc-2.2.3-gcc/bin/../lib/gcc/sparc-gaisler-elf/10.2.0/../../../../sparc-gaisler-elf/lib/mfix-b2bst/mfix-tn0013/flat/libc.a(lib_a-atexit.o)
                                        0x23e (size before relaxing)
 .debug_str     0x0000000000000cd5      0x341 /home/fsw/rep/tasa/lib/bcc-2.2.3-gcc/bin/../lib/gcc/sparc-gaisler-elf/10.2.0/../../../../sparc-gaisler-elf/lib/mfix-b2bst/mfix-tn0013/flat/libc.a(lib_a-exit.o)
                                        0x55c (size before relaxing)
 .debug_str     0x0000000000001016      0x142 /home/fsw/rep/tasa/lib/bcc-2.2.3-gcc/bin/../lib/gcc/sparc-gaisler-elf/10.2.0/../../../../sparc-gaisler-elf/lib/mfix-b2bst/mfix-tn0013/flat/libc.a(lib_a-impure.o)
                                        0x592 (size before relaxing)
 .debug_str     0x0000000000001158      0x120 /home/fsw/rep/tasa/lib/bcc-2.2.3-gcc/bin/../lib/gcc/sparc-gaisler-elf/10.2.0/../../../../sparc-gaisler-elf/lib/mfix-b2bst/mfix-tn0013/flat/libc.a(lib_a-memcpy.o)
                                        0x228 (size before relaxing)
 .debug_str     0x0000000000001278      0x136 /home/fsw/rep/tasa/lib/bcc-2.2.3-gcc/bin/../lib/gcc/sparc-gaisler-elf/10.2.0/../../../../sparc-gaisler-elf/lib/mfix-b2bst/mfix-tn0013/flat/libc.a(lib_a-printf.o)
                                        0x582 (size before relaxing)
 .debug_str     0x00000000000013ae       0x57 /home/fsw/rep/tasa/lib/bcc-2.2.3-gcc/bin/../lib/gcc/sparc-gaisler-elf/10.2.0/../../../../sparc-gaisler-elf/lib/mfix-b2bst/mfix-tn0013/flat/libc.a(lib_a-putchar.o)
                                        0x55e (size before relaxing)
 .debug_str     0x0000000000001405       0xa9 /home/fsw/rep/tasa/lib/bcc-2.2.3-gcc/bin/../lib/gcc/sparc-gaisler-elf/10.2.0/../../../../sparc-gaisler-elf/lib/mfix-b2bst/mfix-tn0013/flat/libc.a(lib_a-puts.o)
                                        0x5f9 (size before relaxing)
 .debug_str     0x00000000000014ae       0x51 /home/fsw/rep/tasa/lib/bcc-2.2.3-gcc/bin/../lib/gcc/sparc-gaisler-elf/10.2.0/../../../../sparc-gaisler-elf/lib/mfix-b2bst/mfix-tn0013/flat/libc.a(lib_a-strlen.o)
                                        0x214 (size before relaxing)
 .debug_str     0x00000000000014ff      0x3ae /home/fsw/rep/tasa/lib/bcc-2.2.3-gcc/bin/../lib/gcc/sparc-gaisler-elf/10.2.0/../../../../sparc-gaisler-elf/lib/mfix-b2bst/mfix-tn0013/flat/libc.a(lib_a-vfprintf.o)
                                        0xa4c (size before relaxing)
 .debug_str     0x00000000000018ad       0x50 /home/fsw/rep/tasa/lib/bcc-2.2.3-gcc/bin/../lib/gcc/sparc-gaisler-elf/10.2.0/../../../../sparc-gaisler-elf/lib/mfix-b2bst/mfix-tn0013/flat/libc.a(lib_a-wsetup.o)
                                        0x5b1 (size before relaxing)
 .debug_str     0x00000000000018fd       0xbc /home/fsw/rep/tasa/lib/bcc-2.2.3-gcc/bin/../lib/gcc/sparc-gaisler-elf/10.2.0/../../../../sparc-gaisler-elf/lib/mfix-b2bst/mfix-tn0013/flat/libc.a(lib_a-__atexit.o)
                                        0x2dd (size before relaxing)
 .debug_str     0x00000000000019b9       0x67 /home/fsw/rep/tasa/lib/bcc-2.2.3-gcc/bin/../lib/gcc/sparc-gaisler-elf/10.2.0/../../../../sparc-gaisler-elf/lib/mfix-b2bst/mfix-tn0013/flat/libc.a(lib_a-__call_atexit.o)
                                        0x2aa (size before relaxing)
 .debug_str     0x0000000000001a20      0x167 /home/fsw/rep/tasa/lib/bcc-2.2.3-gcc/bin/../lib/gcc/sparc-gaisler-elf/10.2.0/../../../../sparc-gaisler-elf/lib/mfix-b2bst/mfix-tn0013/flat/libc.a(lib_a-dtoa.o)
                                        0x891 (size before relaxing)
 .debug_str     0x0000000000001b87       0x73 /home/fsw/rep/tasa/lib/bcc-2.2.3-gcc/bin/../lib/gcc/sparc-gaisler-elf/10.2.0/../../../../sparc-gaisler-elf/lib/mfix-b2bst/mfix-tn0013/flat/libc.a(lib_a-fflush.o)
                                        0x5f2 (size before relaxing)
 .debug_str     0x0000000000001bfa      0x105 /home/fsw/rep/tasa/lib/bcc-2.2.3-gcc/bin/../lib/gcc/sparc-gaisler-elf/10.2.0/../../../../sparc-gaisler-elf/lib/mfix-b2bst/mfix-tn0013/flat/libc.a(lib_a-findfp.o)
                                        0x688 (size before relaxing)
 .debug_str     0x0000000000001cff      0x182 /home/fsw/rep/tasa/lib/bcc-2.2.3-gcc/bin/../lib/gcc/sparc-gaisler-elf/10.2.0/../../../../sparc-gaisler-elf/lib/mfix-b2bst/mfix-tn0013/flat/libc.a(lib_a-freer.o)
                                        0x6a2 (size before relaxing)
 .debug_str     0x0000000000001e81       0x75 /home/fsw/rep/tasa/lib/bcc-2.2.3-gcc/bin/../lib/gcc/sparc-gaisler-elf/10.2.0/../../../../sparc-gaisler-elf/lib/mfix-b2bst/mfix-tn0013/flat/libc.a(lib_a-fvwrite.o)
                                        0x5fd (size before relaxing)
 .debug_str     0x0000000000001ef6       0x58 /home/fsw/rep/tasa/lib/bcc-2.2.3-gcc/bin/../lib/gcc/sparc-gaisler-elf/10.2.0/../../../../sparc-gaisler-elf/lib/mfix-b2bst/mfix-tn0013/flat/libc.a(lib_a-fwalk.o)
                                        0x558 (size before relaxing)
 .debug_str     0x0000000000001f4e      0x15f /home/fsw/rep/tasa/lib/bcc-2.2.3-gcc/bin/../lib/gcc/sparc-gaisler-elf/10.2.0/../../../../sparc-gaisler-elf/lib/mfix-b2bst/mfix-tn0013/flat/libc.a(lib_a-localeconv.o)
                                        0x794 (size before relaxing)
 .debug_str     0x00000000000020ad      0x16a /home/fsw/rep/tasa/lib/bcc-2.2.3-gcc/bin/../lib/gcc/sparc-gaisler-elf/10.2.0/../../../../sparc-gaisler-elf/lib/mfix-b2bst/mfix-tn0013/flat/libc.a(lib_a-makebuf.o)
                                        0x6c2 (size before relaxing)
 .debug_str     0x0000000000002217       0x50 /home/fsw/rep/tasa/lib/bcc-2.2.3-gcc/bin/../lib/gcc/sparc-gaisler-elf/10.2.0/../../../../sparc-gaisler-elf/lib/mfix-b2bst/mfix-tn0013/flat/libc.a(lib_a-malloc.o)
                                        0x567 (size before relaxing)
 .debug_str     0x0000000000002267       0xdf /home/fsw/rep/tasa/lib/bcc-2.2.3-gcc/bin/../lib/gcc/sparc-gaisler-elf/10.2.0/../../../../sparc-gaisler-elf/lib/mfix-b2bst/mfix-tn0013/flat/libc.a(lib_a-mallocr.o)
                                        0x758 (size before relaxing)
 .debug_str     0x0000000000002346       0x52 /home/fsw/rep/tasa/lib/bcc-2.2.3-gcc/bin/../lib/gcc/sparc-gaisler-elf/10.2.0/../../../../sparc-gaisler-elf/lib/mfix-b2bst/mfix-tn0013/flat/libc.a(lib_a-memchr.o)
                                        0x21b (size before relaxing)
 .debug_str     0x0000000000002398       0x4e /home/fsw/rep/tasa/lib/bcc-2.2.3-gcc/bin/../lib/gcc/sparc-gaisler-elf/10.2.0/../../../../sparc-gaisler-elf/lib/mfix-b2bst/mfix-tn0013/flat/libc.a(lib_a-memmove.o)
                                        0x234 (size before relaxing)
 .debug_str     0x00000000000023e6       0x4b /home/fsw/rep/tasa/lib/bcc-2.2.3-gcc/bin/../lib/gcc/sparc-gaisler-elf/10.2.0/../../../../sparc-gaisler-elf/lib/mfix-b2bst/mfix-tn0013/flat/libc.a(lib_a-memset.o)
                                        0x215 (size before relaxing)
 .debug_str     0x0000000000002431       0x43 /home/fsw/rep/tasa/lib/bcc-2.2.3-gcc/bin/../lib/gcc/sparc-gaisler-elf/10.2.0/../../../../sparc-gaisler-elf/lib/mfix-b2bst/mfix-tn0013/flat/libc.a(lib_a-mlock.o)
                                        0x547 (size before relaxing)
 .debug_str     0x0000000000002474       0xae /home/fsw/rep/tasa/lib/bcc-2.2.3-gcc/bin/../lib/gcc/sparc-gaisler-elf/10.2.0/../../../../sparc-gaisler-elf/lib/mfix-b2bst/mfix-tn0013/flat/libc.a(lib_a-mprec.o)
                                        0x849 (size before relaxing)
 .debug_str     0x0000000000002522       0x5a /home/fsw/rep/tasa/lib/bcc-2.2.3-gcc/bin/../lib/gcc/sparc-gaisler-elf/10.2.0/../../../../sparc-gaisler-elf/lib/mfix-b2bst/mfix-tn0013/flat/libc.a(lib_a-putc.o)
                                        0x5c1 (size before relaxing)
 .debug_str     0x000000000000257c       0x4e /home/fsw/rep/tasa/lib/bcc-2.2.3-gcc/bin/../lib/gcc/sparc-gaisler-elf/10.2.0/../../../../sparc-gaisler-elf/lib/mfix-b2bst/mfix-tn0013/flat/libc.a(lib_a-reallocr.o)
                                        0x634 (size before relaxing)
 .debug_str     0x00000000000025ca      0x137 /home/fsw/rep/tasa/lib/bcc-2.2.3-gcc/bin/../lib/gcc/sparc-gaisler-elf/10.2.0/../../../../sparc-gaisler-elf/lib/mfix-b2bst/mfix-tn0013/flat/libc.a(lib_a-s_frexp.o)
                                        0x255 (size before relaxing)
 .debug_str     0x0000000000002701       0x56 /home/fsw/rep/tasa/lib/bcc-2.2.3-gcc/bin/../lib/gcc/sparc-gaisler-elf/10.2.0/../../../../sparc-gaisler-elf/lib/mfix-b2bst/mfix-tn0013/flat/libc.a(lib_a-sbrkr.o)
                                        0x549 (size before relaxing)
 .debug_str     0x0000000000002757       0xa2 /home/fsw/rep/tasa/lib/bcc-2.2.3-gcc/bin/../lib/gcc/sparc-gaisler-elf/10.2.0/../../../../sparc-gaisler-elf/lib/mfix-b2bst/mfix-tn0013/flat/libc.a(lib_a-stdio.o)
                                        0x5a7 (size before relaxing)
 .debug_str     0x00000000000027f9       0x45 /home/fsw/rep/tasa/lib/bcc-2.2.3-gcc/bin/../lib/gcc/sparc-gaisler-elf/10.2.0/../../../../sparc-gaisler-elf/lib/mfix-b2bst/mfix-tn0013/flat/libc.a(lib_a-strncpy.o)
                                        0x22b (size before relaxing)
 .debug_str     0x000000000000283e       0x21 /home/fsw/rep/tasa/lib/bcc-2.2.3-gcc/bin/../lib/gcc/sparc-gaisler-elf/10.2.0/../../../../sparc-gaisler-elf/lib/mfix-b2bst/mfix-tn0013/flat/libc.a(lib_a-vfiprintf.o)
                                        0x97d (size before relaxing)
 .debug_str     0x000000000000285f       0x49 /home/fsw/rep/tasa/lib/bcc-2.2.3-gcc/bin/../lib/gcc/sparc-gaisler-elf/10.2.0/../../../../sparc-gaisler-elf/lib/mfix-b2bst/mfix-tn0013/flat/libc.a(lib_a-wbuf.o)
                                        0x5b6 (size before relaxing)
 .debug_str     0x00000000000028a8       0x43 /home/fsw/rep/tasa/lib/bcc-2.2.3-gcc/bin/../lib/gcc/sparc-gaisler-elf/10.2.0/../../../../sparc-gaisler-elf/lib/mfix-b2bst/mfix-tn0013/flat/libc.a(lib_a-writer.o)
                                        0x54d (size before relaxing)
 .debug_str     0x00000000000028eb        0xf /home/fsw/rep/tasa/lib/bcc-2.2.3-gcc/bin/../lib/gcc/sparc-gaisler-elf/10.2.0/../../../../sparc-gaisler-elf/lib/mfix-b2bst/mfix-tn0013/flat/libc.a(lib_a-callocr.o)
                                        0x599 (size before relaxing)
 .debug_str     0x00000000000028fa       0x43 /home/fsw/rep/tasa/lib/bcc-2.2.3-gcc/bin/../lib/gcc/sparc-gaisler-elf/10.2.0/../../../../sparc-gaisler-elf/lib/mfix-b2bst/mfix-tn0013/flat/libc.a(lib_a-closer.o)
                                        0x53d (size before relaxing)
 .debug_str     0x000000000000293d       0x54 /home/fsw/rep/tasa/lib/bcc-2.2.3-gcc/bin/../lib/gcc/sparc-gaisler-elf/10.2.0/../../../../sparc-gaisler-elf/lib/mfix-b2bst/mfix-tn0013/flat/libc.a(lib_a-fclose.o)
                                        0x5b9 (size before relaxing)
 .debug_str     0x0000000000002991       0x6b /home/fsw/rep/tasa/lib/bcc-2.2.3-gcc/bin/../lib/gcc/sparc-gaisler-elf/10.2.0/../../../../sparc-gaisler-elf/lib/mfix-b2bst/mfix-tn0013/flat/libc.a(lib_a-fputwc.o)
                                        0x5f7 (size before relaxing)
 .debug_str     0x00000000000029fc       0x49 /home/fsw/rep/tasa/lib/bcc-2.2.3-gcc/bin/../lib/gcc/sparc-gaisler-elf/10.2.0/../../../../sparc-gaisler-elf/lib/mfix-b2bst/mfix-tn0013/flat/libc.a(lib_a-fstatr.o)
                                        0x676 (size before relaxing)
 .debug_str     0x0000000000002a45       0x4b /home/fsw/rep/tasa/lib/bcc-2.2.3-gcc/bin/../lib/gcc/sparc-gaisler-elf/10.2.0/../../../../sparc-gaisler-elf/lib/mfix-b2bst/mfix-tn0013/flat/libc.a(lib_a-isattyr.o)
                                        0x540 (size before relaxing)
 .debug_str     0x0000000000002a90       0xa8 /home/fsw/rep/tasa/lib/bcc-2.2.3-gcc/bin/../lib/gcc/sparc-gaisler-elf/10.2.0/../../../../sparc-gaisler-elf/lib/mfix-b2bst/mfix-tn0013/flat/libc.a(lib_a-locale.o)
                                        0x7cc (size before relaxing)
 .debug_str     0x0000000000002b38       0x49 /home/fsw/rep/tasa/lib/bcc-2.2.3-gcc/bin/../lib/gcc/sparc-gaisler-elf/10.2.0/../../../../sparc-gaisler-elf/lib/mfix-b2bst/mfix-tn0013/flat/libc.a(lib_a-lseekr.o)
                                        0x544 (size before relaxing)
 .debug_str     0x0000000000002b81       0x65 /home/fsw/rep/tasa/lib/bcc-2.2.3-gcc/bin/../lib/gcc/sparc-gaisler-elf/10.2.0/../../../../sparc-gaisler-elf/lib/mfix-b2bst/mfix-tn0013/flat/libc.a(lib_a-mbtowc_r.o)
                                        0x782 (size before relaxing)
 .debug_str     0x0000000000002be6       0x42 /home/fsw/rep/tasa/lib/bcc-2.2.3-gcc/bin/../lib/gcc/sparc-gaisler-elf/10.2.0/../../../../sparc-gaisler-elf/lib/mfix-b2bst/mfix-tn0013/flat/libc.a(lib_a-readr.o)
                                        0x54a (size before relaxing)
 .debug_str     0x0000000000002c28       0x6e /home/fsw/rep/tasa/lib/bcc-2.2.3-gcc/bin/../lib/gcc/sparc-gaisler-elf/10.2.0/../../../../sparc-gaisler-elf/lib/mfix-b2bst/mfix-tn0013/flat/libc.a(lib_a-reent.o)
                                        0x572 (size before relaxing)
 .debug_str     0x0000000000002c96       0x44 /home/fsw/rep/tasa/lib/bcc-2.2.3-gcc/bin/../lib/gcc/sparc-gaisler-elf/10.2.0/../../../../sparc-gaisler-elf/lib/mfix-b2bst/mfix-tn0013/flat/libc.a(lib_a-strcmp.o)
                                        0x1fa (size before relaxing)
 .debug_str     0x0000000000002cda       0x54 /home/fsw/rep/tasa/lib/bcc-2.2.3-gcc/bin/../lib/gcc/sparc-gaisler-elf/10.2.0/../../../../sparc-gaisler-elf/lib/mfix-b2bst/mfix-tn0013/flat/libc.a(lib_a-wcrtomb.o)
                                        0x76e (size before relaxing)
 .debug_str     0x0000000000002d2e       0x66 /home/fsw/rep/tasa/lib/bcc-2.2.3-gcc/bin/../lib/gcc/sparc-gaisler-elf/10.2.0/../../../../sparc-gaisler-elf/lib/mfix-b2bst/mfix-tn0013/flat/libc.a(lib_a-wctomb_r.o)
                                        0x77b (size before relaxing)
 .debug_str     0x0000000000002d94       0xff /home/fsw/rep/tasa/lib/bcc-2.2.3-gcc/bin/../lib/gcc/sparc-gaisler-elf/10.2.0/../../../../sparc-gaisler-elf/lib/mfix-b2bst/mfix-tn0013/flat/libc.a(lib_a-ctype_.o)
                                        0x202 (size before relaxing)
 .debug_str     0x0000000000002e93       0x2d /home/fsw/rep/tasa/lib/bcc-2.2.3-gcc/bin/../sparc-gaisler-elf/bsp/leon3/mfix-b2bst/mfix-tn0013/flat/libbcc.a(_exit.S.o)
                                         0xa5 (size before relaxing)
 .debug_str     0x0000000000002ec0       0x3d /home/fsw/rep/tasa/lib/bcc-2.2.3-gcc/bin/../sparc-gaisler-elf/bsp/leon3/mfix-b2bst/mfix-tn0013/flat/libbcc.a(read.c.o)
                                        0x199 (size before relaxing)
 .debug_str     0x0000000000002efd       0x9d /home/fsw/rep/tasa/lib/bcc-2.2.3-gcc/bin/../sparc-gaisler-elf/bsp/leon3/mfix-b2bst/mfix-tn0013/flat/libbcc.a(sbrk.c.o)
                                        0x20d (size before relaxing)
 .debug_str     0x0000000000002f9a       0x2c /home/fsw/rep/tasa/lib/bcc-2.2.3-gcc/bin/../sparc-gaisler-elf/bsp/leon3/mfix-b2bst/mfix-tn0013/flat/libbcc.a(heap.c.o)
                                        0x1a6 (size before relaxing)
 .debug_str     0x0000000000002fc6       0x3f /home/fsw/rep/tasa/lib/bcc-2.2.3-gcc/bin/../sparc-gaisler-elf/bsp/leon3/mfix-b2bst/mfix-tn0013/flat/libbcc.a(write.c.o)
                                        0x19c (size before relaxing)
 .debug_str     0x0000000000003005       0x33 /home/fsw/rep/tasa/lib/bcc-2.2.3-gcc/bin/../sparc-gaisler-elf/bsp/leon3/mfix-b2bst/mfix-tn0013/flat/libbcc.a(stubs.S.o)
                                         0xab (size before relaxing)
 .debug_str     0x0000000000003038       0x89 /home/fsw/rep/tasa/lib/bcc-2.2.3-gcc/bin/../sparc-gaisler-elf/bsp/leon3/mfix-b2bst/mfix-tn0013/flat/libbcc.a(con_apbuart.c.o)
                                        0x22a (size before relaxing)
 .debug_str     0x00000000000030c1       0xe8 /home/fsw/rep/tasa/lib/bcc-2.2.3-gcc/bin/../lib/gcc/sparc-gaisler-elf/10.2.0/mfix-b2bst/mfix-tn0013/flat/libgcc.a(_mulsi3.o)
                                         0xf4 (size before relaxing)
 .debug_str     0x00000000000031a9       0xf4 /home/fsw/rep/tasa/lib/bcc-2.2.3-gcc/bin/../lib/gcc/sparc-gaisler-elf/10.2.0/mfix-b2bst/mfix-tn0013/flat/libgcc.a(_divsi3.o)
 .debug_str     0x00000000000031a9       0xf4 /home/fsw/rep/tasa/lib/bcc-2.2.3-gcc/bin/../lib/gcc/sparc-gaisler-elf/10.2.0/mfix-b2bst/mfix-tn0013/flat/libgcc.a(_modsi3.o)
 .debug_str     0x00000000000031a9      0x148 /home/fsw/rep/tasa/lib/bcc-2.2.3-gcc/bin/../lib/gcc/sparc-gaisler-elf/10.2.0/mfix-b2bst/mfix-tn0013/flat/libgcc.a(_udivdi3.o)
                                        0x2a3 (size before relaxing)
 .debug_str     0x00000000000032f1      0x2a3 /home/fsw/rep/tasa/lib/bcc-2.2.3-gcc/bin/../lib/gcc/sparc-gaisler-elf/10.2.0/mfix-b2bst/mfix-tn0013/flat/libgcc.a(_umoddi3.o)
 .debug_str     0x00000000000032f1       0x88 /home/fsw/rep/tasa/lib/bcc-2.2.3-gcc/bin/../lib/gcc/sparc-gaisler-elf/10.2.0/mfix-b2bst/mfix-tn0013/flat/libgcc.a(_clz.o)
                                        0x223 (size before relaxing)

.debug_loc      0x0000000000000000    0x18142
 *(.debug_loc)
 .debug_loc     0x0000000000000000       0x51 /tmp/ccvGHBjf.o
 .debug_loc     0x0000000000000051       0x58 /home/fsw/rep/tasa/lib/bcc-2.2.3-gcc/bin/../sparc-gaisler-elf/bsp/leon3/mfix-b2bst/mfix-tn0013/flat/libbcc.a(int_irqmp_get_source.c.o)
 .debug_loc     0x00000000000000a9       0xec /home/fsw/rep/tasa/lib/bcc-2.2.3-gcc/bin/../sparc-gaisler-elf/bsp/leon3/mfix-b2bst/mfix-tn0013/flat/libbcc.a(int_irqmp_mp.c.o)
 .debug_loc     0x0000000000000195      0x2cb /home/fsw/rep/tasa/lib/bcc-2.2.3-gcc/bin/../sparc-gaisler-elf/bsp/leon3/mfix-b2bst/mfix-tn0013/flat/libbcc.a(int_irqmp_init.c.o)
 .debug_loc     0x0000000000000460      0xcd8 /home/fsw/rep/tasa/lib/bcc-2.2.3-gcc/bin/../sparc-gaisler-elf/bsp/leon3/mfix-b2bst/mfix-tn0013/flat/libbcc.a(ambapp.c.o)
 .debug_loc     0x0000000000001138      0x2c0 /home/fsw/rep/tasa/lib/bcc-2.2.3-gcc/bin/../sparc-gaisler-elf/bsp/leon3/mfix-b2bst/mfix-tn0013/flat/libbcc.a(ambapp_findfirst_fn.c.o)
 .debug_loc     0x00000000000013f8       0x32 /home/fsw/rep/tasa/lib/bcc-2.2.3-gcc/bin/../lib/gcc/sparc-gaisler-elf/10.2.0/../../../../sparc-gaisler-elf/lib/mfix-b2bst/mfix-tn0013/flat/libc.a(lib_a-atexit.o)
 .debug_loc     0x000000000000142a       0x22 /home/fsw/rep/tasa/lib/bcc-2.2.3-gcc/bin/../lib/gcc/sparc-gaisler-elf/10.2.0/../../../../sparc-gaisler-elf/lib/mfix-b2bst/mfix-tn0013/flat/libc.a(lib_a-exit.o)
 .debug_loc     0x000000000000144c      0x4cd /home/fsw/rep/tasa/lib/bcc-2.2.3-gcc/bin/../lib/gcc/sparc-gaisler-elf/10.2.0/../../../../sparc-gaisler-elf/lib/mfix-b2bst/mfix-tn0013/flat/libc.a(lib_a-memcpy.o)
 .debug_loc     0x0000000000001919      0x198 /home/fsw/rep/tasa/lib/bcc-2.2.3-gcc/bin/../lib/gcc/sparc-gaisler-elf/10.2.0/../../../../sparc-gaisler-elf/lib/mfix-b2bst/mfix-tn0013/flat/libc.a(lib_a-printf.o)
 .debug_loc     0x0000000000001ab1      0x15d /home/fsw/rep/tasa/lib/bcc-2.2.3-gcc/bin/../lib/gcc/sparc-gaisler-elf/10.2.0/../../../../sparc-gaisler-elf/lib/mfix-b2bst/mfix-tn0013/flat/libc.a(lib_a-putchar.o)
 .debug_loc     0x0000000000001c0e      0x246 /home/fsw/rep/tasa/lib/bcc-2.2.3-gcc/bin/../lib/gcc/sparc-gaisler-elf/10.2.0/../../../../sparc-gaisler-elf/lib/mfix-b2bst/mfix-tn0013/flat/libc.a(lib_a-puts.o)
 .debug_loc     0x0000000000001e54       0x86 /home/fsw/rep/tasa/lib/bcc-2.2.3-gcc/bin/../lib/gcc/sparc-gaisler-elf/10.2.0/../../../../sparc-gaisler-elf/lib/mfix-b2bst/mfix-tn0013/flat/libc.a(lib_a-strlen.o)
 .debug_loc     0x0000000000001eda     0x4a2c /home/fsw/rep/tasa/lib/bcc-2.2.3-gcc/bin/../lib/gcc/sparc-gaisler-elf/10.2.0/../../../../sparc-gaisler-elf/lib/mfix-b2bst/mfix-tn0013/flat/libc.a(lib_a-vfprintf.o)
 .debug_loc     0x0000000000006906       0xaa /home/fsw/rep/tasa/lib/bcc-2.2.3-gcc/bin/../lib/gcc/sparc-gaisler-elf/10.2.0/../../../../sparc-gaisler-elf/lib/mfix-b2bst/mfix-tn0013/flat/libc.a(lib_a-wsetup.o)
 .debug_loc     0x00000000000069b0      0x227 /home/fsw/rep/tasa/lib/bcc-2.2.3-gcc/bin/../lib/gcc/sparc-gaisler-elf/10.2.0/../../../../sparc-gaisler-elf/lib/mfix-b2bst/mfix-tn0013/flat/libc.a(lib_a-__atexit.o)
 .debug_loc     0x0000000000006bd7      0x2dc /home/fsw/rep/tasa/lib/bcc-2.2.3-gcc/bin/../lib/gcc/sparc-gaisler-elf/10.2.0/../../../../sparc-gaisler-elf/lib/mfix-b2bst/mfix-tn0013/flat/libc.a(lib_a-__call_atexit.o)
 .debug_loc     0x0000000000006eb3     0x2c57 /home/fsw/rep/tasa/lib/bcc-2.2.3-gcc/bin/../lib/gcc/sparc-gaisler-elf/10.2.0/../../../../sparc-gaisler-elf/lib/mfix-b2bst/mfix-tn0013/flat/libc.a(lib_a-dtoa.o)
 .debug_loc     0x0000000000009b0a      0x478 /home/fsw/rep/tasa/lib/bcc-2.2.3-gcc/bin/../lib/gcc/sparc-gaisler-elf/10.2.0/../../../../sparc-gaisler-elf/lib/mfix-b2bst/mfix-tn0013/flat/libc.a(lib_a-fflush.o)
 .debug_loc     0x0000000000009f82      0x349 /home/fsw/rep/tasa/lib/bcc-2.2.3-gcc/bin/../lib/gcc/sparc-gaisler-elf/10.2.0/../../../../sparc-gaisler-elf/lib/mfix-b2bst/mfix-tn0013/flat/libc.a(lib_a-findfp.o)
 .debug_loc     0x000000000000a2cb      0x704 /home/fsw/rep/tasa/lib/bcc-2.2.3-gcc/bin/../lib/gcc/sparc-gaisler-elf/10.2.0/../../../../sparc-gaisler-elf/lib/mfix-b2bst/mfix-tn0013/flat/libc.a(lib_a-freer.o)
 .debug_loc     0x000000000000a9cf      0x654 /home/fsw/rep/tasa/lib/bcc-2.2.3-gcc/bin/../lib/gcc/sparc-gaisler-elf/10.2.0/../../../../sparc-gaisler-elf/lib/mfix-b2bst/mfix-tn0013/flat/libc.a(lib_a-fvwrite.o)
 .debug_loc     0x000000000000b023      0x1c1 /home/fsw/rep/tasa/lib/bcc-2.2.3-gcc/bin/../lib/gcc/sparc-gaisler-elf/10.2.0/../../../../sparc-gaisler-elf/lib/mfix-b2bst/mfix-tn0013/flat/libc.a(lib_a-fwalk.o)
 .debug_loc     0x000000000000b1e4      0x103 /home/fsw/rep/tasa/lib/bcc-2.2.3-gcc/bin/../lib/gcc/sparc-gaisler-elf/10.2.0/../../../../sparc-gaisler-elf/lib/mfix-b2bst/mfix-tn0013/flat/libc.a(lib_a-localeconv.o)
 .debug_loc     0x000000000000b2e7      0x48c /home/fsw/rep/tasa/lib/bcc-2.2.3-gcc/bin/../lib/gcc/sparc-gaisler-elf/10.2.0/../../../../sparc-gaisler-elf/lib/mfix-b2bst/mfix-tn0013/flat/libc.a(lib_a-makebuf.o)
 .debug_loc     0x000000000000b773       0x64 /home/fsw/rep/tasa/lib/bcc-2.2.3-gcc/bin/../lib/gcc/sparc-gaisler-elf/10.2.0/../../../../sparc-gaisler-elf/lib/mfix-b2bst/mfix-tn0013/flat/libc.a(lib_a-malloc.o)
 .debug_loc     0x000000000000b7d7      0xc6b /home/fsw/rep/tasa/lib/bcc-2.2.3-gcc/bin/../lib/gcc/sparc-gaisler-elf/10.2.0/../../../../sparc-gaisler-elf/lib/mfix-b2bst/mfix-tn0013/flat/libc.a(lib_a-mallocr.o)
 .debug_loc     0x000000000000c442      0x191 /home/fsw/rep/tasa/lib/bcc-2.2.3-gcc/bin/../lib/gcc/sparc-gaisler-elf/10.2.0/../../../../sparc-gaisler-elf/lib/mfix-b2bst/mfix-tn0013/flat/libc.a(lib_a-memchr.o)
 .debug_loc     0x000000000000c5d3      0x504 /home/fsw/rep/tasa/lib/bcc-2.2.3-gcc/bin/../lib/gcc/sparc-gaisler-elf/10.2.0/../../../../sparc-gaisler-elf/lib/mfix-b2bst/mfix-tn0013/flat/libc.a(lib_a-memmove.o)
 .debug_loc     0x000000000000cad7      0x245 /home/fsw/rep/tasa/lib/bcc-2.2.3-gcc/bin/../lib/gcc/sparc-gaisler-elf/10.2.0/../../../../sparc-gaisler-elf/lib/mfix-b2bst/mfix-tn0013/flat/libc.a(lib_a-memset.o)
 .debug_loc     0x000000000000cd1c     0x2faf /home/fsw/rep/tasa/lib/bcc-2.2.3-gcc/bin/../lib/gcc/sparc-gaisler-elf/10.2.0/../../../../sparc-gaisler-elf/lib/mfix-b2bst/mfix-tn0013/flat/libc.a(lib_a-mprec.o)
 .debug_loc     0x000000000000fccb      0x3c1 /home/fsw/rep/tasa/lib/bcc-2.2.3-gcc/bin/../lib/gcc/sparc-gaisler-elf/10.2.0/../../../../sparc-gaisler-elf/lib/mfix-b2bst/mfix-tn0013/flat/libc.a(lib_a-putc.o)
 .debug_loc     0x000000000001008c     0x10f5 /home/fsw/rep/tasa/lib/bcc-2.2.3-gcc/bin/../lib/gcc/sparc-gaisler-elf/10.2.0/../../../../sparc-gaisler-elf/lib/mfix-b2bst/mfix-tn0013/flat/libc.a(lib_a-reallocr.o)
 .debug_loc     0x0000000000011181       0xea /home/fsw/rep/tasa/lib/bcc-2.2.3-gcc/bin/../lib/gcc/sparc-gaisler-elf/10.2.0/../../../../sparc-gaisler-elf/lib/mfix-b2bst/mfix-tn0013/flat/libc.a(lib_a-s_frexp.o)
 .debug_loc     0x000000000001126b       0x5c /home/fsw/rep/tasa/lib/bcc-2.2.3-gcc/bin/../lib/gcc/sparc-gaisler-elf/10.2.0/../../../../sparc-gaisler-elf/lib/mfix-b2bst/mfix-tn0013/flat/libc.a(lib_a-sbrkr.o)
 .debug_loc     0x00000000000112c7      0x410 /home/fsw/rep/tasa/lib/bcc-2.2.3-gcc/bin/../lib/gcc/sparc-gaisler-elf/10.2.0/../../../../sparc-gaisler-elf/lib/mfix-b2bst/mfix-tn0013/flat/libc.a(lib_a-stdio.o)
 .debug_loc     0x00000000000116d7      0x26b /home/fsw/rep/tasa/lib/bcc-2.2.3-gcc/bin/../lib/gcc/sparc-gaisler-elf/10.2.0/../../../../sparc-gaisler-elf/lib/mfix-b2bst/mfix-tn0013/flat/libc.a(lib_a-strncpy.o)
 .debug_loc     0x0000000000011942     0x3f07 /home/fsw/rep/tasa/lib/bcc-2.2.3-gcc/bin/../lib/gcc/sparc-gaisler-elf/10.2.0/../../../../sparc-gaisler-elf/lib/mfix-b2bst/mfix-tn0013/flat/libc.a(lib_a-vfiprintf.o)
 .debug_loc     0x0000000000015849      0x2f3 /home/fsw/rep/tasa/lib/bcc-2.2.3-gcc/bin/../lib/gcc/sparc-gaisler-elf/10.2.0/../../../../sparc-gaisler-elf/lib/mfix-b2bst/mfix-tn0013/flat/libc.a(lib_a-wbuf.o)
 .debug_loc     0x0000000000015b3c       0xc0 /home/fsw/rep/tasa/lib/bcc-2.2.3-gcc/bin/../lib/gcc/sparc-gaisler-elf/10.2.0/../../../../sparc-gaisler-elf/lib/mfix-b2bst/mfix-tn0013/flat/libc.a(lib_a-writer.o)
 .debug_loc     0x0000000000015bfc      0x243 /home/fsw/rep/tasa/lib/bcc-2.2.3-gcc/bin/../lib/gcc/sparc-gaisler-elf/10.2.0/../../../../sparc-gaisler-elf/lib/mfix-b2bst/mfix-tn0013/flat/libc.a(lib_a-callocr.o)
 .debug_loc     0x0000000000015e3f       0x5c /home/fsw/rep/tasa/lib/bcc-2.2.3-gcc/bin/../lib/gcc/sparc-gaisler-elf/10.2.0/../../../../sparc-gaisler-elf/lib/mfix-b2bst/mfix-tn0013/flat/libc.a(lib_a-closer.o)
 .debug_loc     0x0000000000015e9b      0x21e /home/fsw/rep/tasa/lib/bcc-2.2.3-gcc/bin/../lib/gcc/sparc-gaisler-elf/10.2.0/../../../../sparc-gaisler-elf/lib/mfix-b2bst/mfix-tn0013/flat/libc.a(lib_a-fclose.o)
 .debug_loc     0x00000000000160b9      0x3ab /home/fsw/rep/tasa/lib/bcc-2.2.3-gcc/bin/../lib/gcc/sparc-gaisler-elf/10.2.0/../../../../sparc-gaisler-elf/lib/mfix-b2bst/mfix-tn0013/flat/libc.a(lib_a-fputwc.o)
 .debug_loc     0x0000000000016464       0x8e /home/fsw/rep/tasa/lib/bcc-2.2.3-gcc/bin/../lib/gcc/sparc-gaisler-elf/10.2.0/../../../../sparc-gaisler-elf/lib/mfix-b2bst/mfix-tn0013/flat/libc.a(lib_a-fstatr.o)
 .debug_loc     0x00000000000164f2       0x5c /home/fsw/rep/tasa/lib/bcc-2.2.3-gcc/bin/../lib/gcc/sparc-gaisler-elf/10.2.0/../../../../sparc-gaisler-elf/lib/mfix-b2bst/mfix-tn0013/flat/libc.a(lib_a-isattyr.o)
 .debug_loc     0x000000000001654e      0x20c /home/fsw/rep/tasa/lib/bcc-2.2.3-gcc/bin/../lib/gcc/sparc-gaisler-elf/10.2.0/../../../../sparc-gaisler-elf/lib/mfix-b2bst/mfix-tn0013/flat/libc.a(lib_a-locale.o)
 .debug_loc     0x000000000001675a       0xc0 /home/fsw/rep/tasa/lib/bcc-2.2.3-gcc/bin/../lib/gcc/sparc-gaisler-elf/10.2.0/../../../../sparc-gaisler-elf/lib/mfix-b2bst/mfix-tn0013/flat/libc.a(lib_a-lseekr.o)
 .debug_loc     0x000000000001681a      0x1c3 /home/fsw/rep/tasa/lib/bcc-2.2.3-gcc/bin/../lib/gcc/sparc-gaisler-elf/10.2.0/../../../../sparc-gaisler-elf/lib/mfix-b2bst/mfix-tn0013/flat/libc.a(lib_a-mbtowc_r.o)
 .debug_loc     0x00000000000169dd       0xc0 /home/fsw/rep/tasa/lib/bcc-2.2.3-gcc/bin/../lib/gcc/sparc-gaisler-elf/10.2.0/../../../../sparc-gaisler-elf/lib/mfix-b2bst/mfix-tn0013/flat/libc.a(lib_a-readr.o)
 .debug_loc     0x0000000000016a9d      0x320 /home/fsw/rep/tasa/lib/bcc-2.2.3-gcc/bin/../lib/gcc/sparc-gaisler-elf/10.2.0/../../../../sparc-gaisler-elf/lib/mfix-b2bst/mfix-tn0013/flat/libc.a(lib_a-reent.o)
 .debug_loc     0x0000000000016dbd       0x8e /home/fsw/rep/tasa/lib/bcc-2.2.3-gcc/bin/../lib/gcc/sparc-gaisler-elf/10.2.0/../../../../sparc-gaisler-elf/lib/mfix-b2bst/mfix-tn0013/flat/libc.a(lib_a-strcmp.o)
 .debug_loc     0x0000000000016e4b      0x318 /home/fsw/rep/tasa/lib/bcc-2.2.3-gcc/bin/../lib/gcc/sparc-gaisler-elf/10.2.0/../../../../sparc-gaisler-elf/lib/mfix-b2bst/mfix-tn0013/flat/libc.a(lib_a-wcrtomb.o)
 .debug_loc     0x0000000000017163      0x13f /home/fsw/rep/tasa/lib/bcc-2.2.3-gcc/bin/../lib/gcc/sparc-gaisler-elf/10.2.0/../../../../sparc-gaisler-elf/lib/mfix-b2bst/mfix-tn0013/flat/libc.a(lib_a-wctomb_r.o)
 .debug_loc     0x00000000000172a2      0x12d /home/fsw/rep/tasa/lib/bcc-2.2.3-gcc/bin/../sparc-gaisler-elf/bsp/leon3/mfix-b2bst/mfix-tn0013/flat/libbcc.a(read.c.o)
 .debug_loc     0x00000000000173cf       0x69 /home/fsw/rep/tasa/lib/bcc-2.2.3-gcc/bin/../sparc-gaisler-elf/bsp/leon3/mfix-b2bst/mfix-tn0013/flat/libbcc.a(sbrk.c.o)
 .debug_loc     0x0000000000017438       0xd9 /home/fsw/rep/tasa/lib/bcc-2.2.3-gcc/bin/../sparc-gaisler-elf/bsp/leon3/mfix-b2bst/mfix-tn0013/flat/libbcc.a(write.c.o)
 .debug_loc     0x0000000000017511       0xa7 /home/fsw/rep/tasa/lib/bcc-2.2.3-gcc/bin/../sparc-gaisler-elf/bsp/leon3/mfix-b2bst/mfix-tn0013/flat/libbcc.a(con_apbuart.c.o)
 .debug_loc     0x00000000000175b8      0x61e /home/fsw/rep/tasa/lib/bcc-2.2.3-gcc/bin/../lib/gcc/sparc-gaisler-elf/10.2.0/mfix-b2bst/mfix-tn0013/flat/libgcc.a(_udivdi3.o)
 .debug_loc     0x0000000000017bd6      0x56c /home/fsw/rep/tasa/lib/bcc-2.2.3-gcc/bin/../lib/gcc/sparc-gaisler-elf/10.2.0/mfix-b2bst/mfix-tn0013/flat/libgcc.a(_umoddi3.o)

.comment        0x0000000000000000       0x19
 .comment       0x0000000000000000       0x19 /home/fsw/rep/tasa/lib/bcc-2.2.3-gcc/bin/../lib/gcc/sparc-gaisler-elf/10.2.0/mfix-b2bst/mfix-tn0013/flat/crtbegin.o
                                         0x1a (size before relaxing)
 .comment       0x0000000000000019       0x1a /tmp/ccvGHBjf.o
 .comment       0x0000000000000019       0x1a /home/fsw/rep/tasa/lib/bcc-2.2.3-gcc/bin/../sparc-gaisler-elf/bsp/leon3/mfix-b2bst/mfix-tn0013/flat/libbcc.a(isr.c.o)
 .comment       0x0000000000000019       0x1a /home/fsw/rep/tasa/lib/bcc-2.2.3-gcc/bin/../sparc-gaisler-elf/bsp/leon3/mfix-b2bst/mfix-tn0013/flat/libbcc.a(int_nest.c.o)
 .comment       0x0000000000000019       0x1a /home/fsw/rep/tasa/lib/bcc-2.2.3-gcc/bin/../sparc-gaisler-elf/bsp/leon3/mfix-b2bst/mfix-tn0013/flat/libbcc.a(copy_data.c.o)
 .comment       0x0000000000000019       0x1a /home/fsw/rep/tasa/lib/bcc-2.2.3-gcc/bin/../sparc-gaisler-elf/bsp/leon3/mfix-b2bst/mfix-tn0013/flat/libbcc.a(argv.c.o)
 .comment       0x0000000000000019       0x1a /home/fsw/rep/tasa/lib/bcc-2.2.3-gcc/bin/../sparc-gaisler-elf/bsp/leon3/mfix-b2bst/mfix-tn0013/flat/libbcc.a(int_irqmp_get_source.c.o)
 .comment       0x0000000000000019       0x1a /home/fsw/rep/tasa/lib/bcc-2.2.3-gcc/bin/../sparc-gaisler-elf/bsp/leon3/mfix-b2bst/mfix-tn0013/flat/libbcc.a(int_irqmp_mp.c.o)
 .comment       0x0000000000000019       0x1a /home/fsw/rep/tasa/lib/bcc-2.2.3-gcc/bin/../sparc-gaisler-elf/bsp/leon3/mfix-b2bst/mfix-tn0013/flat/libbcc.a(int_irqmp_init.c.o)
 .comment       0x0000000000000019       0x1a /home/fsw/rep/tasa/lib/bcc-2.2.3-gcc/bin/../sparc-gaisler-elf/bsp/leon3/mfix-b2bst/mfix-tn0013/flat/libbcc.a(con_apbuart_init.c.o)
 .comment       0x0000000000000019       0x1a /home/fsw/rep/tasa/lib/bcc-2.2.3-gcc/bin/../sparc-gaisler-elf/bsp/leon3/mfix-b2bst/mfix-tn0013/flat/libbcc.a(timer_gptimer_init.c.o)
 .comment       0x0000000000000019       0x1a /home/fsw/rep/tasa/lib/bcc-2.2.3-gcc/bin/../sparc-gaisler-elf/bsp/leon3/mfix-b2bst/mfix-tn0013/flat/libbcc.a(ambapp.c.o)
 .comment       0x0000000000000019       0x1a /home/fsw/rep/tasa/lib/bcc-2.2.3-gcc/bin/../sparc-gaisler-elf/bsp/leon3/mfix-b2bst/mfix-tn0013/flat/libbcc.a(ambapp_findfirst_fn.c.o)
 .comment       0x0000000000000019       0x1a /home/fsw/rep/tasa/lib/bcc-2.2.3-gcc/bin/../sparc-gaisler-elf/bsp/leon3/mfix-b2bst/mfix-tn0013/flat/libbcc.a(int_irqmp_handle.c.o)
 .comment       0x0000000000000019       0x1a /home/fsw/rep/tasa/lib/bcc-2.2.3-gcc/bin/../sparc-gaisler-elf/bsp/leon3/mfix-b2bst/mfix-tn0013/flat/libbcc.a(con_handle.c.o)
 .comment       0x0000000000000019       0x1a /home/fsw/rep/tasa/lib/bcc-2.2.3-gcc/bin/../sparc-gaisler-elf/bsp/leon3/mfix-b2bst/mfix-tn0013/flat/libbcc.a(timer_handle.c.o)
 .comment       0x0000000000000019       0x1a /home/fsw/rep/tasa/lib/bcc-2.2.3-gcc/bin/../lib/gcc/sparc-gaisler-elf/10.2.0/../../../../sparc-gaisler-elf/lib/mfix-b2bst/mfix-tn0013/flat/libc.a(lib_a-atexit.o)
 .comment       0x0000000000000019       0x1a /home/fsw/rep/tasa/lib/bcc-2.2.3-gcc/bin/../lib/gcc/sparc-gaisler-elf/10.2.0/../../../../sparc-gaisler-elf/lib/mfix-b2bst/mfix-tn0013/flat/libc.a(lib_a-exit.o)
 .comment       0x0000000000000019       0x1a /home/fsw/rep/tasa/lib/bcc-2.2.3-gcc/bin/../lib/gcc/sparc-gaisler-elf/10.2.0/../../../../sparc-gaisler-elf/lib/mfix-b2bst/mfix-tn0013/flat/libc.a(lib_a-impure.o)
 .comment       0x0000000000000019       0x1a /home/fsw/rep/tasa/lib/bcc-2.2.3-gcc/bin/../lib/gcc/sparc-gaisler-elf/10.2.0/../../../../sparc-gaisler-elf/lib/mfix-b2bst/mfix-tn0013/flat/libc.a(lib_a-memcpy.o)
 .comment       0x0000000000000019       0x1a /home/fsw/rep/tasa/lib/bcc-2.2.3-gcc/bin/../lib/gcc/sparc-gaisler-elf/10.2.0/../../../../sparc-gaisler-elf/lib/mfix-b2bst/mfix-tn0013/flat/libc.a(lib_a-printf.o)
 .comment       0x0000000000000019       0x1a /home/fsw/rep/tasa/lib/bcc-2.2.3-gcc/bin/../lib/gcc/sparc-gaisler-elf/10.2.0/../../../../sparc-gaisler-elf/lib/mfix-b2bst/mfix-tn0013/flat/libc.a(lib_a-putchar.o)
 .comment       0x0000000000000019       0x1a /home/fsw/rep/tasa/lib/bcc-2.2.3-gcc/bin/../lib/gcc/sparc-gaisler-elf/10.2.0/../../../../sparc-gaisler-elf/lib/mfix-b2bst/mfix-tn0013/flat/libc.a(lib_a-puts.o)
 .comment       0x0000000000000019       0x1a /home/fsw/rep/tasa/lib/bcc-2.2.3-gcc/bin/../lib/gcc/sparc-gaisler-elf/10.2.0/../../../../sparc-gaisler-elf/lib/mfix-b2bst/mfix-tn0013/flat/libc.a(lib_a-strlen.o)
 .comment       0x0000000000000019       0x1a /home/fsw/rep/tasa/lib/bcc-2.2.3-gcc/bin/../lib/gcc/sparc-gaisler-elf/10.2.0/../../../../sparc-gaisler-elf/lib/mfix-b2bst/mfix-tn0013/flat/libc.a(lib_a-vfprintf.o)
 .comment       0x0000000000000019       0x1a /home/fsw/rep/tasa/lib/bcc-2.2.3-gcc/bin/../lib/gcc/sparc-gaisler-elf/10.2.0/../../../../sparc-gaisler-elf/lib/mfix-b2bst/mfix-tn0013/flat/libc.a(lib_a-wsetup.o)
 .comment       0x0000000000000019       0x1a /home/fsw/rep/tasa/lib/bcc-2.2.3-gcc/bin/../lib/gcc/sparc-gaisler-elf/10.2.0/../../../../sparc-gaisler-elf/lib/mfix-b2bst/mfix-tn0013/flat/libc.a(lib_a-__atexit.o)
 .comment       0x0000000000000019       0x1a /home/fsw/rep/tasa/lib/bcc-2.2.3-gcc/bin/../lib/gcc/sparc-gaisler-elf/10.2.0/../../../../sparc-gaisler-elf/lib/mfix-b2bst/mfix-tn0013/flat/libc.a(lib_a-__call_atexit.o)
 .comment       0x0000000000000019       0x1a /home/fsw/rep/tasa/lib/bcc-2.2.3-gcc/bin/../lib/gcc/sparc-gaisler-elf/10.2.0/../../../../sparc-gaisler-elf/lib/mfix-b2bst/mfix-tn0013/flat/libc.a(lib_a-dtoa.o)
 .comment       0x0000000000000019       0x1a /home/fsw/rep/tasa/lib/bcc-2.2.3-gcc/bin/../lib/gcc/sparc-gaisler-elf/10.2.0/../../../../sparc-gaisler-elf/lib/mfix-b2bst/mfix-tn0013/flat/libc.a(lib_a-fflush.o)
 .comment       0x0000000000000019       0x1a /home/fsw/rep/tasa/lib/bcc-2.2.3-gcc/bin/../lib/gcc/sparc-gaisler-elf/10.2.0/../../../../sparc-gaisler-elf/lib/mfix-b2bst/mfix-tn0013/flat/libc.a(lib_a-findfp.o)
 .comment       0x0000000000000019       0x1a /home/fsw/rep/tasa/lib/bcc-2.2.3-gcc/bin/../lib/gcc/sparc-gaisler-elf/10.2.0/../../../../sparc-gaisler-elf/lib/mfix-b2bst/mfix-tn0013/flat/libc.a(lib_a-freer.o)
 .comment       0x0000000000000019       0x1a /home/fsw/rep/tasa/lib/bcc-2.2.3-gcc/bin/../lib/gcc/sparc-gaisler-elf/10.2.0/../../../../sparc-gaisler-elf/lib/mfix-b2bst/mfix-tn0013/flat/libc.a(lib_a-fvwrite.o)
 .comment       0x0000000000000019       0x1a /home/fsw/rep/tasa/lib/bcc-2.2.3-gcc/bin/../lib/gcc/sparc-gaisler-elf/10.2.0/../../../../sparc-gaisler-elf/lib/mfix-b2bst/mfix-tn0013/flat/libc.a(lib_a-fwalk.o)
 .comment       0x0000000000000019       0x1a /home/fsw/rep/tasa/lib/bcc-2.2.3-gcc/bin/../lib/gcc/sparc-gaisler-elf/10.2.0/../../../../sparc-gaisler-elf/lib/mfix-b2bst/mfix-tn0013/flat/libc.a(lib_a-localeconv.o)
 .comment       0x0000000000000019       0x1a /home/fsw/rep/tasa/lib/bcc-2.2.3-gcc/bin/../lib/gcc/sparc-gaisler-elf/10.2.0/../../../../sparc-gaisler-elf/lib/mfix-b2bst/mfix-tn0013/flat/libc.a(lib_a-makebuf.o)
 .comment       0x0000000000000019       0x1a /home/fsw/rep/tasa/lib/bcc-2.2.3-gcc/bin/../lib/gcc/sparc-gaisler-elf/10.2.0/../../../../sparc-gaisler-elf/lib/mfix-b2bst/mfix-tn0013/flat/libc.a(lib_a-malloc.o)
 .comment       0x0000000000000019       0x1a /home/fsw/rep/tasa/lib/bcc-2.2.3-gcc/bin/../lib/gcc/sparc-gaisler-elf/10.2.0/../../../../sparc-gaisler-elf/lib/mfix-b2bst/mfix-tn0013/flat/libc.a(lib_a-mallocr.o)
 .comment       0x0000000000000019       0x1a /home/fsw/rep/tasa/lib/bcc-2.2.3-gcc/bin/../lib/gcc/sparc-gaisler-elf/10.2.0/../../../../sparc-gaisler-elf/lib/mfix-b2bst/mfix-tn0013/flat/libc.a(lib_a-memchr.o)
 .comment       0x0000000000000019       0x1a /home/fsw/rep/tasa/lib/bcc-2.2.3-gcc/bin/../lib/gcc/sparc-gaisler-elf/10.2.0/../../../../sparc-gaisler-elf/lib/mfix-b2bst/mfix-tn0013/flat/libc.a(lib_a-memmove.o)
 .comment       0x0000000000000019       0x1a /home/fsw/rep/tasa/lib/bcc-2.2.3-gcc/bin/../lib/gcc/sparc-gaisler-elf/10.2.0/../../../../sparc-gaisler-elf/lib/mfix-b2bst/mfix-tn0013/flat/libc.a(lib_a-memset.o)
 .comment       0x0000000000000019       0x1a /home/fsw/rep/tasa/lib/bcc-2.2.3-gcc/bin/../lib/gcc/sparc-gaisler-elf/10.2.0/../../../../sparc-gaisler-elf/lib/mfix-b2bst/mfix-tn0013/flat/libc.a(lib_a-mlock.o)
 .comment       0x0000000000000019       0x1a /home/fsw/rep/tasa/lib/bcc-2.2.3-gcc/bin/../lib/gcc/sparc-gaisler-elf/10.2.0/../../../../sparc-gaisler-elf/lib/mfix-b2bst/mfix-tn0013/flat/libc.a(lib_a-mprec.o)
 .comment       0x0000000000000019       0x1a /home/fsw/rep/tasa/lib/bcc-2.2.3-gcc/bin/../lib/gcc/sparc-gaisler-elf/10.2.0/../../../../sparc-gaisler-elf/lib/mfix-b2bst/mfix-tn0013/flat/libc.a(lib_a-putc.o)
 .comment       0x0000000000000019       0x1a /home/fsw/rep/tasa/lib/bcc-2.2.3-gcc/bin/../lib/gcc/sparc-gaisler-elf/10.2.0/../../../../sparc-gaisler-elf/lib/mfix-b2bst/mfix-tn0013/flat/libc.a(lib_a-reallocr.o)
 .comment       0x0000000000000019       0x1a /home/fsw/rep/tasa/lib/bcc-2.2.3-gcc/bin/../lib/gcc/sparc-gaisler-elf/10.2.0/../../../../sparc-gaisler-elf/lib/mfix-b2bst/mfix-tn0013/flat/libc.a(lib_a-s_frexp.o)
 .comment       0x0000000000000019       0x1a /home/fsw/rep/tasa/lib/bcc-2.2.3-gcc/bin/../lib/gcc/sparc-gaisler-elf/10.2.0/../../../../sparc-gaisler-elf/lib/mfix-b2bst/mfix-tn0013/flat/libc.a(lib_a-sbrkr.o)
 .comment       0x0000000000000019       0x1a /home/fsw/rep/tasa/lib/bcc-2.2.3-gcc/bin/../lib/gcc/sparc-gaisler-elf/10.2.0/../../../../sparc-gaisler-elf/lib/mfix-b2bst/mfix-tn0013/flat/libc.a(lib_a-stdio.o)
 .comment       0x0000000000000019       0x1a /home/fsw/rep/tasa/lib/bcc-2.2.3-gcc/bin/../lib/gcc/sparc-gaisler-elf/10.2.0/../../../../sparc-gaisler-elf/lib/mfix-b2bst/mfix-tn0013/flat/libc.a(lib_a-strncpy.o)
 .comment       0x0000000000000019       0x1a /home/fsw/rep/tasa/lib/bcc-2.2.3-gcc/bin/../lib/gcc/sparc-gaisler-elf/10.2.0/../../../../sparc-gaisler-elf/lib/mfix-b2bst/mfix-tn0013/flat/libc.a(lib_a-vfiprintf.o)
 .comment       0x0000000000000019       0x1a /home/fsw/rep/tasa/lib/bcc-2.2.3-gcc/bin/../lib/gcc/sparc-gaisler-elf/10.2.0/../../../../sparc-gaisler-elf/lib/mfix-b2bst/mfix-tn0013/flat/libc.a(lib_a-wbuf.o)
 .comment       0x0000000000000019       0x1a /home/fsw/rep/tasa/lib/bcc-2.2.3-gcc/bin/../lib/gcc/sparc-gaisler-elf/10.2.0/../../../../sparc-gaisler-elf/lib/mfix-b2bst/mfix-tn0013/flat/libc.a(lib_a-writer.o)
 .comment       0x0000000000000019       0x1a /home/fsw/rep/tasa/lib/bcc-2.2.3-gcc/bin/../lib/gcc/sparc-gaisler-elf/10.2.0/../../../../sparc-gaisler-elf/lib/mfix-b2bst/mfix-tn0013/flat/libc.a(lib_a-callocr.o)
 .comment       0x0000000000000019       0x1a /home/fsw/rep/tasa/lib/bcc-2.2.3-gcc/bin/../lib/gcc/sparc-gaisler-elf/10.2.0/../../../../sparc-gaisler-elf/lib/mfix-b2bst/mfix-tn0013/flat/libc.a(lib_a-closer.o)
 .comment       0x0000000000000019       0x1a /home/fsw/rep/tasa/lib/bcc-2.2.3-gcc/bin/../lib/gcc/sparc-gaisler-elf/10.2.0/../../../../sparc-gaisler-elf/lib/mfix-b2bst/mfix-tn0013/flat/libc.a(lib_a-fclose.o)
 .comment       0x0000000000000019       0x1a /home/fsw/rep/tasa/lib/bcc-2.2.3-gcc/bin/../lib/gcc/sparc-gaisler-elf/10.2.0/../../../../sparc-gaisler-elf/lib/mfix-b2bst/mfix-tn0013/flat/libc.a(lib_a-fputwc.o)
 .comment       0x0000000000000019       0x1a /home/fsw/rep/tasa/lib/bcc-2.2.3-gcc/bin/../lib/gcc/sparc-gaisler-elf/10.2.0/../../../../sparc-gaisler-elf/lib/mfix-b2bst/mfix-tn0013/flat/libc.a(lib_a-fstatr.o)
 .comment       0x0000000000000019       0x1a /home/fsw/rep/tasa/lib/bcc-2.2.3-gcc/bin/../lib/gcc/sparc-gaisler-elf/10.2.0/../../../../sparc-gaisler-elf/lib/mfix-b2bst/mfix-tn0013/flat/libc.a(lib_a-isattyr.o)
 .comment       0x0000000000000019       0x1a /home/fsw/rep/tasa/lib/bcc-2.2.3-gcc/bin/../lib/gcc/sparc-gaisler-elf/10.2.0/../../../../sparc-gaisler-elf/lib/mfix-b2bst/mfix-tn0013/flat/libc.a(lib_a-locale.o)
 .comment       0x0000000000000019       0x1a /home/fsw/rep/tasa/lib/bcc-2.2.3-gcc/bin/../lib/gcc/sparc-gaisler-elf/10.2.0/../../../../sparc-gaisler-elf/lib/mfix-b2bst/mfix-tn0013/flat/libc.a(lib_a-lseekr.o)
 .comment       0x0000000000000019       0x1a /home/fsw/rep/tasa/lib/bcc-2.2.3-gcc/bin/../lib/gcc/sparc-gaisler-elf/10.2.0/../../../../sparc-gaisler-elf/lib/mfix-b2bst/mfix-tn0013/flat/libc.a(lib_a-mbtowc_r.o)
 .comment       0x0000000000000019       0x1a /home/fsw/rep/tasa/lib/bcc-2.2.3-gcc/bin/../lib/gcc/sparc-gaisler-elf/10.2.0/../../../../sparc-gaisler-elf/lib/mfix-b2bst/mfix-tn0013/flat/libc.a(lib_a-readr.o)
 .comment       0x0000000000000019       0x1a /home/fsw/rep/tasa/lib/bcc-2.2.3-gcc/bin/../lib/gcc/sparc-gaisler-elf/10.2.0/../../../../sparc-gaisler-elf/lib/mfix-b2bst/mfix-tn0013/flat/libc.a(lib_a-reent.o)
 .comment       0x0000000000000019       0x1a /home/fsw/rep/tasa/lib/bcc-2.2.3-gcc/bin/../lib/gcc/sparc-gaisler-elf/10.2.0/../../../../sparc-gaisler-elf/lib/mfix-b2bst/mfix-tn0013/flat/libc.a(lib_a-strcmp.o)
 .comment       0x0000000000000019       0x1a /home/fsw/rep/tasa/lib/bcc-2.2.3-gcc/bin/../lib/gcc/sparc-gaisler-elf/10.2.0/../../../../sparc-gaisler-elf/lib/mfix-b2bst/mfix-tn0013/flat/libc.a(lib_a-wcrtomb.o)
 .comment       0x0000000000000019       0x1a /home/fsw/rep/tasa/lib/bcc-2.2.3-gcc/bin/../lib/gcc/sparc-gaisler-elf/10.2.0/../../../../sparc-gaisler-elf/lib/mfix-b2bst/mfix-tn0013/flat/libc.a(lib_a-wctomb_r.o)
 .comment       0x0000000000000019       0x1a /home/fsw/rep/tasa/lib/bcc-2.2.3-gcc/bin/../lib/gcc/sparc-gaisler-elf/10.2.0/../../../../sparc-gaisler-elf/lib/mfix-b2bst/mfix-tn0013/flat/libc.a(lib_a-ctype_.o)
 .comment       0x0000000000000019       0x1a /home/fsw/rep/tasa/lib/bcc-2.2.3-gcc/bin/../sparc-gaisler-elf/bsp/leon3/mfix-b2bst/mfix-tn0013/flat/libbcc.a(read.c.o)
 .comment       0x0000000000000019       0x1a /home/fsw/rep/tasa/lib/bcc-2.2.3-gcc/bin/../sparc-gaisler-elf/bsp/leon3/mfix-b2bst/mfix-tn0013/flat/libbcc.a(sbrk.c.o)
 .comment       0x0000000000000019       0x1a /home/fsw/rep/tasa/lib/bcc-2.2.3-gcc/bin/../sparc-gaisler-elf/bsp/leon3/mfix-b2bst/mfix-tn0013/flat/libbcc.a(heap.c.o)
 .comment       0x0000000000000019       0x1a /home/fsw/rep/tasa/lib/bcc-2.2.3-gcc/bin/../sparc-gaisler-elf/bsp/leon3/mfix-b2bst/mfix-tn0013/flat/libbcc.a(write.c.o)
 .comment       0x0000000000000019       0x1a /home/fsw/rep/tasa/lib/bcc-2.2.3-gcc/bin/../sparc-gaisler-elf/bsp/leon3/mfix-b2bst/mfix-tn0013/flat/libbcc.a(con_apbuart.c.o)
 .comment       0x0000000000000019       0x1a /home/fsw/rep/tasa/lib/bcc-2.2.3-gcc/bin/../lib/gcc/sparc-gaisler-elf/10.2.0/mfix-b2bst/mfix-tn0013/flat/libgcc.a(_udivdi3.o)
 .comment       0x0000000000000019       0x1a /home/fsw/rep/tasa/lib/bcc-2.2.3-gcc/bin/../lib/gcc/sparc-gaisler-elf/10.2.0/mfix-b2bst/mfix-tn0013/flat/libgcc.a(_umoddi3.o)
 .comment       0x0000000000000019       0x1a /home/fsw/rep/tasa/lib/bcc-2.2.3-gcc/bin/../lib/gcc/sparc-gaisler-elf/10.2.0/mfix-b2bst/mfix-tn0013/flat/libgcc.a(_clz.o)
 .comment       0x0000000000000019       0x1a /home/fsw/rep/tasa/lib/bcc-2.2.3-gcc/bin/../lib/gcc/sparc-gaisler-elf/10.2.0/mfix-b2bst/mfix-tn0013/flat/crtend.o

.debug_macinfo
 *(.debug_macinfo)

.debug_weaknames
 *(.debug_weaknames)

.debug_funcnames
 *(.debug_funcnames)

.debug_typenames
 *(.debug_typenames)

.debug_varnames
 *(.debug_varnames)
LOAD /home/fsw/rep/tasa/lib/bcc-2.2.3-gcc/bin/../lib/gcc/sparc-gaisler-elf/10.2.0/mfix-b2bst/mfix-tn0013/flat/libgcc.a
START GROUP
LOAD /home/fsw/rep/tasa/lib/bcc-2.2.3-gcc/bin/../sparc-gaisler-elf/bsp/leon3/mfix-b2bst/mfix-tn0013/flat/libbcc.a
LOAD /home/fsw/rep/tasa/lib/bcc-2.2.3-gcc/bin/../lib/gcc/sparc-gaisler-elf/10.2.0/mfix-b2bst/mfix-tn0013/flat/libatomic.a
LOAD /home/fsw/rep/tasa/lib/bcc-2.2.3-gcc/bin/../lib/gcc/sparc-gaisler-elf/10.2.0/../../../../sparc-gaisler-elf/lib/mfix-b2bst/mfix-tn0013/flat/libc.a
END GROUP
LOAD /home/fsw/rep/tasa/lib/bcc-2.2.3-gcc/bin/../lib/gcc/sparc-gaisler-elf/10.2.0/mfix-b2bst/mfix-tn0013/flat/libgcc.a
LOAD /home/fsw/rep/tasa/lib/bcc-2.2.3-gcc/bin/../lib/gcc/sparc-gaisler-elf/10.2.0/mfix-b2bst/mfix-tn0013/flat/crtend.o
LOAD /home/fsw/rep/tasa/lib/bcc-2.2.3-gcc/bin/../lib/gcc/sparc-gaisler-elf/10.2.0/mfix-b2bst/mfix-tn0013/flat/crtn.o
OUTPUT(bin/leon3/mfix-b2bst/mfix-tn0013/flat/bcc_amp0.elf elf32-sparc)

.debug_ranges   0x0000000000000000     0x1758
 .debug_ranges  0x0000000000000000       0x10 /tmp/ccvGHBjf.o
 .debug_ranges  0x0000000000000010       0x90 /home/fsw/rep/tasa/lib/bcc-2.2.3-gcc/bin/../sparc-gaisler-elf/bsp/leon3/mfix-b2bst/mfix-tn0013/flat/libbcc.a(int_irqmp_init.c.o)
 .debug_ranges  0x00000000000000a0      0x178 /home/fsw/rep/tasa/lib/bcc-2.2.3-gcc/bin/../sparc-gaisler-elf/bsp/leon3/mfix-b2bst/mfix-tn0013/flat/libbcc.a(ambapp.c.o)
 .debug_ranges  0x0000000000000218       0x68 /home/fsw/rep/tasa/lib/bcc-2.2.3-gcc/bin/../lib/gcc/sparc-gaisler-elf/10.2.0/../../../../sparc-gaisler-elf/lib/mfix-b2bst/mfix-tn0013/flat/libc.a(lib_a-puts.o)
 .debug_ranges  0x0000000000000280      0x290 /home/fsw/rep/tasa/lib/bcc-2.2.3-gcc/bin/../lib/gcc/sparc-gaisler-elf/10.2.0/../../../../sparc-gaisler-elf/lib/mfix-b2bst/mfix-tn0013/flat/libc.a(lib_a-vfprintf.o)
 .debug_ranges  0x0000000000000510       0x38 /home/fsw/rep/tasa/lib/bcc-2.2.3-gcc/bin/../lib/gcc/sparc-gaisler-elf/10.2.0/../../../../sparc-gaisler-elf/lib/mfix-b2bst/mfix-tn0013/flat/libc.a(lib_a-wsetup.o)
 .debug_ranges  0x0000000000000548       0x60 /home/fsw/rep/tasa/lib/bcc-2.2.3-gcc/bin/../lib/gcc/sparc-gaisler-elf/10.2.0/../../../../sparc-gaisler-elf/lib/mfix-b2bst/mfix-tn0013/flat/libc.a(lib_a-__call_atexit.o)
 .debug_ranges  0x00000000000005a8       0x28 /home/fsw/rep/tasa/lib/bcc-2.2.3-gcc/bin/../lib/gcc/sparc-gaisler-elf/10.2.0/../../../../sparc-gaisler-elf/lib/mfix-b2bst/mfix-tn0013/flat/libc.a(lib_a-dtoa.o)
 .debug_ranges  0x00000000000005d0       0xb0 /home/fsw/rep/tasa/lib/bcc-2.2.3-gcc/bin/../lib/gcc/sparc-gaisler-elf/10.2.0/../../../../sparc-gaisler-elf/lib/mfix-b2bst/mfix-tn0013/flat/libc.a(lib_a-fflush.o)
 .debug_ranges  0x0000000000000680       0x88 /home/fsw/rep/tasa/lib/bcc-2.2.3-gcc/bin/../lib/gcc/sparc-gaisler-elf/10.2.0/../../../../sparc-gaisler-elf/lib/mfix-b2bst/mfix-tn0013/flat/libc.a(lib_a-findfp.o)
 .debug_ranges  0x0000000000000708       0x30 /home/fsw/rep/tasa/lib/bcc-2.2.3-gcc/bin/../lib/gcc/sparc-gaisler-elf/10.2.0/../../../../sparc-gaisler-elf/lib/mfix-b2bst/mfix-tn0013/flat/libc.a(lib_a-fvwrite.o)
 .debug_ranges  0x0000000000000738       0x70 /home/fsw/rep/tasa/lib/bcc-2.2.3-gcc/bin/../lib/gcc/sparc-gaisler-elf/10.2.0/../../../../sparc-gaisler-elf/lib/mfix-b2bst/mfix-tn0013/flat/libc.a(lib_a-localeconv.o)
 .debug_ranges  0x00000000000007a8       0x68 /home/fsw/rep/tasa/lib/bcc-2.2.3-gcc/bin/../lib/gcc/sparc-gaisler-elf/10.2.0/../../../../sparc-gaisler-elf/lib/mfix-b2bst/mfix-tn0013/flat/libc.a(lib_a-makebuf.o)
 .debug_ranges  0x0000000000000810       0x30 /home/fsw/rep/tasa/lib/bcc-2.2.3-gcc/bin/../lib/gcc/sparc-gaisler-elf/10.2.0/../../../../sparc-gaisler-elf/lib/mfix-b2bst/mfix-tn0013/flat/libc.a(lib_a-mallocr.o)
 .debug_ranges  0x0000000000000840      0x398 /home/fsw/rep/tasa/lib/bcc-2.2.3-gcc/bin/../lib/gcc/sparc-gaisler-elf/10.2.0/../../../../sparc-gaisler-elf/lib/mfix-b2bst/mfix-tn0013/flat/libc.a(lib_a-mprec.o)
 .debug_ranges  0x0000000000000bd8       0x88 /home/fsw/rep/tasa/lib/bcc-2.2.3-gcc/bin/../lib/gcc/sparc-gaisler-elf/10.2.0/../../../../sparc-gaisler-elf/lib/mfix-b2bst/mfix-tn0013/flat/libc.a(lib_a-putc.o)
 .debug_ranges  0x0000000000000c60      0x150 /home/fsw/rep/tasa/lib/bcc-2.2.3-gcc/bin/../lib/gcc/sparc-gaisler-elf/10.2.0/../../../../sparc-gaisler-elf/lib/mfix-b2bst/mfix-tn0013/flat/libc.a(lib_a-reallocr.o)
 .debug_ranges  0x0000000000000db0       0x40 /home/fsw/rep/tasa/lib/bcc-2.2.3-gcc/bin/../lib/gcc/sparc-gaisler-elf/10.2.0/../../../../sparc-gaisler-elf/lib/mfix-b2bst/mfix-tn0013/flat/libc.a(lib_a-s_frexp.o)
 .debug_ranges  0x0000000000000df0      0x648 /home/fsw/rep/tasa/lib/bcc-2.2.3-gcc/bin/../lib/gcc/sparc-gaisler-elf/10.2.0/../../../../sparc-gaisler-elf/lib/mfix-b2bst/mfix-tn0013/flat/libc.a(lib_a-vfiprintf.o)
 .debug_ranges  0x0000000000001438       0x90 /home/fsw/rep/tasa/lib/bcc-2.2.3-gcc/bin/../lib/gcc/sparc-gaisler-elf/10.2.0/../../../../sparc-gaisler-elf/lib/mfix-b2bst/mfix-tn0013/flat/libc.a(lib_a-wbuf.o)
 .debug_ranges  0x00000000000014c8       0x40 /home/fsw/rep/tasa/lib/bcc-2.2.3-gcc/bin/../lib/gcc/sparc-gaisler-elf/10.2.0/../../../../sparc-gaisler-elf/lib/mfix-b2bst/mfix-tn0013/flat/libc.a(lib_a-callocr.o)
 .debug_ranges  0x0000000000001508       0x88 /home/fsw/rep/tasa/lib/bcc-2.2.3-gcc/bin/../lib/gcc/sparc-gaisler-elf/10.2.0/../../../../sparc-gaisler-elf/lib/mfix-b2bst/mfix-tn0013/flat/libc.a(lib_a-fclose.o)
 .debug_ranges  0x0000000000001590       0x48 /home/fsw/rep/tasa/lib/bcc-2.2.3-gcc/bin/../lib/gcc/sparc-gaisler-elf/10.2.0/../../../../sparc-gaisler-elf/lib/mfix-b2bst/mfix-tn0013/flat/libc.a(lib_a-fputwc.o)
 .debug_ranges  0x00000000000015d8       0x48 /home/fsw/rep/tasa/lib/bcc-2.2.3-gcc/bin/../lib/gcc/sparc-gaisler-elf/10.2.0/../../../../sparc-gaisler-elf/lib/mfix-b2bst/mfix-tn0013/flat/libc.a(lib_a-locale.o)
 .debug_ranges  0x0000000000001620       0x20 /home/fsw/rep/tasa/lib/bcc-2.2.3-gcc/bin/../lib/gcc/sparc-gaisler-elf/10.2.0/../../../../sparc-gaisler-elf/lib/mfix-b2bst/mfix-tn0013/flat/libc.a(lib_a-mbtowc_r.o)
 .debug_ranges  0x0000000000001640       0x20 /home/fsw/rep/tasa/lib/bcc-2.2.3-gcc/bin/../lib/gcc/sparc-gaisler-elf/10.2.0/../../../../sparc-gaisler-elf/lib/mfix-b2bst/mfix-tn0013/flat/libc.a(lib_a-reent.o)
 .debug_ranges  0x0000000000001660       0x18 /home/fsw/rep/tasa/lib/bcc-2.2.3-gcc/bin/../lib/gcc/sparc-gaisler-elf/10.2.0/../../../../sparc-gaisler-elf/lib/mfix-b2bst/mfix-tn0013/flat/libc.a(lib_a-wcrtomb.o)
 .debug_ranges  0x0000000000001678       0x20 /home/fsw/rep/tasa/lib/bcc-2.2.3-gcc/bin/../lib/gcc/sparc-gaisler-elf/10.2.0/../../../../sparc-gaisler-elf/lib/mfix-b2bst/mfix-tn0013/flat/libc.a(lib_a-wctomb_r.o)
 .debug_ranges  0x0000000000001698       0x18 /home/fsw/rep/tasa/lib/bcc-2.2.3-gcc/bin/../sparc-gaisler-elf/bsp/leon3/mfix-b2bst/mfix-tn0013/flat/libbcc.a(read.c.o)
 .debug_ranges  0x00000000000016b0       0x18 /home/fsw/rep/tasa/lib/bcc-2.2.3-gcc/bin/../sparc-gaisler-elf/bsp/leon3/mfix-b2bst/mfix-tn0013/flat/libbcc.a(write.c.o)
 .debug_ranges  0x00000000000016c8       0x50 /home/fsw/rep/tasa/lib/bcc-2.2.3-gcc/bin/../lib/gcc/sparc-gaisler-elf/10.2.0/mfix-b2bst/mfix-tn0013/flat/libgcc.a(_udivdi3.o)
 .debug_ranges  0x0000000000001718       0x40 /home/fsw/rep/tasa/lib/bcc-2.2.3-gcc/bin/../lib/gcc/sparc-gaisler-elf/10.2.0/mfix-b2bst/mfix-tn0013/flat/libgcc.a(_umoddi3.o)
