Archive member included to satisfy reference by file (symbol)

/home/fsw/rep/tasa/lib/bcc-2.2.3-gcc/bin/../sparc-gaisler-elf/bsp/leon3/mfix-b2bst/soft/libbcc.a(reset_trap_mvt.S.o)
                              /home/fsw/rep/tasa/lib/bcc-2.2.3-gcc/bin/../sparc-gaisler-elf/bsp/leon3/mfix-b2bst/soft/trap_table_mvt.S.o (__bcc_trap_reset_mvt)
/home/fsw/rep/tasa/lib/bcc-2.2.3-gcc/bin/../sparc-gaisler-elf/bsp/leon3/mfix-b2bst/soft/libbcc.a(window_trap.S.o)
                              /home/fsw/rep/tasa/lib/bcc-2.2.3-gcc/bin/../sparc-gaisler-elf/bsp/leon3/mfix-b2bst/soft/trap_table_mvt.S.o (__bcc_trap_window_overflow)
/home/fsw/rep/tasa/lib/bcc-2.2.3-gcc/bin/../sparc-gaisler-elf/bsp/leon3/mfix-b2bst/soft/libbcc.a(interrupt_trap.S.o)
                              /home/fsw/rep/tasa/lib/bcc-2.2.3-gcc/bin/../sparc-gaisler-elf/bsp/leon3/mfix-b2bst/soft/trap_table_mvt.S.o (__bcc_trap_interrupt)
/home/fsw/rep/tasa/lib/bcc-2.2.3-gcc/bin/../sparc-gaisler-elf/bsp/leon3/mfix-b2bst/soft/libbcc.a(flush_windows_trap.S.o)
                              /home/fsw/rep/tasa/lib/bcc-2.2.3-gcc/bin/../sparc-gaisler-elf/bsp/leon3/mfix-b2bst/soft/trap_table_mvt.S.o (__bcc_trap_flush_windows)
/home/fsw/rep/tasa/lib/bcc-2.2.3-gcc/bin/../sparc-gaisler-elf/bsp/leon3/mfix-b2bst/soft/libbcc.a(sw_trap_set_pil.S.o)
                              /home/fsw/rep/tasa/lib/bcc-2.2.3-gcc/bin/../sparc-gaisler-elf/bsp/leon3/mfix-b2bst/soft/trap_table_mvt.S.o (__bcc_trap_sw_set_pil)
/home/fsw/rep/tasa/lib/bcc-2.2.3-gcc/bin/../sparc-gaisler-elf/bsp/leon3/mfix-b2bst/soft/libbcc.a(isr.c.o)
                              /home/fsw/rep/tasa/lib/bcc-2.2.3-gcc/bin/../sparc-gaisler-elf/bsp/leon3/mfix-b2bst/soft/libbcc.a(interrupt_trap.S.o) (__bcc_isr_list)
/home/fsw/rep/tasa/lib/bcc-2.2.3-gcc/bin/../sparc-gaisler-elf/bsp/leon3/mfix-b2bst/soft/libbcc.a(int_nest.c.o)
                              /home/fsw/rep/tasa/lib/bcc-2.2.3-gcc/bin/../sparc-gaisler-elf/bsp/leon3/mfix-b2bst/soft/libbcc.a(interrupt_trap.S.o) (__bcc_int_nest)
/home/fsw/rep/tasa/lib/bcc-2.2.3-gcc/bin/../sparc-gaisler-elf/bsp/leon3/mfix-b2bst/soft/libbcc.a(init.S.o)
                              /home/fsw/rep/tasa/lib/bcc-2.2.3-gcc/bin/../sparc-gaisler-elf/bsp/leon3/mfix-b2bst/soft/libbcc.a(reset_trap_mvt.S.o) (__bcc_init40)
/home/fsw/rep/tasa/lib/bcc-2.2.3-gcc/bin/../sparc-gaisler-elf/bsp/leon3/mfix-b2bst/soft/libbcc.a(leon_info.S.o)
                              /home/fsw/rep/tasa/lib/bcc-2.2.3-gcc/bin/../sparc-gaisler-elf/bsp/leon3/mfix-b2bst/soft/crt0.S.o (__bcc_get_leon_info)
/home/fsw/rep/tasa/lib/bcc-2.2.3-gcc/bin/../sparc-gaisler-elf/bsp/leon3/mfix-b2bst/soft/libbcc.a(dwzero.S.o)
                              /home/fsw/rep/tasa/lib/bcc-2.2.3-gcc/bin/../sparc-gaisler-elf/bsp/leon3/mfix-b2bst/soft/crt0.S.o (bcc_dwzero)
/home/fsw/rep/tasa/lib/bcc-2.2.3-gcc/bin/../sparc-gaisler-elf/bsp/leon3/mfix-b2bst/soft/libbcc.a(copy_data.c.o)
                              /home/fsw/rep/tasa/lib/bcc-2.2.3-gcc/bin/../sparc-gaisler-elf/bsp/leon3/mfix-b2bst/soft/crt0.S.o (__bcc_copy_data)
/home/fsw/rep/tasa/lib/bcc-2.2.3-gcc/bin/../sparc-gaisler-elf/bsp/leon3/mfix-b2bst/soft/libbcc.a(argv.c.o)
                              /home/fsw/rep/tasa/lib/bcc-2.2.3-gcc/bin/../sparc-gaisler-elf/bsp/leon3/mfix-b2bst/soft/crt0.S.o (__bcc_argvp)
/home/fsw/rep/tasa/lib/bcc-2.2.3-gcc/bin/../sparc-gaisler-elf/bsp/leon3/mfix-b2bst/soft/libbcc.a(int_irqmp_get_source.c.o)
                              /home/fsw/rep/tasa/lib/bcc-2.2.3-gcc/bin/../sparc-gaisler-elf/bsp/leon3/mfix-b2bst/soft/libbcc.a(interrupt_trap.S.o) (__bcc_int_get_source)
/home/fsw/rep/tasa/lib/bcc-2.2.3-gcc/bin/../sparc-gaisler-elf/bsp/leon3/mfix-b2bst/soft/libbcc.a(int_irqmp_mp.c.o)
                              /tmp/ccjQJ0Dl.o (bcc_get_cpu_count)
/home/fsw/rep/tasa/lib/bcc-2.2.3-gcc/bin/../sparc-gaisler-elf/bsp/leon3/mfix-b2bst/soft/libbcc.a(int_irqmp_init.c.o)
                              /home/fsw/rep/tasa/lib/bcc-2.2.3-gcc/bin/../sparc-gaisler-elf/bsp/leon3/mfix-b2bst/soft/crt0.S.o (__bcc_int_init)
/home/fsw/rep/tasa/lib/bcc-2.2.3-gcc/bin/../sparc-gaisler-elf/bsp/leon3/mfix-b2bst/soft/libbcc.a(con_apbuart_init.c.o)
                              /home/fsw/rep/tasa/lib/bcc-2.2.3-gcc/bin/../sparc-gaisler-elf/bsp/leon3/mfix-b2bst/soft/crt0.S.o (__bcc_con_init)
/home/fsw/rep/tasa/lib/bcc-2.2.3-gcc/bin/../sparc-gaisler-elf/bsp/leon3/mfix-b2bst/soft/libbcc.a(timer_gptimer_init.c.o)
                              /home/fsw/rep/tasa/lib/bcc-2.2.3-gcc/bin/../sparc-gaisler-elf/bsp/leon3/mfix-b2bst/soft/crt0.S.o (__bcc_timer_init)
/home/fsw/rep/tasa/lib/bcc-2.2.3-gcc/bin/../sparc-gaisler-elf/bsp/leon3/mfix-b2bst/soft/libbcc.a(ambapp.c.o)
                              /home/fsw/rep/tasa/lib/bcc-2.2.3-gcc/bin/../sparc-gaisler-elf/bsp/leon3/mfix-b2bst/soft/libbcc.a(int_irqmp_init.c.o) (ambapp_visit)
/home/fsw/rep/tasa/lib/bcc-2.2.3-gcc/bin/../sparc-gaisler-elf/bsp/leon3/mfix-b2bst/soft/libbcc.a(ambapp_findfirst_fn.c.o)
                              /home/fsw/rep/tasa/lib/bcc-2.2.3-gcc/bin/../sparc-gaisler-elf/bsp/leon3/mfix-b2bst/soft/libbcc.a(int_irqmp_init.c.o) (ambapp_findfirst_fn)
/home/fsw/rep/tasa/lib/bcc-2.2.3-gcc/bin/../sparc-gaisler-elf/bsp/leon3/mfix-b2bst/soft/libbcc.a(int_irqmp_handle.c.o)
                              /home/fsw/rep/tasa/lib/bcc-2.2.3-gcc/bin/../sparc-gaisler-elf/bsp/leon3/mfix-b2bst/soft/libbcc.a(int_irqmp_init.c.o) (__bcc_int_irqmp_nts)
/home/fsw/rep/tasa/lib/bcc-2.2.3-gcc/bin/../sparc-gaisler-elf/bsp/leon3/mfix-b2bst/soft/libbcc.a(con_handle.c.o)
                              /home/fsw/rep/tasa/lib/bcc-2.2.3-gcc/bin/../sparc-gaisler-elf/bsp/leon3/mfix-b2bst/soft/libbcc.a(con_apbuart_init.c.o) (__bcc_con_handle)
/home/fsw/rep/tasa/lib/bcc-2.2.3-gcc/bin/../sparc-gaisler-elf/bsp/leon3/mfix-b2bst/soft/libbcc.a(timer_handle.c.o)
                              /home/fsw/rep/tasa/lib/bcc-2.2.3-gcc/bin/../sparc-gaisler-elf/bsp/leon3/mfix-b2bst/soft/libbcc.a(timer_gptimer_init.c.o) (__bcc_timer_interrupt)
/home/fsw/rep/tasa/lib/bcc-2.2.3-gcc/bin/../lib/gcc/sparc-gaisler-elf/10.2.0/../../../../sparc-gaisler-elf/lib/mfix-b2bst/soft/libc.a(lib_a-atexit.o)
                              /home/fsw/rep/tasa/lib/bcc-2.2.3-gcc/bin/../sparc-gaisler-elf/bsp/leon3/mfix-b2bst/soft/crt0.S.o (atexit)
/home/fsw/rep/tasa/lib/bcc-2.2.3-gcc/bin/../lib/gcc/sparc-gaisler-elf/10.2.0/../../../../sparc-gaisler-elf/lib/mfix-b2bst/soft/libc.a(lib_a-exit.o)
                              /home/fsw/rep/tasa/lib/bcc-2.2.3-gcc/bin/../sparc-gaisler-elf/bsp/leon3/mfix-b2bst/soft/crt0.S.o (exit)
/home/fsw/rep/tasa/lib/bcc-2.2.3-gcc/bin/../lib/gcc/sparc-gaisler-elf/10.2.0/../../../../sparc-gaisler-elf/lib/mfix-b2bst/soft/libc.a(lib_a-impure.o)
                              /home/fsw/rep/tasa/lib/bcc-2.2.3-gcc/bin/../lib/gcc/sparc-gaisler-elf/10.2.0/../../../../sparc-gaisler-elf/lib/mfix-b2bst/soft/libc.a(lib_a-exit.o) (_global_impure_ptr)
/home/fsw/rep/tasa/lib/bcc-2.2.3-gcc/bin/../lib/gcc/sparc-gaisler-elf/10.2.0/../../../../sparc-gaisler-elf/lib/mfix-b2bst/soft/libc.a(lib_a-memcpy.o)
                              /home/fsw/rep/tasa/lib/bcc-2.2.3-gcc/bin/../sparc-gaisler-elf/bsp/leon3/mfix-b2bst/soft/libbcc.a(ambapp_findfirst_fn.c.o) (memcpy)
/home/fsw/rep/tasa/lib/bcc-2.2.3-gcc/bin/../lib/gcc/sparc-gaisler-elf/10.2.0/../../../../sparc-gaisler-elf/lib/mfix-b2bst/soft/libc.a(lib_a-printf.o)
                              /tmp/ccjQJ0Dl.o (printf)
/home/fsw/rep/tasa/lib/bcc-2.2.3-gcc/bin/../lib/gcc/sparc-gaisler-elf/10.2.0/../../../../sparc-gaisler-elf/lib/mfix-b2bst/soft/libc.a(lib_a-putchar.o)
                              /tmp/ccjQJ0Dl.o (putchar)
/home/fsw/rep/tasa/lib/bcc-2.2.3-gcc/bin/../lib/gcc/sparc-gaisler-elf/10.2.0/../../../../sparc-gaisler-elf/lib/mfix-b2bst/soft/libc.a(lib_a-puts.o)
                              /tmp/ccjQJ0Dl.o (puts)
/home/fsw/rep/tasa/lib/bcc-2.2.3-gcc/bin/../lib/gcc/sparc-gaisler-elf/10.2.0/../../../../sparc-gaisler-elf/lib/mfix-b2bst/soft/libc.a(lib_a-strlen.o)
                              /home/fsw/rep/tasa/lib/bcc-2.2.3-gcc/bin/../lib/gcc/sparc-gaisler-elf/10.2.0/../../../../sparc-gaisler-elf/lib/mfix-b2bst/soft/libc.a(lib_a-puts.o) (strlen)
/home/fsw/rep/tasa/lib/bcc-2.2.3-gcc/bin/../lib/gcc/sparc-gaisler-elf/10.2.0/../../../../sparc-gaisler-elf/lib/mfix-b2bst/soft/libc.a(lib_a-vfprintf.o)
                              /home/fsw/rep/tasa/lib/bcc-2.2.3-gcc/bin/../lib/gcc/sparc-gaisler-elf/10.2.0/../../../../sparc-gaisler-elf/lib/mfix-b2bst/soft/libc.a(lib_a-printf.o) (_vfprintf_r)
/home/fsw/rep/tasa/lib/bcc-2.2.3-gcc/bin/../lib/gcc/sparc-gaisler-elf/10.2.0/../../../../sparc-gaisler-elf/lib/mfix-b2bst/soft/libc.a(lib_a-wsetup.o)
                              /home/fsw/rep/tasa/lib/bcc-2.2.3-gcc/bin/../lib/gcc/sparc-gaisler-elf/10.2.0/../../../../sparc-gaisler-elf/lib/mfix-b2bst/soft/libc.a(lib_a-vfprintf.o) (__swsetup_r)
/home/fsw/rep/tasa/lib/bcc-2.2.3-gcc/bin/../lib/gcc/sparc-gaisler-elf/10.2.0/../../../../sparc-gaisler-elf/lib/mfix-b2bst/soft/libc.a(lib_a-__atexit.o)
                              /home/fsw/rep/tasa/lib/bcc-2.2.3-gcc/bin/../lib/gcc/sparc-gaisler-elf/10.2.0/../../../../sparc-gaisler-elf/lib/mfix-b2bst/soft/libc.a(lib_a-atexit.o) (__register_exitproc)
/home/fsw/rep/tasa/lib/bcc-2.2.3-gcc/bin/../lib/gcc/sparc-gaisler-elf/10.2.0/../../../../sparc-gaisler-elf/lib/mfix-b2bst/soft/libc.a(lib_a-__call_atexit.o)
                              /home/fsw/rep/tasa/lib/bcc-2.2.3-gcc/bin/../lib/gcc/sparc-gaisler-elf/10.2.0/../../../../sparc-gaisler-elf/lib/mfix-b2bst/soft/libc.a(lib_a-exit.o) (__call_exitprocs)
/home/fsw/rep/tasa/lib/bcc-2.2.3-gcc/bin/../lib/gcc/sparc-gaisler-elf/10.2.0/../../../../sparc-gaisler-elf/lib/mfix-b2bst/soft/libc.a(lib_a-dtoa.o)
                              /home/fsw/rep/tasa/lib/bcc-2.2.3-gcc/bin/../lib/gcc/sparc-gaisler-elf/10.2.0/../../../../sparc-gaisler-elf/lib/mfix-b2bst/soft/libc.a(lib_a-vfprintf.o) (_dtoa_r)
/home/fsw/rep/tasa/lib/bcc-2.2.3-gcc/bin/../lib/gcc/sparc-gaisler-elf/10.2.0/../../../../sparc-gaisler-elf/lib/mfix-b2bst/soft/libc.a(lib_a-fflush.o)
                              /home/fsw/rep/tasa/lib/bcc-2.2.3-gcc/bin/../lib/gcc/sparc-gaisler-elf/10.2.0/../../../../sparc-gaisler-elf/lib/mfix-b2bst/soft/libc.a(lib_a-vfprintf.o) (_fflush_r)
/home/fsw/rep/tasa/lib/bcc-2.2.3-gcc/bin/../lib/gcc/sparc-gaisler-elf/10.2.0/../../../../sparc-gaisler-elf/lib/mfix-b2bst/soft/libc.a(lib_a-findfp.o)
                              /home/fsw/rep/tasa/lib/bcc-2.2.3-gcc/bin/../lib/gcc/sparc-gaisler-elf/10.2.0/../../../../sparc-gaisler-elf/lib/mfix-b2bst/soft/libc.a(lib_a-printf.o) (__sinit)
/home/fsw/rep/tasa/lib/bcc-2.2.3-gcc/bin/../lib/gcc/sparc-gaisler-elf/10.2.0/../../../../sparc-gaisler-elf/lib/mfix-b2bst/soft/libc.a(lib_a-freer.o)
                              /home/fsw/rep/tasa/lib/bcc-2.2.3-gcc/bin/../lib/gcc/sparc-gaisler-elf/10.2.0/../../../../sparc-gaisler-elf/lib/mfix-b2bst/soft/libc.a(lib_a-vfprintf.o) (_free_r)
/home/fsw/rep/tasa/lib/bcc-2.2.3-gcc/bin/../lib/gcc/sparc-gaisler-elf/10.2.0/../../../../sparc-gaisler-elf/lib/mfix-b2bst/soft/libc.a(lib_a-fvwrite.o)
                              /home/fsw/rep/tasa/lib/bcc-2.2.3-gcc/bin/../lib/gcc/sparc-gaisler-elf/10.2.0/../../../../sparc-gaisler-elf/lib/mfix-b2bst/soft/libc.a(lib_a-puts.o) (__sfvwrite_r)
/home/fsw/rep/tasa/lib/bcc-2.2.3-gcc/bin/../lib/gcc/sparc-gaisler-elf/10.2.0/../../../../sparc-gaisler-elf/lib/mfix-b2bst/soft/libc.a(lib_a-fwalk.o)
                              /home/fsw/rep/tasa/lib/bcc-2.2.3-gcc/bin/../lib/gcc/sparc-gaisler-elf/10.2.0/../../../../sparc-gaisler-elf/lib/mfix-b2bst/soft/libc.a(lib_a-fflush.o) (_fwalk_reent)
/home/fsw/rep/tasa/lib/bcc-2.2.3-gcc/bin/../lib/gcc/sparc-gaisler-elf/10.2.0/../../../../sparc-gaisler-elf/lib/mfix-b2bst/soft/libc.a(lib_a-localeconv.o)
                              /home/fsw/rep/tasa/lib/bcc-2.2.3-gcc/bin/../lib/gcc/sparc-gaisler-elf/10.2.0/../../../../sparc-gaisler-elf/lib/mfix-b2bst/soft/libc.a(lib_a-vfprintf.o) (_localeconv_r)
/home/fsw/rep/tasa/lib/bcc-2.2.3-gcc/bin/../lib/gcc/sparc-gaisler-elf/10.2.0/../../../../sparc-gaisler-elf/lib/mfix-b2bst/soft/libc.a(lib_a-makebuf.o)
                              /home/fsw/rep/tasa/lib/bcc-2.2.3-gcc/bin/../lib/gcc/sparc-gaisler-elf/10.2.0/../../../../sparc-gaisler-elf/lib/mfix-b2bst/soft/libc.a(lib_a-wsetup.o) (__smakebuf_r)
/home/fsw/rep/tasa/lib/bcc-2.2.3-gcc/bin/../lib/gcc/sparc-gaisler-elf/10.2.0/../../../../sparc-gaisler-elf/lib/mfix-b2bst/soft/libc.a(lib_a-malloc.o)
                              /home/fsw/rep/tasa/lib/bcc-2.2.3-gcc/bin/../lib/gcc/sparc-gaisler-elf/10.2.0/../../../../sparc-gaisler-elf/lib/mfix-b2bst/soft/libc.a(lib_a-dtoa.o) (malloc)
/home/fsw/rep/tasa/lib/bcc-2.2.3-gcc/bin/../lib/gcc/sparc-gaisler-elf/10.2.0/../../../../sparc-gaisler-elf/lib/mfix-b2bst/soft/libc.a(lib_a-mallocr.o)
                              /home/fsw/rep/tasa/lib/bcc-2.2.3-gcc/bin/../lib/gcc/sparc-gaisler-elf/10.2.0/../../../../sparc-gaisler-elf/lib/mfix-b2bst/soft/libc.a(lib_a-vfprintf.o) (_malloc_r)
/home/fsw/rep/tasa/lib/bcc-2.2.3-gcc/bin/../lib/gcc/sparc-gaisler-elf/10.2.0/../../../../sparc-gaisler-elf/lib/mfix-b2bst/soft/libc.a(lib_a-memchr.o)
                              /home/fsw/rep/tasa/lib/bcc-2.2.3-gcc/bin/../lib/gcc/sparc-gaisler-elf/10.2.0/../../../../sparc-gaisler-elf/lib/mfix-b2bst/soft/libc.a(lib_a-vfprintf.o) (memchr)
/home/fsw/rep/tasa/lib/bcc-2.2.3-gcc/bin/../lib/gcc/sparc-gaisler-elf/10.2.0/../../../../sparc-gaisler-elf/lib/mfix-b2bst/soft/libc.a(lib_a-memmove.o)
                              /home/fsw/rep/tasa/lib/bcc-2.2.3-gcc/bin/../lib/gcc/sparc-gaisler-elf/10.2.0/../../../../sparc-gaisler-elf/lib/mfix-b2bst/soft/libc.a(lib_a-fvwrite.o) (memmove)
/home/fsw/rep/tasa/lib/bcc-2.2.3-gcc/bin/../lib/gcc/sparc-gaisler-elf/10.2.0/../../../../sparc-gaisler-elf/lib/mfix-b2bst/soft/libc.a(lib_a-memset.o)
                              /home/fsw/rep/tasa/lib/bcc-2.2.3-gcc/bin/../lib/gcc/sparc-gaisler-elf/10.2.0/../../../../sparc-gaisler-elf/lib/mfix-b2bst/soft/libc.a(lib_a-findfp.o) (memset)
/home/fsw/rep/tasa/lib/bcc-2.2.3-gcc/bin/../lib/gcc/sparc-gaisler-elf/10.2.0/../../../../sparc-gaisler-elf/lib/mfix-b2bst/soft/libc.a(lib_a-mlock.o)
                              /home/fsw/rep/tasa/lib/bcc-2.2.3-gcc/bin/../lib/gcc/sparc-gaisler-elf/10.2.0/../../../../sparc-gaisler-elf/lib/mfix-b2bst/soft/libc.a(lib_a-freer.o) (__malloc_lock)
/home/fsw/rep/tasa/lib/bcc-2.2.3-gcc/bin/../lib/gcc/sparc-gaisler-elf/10.2.0/../../../../sparc-gaisler-elf/lib/mfix-b2bst/soft/libc.a(lib_a-mprec.o)
                              /home/fsw/rep/tasa/lib/bcc-2.2.3-gcc/bin/../lib/gcc/sparc-gaisler-elf/10.2.0/../../../../sparc-gaisler-elf/lib/mfix-b2bst/soft/libc.a(lib_a-dtoa.o) (_Balloc)
/home/fsw/rep/tasa/lib/bcc-2.2.3-gcc/bin/../lib/gcc/sparc-gaisler-elf/10.2.0/../../../../sparc-gaisler-elf/lib/mfix-b2bst/soft/libc.a(lib_a-putc.o)
                              /home/fsw/rep/tasa/lib/bcc-2.2.3-gcc/bin/../lib/gcc/sparc-gaisler-elf/10.2.0/../../../../sparc-gaisler-elf/lib/mfix-b2bst/soft/libc.a(lib_a-putchar.o) (_putc_r)
/home/fsw/rep/tasa/lib/bcc-2.2.3-gcc/bin/../lib/gcc/sparc-gaisler-elf/10.2.0/../../../../sparc-gaisler-elf/lib/mfix-b2bst/soft/libc.a(lib_a-reallocr.o)
                              /home/fsw/rep/tasa/lib/bcc-2.2.3-gcc/bin/../lib/gcc/sparc-gaisler-elf/10.2.0/../../../../sparc-gaisler-elf/lib/mfix-b2bst/soft/libc.a(lib_a-fvwrite.o) (_realloc_r)
/home/fsw/rep/tasa/lib/bcc-2.2.3-gcc/bin/../lib/gcc/sparc-gaisler-elf/10.2.0/../../../../sparc-gaisler-elf/lib/mfix-b2bst/soft/libc.a(lib_a-s_frexp.o)
                              /home/fsw/rep/tasa/lib/bcc-2.2.3-gcc/bin/../lib/gcc/sparc-gaisler-elf/10.2.0/../../../../sparc-gaisler-elf/lib/mfix-b2bst/soft/libc.a(lib_a-vfprintf.o) (frexp)
/home/fsw/rep/tasa/lib/bcc-2.2.3-gcc/bin/../lib/gcc/sparc-gaisler-elf/10.2.0/../../../../sparc-gaisler-elf/lib/mfix-b2bst/soft/libc.a(lib_a-sbrkr.o)
                              /home/fsw/rep/tasa/lib/bcc-2.2.3-gcc/bin/../lib/gcc/sparc-gaisler-elf/10.2.0/../../../../sparc-gaisler-elf/lib/mfix-b2bst/soft/libc.a(lib_a-freer.o) (_sbrk_r)
/home/fsw/rep/tasa/lib/bcc-2.2.3-gcc/bin/../lib/gcc/sparc-gaisler-elf/10.2.0/../../../../sparc-gaisler-elf/lib/mfix-b2bst/soft/libc.a(lib_a-stdio.o)
                              /home/fsw/rep/tasa/lib/bcc-2.2.3-gcc/bin/../lib/gcc/sparc-gaisler-elf/10.2.0/../../../../sparc-gaisler-elf/lib/mfix-b2bst/soft/libc.a(lib_a-findfp.o) (__sread)
/home/fsw/rep/tasa/lib/bcc-2.2.3-gcc/bin/../lib/gcc/sparc-gaisler-elf/10.2.0/../../../../sparc-gaisler-elf/lib/mfix-b2bst/soft/libc.a(lib_a-strncpy.o)
                              /home/fsw/rep/tasa/lib/bcc-2.2.3-gcc/bin/../lib/gcc/sparc-gaisler-elf/10.2.0/../../../../sparc-gaisler-elf/lib/mfix-b2bst/soft/libc.a(lib_a-vfprintf.o) (strncpy)
/home/fsw/rep/tasa/lib/bcc-2.2.3-gcc/bin/../lib/gcc/sparc-gaisler-elf/10.2.0/../../../../sparc-gaisler-elf/lib/mfix-b2bst/soft/libc.a(lib_a-vfiprintf.o)
                              /home/fsw/rep/tasa/lib/bcc-2.2.3-gcc/bin/../lib/gcc/sparc-gaisler-elf/10.2.0/../../../../sparc-gaisler-elf/lib/mfix-b2bst/soft/libc.a(lib_a-vfprintf.o) (__sprint_r)
/home/fsw/rep/tasa/lib/bcc-2.2.3-gcc/bin/../lib/gcc/sparc-gaisler-elf/10.2.0/../../../../sparc-gaisler-elf/lib/mfix-b2bst/soft/libc.a(lib_a-wbuf.o)
                              /home/fsw/rep/tasa/lib/bcc-2.2.3-gcc/bin/../lib/gcc/sparc-gaisler-elf/10.2.0/../../../../sparc-gaisler-elf/lib/mfix-b2bst/soft/libc.a(lib_a-putc.o) (__swbuf_r)
/home/fsw/rep/tasa/lib/bcc-2.2.3-gcc/bin/../lib/gcc/sparc-gaisler-elf/10.2.0/../../../../sparc-gaisler-elf/lib/mfix-b2bst/soft/libc.a(lib_a-writer.o)
                              /home/fsw/rep/tasa/lib/bcc-2.2.3-gcc/bin/../lib/gcc/sparc-gaisler-elf/10.2.0/../../../../sparc-gaisler-elf/lib/mfix-b2bst/soft/libc.a(lib_a-stdio.o) (_write_r)
/home/fsw/rep/tasa/lib/bcc-2.2.3-gcc/bin/../lib/gcc/sparc-gaisler-elf/10.2.0/../../../../sparc-gaisler-elf/lib/mfix-b2bst/soft/libc.a(lib_a-callocr.o)
                              /home/fsw/rep/tasa/lib/bcc-2.2.3-gcc/bin/../lib/gcc/sparc-gaisler-elf/10.2.0/../../../../sparc-gaisler-elf/lib/mfix-b2bst/soft/libc.a(lib_a-mprec.o) (_calloc_r)
/home/fsw/rep/tasa/lib/bcc-2.2.3-gcc/bin/../lib/gcc/sparc-gaisler-elf/10.2.0/../../../../sparc-gaisler-elf/lib/mfix-b2bst/soft/libc.a(lib_a-closer.o)
                              /home/fsw/rep/tasa/lib/bcc-2.2.3-gcc/bin/../lib/gcc/sparc-gaisler-elf/10.2.0/../../../../sparc-gaisler-elf/lib/mfix-b2bst/soft/libc.a(lib_a-stdio.o) (_close_r)
/home/fsw/rep/tasa/lib/bcc-2.2.3-gcc/bin/../lib/gcc/sparc-gaisler-elf/10.2.0/../../../../sparc-gaisler-elf/lib/mfix-b2bst/soft/libc.a(lib_a-fclose.o)
                              /home/fsw/rep/tasa/lib/bcc-2.2.3-gcc/bin/../lib/gcc/sparc-gaisler-elf/10.2.0/../../../../sparc-gaisler-elf/lib/mfix-b2bst/soft/libc.a(lib_a-findfp.o) (_fclose_r)
/home/fsw/rep/tasa/lib/bcc-2.2.3-gcc/bin/../lib/gcc/sparc-gaisler-elf/10.2.0/../../../../sparc-gaisler-elf/lib/mfix-b2bst/soft/libc.a(lib_a-fputwc.o)
                              /home/fsw/rep/tasa/lib/bcc-2.2.3-gcc/bin/../lib/gcc/sparc-gaisler-elf/10.2.0/../../../../sparc-gaisler-elf/lib/mfix-b2bst/soft/libc.a(lib_a-vfiprintf.o) (_fputwc_r)
/home/fsw/rep/tasa/lib/bcc-2.2.3-gcc/bin/../lib/gcc/sparc-gaisler-elf/10.2.0/../../../../sparc-gaisler-elf/lib/mfix-b2bst/soft/libc.a(lib_a-fstatr.o)
                              /home/fsw/rep/tasa/lib/bcc-2.2.3-gcc/bin/../lib/gcc/sparc-gaisler-elf/10.2.0/../../../../sparc-gaisler-elf/lib/mfix-b2bst/soft/libc.a(lib_a-makebuf.o) (_fstat_r)
/home/fsw/rep/tasa/lib/bcc-2.2.3-gcc/bin/../lib/gcc/sparc-gaisler-elf/10.2.0/../../../../sparc-gaisler-elf/lib/mfix-b2bst/soft/libc.a(lib_a-isattyr.o)
                              /home/fsw/rep/tasa/lib/bcc-2.2.3-gcc/bin/../lib/gcc/sparc-gaisler-elf/10.2.0/../../../../sparc-gaisler-elf/lib/mfix-b2bst/soft/libc.a(lib_a-makebuf.o) (_isatty_r)
/home/fsw/rep/tasa/lib/bcc-2.2.3-gcc/bin/../lib/gcc/sparc-gaisler-elf/10.2.0/../../../../sparc-gaisler-elf/lib/mfix-b2bst/soft/libc.a(lib_a-locale.o)
                              /home/fsw/rep/tasa/lib/bcc-2.2.3-gcc/bin/../lib/gcc/sparc-gaisler-elf/10.2.0/../../../../sparc-gaisler-elf/lib/mfix-b2bst/soft/libc.a(lib_a-fputwc.o) (__locale_mb_cur_max)
/home/fsw/rep/tasa/lib/bcc-2.2.3-gcc/bin/../lib/gcc/sparc-gaisler-elf/10.2.0/../../../../sparc-gaisler-elf/lib/mfix-b2bst/soft/libc.a(lib_a-lseekr.o)
                              /home/fsw/rep/tasa/lib/bcc-2.2.3-gcc/bin/../lib/gcc/sparc-gaisler-elf/10.2.0/../../../../sparc-gaisler-elf/lib/mfix-b2bst/soft/libc.a(lib_a-stdio.o) (_lseek_r)
/home/fsw/rep/tasa/lib/bcc-2.2.3-gcc/bin/../lib/gcc/sparc-gaisler-elf/10.2.0/../../../../sparc-gaisler-elf/lib/mfix-b2bst/soft/libc.a(lib_a-mbtowc_r.o)
                              /home/fsw/rep/tasa/lib/bcc-2.2.3-gcc/bin/../lib/gcc/sparc-gaisler-elf/10.2.0/../../../../sparc-gaisler-elf/lib/mfix-b2bst/soft/libc.a(lib_a-locale.o) (__ascii_mbtowc)
/home/fsw/rep/tasa/lib/bcc-2.2.3-gcc/bin/../lib/gcc/sparc-gaisler-elf/10.2.0/../../../../sparc-gaisler-elf/lib/mfix-b2bst/soft/libc.a(lib_a-readr.o)
                              /home/fsw/rep/tasa/lib/bcc-2.2.3-gcc/bin/../lib/gcc/sparc-gaisler-elf/10.2.0/../../../../sparc-gaisler-elf/lib/mfix-b2bst/soft/libc.a(lib_a-stdio.o) (_read_r)
/home/fsw/rep/tasa/lib/bcc-2.2.3-gcc/bin/../lib/gcc/sparc-gaisler-elf/10.2.0/../../../../sparc-gaisler-elf/lib/mfix-b2bst/soft/libc.a(lib_a-reent.o)
                              /home/fsw/rep/tasa/lib/bcc-2.2.3-gcc/bin/../lib/gcc/sparc-gaisler-elf/10.2.0/../../../../sparc-gaisler-elf/lib/mfix-b2bst/soft/libc.a(lib_a-sbrkr.o) (errno)
/home/fsw/rep/tasa/lib/bcc-2.2.3-gcc/bin/../lib/gcc/sparc-gaisler-elf/10.2.0/../../../../sparc-gaisler-elf/lib/mfix-b2bst/soft/libc.a(lib_a-strcmp.o)
                              /home/fsw/rep/tasa/lib/bcc-2.2.3-gcc/bin/../lib/gcc/sparc-gaisler-elf/10.2.0/../../../../sparc-gaisler-elf/lib/mfix-b2bst/soft/libc.a(lib_a-locale.o) (strcmp)
/home/fsw/rep/tasa/lib/bcc-2.2.3-gcc/bin/../lib/gcc/sparc-gaisler-elf/10.2.0/../../../../sparc-gaisler-elf/lib/mfix-b2bst/soft/libc.a(lib_a-wcrtomb.o)
                              /home/fsw/rep/tasa/lib/bcc-2.2.3-gcc/bin/../lib/gcc/sparc-gaisler-elf/10.2.0/../../../../sparc-gaisler-elf/lib/mfix-b2bst/soft/libc.a(lib_a-fputwc.o) (_wcrtomb_r)
/home/fsw/rep/tasa/lib/bcc-2.2.3-gcc/bin/../lib/gcc/sparc-gaisler-elf/10.2.0/../../../../sparc-gaisler-elf/lib/mfix-b2bst/soft/libc.a(lib_a-wctomb_r.o)
                              /home/fsw/rep/tasa/lib/bcc-2.2.3-gcc/bin/../lib/gcc/sparc-gaisler-elf/10.2.0/../../../../sparc-gaisler-elf/lib/mfix-b2bst/soft/libc.a(lib_a-locale.o) (__ascii_wctomb)
/home/fsw/rep/tasa/lib/bcc-2.2.3-gcc/bin/../lib/gcc/sparc-gaisler-elf/10.2.0/../../../../sparc-gaisler-elf/lib/mfix-b2bst/soft/libc.a(lib_a-ctype_.o)
                              /home/fsw/rep/tasa/lib/bcc-2.2.3-gcc/bin/../lib/gcc/sparc-gaisler-elf/10.2.0/../../../../sparc-gaisler-elf/lib/mfix-b2bst/soft/libc.a(lib_a-locale.o) (_ctype_b)
/home/fsw/rep/tasa/lib/bcc-2.2.3-gcc/bin/../sparc-gaisler-elf/bsp/leon3/mfix-b2bst/soft/libbcc.a(_exit.S.o)
                              /home/fsw/rep/tasa/lib/bcc-2.2.3-gcc/bin/../lib/gcc/sparc-gaisler-elf/10.2.0/../../../../sparc-gaisler-elf/lib/mfix-b2bst/soft/libc.a(lib_a-exit.o) (_exit)
/home/fsw/rep/tasa/lib/bcc-2.2.3-gcc/bin/../sparc-gaisler-elf/bsp/leon3/mfix-b2bst/soft/libbcc.a(read.c.o)
                              /home/fsw/rep/tasa/lib/bcc-2.2.3-gcc/bin/../lib/gcc/sparc-gaisler-elf/10.2.0/../../../../sparc-gaisler-elf/lib/mfix-b2bst/soft/libc.a(lib_a-readr.o) (read)
/home/fsw/rep/tasa/lib/bcc-2.2.3-gcc/bin/../sparc-gaisler-elf/bsp/leon3/mfix-b2bst/soft/libbcc.a(sbrk.c.o)
                              /home/fsw/rep/tasa/lib/bcc-2.2.3-gcc/bin/../lib/gcc/sparc-gaisler-elf/10.2.0/../../../../sparc-gaisler-elf/lib/mfix-b2bst/soft/libc.a(lib_a-sbrkr.o) (sbrk)
/home/fsw/rep/tasa/lib/bcc-2.2.3-gcc/bin/../sparc-gaisler-elf/bsp/leon3/mfix-b2bst/soft/libbcc.a(heap.c.o)
                              /home/fsw/rep/tasa/lib/bcc-2.2.3-gcc/bin/../sparc-gaisler-elf/bsp/leon3/mfix-b2bst/soft/libbcc.a(sbrk.c.o) (__bcc_heap_max)
/home/fsw/rep/tasa/lib/bcc-2.2.3-gcc/bin/../sparc-gaisler-elf/bsp/leon3/mfix-b2bst/soft/libbcc.a(write.c.o)
                              /home/fsw/rep/tasa/lib/bcc-2.2.3-gcc/bin/../lib/gcc/sparc-gaisler-elf/10.2.0/../../../../sparc-gaisler-elf/lib/mfix-b2bst/soft/libc.a(lib_a-writer.o) (write)
/home/fsw/rep/tasa/lib/bcc-2.2.3-gcc/bin/../sparc-gaisler-elf/bsp/leon3/mfix-b2bst/soft/libbcc.a(stubs.S.o)
                              /home/fsw/rep/tasa/lib/bcc-2.2.3-gcc/bin/../lib/gcc/sparc-gaisler-elf/10.2.0/../../../../sparc-gaisler-elf/lib/mfix-b2bst/soft/libc.a(lib_a-closer.o) (close)
/home/fsw/rep/tasa/lib/bcc-2.2.3-gcc/bin/../sparc-gaisler-elf/bsp/leon3/mfix-b2bst/soft/libbcc.a(con_apbuart.c.o)
                              /home/fsw/rep/tasa/lib/bcc-2.2.3-gcc/bin/../sparc-gaisler-elf/bsp/leon3/mfix-b2bst/soft/libbcc.a(write.c.o) (__bcc_con_outbyte)
/home/fsw/rep/tasa/lib/bcc-2.2.3-gcc/bin/../lib/gcc/sparc-gaisler-elf/10.2.0/mfix-b2bst/soft/libgcc.a(_mulsi3.o)
                              /home/fsw/rep/tasa/lib/bcc-2.2.3-gcc/bin/../lib/gcc/sparc-gaisler-elf/10.2.0/../../../../sparc-gaisler-elf/lib/mfix-b2bst/soft/libc.a(lib_a-vfprintf.o) (.umul)
/home/fsw/rep/tasa/lib/bcc-2.2.3-gcc/bin/../lib/gcc/sparc-gaisler-elf/10.2.0/mfix-b2bst/soft/libgcc.a(_divsi3.o)
                              /home/fsw/rep/tasa/lib/bcc-2.2.3-gcc/bin/../lib/gcc/sparc-gaisler-elf/10.2.0/../../../../sparc-gaisler-elf/lib/mfix-b2bst/soft/libc.a(lib_a-dtoa.o) (.udiv)
/home/fsw/rep/tasa/lib/bcc-2.2.3-gcc/bin/../lib/gcc/sparc-gaisler-elf/10.2.0/mfix-b2bst/soft/libgcc.a(_modsi3.o)
                              /home/fsw/rep/tasa/lib/bcc-2.2.3-gcc/bin/../lib/gcc/sparc-gaisler-elf/10.2.0/../../../../sparc-gaisler-elf/lib/mfix-b2bst/soft/libc.a(lib_a-vfprintf.o) (.rem)
/home/fsw/rep/tasa/lib/bcc-2.2.3-gcc/bin/../lib/gcc/sparc-gaisler-elf/10.2.0/mfix-b2bst/soft/libgcc.a(_udivdi3.o)
                              /home/fsw/rep/tasa/lib/bcc-2.2.3-gcc/bin/../lib/gcc/sparc-gaisler-elf/10.2.0/../../../../sparc-gaisler-elf/lib/mfix-b2bst/soft/libc.a(lib_a-vfprintf.o) (__udivdi3)
/home/fsw/rep/tasa/lib/bcc-2.2.3-gcc/bin/../lib/gcc/sparc-gaisler-elf/10.2.0/mfix-b2bst/soft/libgcc.a(_umoddi3.o)
                              /home/fsw/rep/tasa/lib/bcc-2.2.3-gcc/bin/../lib/gcc/sparc-gaisler-elf/10.2.0/../../../../sparc-gaisler-elf/lib/mfix-b2bst/soft/libc.a(lib_a-vfprintf.o) (__umoddi3)
/home/fsw/rep/tasa/lib/bcc-2.2.3-gcc/bin/../lib/gcc/sparc-gaisler-elf/10.2.0/mfix-b2bst/soft/libgcc.a(_addsub_df.o)
                              /home/fsw/rep/tasa/lib/bcc-2.2.3-gcc/bin/../lib/gcc/sparc-gaisler-elf/10.2.0/../../../../sparc-gaisler-elf/lib/mfix-b2bst/soft/libc.a(lib_a-dtoa.o) (__adddf3)
/home/fsw/rep/tasa/lib/bcc-2.2.3-gcc/bin/../lib/gcc/sparc-gaisler-elf/10.2.0/mfix-b2bst/soft/libgcc.a(_mul_df.o)
                              /home/fsw/rep/tasa/lib/bcc-2.2.3-gcc/bin/../lib/gcc/sparc-gaisler-elf/10.2.0/../../../../sparc-gaisler-elf/lib/mfix-b2bst/soft/libc.a(lib_a-vfprintf.o) (__muldf3)
/home/fsw/rep/tasa/lib/bcc-2.2.3-gcc/bin/../lib/gcc/sparc-gaisler-elf/10.2.0/mfix-b2bst/soft/libgcc.a(_div_df.o)
                              /home/fsw/rep/tasa/lib/bcc-2.2.3-gcc/bin/../lib/gcc/sparc-gaisler-elf/10.2.0/../../../../sparc-gaisler-elf/lib/mfix-b2bst/soft/libc.a(lib_a-dtoa.o) (__divdf3)
/home/fsw/rep/tasa/lib/bcc-2.2.3-gcc/bin/../lib/gcc/sparc-gaisler-elf/10.2.0/mfix-b2bst/soft/libgcc.a(_eq_df.o)
                              /home/fsw/rep/tasa/lib/bcc-2.2.3-gcc/bin/../lib/gcc/sparc-gaisler-elf/10.2.0/../../../../sparc-gaisler-elf/lib/mfix-b2bst/soft/libc.a(lib_a-vfprintf.o) (__eqdf2)
/home/fsw/rep/tasa/lib/bcc-2.2.3-gcc/bin/../lib/gcc/sparc-gaisler-elf/10.2.0/mfix-b2bst/soft/libgcc.a(_ne_df.o)
                              /home/fsw/rep/tasa/lib/bcc-2.2.3-gcc/bin/../lib/gcc/sparc-gaisler-elf/10.2.0/../../../../sparc-gaisler-elf/lib/mfix-b2bst/soft/libc.a(lib_a-vfprintf.o) (__nedf2)
/home/fsw/rep/tasa/lib/bcc-2.2.3-gcc/bin/../lib/gcc/sparc-gaisler-elf/10.2.0/mfix-b2bst/soft/libgcc.a(_gt_df.o)
                              /home/fsw/rep/tasa/lib/bcc-2.2.3-gcc/bin/../lib/gcc/sparc-gaisler-elf/10.2.0/../../../../sparc-gaisler-elf/lib/mfix-b2bst/soft/libc.a(lib_a-vfprintf.o) (__gtdf2)
/home/fsw/rep/tasa/lib/bcc-2.2.3-gcc/bin/../lib/gcc/sparc-gaisler-elf/10.2.0/mfix-b2bst/soft/libgcc.a(_lt_df.o)
                              /home/fsw/rep/tasa/lib/bcc-2.2.3-gcc/bin/../lib/gcc/sparc-gaisler-elf/10.2.0/../../../../sparc-gaisler-elf/lib/mfix-b2bst/soft/libc.a(lib_a-vfprintf.o) (__ltdf2)
/home/fsw/rep/tasa/lib/bcc-2.2.3-gcc/bin/../lib/gcc/sparc-gaisler-elf/10.2.0/mfix-b2bst/soft/libgcc.a(_le_df.o)
                              /home/fsw/rep/tasa/lib/bcc-2.2.3-gcc/bin/../lib/gcc/sparc-gaisler-elf/10.2.0/../../../../sparc-gaisler-elf/lib/mfix-b2bst/soft/libc.a(lib_a-vfprintf.o) (__ledf2)
/home/fsw/rep/tasa/lib/bcc-2.2.3-gcc/bin/../lib/gcc/sparc-gaisler-elf/10.2.0/mfix-b2bst/soft/libgcc.a(_unord_df.o)
                              /home/fsw/rep/tasa/lib/bcc-2.2.3-gcc/bin/../lib/gcc/sparc-gaisler-elf/10.2.0/../../../../sparc-gaisler-elf/lib/mfix-b2bst/soft/libc.a(lib_a-vfprintf.o) (__unorddf2)
/home/fsw/rep/tasa/lib/bcc-2.2.3-gcc/bin/../lib/gcc/sparc-gaisler-elf/10.2.0/mfix-b2bst/soft/libgcc.a(_si_to_df.o)
                              /home/fsw/rep/tasa/lib/bcc-2.2.3-gcc/bin/../lib/gcc/sparc-gaisler-elf/10.2.0/../../../../sparc-gaisler-elf/lib/mfix-b2bst/soft/libc.a(lib_a-vfprintf.o) (__floatsidf)
/home/fsw/rep/tasa/lib/bcc-2.2.3-gcc/bin/../lib/gcc/sparc-gaisler-elf/10.2.0/mfix-b2bst/soft/libgcc.a(_df_to_si.o)
                              /home/fsw/rep/tasa/lib/bcc-2.2.3-gcc/bin/../lib/gcc/sparc-gaisler-elf/10.2.0/../../../../sparc-gaisler-elf/lib/mfix-b2bst/soft/libc.a(lib_a-vfprintf.o) (__fixdfsi)
/home/fsw/rep/tasa/lib/bcc-2.2.3-gcc/bin/../lib/gcc/sparc-gaisler-elf/10.2.0/mfix-b2bst/soft/libgcc.a(_thenan_df.o)
                              /home/fsw/rep/tasa/lib/bcc-2.2.3-gcc/bin/../lib/gcc/sparc-gaisler-elf/10.2.0/mfix-b2bst/soft/libgcc.a(_addsub_df.o) (__thenan_df)
/home/fsw/rep/tasa/lib/bcc-2.2.3-gcc/bin/../lib/gcc/sparc-gaisler-elf/10.2.0/mfix-b2bst/soft/libgcc.a(_usi_to_df.o)
                              /home/fsw/rep/tasa/lib/bcc-2.2.3-gcc/bin/../lib/gcc/sparc-gaisler-elf/10.2.0/../../../../sparc-gaisler-elf/lib/mfix-b2bst/soft/libc.a(lib_a-dtoa.o) (__floatunsidf)
/home/fsw/rep/tasa/lib/bcc-2.2.3-gcc/bin/../lib/gcc/sparc-gaisler-elf/10.2.0/mfix-b2bst/soft/libgcc.a(_muldi3.o)
                              /home/fsw/rep/tasa/lib/bcc-2.2.3-gcc/bin/../lib/gcc/sparc-gaisler-elf/10.2.0/mfix-b2bst/soft/libgcc.a(_mul_df.o) (__muldi3)
/home/fsw/rep/tasa/lib/bcc-2.2.3-gcc/bin/../lib/gcc/sparc-gaisler-elf/10.2.0/mfix-b2bst/soft/libgcc.a(_clz.o)
                              /home/fsw/rep/tasa/lib/bcc-2.2.3-gcc/bin/../lib/gcc/sparc-gaisler-elf/10.2.0/mfix-b2bst/soft/libgcc.a(_udivdi3.o) (__clz_tab)
/home/fsw/rep/tasa/lib/bcc-2.2.3-gcc/bin/../lib/gcc/sparc-gaisler-elf/10.2.0/mfix-b2bst/soft/libgcc.a(_clzsi2.o)
                              /home/fsw/rep/tasa/lib/bcc-2.2.3-gcc/bin/../lib/gcc/sparc-gaisler-elf/10.2.0/mfix-b2bst/soft/libgcc.a(_si_to_df.o) (__clzsi2)
/home/fsw/rep/tasa/lib/bcc-2.2.3-gcc/bin/../lib/gcc/sparc-gaisler-elf/10.2.0/mfix-b2bst/soft/libgcc.a(_pack_df.o)
                              /home/fsw/rep/tasa/lib/bcc-2.2.3-gcc/bin/../lib/gcc/sparc-gaisler-elf/10.2.0/mfix-b2bst/soft/libgcc.a(_addsub_df.o) (__pack_d)
/home/fsw/rep/tasa/lib/bcc-2.2.3-gcc/bin/../lib/gcc/sparc-gaisler-elf/10.2.0/mfix-b2bst/soft/libgcc.a(_unpack_df.o)
                              /home/fsw/rep/tasa/lib/bcc-2.2.3-gcc/bin/../lib/gcc/sparc-gaisler-elf/10.2.0/mfix-b2bst/soft/libgcc.a(_addsub_df.o) (__unpack_d)
/home/fsw/rep/tasa/lib/bcc-2.2.3-gcc/bin/../lib/gcc/sparc-gaisler-elf/10.2.0/mfix-b2bst/soft/libgcc.a(_fpcmp_parts_df.o)
                              /home/fsw/rep/tasa/lib/bcc-2.2.3-gcc/bin/../lib/gcc/sparc-gaisler-elf/10.2.0/mfix-b2bst/soft/libgcc.a(_eq_df.o) (__fpcmp_parts_d)

Memory Configuration

Name             Origin             Length             Attributes
rom              0x0000000000000000 0x0000000020000000
ram              0x0000000040000000 0x0000000040000000
*default*        0x0000000000000000 0xffffffffffffffff

Linker script and memory map

LOAD /home/fsw/rep/tasa/lib/bcc-2.2.3-gcc/bin/../sparc-gaisler-elf/bsp/leon3/mfix-b2bst/soft/trap_table_mvt.S.o
LOAD /home/fsw/rep/tasa/lib/bcc-2.2.3-gcc/bin/../sparc-gaisler-elf/bsp/leon3/mfix-b2bst/soft/crt0.S.o
LOAD /home/fsw/rep/tasa/lib/bcc-2.2.3-gcc/bin/../lib/gcc/sparc-gaisler-elf/10.2.0/mfix-b2bst/soft/crti.o
LOAD /home/fsw/rep/tasa/lib/bcc-2.2.3-gcc/bin/../lib/gcc/sparc-gaisler-elf/10.2.0/mfix-b2bst/soft/crtbegin.o
LOAD /tmp/ccjQJ0Dl.o
                0x0000000000000000                PROVIDE (__bcc_cfg_skip_clear_bss = 0x0)

.text           0x0000000040000000    0x111a0
 CREATE_OBJECT_SYMBOLS
                0x0000000040000000                __text_start = .
                0x0000000040000000                . = ALIGN (0x1000)
 *(.text.traptable)
 .text.traptable
                0x0000000040000000     0x1000 /home/fsw/rep/tasa/lib/bcc-2.2.3-gcc/bin/../sparc-gaisler-elf/bsp/leon3/mfix-b2bst/soft/trap_table_mvt.S.o
                0x0000000040000000                __bcc_trap_table
                0x0000000040000000                __bcc_entry_point
 *(.text .text.*)
 .text          0x0000000040001000        0x0 /home/fsw/rep/tasa/lib/bcc-2.2.3-gcc/bin/../sparc-gaisler-elf/bsp/leon3/mfix-b2bst/soft/trap_table_mvt.S.o
 .text          0x0000000040001000       0xc8 /home/fsw/rep/tasa/lib/bcc-2.2.3-gcc/bin/../sparc-gaisler-elf/bsp/leon3/mfix-b2bst/soft/crt0.S.o
                0x0000000040001000                __bcc_crt0
 .text          0x00000000400010c8        0x0 /home/fsw/rep/tasa/lib/bcc-2.2.3-gcc/bin/../lib/gcc/sparc-gaisler-elf/10.2.0/mfix-b2bst/soft/crti.o
 .text          0x00000000400010c8      0x188 /home/fsw/rep/tasa/lib/bcc-2.2.3-gcc/bin/../lib/gcc/sparc-gaisler-elf/10.2.0/mfix-b2bst/soft/crtbegin.o
 .text          0x0000000040001250        0x0 /tmp/ccjQJ0Dl.o
 .text.startup  0x0000000040001250      0x14c /tmp/ccjQJ0Dl.o
                0x0000000040001250                main
 .text          0x000000004000139c       0x90 /home/fsw/rep/tasa/lib/bcc-2.2.3-gcc/bin/../sparc-gaisler-elf/bsp/leon3/mfix-b2bst/soft/libbcc.a(reset_trap_mvt.S.o)
                0x000000004000139c                __bcc_trap_reset_mvt
 .text          0x000000004000142c       0xb0 /home/fsw/rep/tasa/lib/bcc-2.2.3-gcc/bin/../sparc-gaisler-elf/bsp/leon3/mfix-b2bst/soft/libbcc.a(window_trap.S.o)
                0x000000004000142c                __bcc_trap_window_overflow
                0x000000004000147c                __bcc_trap_window_underflow
 .text          0x00000000400014dc      0x1c8 /home/fsw/rep/tasa/lib/bcc-2.2.3-gcc/bin/../sparc-gaisler-elf/bsp/leon3/mfix-b2bst/soft/libbcc.a(interrupt_trap.S.o)
                0x00000000400014dc                __bcc_trap_interrupt_svt
                0x00000000400014e0                __bcc_trap_interrupt
 .text          0x00000000400016a4       0x8c /home/fsw/rep/tasa/lib/bcc-2.2.3-gcc/bin/../sparc-gaisler-elf/bsp/leon3/mfix-b2bst/soft/libbcc.a(flush_windows_trap.S.o)
                0x00000000400016a4                __bcc_trap_flush_windows
 .text          0x0000000040001730       0x2c /home/fsw/rep/tasa/lib/bcc-2.2.3-gcc/bin/../sparc-gaisler-elf/bsp/leon3/mfix-b2bst/soft/libbcc.a(sw_trap_set_pil.S.o)
                0x0000000040001730                __bcc_trap_sw_set_pil
 .text          0x000000004000175c        0x0 /home/fsw/rep/tasa/lib/bcc-2.2.3-gcc/bin/../sparc-gaisler-elf/bsp/leon3/mfix-b2bst/soft/libbcc.a(isr.c.o)
 .text          0x000000004000175c        0x0 /home/fsw/rep/tasa/lib/bcc-2.2.3-gcc/bin/../sparc-gaisler-elf/bsp/leon3/mfix-b2bst/soft/libbcc.a(int_nest.c.o)
 .text          0x000000004000175c        0x8 /home/fsw/rep/tasa/lib/bcc-2.2.3-gcc/bin/../sparc-gaisler-elf/bsp/leon3/mfix-b2bst/soft/libbcc.a(init.S.o)
                0x000000004000175c                __bcc_init50
                0x000000004000175c                __bcc_init40
                0x000000004000175c                __bcc_init70
                0x000000004000175c                __bcc_init60
 .text          0x0000000040001764       0x98 /home/fsw/rep/tasa/lib/bcc-2.2.3-gcc/bin/../sparc-gaisler-elf/bsp/leon3/mfix-b2bst/soft/libbcc.a(leon_info.S.o)
                0x0000000040001764                __bcc_get_leon_info
                0x00000000400017ec                bcc_get_cpuid
 .text          0x00000000400017fc       0x2c /home/fsw/rep/tasa/lib/bcc-2.2.3-gcc/bin/../sparc-gaisler-elf/bsp/leon3/mfix-b2bst/soft/libbcc.a(dwzero.S.o)
                0x00000000400017fc                bcc_dwzero
 .text          0x0000000040001828       0x5c /home/fsw/rep/tasa/lib/bcc-2.2.3-gcc/bin/../sparc-gaisler-elf/bsp/leon3/mfix-b2bst/soft/libbcc.a(copy_data.c.o)
                0x0000000040001828                __bcc_copy_data
 .text          0x0000000040001884        0x0 /home/fsw/rep/tasa/lib/bcc-2.2.3-gcc/bin/../sparc-gaisler-elf/bsp/leon3/mfix-b2bst/soft/libbcc.a(argv.c.o)
 .text          0x0000000040001884       0x48 /home/fsw/rep/tasa/lib/bcc-2.2.3-gcc/bin/../sparc-gaisler-elf/bsp/leon3/mfix-b2bst/soft/libbcc.a(int_irqmp_get_source.c.o)
                0x0000000040001884                __bcc_int_get_source
 .text          0x00000000400018cc       0xa0 /home/fsw/rep/tasa/lib/bcc-2.2.3-gcc/bin/../sparc-gaisler-elf/bsp/leon3/mfix-b2bst/soft/libbcc.a(int_irqmp_mp.c.o)
                0x00000000400018cc                bcc_send_interrupt
                0x0000000040001908                bcc_get_cpu_count
                0x0000000040001934                bcc_start_processor
 .text          0x000000004000196c      0x1b0 /home/fsw/rep/tasa/lib/bcc-2.2.3-gcc/bin/../sparc-gaisler-elf/bsp/leon3/mfix-b2bst/soft/libbcc.a(int_irqmp_init.c.o)
                0x000000004000196c                __bcc_int_init
 .text          0x0000000040001b1c       0x50 /home/fsw/rep/tasa/lib/bcc-2.2.3-gcc/bin/../sparc-gaisler-elf/bsp/leon3/mfix-b2bst/soft/libbcc.a(con_apbuart_init.c.o)
                0x0000000040001b1c                __bcc_con_init
 .text          0x0000000040001b6c       0x6c /home/fsw/rep/tasa/lib/bcc-2.2.3-gcc/bin/../sparc-gaisler-elf/bsp/leon3/mfix-b2bst/soft/libbcc.a(timer_gptimer_init.c.o)
                0x0000000040001b6c                __bcc_timer_init
 .text          0x0000000040001bd8      0x73c /home/fsw/rep/tasa/lib/bcc-2.2.3-gcc/bin/../sparc-gaisler-elf/bsp/leon3/mfix-b2bst/soft/libbcc.a(ambapp.c.o)
                0x0000000040001bd8                ambapp_get_ahbinfo
                0x0000000040002258                ambapp_get_apbinfo
                0x00000000400022e0                ambapp_visit
 .text          0x0000000040002314       0x74 /home/fsw/rep/tasa/lib/bcc-2.2.3-gcc/bin/../sparc-gaisler-elf/bsp/leon3/mfix-b2bst/soft/libbcc.a(ambapp_findfirst_fn.c.o)
                0x0000000040002314                ambapp_findfirst_fn
 .text          0x0000000040002388        0x0 /home/fsw/rep/tasa/lib/bcc-2.2.3-gcc/bin/../sparc-gaisler-elf/bsp/leon3/mfix-b2bst/soft/libbcc.a(int_irqmp_handle.c.o)
 .text          0x0000000040002388        0x0 /home/fsw/rep/tasa/lib/bcc-2.2.3-gcc/bin/../sparc-gaisler-elf/bsp/leon3/mfix-b2bst/soft/libbcc.a(con_handle.c.o)
 .text          0x0000000040002388        0x0 /home/fsw/rep/tasa/lib/bcc-2.2.3-gcc/bin/../sparc-gaisler-elf/bsp/leon3/mfix-b2bst/soft/libbcc.a(timer_handle.c.o)
 .text          0x0000000040002388       0x1c /home/fsw/rep/tasa/lib/bcc-2.2.3-gcc/bin/../lib/gcc/sparc-gaisler-elf/10.2.0/../../../../sparc-gaisler-elf/lib/mfix-b2bst/soft/libc.a(lib_a-atexit.o)
                0x0000000040002388                atexit
 .text          0x00000000400023a4       0x3c /home/fsw/rep/tasa/lib/bcc-2.2.3-gcc/bin/../lib/gcc/sparc-gaisler-elf/10.2.0/../../../../sparc-gaisler-elf/lib/mfix-b2bst/soft/libc.a(lib_a-exit.o)
                0x00000000400023a4                exit
 .text          0x00000000400023e0        0x0 /home/fsw/rep/tasa/lib/bcc-2.2.3-gcc/bin/../lib/gcc/sparc-gaisler-elf/10.2.0/../../../../sparc-gaisler-elf/lib/mfix-b2bst/soft/libc.a(lib_a-impure.o)
 .text          0x00000000400023e0      0x1b4 /home/fsw/rep/tasa/lib/bcc-2.2.3-gcc/bin/../lib/gcc/sparc-gaisler-elf/10.2.0/../../../../sparc-gaisler-elf/lib/mfix-b2bst/soft/libc.a(lib_a-memcpy.o)
                0x00000000400023e0                memcpy
 .text          0x0000000040002594       0xf4 /home/fsw/rep/tasa/lib/bcc-2.2.3-gcc/bin/../lib/gcc/sparc-gaisler-elf/10.2.0/../../../../sparc-gaisler-elf/lib/mfix-b2bst/soft/libc.a(lib_a-printf.o)
                0x0000000040002594                _printf_r
                0x0000000040002608                printf
 .text          0x0000000040002688       0x8c /home/fsw/rep/tasa/lib/bcc-2.2.3-gcc/bin/../lib/gcc/sparc-gaisler-elf/10.2.0/../../../../sparc-gaisler-elf/lib/mfix-b2bst/soft/libc.a(lib_a-putchar.o)
                0x0000000040002688                _putchar_r
                0x00000000400026c8                putchar
 .text          0x0000000040002714      0x268 /home/fsw/rep/tasa/lib/bcc-2.2.3-gcc/bin/../lib/gcc/sparc-gaisler-elf/10.2.0/../../../../sparc-gaisler-elf/lib/mfix-b2bst/soft/libc.a(lib_a-puts.o)
                0x0000000040002714                _puts_r
                0x0000000040002844                puts
 .text          0x000000004000297c       0xac /home/fsw/rep/tasa/lib/bcc-2.2.3-gcc/bin/../lib/gcc/sparc-gaisler-elf/10.2.0/../../../../sparc-gaisler-elf/lib/mfix-b2bst/soft/libc.a(lib_a-strlen.o)
                0x000000004000297c                strlen
 .text          0x0000000040002a28     0x2ea4 /home/fsw/rep/tasa/lib/bcc-2.2.3-gcc/bin/../lib/gcc/sparc-gaisler-elf/10.2.0/../../../../sparc-gaisler-elf/lib/mfix-b2bst/soft/libc.a(lib_a-vfprintf.o)
                0x0000000040002b94                _vfprintf_r
                0x00000000400057fc                vfprintf
 .text          0x00000000400058cc      0x1d0 /home/fsw/rep/tasa/lib/bcc-2.2.3-gcc/bin/../lib/gcc/sparc-gaisler-elf/10.2.0/../../../../sparc-gaisler-elf/lib/mfix-b2bst/soft/libc.a(lib_a-wsetup.o)
                0x00000000400058cc                __swsetup_r
 .text          0x0000000040005a9c      0x164 /home/fsw/rep/tasa/lib/bcc-2.2.3-gcc/bin/../lib/gcc/sparc-gaisler-elf/10.2.0/../../../../sparc-gaisler-elf/lib/mfix-b2bst/soft/libc.a(lib_a-__atexit.o)
                0x0000000040005a9c                __register_exitproc
 .text          0x0000000040005c00      0x2bc /home/fsw/rep/tasa/lib/bcc-2.2.3-gcc/bin/../lib/gcc/sparc-gaisler-elf/10.2.0/../../../../sparc-gaisler-elf/lib/mfix-b2bst/soft/libc.a(lib_a-__call_atexit.o)
                0x0000000040005c00                __call_exitprocs
 .text          0x0000000040005ebc     0x1954 /home/fsw/rep/tasa/lib/bcc-2.2.3-gcc/bin/../lib/gcc/sparc-gaisler-elf/10.2.0/../../../../sparc-gaisler-elf/lib/mfix-b2bst/soft/libc.a(lib_a-dtoa.o)
                0x00000000400060bc                _dtoa_r
 .text          0x0000000040007810      0x3e4 /home/fsw/rep/tasa/lib/bcc-2.2.3-gcc/bin/../lib/gcc/sparc-gaisler-elf/10.2.0/../../../../sparc-gaisler-elf/lib/mfix-b2bst/soft/libc.a(lib_a-fflush.o)
                0x0000000040007810                __sflush_r
                0x0000000040007a74                _fflush_r
                0x0000000040007b14                fflush
 .text          0x0000000040007bf4      0x350 /home/fsw/rep/tasa/lib/bcc-2.2.3-gcc/bin/../lib/gcc/sparc-gaisler-elf/10.2.0/../../../../sparc-gaisler-elf/lib/mfix-b2bst/soft/libc.a(lib_a-findfp.o)
                0x0000000040007bf4                _cleanup_r
                0x0000000040007c08                __sfmoreglue
                0x0000000040007c5c                __sfp
                0x0000000040007f04                _cleanup
                0x0000000040007f20                __sinit
 .text          0x0000000040007f44      0x410 /home/fsw/rep/tasa/lib/bcc-2.2.3-gcc/bin/../lib/gcc/sparc-gaisler-elf/10.2.0/../../../../sparc-gaisler-elf/lib/mfix-b2bst/soft/libc.a(lib_a-freer.o)
                0x0000000040007f44                _malloc_trim_r
                0x0000000040008038                _free_r
 .text          0x0000000040008354      0x4fc /home/fsw/rep/tasa/lib/bcc-2.2.3-gcc/bin/../lib/gcc/sparc-gaisler-elf/10.2.0/../../../../sparc-gaisler-elf/lib/mfix-b2bst/soft/libc.a(lib_a-fvwrite.o)
                0x0000000040008354                __sfvwrite_r
 .text          0x0000000040008850       0xe0 /home/fsw/rep/tasa/lib/bcc-2.2.3-gcc/bin/../lib/gcc/sparc-gaisler-elf/10.2.0/../../../../sparc-gaisler-elf/lib/mfix-b2bst/soft/libc.a(lib_a-fwalk.o)
                0x0000000040008850                _fwalk
                0x00000000400088c0                _fwalk_reent
 .text          0x0000000040008930       0x60 /home/fsw/rep/tasa/lib/bcc-2.2.3-gcc/bin/../lib/gcc/sparc-gaisler-elf/10.2.0/../../../../sparc-gaisler-elf/lib/mfix-b2bst/soft/libc.a(lib_a-localeconv.o)
                0x0000000040008930                __localeconv_l
                0x0000000040008938                _localeconv_r
                0x0000000040008964                localeconv
 .text          0x0000000040008990      0x1f4 /home/fsw/rep/tasa/lib/bcc-2.2.3-gcc/bin/../lib/gcc/sparc-gaisler-elf/10.2.0/../../../../sparc-gaisler-elf/lib/mfix-b2bst/soft/libc.a(lib_a-makebuf.o)
                0x0000000040008990                __smakebuf_r
                0x0000000040008afc                __swhatbuf_r
 .text          0x0000000040008b84       0x30 /home/fsw/rep/tasa/lib/bcc-2.2.3-gcc/bin/../lib/gcc/sparc-gaisler-elf/10.2.0/../../../../sparc-gaisler-elf/lib/mfix-b2bst/soft/libc.a(lib_a-malloc.o)
                0x0000000040008b84                malloc
                0x0000000040008b9c                free
 .text          0x0000000040008bb4      0x808 /home/fsw/rep/tasa/lib/bcc-2.2.3-gcc/bin/../lib/gcc/sparc-gaisler-elf/10.2.0/../../../../sparc-gaisler-elf/lib/mfix-b2bst/soft/libc.a(lib_a-mallocr.o)
                0x0000000040008bb4                _malloc_r
 .text          0x00000000400093bc       0xf8 /home/fsw/rep/tasa/lib/bcc-2.2.3-gcc/bin/../lib/gcc/sparc-gaisler-elf/10.2.0/../../../../sparc-gaisler-elf/lib/mfix-b2bst/soft/libc.a(lib_a-memchr.o)
                0x00000000400093bc                memchr
 .text          0x00000000400094b4      0x210 /home/fsw/rep/tasa/lib/bcc-2.2.3-gcc/bin/../lib/gcc/sparc-gaisler-elf/10.2.0/../../../../sparc-gaisler-elf/lib/mfix-b2bst/soft/libc.a(lib_a-memmove.o)
                0x00000000400094b4                memmove
 .text          0x00000000400096c4      0x12c /home/fsw/rep/tasa/lib/bcc-2.2.3-gcc/bin/../lib/gcc/sparc-gaisler-elf/10.2.0/../../../../sparc-gaisler-elf/lib/mfix-b2bst/soft/libc.a(lib_a-memset.o)
                0x00000000400096c4                memset
 .text          0x00000000400097f0       0x10 /home/fsw/rep/tasa/lib/bcc-2.2.3-gcc/bin/../lib/gcc/sparc-gaisler-elf/10.2.0/../../../../sparc-gaisler-elf/lib/mfix-b2bst/soft/libc.a(lib_a-mlock.o)
                0x00000000400097f0                __malloc_lock
                0x00000000400097f8                __malloc_unlock
 .text          0x0000000040009800     0x1718 /home/fsw/rep/tasa/lib/bcc-2.2.3-gcc/bin/../lib/gcc/sparc-gaisler-elf/10.2.0/../../../../sparc-gaisler-elf/lib/mfix-b2bst/soft/libc.a(lib_a-mprec.o)
                0x0000000040009800                _Balloc
                0x00000000400098d4                _Bfree
                0x0000000040009938                __multadd
                0x0000000040009a58                __s2b
                0x0000000040009b30                __hi0bits
                0x0000000040009bc0                __lo0bits
                0x0000000040009c9c                __i2b
                0x0000000040009d8c                __multiply
                0x0000000040009ff0                __pow5mult
                0x000000004000a184                __lshift
                0x000000004000a34c                __mcmp
                0x000000004000a3b4                __mdiff
                0x000000004000a5d4                __ulp
                0x000000004000a63c                __b2d
                0x000000004000a7d0                __d2b
                0x000000004000aba8                __ratio
                0x000000004000adb0                _mprec_log10
                0x000000004000ae10                __copybits
                0x000000004000ae94                __any_on
 .text          0x000000004000af18      0x1c8 /home/fsw/rep/tasa/lib/bcc-2.2.3-gcc/bin/../lib/gcc/sparc-gaisler-elf/10.2.0/../../../../sparc-gaisler-elf/lib/mfix-b2bst/soft/libc.a(lib_a-putc.o)
                0x000000004000af18                _putc_r
                0x000000004000aff4                putc
 .text          0x000000004000b0e0      0x514 /home/fsw/rep/tasa/lib/bcc-2.2.3-gcc/bin/../lib/gcc/sparc-gaisler-elf/10.2.0/../../../../sparc-gaisler-elf/lib/mfix-b2bst/soft/libc.a(lib_a-reallocr.o)
                0x000000004000b0e0                _realloc_r
 .text          0x000000004000b5f4       0x90 /home/fsw/rep/tasa/lib/bcc-2.2.3-gcc/bin/../lib/gcc/sparc-gaisler-elf/10.2.0/../../../../sparc-gaisler-elf/lib/mfix-b2bst/soft/libc.a(lib_a-s_frexp.o)
                0x000000004000b5f4                frexp
 .text          0x000000004000b684       0x40 /home/fsw/rep/tasa/lib/bcc-2.2.3-gcc/bin/../lib/gcc/sparc-gaisler-elf/10.2.0/../../../../sparc-gaisler-elf/lib/mfix-b2bst/soft/libc.a(lib_a-sbrkr.o)
                0x000000004000b684                _sbrk_r
 .text          0x000000004000b6c4      0x114 /home/fsw/rep/tasa/lib/bcc-2.2.3-gcc/bin/../lib/gcc/sparc-gaisler-elf/10.2.0/../../../../sparc-gaisler-elf/lib/mfix-b2bst/soft/libc.a(lib_a-stdio.o)
                0x000000004000b6c4                __sread
                0x000000004000b710                __seofread
                0x000000004000b718                __swrite
                0x000000004000b774                __sseek
                0x000000004000b7c8                __sclose
 .text          0x000000004000b7d8      0x1c0 /home/fsw/rep/tasa/lib/bcc-2.2.3-gcc/bin/../lib/gcc/sparc-gaisler-elf/10.2.0/../../../../sparc-gaisler-elf/lib/mfix-b2bst/soft/libc.a(lib_a-strncpy.o)
                0x000000004000b7d8                strncpy
 .text          0x000000004000b998     0x1ef0 /home/fsw/rep/tasa/lib/bcc-2.2.3-gcc/bin/../lib/gcc/sparc-gaisler-elf/10.2.0/../../../../sparc-gaisler-elf/lib/mfix-b2bst/soft/libc.a(lib_a-vfiprintf.o)
                0x000000004000bb04                __sprint_r
                0x000000004000bbd0                _vfiprintf_r
                0x000000004000d7b8                vfiprintf
 .text          0x000000004000d888      0x35c /home/fsw/rep/tasa/lib/bcc-2.2.3-gcc/bin/../lib/gcc/sparc-gaisler-elf/10.2.0/../../../../sparc-gaisler-elf/lib/mfix-b2bst/soft/libc.a(lib_a-wbuf.o)
                0x000000004000d888                __swbuf_r
                0x000000004000da30                __swbuf
 .text          0x000000004000dbe4       0x48 /home/fsw/rep/tasa/lib/bcc-2.2.3-gcc/bin/../lib/gcc/sparc-gaisler-elf/10.2.0/../../../../sparc-gaisler-elf/lib/mfix-b2bst/soft/libc.a(lib_a-writer.o)
                0x000000004000dbe4                _write_r
 .text          0x000000004000dc2c       0xa4 /home/fsw/rep/tasa/lib/bcc-2.2.3-gcc/bin/../lib/gcc/sparc-gaisler-elf/10.2.0/../../../../sparc-gaisler-elf/lib/mfix-b2bst/soft/libc.a(lib_a-callocr.o)
                0x000000004000dc2c                _calloc_r
 .text          0x000000004000dcd0       0x40 /home/fsw/rep/tasa/lib/bcc-2.2.3-gcc/bin/../lib/gcc/sparc-gaisler-elf/10.2.0/../../../../sparc-gaisler-elf/lib/mfix-b2bst/soft/libc.a(lib_a-closer.o)
                0x000000004000dcd0                _close_r
 .text          0x000000004000dd10      0x294 /home/fsw/rep/tasa/lib/bcc-2.2.3-gcc/bin/../lib/gcc/sparc-gaisler-elf/10.2.0/../../../../sparc-gaisler-elf/lib/mfix-b2bst/soft/libc.a(lib_a-fclose.o)
                0x000000004000dd10                _fclose_r
                0x000000004000de58                fclose
 .text          0x000000004000dfa4      0x1e0 /home/fsw/rep/tasa/lib/bcc-2.2.3-gcc/bin/../lib/gcc/sparc-gaisler-elf/10.2.0/../../../../sparc-gaisler-elf/lib/mfix-b2bst/soft/libc.a(lib_a-fputwc.o)
                0x000000004000dfa4                __fputwc
                0x000000004000e098                _fputwc_r
                0x000000004000e0c8                fputwc
 .text          0x000000004000e184       0x44 /home/fsw/rep/tasa/lib/bcc-2.2.3-gcc/bin/../lib/gcc/sparc-gaisler-elf/10.2.0/../../../../sparc-gaisler-elf/lib/mfix-b2bst/soft/libc.a(lib_a-fstatr.o)
                0x000000004000e184                _fstat_r
 .text          0x000000004000e1c8       0x40 /home/fsw/rep/tasa/lib/bcc-2.2.3-gcc/bin/../lib/gcc/sparc-gaisler-elf/10.2.0/../../../../sparc-gaisler-elf/lib/mfix-b2bst/soft/libc.a(lib_a-isattyr.o)
                0x000000004000e1c8                _isatty_r
 .text          0x000000004000e208      0x148 /home/fsw/rep/tasa/lib/bcc-2.2.3-gcc/bin/../lib/gcc/sparc-gaisler-elf/10.2.0/../../../../sparc-gaisler-elf/lib/mfix-b2bst/soft/libc.a(lib_a-locale.o)
                0x000000004000e208                _setlocale_r
                0x000000004000e27c                __locale_mb_cur_max
                0x000000004000e2a8                __locale_ctype_ptr_l
                0x000000004000e2b0                __locale_ctype_ptr
                0x000000004000e2dc                setlocale
 .text          0x000000004000e350       0x48 /home/fsw/rep/tasa/lib/bcc-2.2.3-gcc/bin/../lib/gcc/sparc-gaisler-elf/10.2.0/../../../../sparc-gaisler-elf/lib/mfix-b2bst/soft/libc.a(lib_a-lseekr.o)
                0x000000004000e350                _lseek_r
 .text          0x000000004000e398       0xb8 /home/fsw/rep/tasa/lib/bcc-2.2.3-gcc/bin/../lib/gcc/sparc-gaisler-elf/10.2.0/../../../../sparc-gaisler-elf/lib/mfix-b2bst/soft/libc.a(lib_a-mbtowc_r.o)
                0x000000004000e398                _mbtowc_r
                0x000000004000e3fc                __ascii_mbtowc
 .text          0x000000004000e450       0x48 /home/fsw/rep/tasa/lib/bcc-2.2.3-gcc/bin/../lib/gcc/sparc-gaisler-elf/10.2.0/../../../../sparc-gaisler-elf/lib/mfix-b2bst/soft/libc.a(lib_a-readr.o)
                0x000000004000e450                _read_r
 .text          0x000000004000e498      0x31c /home/fsw/rep/tasa/lib/bcc-2.2.3-gcc/bin/../lib/gcc/sparc-gaisler-elf/10.2.0/../../../../sparc-gaisler-elf/lib/mfix-b2bst/soft/libc.a(lib_a-reent.o)
                0x000000004000e498                cleanup_glue
                0x000000004000e510                _reclaim_reent
 .text          0x000000004000e7b4       0xc0 /home/fsw/rep/tasa/lib/bcc-2.2.3-gcc/bin/../lib/gcc/sparc-gaisler-elf/10.2.0/../../../../sparc-gaisler-elf/lib/mfix-b2bst/soft/libc.a(lib_a-strcmp.o)
                0x000000004000e7b4                strcmp
 .text          0x000000004000e874      0x140 /home/fsw/rep/tasa/lib/bcc-2.2.3-gcc/bin/../lib/gcc/sparc-gaisler-elf/10.2.0/../../../../sparc-gaisler-elf/lib/mfix-b2bst/soft/libc.a(lib_a-wcrtomb.o)
                0x000000004000e874                _wcrtomb_r
                0x000000004000e91c                wcrtomb
 .text          0x000000004000e9b4       0x9c /home/fsw/rep/tasa/lib/bcc-2.2.3-gcc/bin/../lib/gcc/sparc-gaisler-elf/10.2.0/../../../../sparc-gaisler-elf/lib/mfix-b2bst/soft/libc.a(lib_a-wctomb_r.o)
                0x000000004000e9b4                _wctomb_r
                0x000000004000ea10                __ascii_wctomb
 .text          0x000000004000ea50        0x0 /home/fsw/rep/tasa/lib/bcc-2.2.3-gcc/bin/../lib/gcc/sparc-gaisler-elf/10.2.0/../../../../sparc-gaisler-elf/lib/mfix-b2bst/soft/libc.a(lib_a-ctype_.o)
 .text          0x000000004000ea50       0x10 /home/fsw/rep/tasa/lib/bcc-2.2.3-gcc/bin/../sparc-gaisler-elf/bsp/leon3/mfix-b2bst/soft/libbcc.a(_exit.S.o)
                0x000000004000ea50                _exit
 .text          0x000000004000ea60       0x4c /home/fsw/rep/tasa/lib/bcc-2.2.3-gcc/bin/../sparc-gaisler-elf/bsp/leon3/mfix-b2bst/soft/libbcc.a(read.c.o)
                0x000000004000ea60                read
 .text          0x000000004000eaac       0xb0 /home/fsw/rep/tasa/lib/bcc-2.2.3-gcc/bin/../sparc-gaisler-elf/bsp/leon3/mfix-b2bst/soft/libbcc.a(sbrk.c.o)
                0x000000004000eaac                sbrk
 .text          0x000000004000eb5c        0x0 /home/fsw/rep/tasa/lib/bcc-2.2.3-gcc/bin/../sparc-gaisler-elf/bsp/leon3/mfix-b2bst/soft/libbcc.a(heap.c.o)
 .text          0x000000004000eb5c       0x64 /home/fsw/rep/tasa/lib/bcc-2.2.3-gcc/bin/../sparc-gaisler-elf/bsp/leon3/mfix-b2bst/soft/libbcc.a(write.c.o)
                0x000000004000eb5c                write
 .text          0x000000004000ebc0       0x20 /home/fsw/rep/tasa/lib/bcc-2.2.3-gcc/bin/../sparc-gaisler-elf/bsp/leon3/mfix-b2bst/soft/libbcc.a(stubs.S.o)
                0x000000004000ebc0                execve
                0x000000004000ebc0                lseek
                0x000000004000ebc0                fstat
                0x000000004000ebc0                kill
                0x000000004000ebc0                wait
                0x000000004000ebc0                unlink
                0x000000004000ebc0                fork
                0x000000004000ebc0                stat
                0x000000004000ebc0                link
                0x000000004000ebc0                open
                0x000000004000ebc0                close
                0x000000004000ebd8                getpid
                0x000000004000ebd8                isatty
 .text          0x000000004000ebe0       0xc4 /home/fsw/rep/tasa/lib/bcc-2.2.3-gcc/bin/../sparc-gaisler-elf/bsp/leon3/mfix-b2bst/soft/libbcc.a(con_apbuart.c.o)
                0x000000004000ebe0                __bcc_con_outbyte
                0x000000004000ec70                __bcc_con_inbyte
 .text          0x000000004000eca4       0xe8 /home/fsw/rep/tasa/lib/bcc-2.2.3-gcc/bin/../lib/gcc/sparc-gaisler-elf/10.2.0/mfix-b2bst/soft/libgcc.a(_mulsi3.o)
                0x000000004000eca4                .umul
 .text          0x000000004000ed8c      0x2b0 /home/fsw/rep/tasa/lib/bcc-2.2.3-gcc/bin/../lib/gcc/sparc-gaisler-elf/10.2.0/mfix-b2bst/soft/libgcc.a(_divsi3.o)
                0x000000004000ed8c                .udiv
                0x000000004000ed94                .div
 .text          0x000000004000f03c      0x2b0 /home/fsw/rep/tasa/lib/bcc-2.2.3-gcc/bin/../lib/gcc/sparc-gaisler-elf/10.2.0/mfix-b2bst/soft/libgcc.a(_modsi3.o)
                0x000000004000f03c                .urem
                0x000000004000f044                .rem
 .text          0x000000004000f2ec      0x354 /home/fsw/rep/tasa/lib/bcc-2.2.3-gcc/bin/../lib/gcc/sparc-gaisler-elf/10.2.0/mfix-b2bst/soft/libgcc.a(_udivdi3.o)
                0x000000004000f2ec                __udivdi3
 .text          0x000000004000f640      0x370 /home/fsw/rep/tasa/lib/bcc-2.2.3-gcc/bin/../lib/gcc/sparc-gaisler-elf/10.2.0/mfix-b2bst/soft/libgcc.a(_umoddi3.o)
                0x000000004000f640                __umoddi3
 .text          0x000000004000f9b0      0x764 /home/fsw/rep/tasa/lib/bcc-2.2.3-gcc/bin/../lib/gcc/sparc-gaisler-elf/10.2.0/mfix-b2bst/soft/libgcc.a(_addsub_df.o)
                0x000000004000f9b0                __adddf3
                0x000000004000fd64                __subdf3
 .text          0x0000000040010114      0x330 /home/fsw/rep/tasa/lib/bcc-2.2.3-gcc/bin/../lib/gcc/sparc-gaisler-elf/10.2.0/mfix-b2bst/soft/libgcc.a(_mul_df.o)
                0x0000000040010114                __muldf3
 .text          0x0000000040010444      0x200 /home/fsw/rep/tasa/lib/bcc-2.2.3-gcc/bin/../lib/gcc/sparc-gaisler-elf/10.2.0/mfix-b2bst/soft/libgcc.a(_div_df.o)
                0x0000000040010444                __divdf3
 .text          0x0000000040010644       0x5c /home/fsw/rep/tasa/lib/bcc-2.2.3-gcc/bin/../lib/gcc/sparc-gaisler-elf/10.2.0/mfix-b2bst/soft/libgcc.a(_eq_df.o)
                0x0000000040010644                __eqdf2
 .text          0x00000000400106a0       0x5c /home/fsw/rep/tasa/lib/bcc-2.2.3-gcc/bin/../lib/gcc/sparc-gaisler-elf/10.2.0/mfix-b2bst/soft/libgcc.a(_ne_df.o)
                0x00000000400106a0                __nedf2
 .text          0x00000000400106fc       0x5c /home/fsw/rep/tasa/lib/bcc-2.2.3-gcc/bin/../lib/gcc/sparc-gaisler-elf/10.2.0/mfix-b2bst/soft/libgcc.a(_gt_df.o)
                0x00000000400106fc                __gtdf2
 .text          0x0000000040010758       0x5c /home/fsw/rep/tasa/lib/bcc-2.2.3-gcc/bin/../lib/gcc/sparc-gaisler-elf/10.2.0/mfix-b2bst/soft/libgcc.a(_lt_df.o)
                0x0000000040010758                __ltdf2
 .text          0x00000000400107b4       0x5c /home/fsw/rep/tasa/lib/bcc-2.2.3-gcc/bin/../lib/gcc/sparc-gaisler-elf/10.2.0/mfix-b2bst/soft/libgcc.a(_le_df.o)
                0x00000000400107b4                __ledf2
 .text          0x0000000040010810       0x50 /home/fsw/rep/tasa/lib/bcc-2.2.3-gcc/bin/../lib/gcc/sparc-gaisler-elf/10.2.0/mfix-b2bst/soft/libgcc.a(_unord_df.o)
                0x0000000040010810                __unorddf2
 .text          0x0000000040010860       0xd4 /home/fsw/rep/tasa/lib/bcc-2.2.3-gcc/bin/../lib/gcc/sparc-gaisler-elf/10.2.0/mfix-b2bst/soft/libgcc.a(_si_to_df.o)
                0x0000000040010860                __floatsidf
 .text          0x0000000040010934       0xcc /home/fsw/rep/tasa/lib/bcc-2.2.3-gcc/bin/../lib/gcc/sparc-gaisler-elf/10.2.0/mfix-b2bst/soft/libgcc.a(_df_to_si.o)
                0x0000000040010934                __fixdfsi
 .text          0x0000000040010a00        0x0 /home/fsw/rep/tasa/lib/bcc-2.2.3-gcc/bin/../lib/gcc/sparc-gaisler-elf/10.2.0/mfix-b2bst/soft/libgcc.a(_thenan_df.o)
 .text          0x0000000040010a00       0x7c /home/fsw/rep/tasa/lib/bcc-2.2.3-gcc/bin/../lib/gcc/sparc-gaisler-elf/10.2.0/mfix-b2bst/soft/libgcc.a(_usi_to_df.o)
                0x0000000040010a00                __floatunsidf
 .text          0x0000000040010a7c       0xc4 /home/fsw/rep/tasa/lib/bcc-2.2.3-gcc/bin/../lib/gcc/sparc-gaisler-elf/10.2.0/mfix-b2bst/soft/libgcc.a(_muldi3.o)
                0x0000000040010a7c                __muldi3
 .text          0x0000000040010b40        0x0 /home/fsw/rep/tasa/lib/bcc-2.2.3-gcc/bin/../lib/gcc/sparc-gaisler-elf/10.2.0/mfix-b2bst/soft/libgcc.a(_clz.o)
 .text          0x0000000040010b40       0x94 /home/fsw/rep/tasa/lib/bcc-2.2.3-gcc/bin/../lib/gcc/sparc-gaisler-elf/10.2.0/mfix-b2bst/soft/libgcc.a(_clzsi2.o)
                0x0000000040010b40                __clzsi2
 .text          0x0000000040010bd4      0x244 /home/fsw/rep/tasa/lib/bcc-2.2.3-gcc/bin/../lib/gcc/sparc-gaisler-elf/10.2.0/mfix-b2bst/soft/libgcc.a(_pack_df.o)
                0x0000000040010bd4                __pack_d
 .text          0x0000000040010e18      0x124 /home/fsw/rep/tasa/lib/bcc-2.2.3-gcc/bin/../lib/gcc/sparc-gaisler-elf/10.2.0/mfix-b2bst/soft/libgcc.a(_unpack_df.o)
                0x0000000040010e18                __unpack_d
 .text          0x0000000040010f3c      0x158 /home/fsw/rep/tasa/lib/bcc-2.2.3-gcc/bin/../lib/gcc/sparc-gaisler-elf/10.2.0/mfix-b2bst/soft/libgcc.a(_fpcmp_parts_df.o)
                0x0000000040010f3c                __fpcmp_parts_d
 .text          0x0000000040011094       0x48 /home/fsw/rep/tasa/lib/bcc-2.2.3-gcc/bin/../lib/gcc/sparc-gaisler-elf/10.2.0/mfix-b2bst/soft/crtend.o
 .text          0x00000000400110dc        0x0 /home/fsw/rep/tasa/lib/bcc-2.2.3-gcc/bin/../lib/gcc/sparc-gaisler-elf/10.2.0/mfix-b2bst/soft/crtn.o
                0x00000000400110e0                . = ALIGN (0x10)
 *fill*         0x00000000400110dc        0x4 
 *(.eh_frame)
 .eh_frame      0x00000000400110e0        0x0 /home/fsw/rep/tasa/lib/bcc-2.2.3-gcc/bin/../lib/gcc/sparc-gaisler-elf/10.2.0/mfix-b2bst/soft/crtbegin.o
 .eh_frame      0x00000000400110e0       0x2c /home/fsw/rep/tasa/lib/bcc-2.2.3-gcc/bin/../lib/gcc/sparc-gaisler-elf/10.2.0/mfix-b2bst/soft/libgcc.a(_udivdi3.o)
 .eh_frame      0x000000004001110c       0x2c /home/fsw/rep/tasa/lib/bcc-2.2.3-gcc/bin/../lib/gcc/sparc-gaisler-elf/10.2.0/mfix-b2bst/soft/libgcc.a(_umoddi3.o)
 .eh_frame      0x0000000040011138        0x4 /home/fsw/rep/tasa/lib/bcc-2.2.3-gcc/bin/../lib/gcc/sparc-gaisler-elf/10.2.0/mfix-b2bst/soft/crtend.o
                0x0000000040011140                . = ALIGN (0x10)
 *fill*         0x000000004001113c        0x4 
 *(.gnu.linkonce.t*)
                0x0000000040011140                ___CTOR_LIST__ = .
                0x0000000040011140        0x4 LONG 0x2 (((___CTOR_END__ - ___CTOR_LIST__) / 0x4) - 0x2)
 *(SORT_BY_NAME(.ctors.*))
 *(.ctors)
 .ctors         0x0000000040011144        0x4 /home/fsw/rep/tasa/lib/bcc-2.2.3-gcc/bin/../lib/gcc/sparc-gaisler-elf/10.2.0/mfix-b2bst/soft/crtbegin.o
 .ctors         0x0000000040011148        0x4 /home/fsw/rep/tasa/lib/bcc-2.2.3-gcc/bin/../lib/gcc/sparc-gaisler-elf/10.2.0/mfix-b2bst/soft/crtend.o
                0x000000004001114c        0x4 LONG 0x0
                0x0000000040011150                ___CTOR_END__ = .
                0x0000000040011150                ___DTOR_LIST__ = .
                0x0000000040011150        0x4 LONG 0x2 (((___DTOR_END__ - ___DTOR_LIST__) / 0x4) - 0x2)
 *(SORT_BY_NAME(.dtors.*))
 *(.dtors)
 .dtors         0x0000000040011154        0x4 /home/fsw/rep/tasa/lib/bcc-2.2.3-gcc/bin/../lib/gcc/sparc-gaisler-elf/10.2.0/mfix-b2bst/soft/crtbegin.o
 .dtors         0x0000000040011158        0x4 /home/fsw/rep/tasa/lib/bcc-2.2.3-gcc/bin/../lib/gcc/sparc-gaisler-elf/10.2.0/mfix-b2bst/soft/crtend.o
                0x0000000040011158                __DTOR_END__
                0x000000004001115c        0x4 LONG 0x0
                0x0000000040011160                ___DTOR_END__ = .
 *(.gnu.linkonce*)
 *(.init)
 .init          0x0000000040011160        0x4 /home/fsw/rep/tasa/lib/bcc-2.2.3-gcc/bin/../lib/gcc/sparc-gaisler-elf/10.2.0/mfix-b2bst/soft/crti.o
                0x0000000040011160                _init
 .init          0x0000000040011164        0x8 /home/fsw/rep/tasa/lib/bcc-2.2.3-gcc/bin/../lib/gcc/sparc-gaisler-elf/10.2.0/mfix-b2bst/soft/crtbegin.o
 .init          0x000000004001116c        0x8 /home/fsw/rep/tasa/lib/bcc-2.2.3-gcc/bin/../lib/gcc/sparc-gaisler-elf/10.2.0/mfix-b2bst/soft/crtend.o
 .init          0x0000000040011174        0xc /home/fsw/rep/tasa/lib/bcc-2.2.3-gcc/bin/../lib/gcc/sparc-gaisler-elf/10.2.0/mfix-b2bst/soft/crtn.o
 *(.fini)
 .fini          0x0000000040011180        0x4 /home/fsw/rep/tasa/lib/bcc-2.2.3-gcc/bin/../lib/gcc/sparc-gaisler-elf/10.2.0/mfix-b2bst/soft/crti.o
                0x0000000040011180                _fini
 .fini          0x0000000040011184        0x8 /home/fsw/rep/tasa/lib/bcc-2.2.3-gcc/bin/../lib/gcc/sparc-gaisler-elf/10.2.0/mfix-b2bst/soft/crtbegin.o
 .fini          0x000000004001118c        0xc /home/fsw/rep/tasa/lib/bcc-2.2.3-gcc/bin/../lib/gcc/sparc-gaisler-elf/10.2.0/mfix-b2bst/soft/crtn.o
 *(.lit)
 *(.shdata)
                0x00000000400111a0                . = ALIGN (0x10)
 *fill*         0x0000000040011198        0x8 
                0x00000000400111a0                __text_end = .

.gcc_except_table
 *(.gcc_except_table.*)

.rodata         0x00000000400111a0      0x6f0
                0x00000000400111a0                __rodata_start = .
 *(.rodata*)
 .rodata.str1.8
                0x00000000400111a0       0xcf /tmp/ccjQJ0Dl.o
 *fill*         0x000000004001126f        0x1 
 .rodata        0x0000000040011270        0x5 /tmp/ccjQJ0Dl.o
 *fill*         0x0000000040011275        0x3 
 .rodata        0x0000000040011278        0x4 /home/fsw/rep/tasa/lib/bcc-2.2.3-gcc/bin/../lib/gcc/sparc-gaisler-elf/10.2.0/../../../../sparc-gaisler-elf/lib/mfix-b2bst/soft/libc.a(lib_a-impure.o)
                0x0000000040011278                _global_impure_ptr
 *fill*         0x000000004001127c        0x4 
 .rodata.str1.8
                0x0000000040011280        0x2 /home/fsw/rep/tasa/lib/bcc-2.2.3-gcc/bin/../lib/gcc/sparc-gaisler-elf/10.2.0/../../../../sparc-gaisler-elf/lib/mfix-b2bst/soft/libc.a(lib_a-puts.o)
 *fill*         0x0000000040011282        0x6 
 .rodata.str1.8
                0x0000000040011288       0x5a /home/fsw/rep/tasa/lib/bcc-2.2.3-gcc/bin/../lib/gcc/sparc-gaisler-elf/10.2.0/../../../../sparc-gaisler-elf/lib/mfix-b2bst/soft/libc.a(lib_a-vfprintf.o)
 *fill*         0x00000000400112e2        0x6 
 .rodata.cst8   0x00000000400112e8        0x8 /home/fsw/rep/tasa/lib/bcc-2.2.3-gcc/bin/../lib/gcc/sparc-gaisler-elf/10.2.0/../../../../sparc-gaisler-elf/lib/mfix-b2bst/soft/libc.a(lib_a-vfprintf.o)
 .rodata        0x00000000400112f0       0x20 /home/fsw/rep/tasa/lib/bcc-2.2.3-gcc/bin/../lib/gcc/sparc-gaisler-elf/10.2.0/../../../../sparc-gaisler-elf/lib/mfix-b2bst/soft/libc.a(lib_a-vfprintf.o)
 .rodata.str1.8
                0x0000000040011310       0x14 /home/fsw/rep/tasa/lib/bcc-2.2.3-gcc/bin/../lib/gcc/sparc-gaisler-elf/10.2.0/../../../../sparc-gaisler-elf/lib/mfix-b2bst/soft/libc.a(lib_a-dtoa.o)
                                         0x1a (size before relaxing)
 .rodata.cst8   0x0000000040011324        0x8 /home/fsw/rep/tasa/lib/bcc-2.2.3-gcc/bin/../lib/gcc/sparc-gaisler-elf/10.2.0/../../../../sparc-gaisler-elf/lib/mfix-b2bst/soft/libc.a(lib_a-dtoa.o)
 .rodata        0x0000000040011324       0x60 /home/fsw/rep/tasa/lib/bcc-2.2.3-gcc/bin/../lib/gcc/sparc-gaisler-elf/10.2.0/../../../../sparc-gaisler-elf/lib/mfix-b2bst/soft/libc.a(lib_a-findfp.o)
                0x0000000040011324                __sf_fake_stderr
                0x0000000040011344                __sf_fake_stdout
                0x0000000040011364                __sf_fake_stdin
 *fill*         0x0000000040011384        0x4 
 .rodata        0x0000000040011388      0x128 /home/fsw/rep/tasa/lib/bcc-2.2.3-gcc/bin/../lib/gcc/sparc-gaisler-elf/10.2.0/../../../../sparc-gaisler-elf/lib/mfix-b2bst/soft/libc.a(lib_a-mprec.o)
                0x0000000040011398                __mprec_tinytens
                0x00000000400113c0                __mprec_bigtens
                0x00000000400113e8                __mprec_tens
 .rodata.str1.8
                0x00000000400114b0       0x37 /home/fsw/rep/tasa/lib/bcc-2.2.3-gcc/bin/../lib/gcc/sparc-gaisler-elf/10.2.0/../../../../sparc-gaisler-elf/lib/mfix-b2bst/soft/libc.a(lib_a-vfiprintf.o)
 .rodata        0x00000000400114b0       0x20 /home/fsw/rep/tasa/lib/bcc-2.2.3-gcc/bin/../lib/gcc/sparc-gaisler-elf/10.2.0/../../../../sparc-gaisler-elf/lib/mfix-b2bst/soft/libc.a(lib_a-vfiprintf.o)
 .rodata.str1.8
                0x00000000400114d0       0x12 /home/fsw/rep/tasa/lib/bcc-2.2.3-gcc/bin/../lib/gcc/sparc-gaisler-elf/10.2.0/../../../../sparc-gaisler-elf/lib/mfix-b2bst/soft/libc.a(lib_a-locale.o)
                                         0x1a (size before relaxing)
 *fill*         0x00000000400114e2        0x6 
 .rodata        0x00000000400114e8      0x288 /home/fsw/rep/tasa/lib/bcc-2.2.3-gcc/bin/../lib/gcc/sparc-gaisler-elf/10.2.0/../../../../sparc-gaisler-elf/lib/mfix-b2bst/soft/libc.a(lib_a-ctype_.o)
                0x00000000400114e8                _ctype_
                0x00000000400115f0                _ctype_b
 .rodata        0x0000000040011770       0x18 /home/fsw/rep/tasa/lib/bcc-2.2.3-gcc/bin/../lib/gcc/sparc-gaisler-elf/10.2.0/mfix-b2bst/soft/libgcc.a(_thenan_df.o)
                0x0000000040011770                __thenan_df
 .rodata        0x0000000040011788      0x100 /home/fsw/rep/tasa/lib/bcc-2.2.3-gcc/bin/../lib/gcc/sparc-gaisler-elf/10.2.0/mfix-b2bst/soft/libgcc.a(_clz.o)
                0x0000000040011788                __clz_tab
 *(.gnu.linkonce.r*)
                0x0000000040011890                . = ALIGN (0x10)
 *fill*         0x0000000040011888        0x8 
                0x0000000040011890                __rodata_end = .

.rela.dyn       0x0000000040011890        0x0
 .rela.iplt     0x0000000040011890        0x0 /home/fsw/rep/tasa/lib/bcc-2.2.3-gcc/bin/../sparc-gaisler-elf/bsp/leon3/mfix-b2bst/soft/trap_table_mvt.S.o
 .rela.text.traptable
                0x0000000040011890        0x0 /home/fsw/rep/tasa/lib/bcc-2.2.3-gcc/bin/../sparc-gaisler-elf/bsp/leon3/mfix-b2bst/soft/trap_table_mvt.S.o
 .rela.text     0x0000000040011890        0x0 /home/fsw/rep/tasa/lib/bcc-2.2.3-gcc/bin/../sparc-gaisler-elf/bsp/leon3/mfix-b2bst/soft/trap_table_mvt.S.o

.ext.data       0x0000000040011890        0x0
                0x0000000040011890                . = ALIGN (0x8)
                0x0000000040011890                __extdata_start = .
 *(.data.ext)
                0x0000000040011890                . = ALIGN (0x8)
                0x0000000040011890                __extdata_end = .
                0x0000000040011890                __extdata_start_lma = LOADADDR (.ext.data)
                0x0000000000000000                __extdata_size = SIZEOF (.ext.data)

.data           0x0000000040011890      0x610
                0x0000000040011890                . = ALIGN (0x8)
                0x0000000040011890                __data_start = .
 *(.data .data.*)
 .data          0x0000000040011890        0x0 /home/fsw/rep/tasa/lib/bcc-2.2.3-gcc/bin/../sparc-gaisler-elf/bsp/leon3/mfix-b2bst/soft/trap_table_mvt.S.o
 .data          0x0000000040011890        0x0 /home/fsw/rep/tasa/lib/bcc-2.2.3-gcc/bin/../sparc-gaisler-elf/bsp/leon3/mfix-b2bst/soft/crt0.S.o
 .data          0x0000000040011890        0x0 /home/fsw/rep/tasa/lib/bcc-2.2.3-gcc/bin/../lib/gcc/sparc-gaisler-elf/10.2.0/mfix-b2bst/soft/crti.o
 .data          0x0000000040011890        0x4 /home/fsw/rep/tasa/lib/bcc-2.2.3-gcc/bin/../lib/gcc/sparc-gaisler-elf/10.2.0/mfix-b2bst/soft/crtbegin.o
                0x0000000040011890                __dso_handle
 .data          0x0000000040011894        0x0 /tmp/ccjQJ0Dl.o
 .data          0x0000000040011894        0x0 /home/fsw/rep/tasa/lib/bcc-2.2.3-gcc/bin/../sparc-gaisler-elf/bsp/leon3/mfix-b2bst/soft/libbcc.a(reset_trap_mvt.S.o)
 .data          0x0000000040011894        0x0 /home/fsw/rep/tasa/lib/bcc-2.2.3-gcc/bin/../sparc-gaisler-elf/bsp/leon3/mfix-b2bst/soft/libbcc.a(window_trap.S.o)
 .data          0x0000000040011894        0x0 /home/fsw/rep/tasa/lib/bcc-2.2.3-gcc/bin/../sparc-gaisler-elf/bsp/leon3/mfix-b2bst/soft/libbcc.a(interrupt_trap.S.o)
 .data          0x0000000040011894        0x0 /home/fsw/rep/tasa/lib/bcc-2.2.3-gcc/bin/../sparc-gaisler-elf/bsp/leon3/mfix-b2bst/soft/libbcc.a(flush_windows_trap.S.o)
 .data          0x0000000040011894        0x0 /home/fsw/rep/tasa/lib/bcc-2.2.3-gcc/bin/../sparc-gaisler-elf/bsp/leon3/mfix-b2bst/soft/libbcc.a(sw_trap_set_pil.S.o)
 .data          0x0000000040011894        0x0 /home/fsw/rep/tasa/lib/bcc-2.2.3-gcc/bin/../sparc-gaisler-elf/bsp/leon3/mfix-b2bst/soft/libbcc.a(isr.c.o)
 *fill*         0x0000000040011894        0x4 
 .data          0x0000000040011898       0x10 /home/fsw/rep/tasa/lib/bcc-2.2.3-gcc/bin/../sparc-gaisler-elf/bsp/leon3/mfix-b2bst/soft/libbcc.a(int_nest.c.o)
                0x0000000040011898                __bcc_int_nest
 .data          0x00000000400118a8        0x0 /home/fsw/rep/tasa/lib/bcc-2.2.3-gcc/bin/../sparc-gaisler-elf/bsp/leon3/mfix-b2bst/soft/libbcc.a(init.S.o)
 .data          0x00000000400118a8       0x10 /home/fsw/rep/tasa/lib/bcc-2.2.3-gcc/bin/../sparc-gaisler-elf/bsp/leon3/mfix-b2bst/soft/libbcc.a(leon_info.S.o)
                0x00000000400118a8                __bcc_leon_version
                0x00000000400118ac                __bcc_nwindows_min1
                0x00000000400118b0                __bcc_nwindows
                0x00000000400118b4                __bcc_cpuid
 .data          0x00000000400118b8        0x0 /home/fsw/rep/tasa/lib/bcc-2.2.3-gcc/bin/../sparc-gaisler-elf/bsp/leon3/mfix-b2bst/soft/libbcc.a(dwzero.S.o)
 .data          0x00000000400118b8        0x0 /home/fsw/rep/tasa/lib/bcc-2.2.3-gcc/bin/../sparc-gaisler-elf/bsp/leon3/mfix-b2bst/soft/libbcc.a(copy_data.c.o)
 .data          0x00000000400118b8        0x4 /home/fsw/rep/tasa/lib/bcc-2.2.3-gcc/bin/../sparc-gaisler-elf/bsp/leon3/mfix-b2bst/soft/libbcc.a(argv.c.o)
                0x00000000400118b8                __bcc_argvp
 .data          0x00000000400118bc        0x0 /home/fsw/rep/tasa/lib/bcc-2.2.3-gcc/bin/../sparc-gaisler-elf/bsp/leon3/mfix-b2bst/soft/libbcc.a(int_irqmp_get_source.c.o)
 .data          0x00000000400118bc        0x0 /home/fsw/rep/tasa/lib/bcc-2.2.3-gcc/bin/../sparc-gaisler-elf/bsp/leon3/mfix-b2bst/soft/libbcc.a(int_irqmp_mp.c.o)
 .data          0x00000000400118bc        0x0 /home/fsw/rep/tasa/lib/bcc-2.2.3-gcc/bin/../sparc-gaisler-elf/bsp/leon3/mfix-b2bst/soft/libbcc.a(int_irqmp_init.c.o)
 .data          0x00000000400118bc        0x0 /home/fsw/rep/tasa/lib/bcc-2.2.3-gcc/bin/../sparc-gaisler-elf/bsp/leon3/mfix-b2bst/soft/libbcc.a(con_apbuart_init.c.o)
 .data          0x00000000400118bc        0x0 /home/fsw/rep/tasa/lib/bcc-2.2.3-gcc/bin/../sparc-gaisler-elf/bsp/leon3/mfix-b2bst/soft/libbcc.a(timer_gptimer_init.c.o)
 .data          0x00000000400118bc        0x0 /home/fsw/rep/tasa/lib/bcc-2.2.3-gcc/bin/../sparc-gaisler-elf/bsp/leon3/mfix-b2bst/soft/libbcc.a(ambapp.c.o)
 .data          0x00000000400118bc        0x0 /home/fsw/rep/tasa/lib/bcc-2.2.3-gcc/bin/../sparc-gaisler-elf/bsp/leon3/mfix-b2bst/soft/libbcc.a(ambapp_findfirst_fn.c.o)
 .data          0x00000000400118bc        0x0 /home/fsw/rep/tasa/lib/bcc-2.2.3-gcc/bin/../sparc-gaisler-elf/bsp/leon3/mfix-b2bst/soft/libbcc.a(int_irqmp_handle.c.o)
 .data          0x00000000400118bc        0x0 /home/fsw/rep/tasa/lib/bcc-2.2.3-gcc/bin/../sparc-gaisler-elf/bsp/leon3/mfix-b2bst/soft/libbcc.a(con_handle.c.o)
 .data          0x00000000400118bc        0x0 /home/fsw/rep/tasa/lib/bcc-2.2.3-gcc/bin/../sparc-gaisler-elf/bsp/leon3/mfix-b2bst/soft/libbcc.a(timer_handle.c.o)
 .data          0x00000000400118bc        0x0 /home/fsw/rep/tasa/lib/bcc-2.2.3-gcc/bin/../lib/gcc/sparc-gaisler-elf/10.2.0/../../../../sparc-gaisler-elf/lib/mfix-b2bst/soft/libc.a(lib_a-atexit.o)
 .data          0x00000000400118bc        0x0 /home/fsw/rep/tasa/lib/bcc-2.2.3-gcc/bin/../lib/gcc/sparc-gaisler-elf/10.2.0/../../../../sparc-gaisler-elf/lib/mfix-b2bst/soft/libc.a(lib_a-exit.o)
 .data          0x00000000400118bc       0x64 /home/fsw/rep/tasa/lib/bcc-2.2.3-gcc/bin/../lib/gcc/sparc-gaisler-elf/10.2.0/../../../../sparc-gaisler-elf/lib/mfix-b2bst/soft/libc.a(lib_a-impure.o)
                0x00000000400118bc                _impure_ptr
 .data          0x0000000040011920        0x0 /home/fsw/rep/tasa/lib/bcc-2.2.3-gcc/bin/../lib/gcc/sparc-gaisler-elf/10.2.0/../../../../sparc-gaisler-elf/lib/mfix-b2bst/soft/libc.a(lib_a-memcpy.o)
 .data          0x0000000040011920        0x0 /home/fsw/rep/tasa/lib/bcc-2.2.3-gcc/bin/../lib/gcc/sparc-gaisler-elf/10.2.0/../../../../sparc-gaisler-elf/lib/mfix-b2bst/soft/libc.a(lib_a-printf.o)
 .data          0x0000000040011920        0x0 /home/fsw/rep/tasa/lib/bcc-2.2.3-gcc/bin/../lib/gcc/sparc-gaisler-elf/10.2.0/../../../../sparc-gaisler-elf/lib/mfix-b2bst/soft/libc.a(lib_a-putchar.o)
 .data          0x0000000040011920        0x0 /home/fsw/rep/tasa/lib/bcc-2.2.3-gcc/bin/../lib/gcc/sparc-gaisler-elf/10.2.0/../../../../sparc-gaisler-elf/lib/mfix-b2bst/soft/libc.a(lib_a-puts.o)
 .data          0x0000000040011920        0x0 /home/fsw/rep/tasa/lib/bcc-2.2.3-gcc/bin/../lib/gcc/sparc-gaisler-elf/10.2.0/../../../../sparc-gaisler-elf/lib/mfix-b2bst/soft/libc.a(lib_a-strlen.o)
 .data          0x0000000040011920        0x0 /home/fsw/rep/tasa/lib/bcc-2.2.3-gcc/bin/../lib/gcc/sparc-gaisler-elf/10.2.0/../../../../sparc-gaisler-elf/lib/mfix-b2bst/soft/libc.a(lib_a-vfprintf.o)
 .data          0x0000000040011920        0x0 /home/fsw/rep/tasa/lib/bcc-2.2.3-gcc/bin/../lib/gcc/sparc-gaisler-elf/10.2.0/../../../../sparc-gaisler-elf/lib/mfix-b2bst/soft/libc.a(lib_a-wsetup.o)
 .data          0x0000000040011920        0x0 /home/fsw/rep/tasa/lib/bcc-2.2.3-gcc/bin/../lib/gcc/sparc-gaisler-elf/10.2.0/../../../../sparc-gaisler-elf/lib/mfix-b2bst/soft/libc.a(lib_a-__atexit.o)
 .data          0x0000000040011920        0x0 /home/fsw/rep/tasa/lib/bcc-2.2.3-gcc/bin/../lib/gcc/sparc-gaisler-elf/10.2.0/../../../../sparc-gaisler-elf/lib/mfix-b2bst/soft/libc.a(lib_a-__call_atexit.o)
 .data          0x0000000040011920        0x0 /home/fsw/rep/tasa/lib/bcc-2.2.3-gcc/bin/../lib/gcc/sparc-gaisler-elf/10.2.0/../../../../sparc-gaisler-elf/lib/mfix-b2bst/soft/libc.a(lib_a-dtoa.o)
 .data          0x0000000040011920        0x0 /home/fsw/rep/tasa/lib/bcc-2.2.3-gcc/bin/../lib/gcc/sparc-gaisler-elf/10.2.0/../../../../sparc-gaisler-elf/lib/mfix-b2bst/soft/libc.a(lib_a-fflush.o)
 .data          0x0000000040011920        0x0 /home/fsw/rep/tasa/lib/bcc-2.2.3-gcc/bin/../lib/gcc/sparc-gaisler-elf/10.2.0/../../../../sparc-gaisler-elf/lib/mfix-b2bst/soft/libc.a(lib_a-findfp.o)
 .data          0x0000000040011920        0x0 /home/fsw/rep/tasa/lib/bcc-2.2.3-gcc/bin/../lib/gcc/sparc-gaisler-elf/10.2.0/../../../../sparc-gaisler-elf/lib/mfix-b2bst/soft/libc.a(lib_a-freer.o)
 .data          0x0000000040011920        0x0 /home/fsw/rep/tasa/lib/bcc-2.2.3-gcc/bin/../lib/gcc/sparc-gaisler-elf/10.2.0/../../../../sparc-gaisler-elf/lib/mfix-b2bst/soft/libc.a(lib_a-fvwrite.o)
 .data          0x0000000040011920        0x0 /home/fsw/rep/tasa/lib/bcc-2.2.3-gcc/bin/../lib/gcc/sparc-gaisler-elf/10.2.0/../../../../sparc-gaisler-elf/lib/mfix-b2bst/soft/libc.a(lib_a-fwalk.o)
 .data          0x0000000040011920        0x0 /home/fsw/rep/tasa/lib/bcc-2.2.3-gcc/bin/../lib/gcc/sparc-gaisler-elf/10.2.0/../../../../sparc-gaisler-elf/lib/mfix-b2bst/soft/libc.a(lib_a-localeconv.o)
 .data          0x0000000040011920        0x0 /home/fsw/rep/tasa/lib/bcc-2.2.3-gcc/bin/../lib/gcc/sparc-gaisler-elf/10.2.0/../../../../sparc-gaisler-elf/lib/mfix-b2bst/soft/libc.a(lib_a-makebuf.o)
 .data          0x0000000040011920        0x0 /home/fsw/rep/tasa/lib/bcc-2.2.3-gcc/bin/../lib/gcc/sparc-gaisler-elf/10.2.0/../../../../sparc-gaisler-elf/lib/mfix-b2bst/soft/libc.a(lib_a-malloc.o)
 .data          0x0000000040011920      0x410 /home/fsw/rep/tasa/lib/bcc-2.2.3-gcc/bin/../lib/gcc/sparc-gaisler-elf/10.2.0/../../../../sparc-gaisler-elf/lib/mfix-b2bst/soft/libc.a(lib_a-mallocr.o)
                0x0000000040011920                __malloc_sbrk_base
                0x0000000040011924                __malloc_trim_threshold
                0x0000000040011928                __malloc_av_
 .data          0x0000000040011d30        0x0 /home/fsw/rep/tasa/lib/bcc-2.2.3-gcc/bin/../lib/gcc/sparc-gaisler-elf/10.2.0/../../../../sparc-gaisler-elf/lib/mfix-b2bst/soft/libc.a(lib_a-memchr.o)
 .data          0x0000000040011d30        0x0 /home/fsw/rep/tasa/lib/bcc-2.2.3-gcc/bin/../lib/gcc/sparc-gaisler-elf/10.2.0/../../../../sparc-gaisler-elf/lib/mfix-b2bst/soft/libc.a(lib_a-memmove.o)
 .data          0x0000000040011d30        0x0 /home/fsw/rep/tasa/lib/bcc-2.2.3-gcc/bin/../lib/gcc/sparc-gaisler-elf/10.2.0/../../../../sparc-gaisler-elf/lib/mfix-b2bst/soft/libc.a(lib_a-memset.o)
 .data          0x0000000040011d30        0x0 /home/fsw/rep/tasa/lib/bcc-2.2.3-gcc/bin/../lib/gcc/sparc-gaisler-elf/10.2.0/../../../../sparc-gaisler-elf/lib/mfix-b2bst/soft/libc.a(lib_a-mlock.o)
 .data          0x0000000040011d30        0x0 /home/fsw/rep/tasa/lib/bcc-2.2.3-gcc/bin/../lib/gcc/sparc-gaisler-elf/10.2.0/../../../../sparc-gaisler-elf/lib/mfix-b2bst/soft/libc.a(lib_a-mprec.o)
 .data          0x0000000040011d30        0x0 /home/fsw/rep/tasa/lib/bcc-2.2.3-gcc/bin/../lib/gcc/sparc-gaisler-elf/10.2.0/../../../../sparc-gaisler-elf/lib/mfix-b2bst/soft/libc.a(lib_a-putc.o)
 .data          0x0000000040011d30        0x0 /home/fsw/rep/tasa/lib/bcc-2.2.3-gcc/bin/../lib/gcc/sparc-gaisler-elf/10.2.0/../../../../sparc-gaisler-elf/lib/mfix-b2bst/soft/libc.a(lib_a-reallocr.o)
 .data          0x0000000040011d30        0x0 /home/fsw/rep/tasa/lib/bcc-2.2.3-gcc/bin/../lib/gcc/sparc-gaisler-elf/10.2.0/../../../../sparc-gaisler-elf/lib/mfix-b2bst/soft/libc.a(lib_a-s_frexp.o)
 .data          0x0000000040011d30        0x0 /home/fsw/rep/tasa/lib/bcc-2.2.3-gcc/bin/../lib/gcc/sparc-gaisler-elf/10.2.0/../../../../sparc-gaisler-elf/lib/mfix-b2bst/soft/libc.a(lib_a-sbrkr.o)
 .data          0x0000000040011d30        0x0 /home/fsw/rep/tasa/lib/bcc-2.2.3-gcc/bin/../lib/gcc/sparc-gaisler-elf/10.2.0/../../../../sparc-gaisler-elf/lib/mfix-b2bst/soft/libc.a(lib_a-stdio.o)
 .data          0x0000000040011d30        0x0 /home/fsw/rep/tasa/lib/bcc-2.2.3-gcc/bin/../lib/gcc/sparc-gaisler-elf/10.2.0/../../../../sparc-gaisler-elf/lib/mfix-b2bst/soft/libc.a(lib_a-strncpy.o)
 .data          0x0000000040011d30        0x0 /home/fsw/rep/tasa/lib/bcc-2.2.3-gcc/bin/../lib/gcc/sparc-gaisler-elf/10.2.0/../../../../sparc-gaisler-elf/lib/mfix-b2bst/soft/libc.a(lib_a-vfiprintf.o)
 .data          0x0000000040011d30        0x0 /home/fsw/rep/tasa/lib/bcc-2.2.3-gcc/bin/../lib/gcc/sparc-gaisler-elf/10.2.0/../../../../sparc-gaisler-elf/lib/mfix-b2bst/soft/libc.a(lib_a-wbuf.o)
 .data          0x0000000040011d30        0x0 /home/fsw/rep/tasa/lib/bcc-2.2.3-gcc/bin/../lib/gcc/sparc-gaisler-elf/10.2.0/../../../../sparc-gaisler-elf/lib/mfix-b2bst/soft/libc.a(lib_a-writer.o)
 .data          0x0000000040011d30        0x0 /home/fsw/rep/tasa/lib/bcc-2.2.3-gcc/bin/../lib/gcc/sparc-gaisler-elf/10.2.0/../../../../sparc-gaisler-elf/lib/mfix-b2bst/soft/libc.a(lib_a-callocr.o)
 .data          0x0000000040011d30        0x0 /home/fsw/rep/tasa/lib/bcc-2.2.3-gcc/bin/../lib/gcc/sparc-gaisler-elf/10.2.0/../../../../sparc-gaisler-elf/lib/mfix-b2bst/soft/libc.a(lib_a-closer.o)
 .data          0x0000000040011d30        0x0 /home/fsw/rep/tasa/lib/bcc-2.2.3-gcc/bin/../lib/gcc/sparc-gaisler-elf/10.2.0/../../../../sparc-gaisler-elf/lib/mfix-b2bst/soft/libc.a(lib_a-fclose.o)
 .data          0x0000000040011d30        0x0 /home/fsw/rep/tasa/lib/bcc-2.2.3-gcc/bin/../lib/gcc/sparc-gaisler-elf/10.2.0/../../../../sparc-gaisler-elf/lib/mfix-b2bst/soft/libc.a(lib_a-fputwc.o)
 .data          0x0000000040011d30        0x0 /home/fsw/rep/tasa/lib/bcc-2.2.3-gcc/bin/../lib/gcc/sparc-gaisler-elf/10.2.0/../../../../sparc-gaisler-elf/lib/mfix-b2bst/soft/libc.a(lib_a-fstatr.o)
 .data          0x0000000040011d30        0x0 /home/fsw/rep/tasa/lib/bcc-2.2.3-gcc/bin/../lib/gcc/sparc-gaisler-elf/10.2.0/../../../../sparc-gaisler-elf/lib/mfix-b2bst/soft/libc.a(lib_a-isattyr.o)
 .data          0x0000000040011d30      0x16c /home/fsw/rep/tasa/lib/bcc-2.2.3-gcc/bin/../lib/gcc/sparc-gaisler-elf/10.2.0/../../../../sparc-gaisler-elf/lib/mfix-b2bst/soft/libc.a(lib_a-locale.o)
                0x0000000040011d30                __global_locale
 .data          0x0000000040011e9c        0x0 /home/fsw/rep/tasa/lib/bcc-2.2.3-gcc/bin/../lib/gcc/sparc-gaisler-elf/10.2.0/../../../../sparc-gaisler-elf/lib/mfix-b2bst/soft/libc.a(lib_a-lseekr.o)
 .data          0x0000000040011e9c        0x0 /home/fsw/rep/tasa/lib/bcc-2.2.3-gcc/bin/../lib/gcc/sparc-gaisler-elf/10.2.0/../../../../sparc-gaisler-elf/lib/mfix-b2bst/soft/libc.a(lib_a-mbtowc_r.o)
 .data          0x0000000040011e9c        0x0 /home/fsw/rep/tasa/lib/bcc-2.2.3-gcc/bin/../lib/gcc/sparc-gaisler-elf/10.2.0/../../../../sparc-gaisler-elf/lib/mfix-b2bst/soft/libc.a(lib_a-readr.o)
 .data          0x0000000040011e9c        0x0 /home/fsw/rep/tasa/lib/bcc-2.2.3-gcc/bin/../lib/gcc/sparc-gaisler-elf/10.2.0/../../../../sparc-gaisler-elf/lib/mfix-b2bst/soft/libc.a(lib_a-reent.o)
 .data          0x0000000040011e9c        0x0 /home/fsw/rep/tasa/lib/bcc-2.2.3-gcc/bin/../lib/gcc/sparc-gaisler-elf/10.2.0/../../../../sparc-gaisler-elf/lib/mfix-b2bst/soft/libc.a(lib_a-strcmp.o)
 .data          0x0000000040011e9c        0x0 /home/fsw/rep/tasa/lib/bcc-2.2.3-gcc/bin/../lib/gcc/sparc-gaisler-elf/10.2.0/../../../../sparc-gaisler-elf/lib/mfix-b2bst/soft/libc.a(lib_a-wcrtomb.o)
 .data          0x0000000040011e9c        0x0 /home/fsw/rep/tasa/lib/bcc-2.2.3-gcc/bin/../lib/gcc/sparc-gaisler-elf/10.2.0/../../../../sparc-gaisler-elf/lib/mfix-b2bst/soft/libc.a(lib_a-wctomb_r.o)
 .data          0x0000000040011e9c        0x0 /home/fsw/rep/tasa/lib/bcc-2.2.3-gcc/bin/../lib/gcc/sparc-gaisler-elf/10.2.0/../../../../sparc-gaisler-elf/lib/mfix-b2bst/soft/libc.a(lib_a-ctype_.o)
 .data          0x0000000040011e9c        0x0 /home/fsw/rep/tasa/lib/bcc-2.2.3-gcc/bin/../sparc-gaisler-elf/bsp/leon3/mfix-b2bst/soft/libbcc.a(_exit.S.o)
 .data          0x0000000040011e9c        0x0 /home/fsw/rep/tasa/lib/bcc-2.2.3-gcc/bin/../sparc-gaisler-elf/bsp/leon3/mfix-b2bst/soft/libbcc.a(read.c.o)
 .data          0x0000000040011e9c        0x0 /home/fsw/rep/tasa/lib/bcc-2.2.3-gcc/bin/../sparc-gaisler-elf/bsp/leon3/mfix-b2bst/soft/libbcc.a(sbrk.c.o)
 .data          0x0000000040011e9c        0x0 /home/fsw/rep/tasa/lib/bcc-2.2.3-gcc/bin/../sparc-gaisler-elf/bsp/leon3/mfix-b2bst/soft/libbcc.a(heap.c.o)
 .data          0x0000000040011e9c        0x0 /home/fsw/rep/tasa/lib/bcc-2.2.3-gcc/bin/../sparc-gaisler-elf/bsp/leon3/mfix-b2bst/soft/libbcc.a(write.c.o)
 .data          0x0000000040011e9c        0x0 /home/fsw/rep/tasa/lib/bcc-2.2.3-gcc/bin/../sparc-gaisler-elf/bsp/leon3/mfix-b2bst/soft/libbcc.a(stubs.S.o)
 .data          0x0000000040011e9c        0x0 /home/fsw/rep/tasa/lib/bcc-2.2.3-gcc/bin/../sparc-gaisler-elf/bsp/leon3/mfix-b2bst/soft/libbcc.a(con_apbuart.c.o)
 .data          0x0000000040011e9c        0x0 /home/fsw/rep/tasa/lib/bcc-2.2.3-gcc/bin/../lib/gcc/sparc-gaisler-elf/10.2.0/mfix-b2bst/soft/libgcc.a(_mulsi3.o)
 .data          0x0000000040011e9c        0x0 /home/fsw/rep/tasa/lib/bcc-2.2.3-gcc/bin/../lib/gcc/sparc-gaisler-elf/10.2.0/mfix-b2bst/soft/libgcc.a(_divsi3.o)
 .data          0x0000000040011e9c        0x0 /home/fsw/rep/tasa/lib/bcc-2.2.3-gcc/bin/../lib/gcc/sparc-gaisler-elf/10.2.0/mfix-b2bst/soft/libgcc.a(_modsi3.o)
 .data          0x0000000040011e9c        0x0 /home/fsw/rep/tasa/lib/bcc-2.2.3-gcc/bin/../lib/gcc/sparc-gaisler-elf/10.2.0/mfix-b2bst/soft/libgcc.a(_udivdi3.o)
 .data          0x0000000040011e9c        0x0 /home/fsw/rep/tasa/lib/bcc-2.2.3-gcc/bin/../lib/gcc/sparc-gaisler-elf/10.2.0/mfix-b2bst/soft/libgcc.a(_umoddi3.o)
 .data          0x0000000040011e9c        0x0 /home/fsw/rep/tasa/lib/bcc-2.2.3-gcc/bin/../lib/gcc/sparc-gaisler-elf/10.2.0/mfix-b2bst/soft/libgcc.a(_addsub_df.o)
 .data          0x0000000040011e9c        0x0 /home/fsw/rep/tasa/lib/bcc-2.2.3-gcc/bin/../lib/gcc/sparc-gaisler-elf/10.2.0/mfix-b2bst/soft/libgcc.a(_mul_df.o)
 .data          0x0000000040011e9c        0x0 /home/fsw/rep/tasa/lib/bcc-2.2.3-gcc/bin/../lib/gcc/sparc-gaisler-elf/10.2.0/mfix-b2bst/soft/libgcc.a(_div_df.o)
 .data          0x0000000040011e9c        0x0 /home/fsw/rep/tasa/lib/bcc-2.2.3-gcc/bin/../lib/gcc/sparc-gaisler-elf/10.2.0/mfix-b2bst/soft/libgcc.a(_eq_df.o)
 .data          0x0000000040011e9c        0x0 /home/fsw/rep/tasa/lib/bcc-2.2.3-gcc/bin/../lib/gcc/sparc-gaisler-elf/10.2.0/mfix-b2bst/soft/libgcc.a(_ne_df.o)
 .data          0x0000000040011e9c        0x0 /home/fsw/rep/tasa/lib/bcc-2.2.3-gcc/bin/../lib/gcc/sparc-gaisler-elf/10.2.0/mfix-b2bst/soft/libgcc.a(_gt_df.o)
 .data          0x0000000040011e9c        0x0 /home/fsw/rep/tasa/lib/bcc-2.2.3-gcc/bin/../lib/gcc/sparc-gaisler-elf/10.2.0/mfix-b2bst/soft/libgcc.a(_lt_df.o)
 .data          0x0000000040011e9c        0x0 /home/fsw/rep/tasa/lib/bcc-2.2.3-gcc/bin/../lib/gcc/sparc-gaisler-elf/10.2.0/mfix-b2bst/soft/libgcc.a(_le_df.o)
 .data          0x0000000040011e9c        0x0 /home/fsw/rep/tasa/lib/bcc-2.2.3-gcc/bin/../lib/gcc/sparc-gaisler-elf/10.2.0/mfix-b2bst/soft/libgcc.a(_unord_df.o)
 .data          0x0000000040011e9c        0x0 /home/fsw/rep/tasa/lib/bcc-2.2.3-gcc/bin/../lib/gcc/sparc-gaisler-elf/10.2.0/mfix-b2bst/soft/libgcc.a(_si_to_df.o)
 .data          0x0000000040011e9c        0x0 /home/fsw/rep/tasa/lib/bcc-2.2.3-gcc/bin/../lib/gcc/sparc-gaisler-elf/10.2.0/mfix-b2bst/soft/libgcc.a(_df_to_si.o)
 .data          0x0000000040011e9c        0x0 /home/fsw/rep/tasa/lib/bcc-2.2.3-gcc/bin/../lib/gcc/sparc-gaisler-elf/10.2.0/mfix-b2bst/soft/libgcc.a(_thenan_df.o)
 .data          0x0000000040011e9c        0x0 /home/fsw/rep/tasa/lib/bcc-2.2.3-gcc/bin/../lib/gcc/sparc-gaisler-elf/10.2.0/mfix-b2bst/soft/libgcc.a(_usi_to_df.o)
 .data          0x0000000040011e9c        0x0 /home/fsw/rep/tasa/lib/bcc-2.2.3-gcc/bin/../lib/gcc/sparc-gaisler-elf/10.2.0/mfix-b2bst/soft/libgcc.a(_muldi3.o)
 .data          0x0000000040011e9c        0x0 /home/fsw/rep/tasa/lib/bcc-2.2.3-gcc/bin/../lib/gcc/sparc-gaisler-elf/10.2.0/mfix-b2bst/soft/libgcc.a(_clz.o)
 .data          0x0000000040011e9c        0x0 /home/fsw/rep/tasa/lib/bcc-2.2.3-gcc/bin/../lib/gcc/sparc-gaisler-elf/10.2.0/mfix-b2bst/soft/libgcc.a(_clzsi2.o)
 .data          0x0000000040011e9c        0x0 /home/fsw/rep/tasa/lib/bcc-2.2.3-gcc/bin/../lib/gcc/sparc-gaisler-elf/10.2.0/mfix-b2bst/soft/libgcc.a(_pack_df.o)
 .data          0x0000000040011e9c        0x0 /home/fsw/rep/tasa/lib/bcc-2.2.3-gcc/bin/../lib/gcc/sparc-gaisler-elf/10.2.0/mfix-b2bst/soft/libgcc.a(_unpack_df.o)
 .data          0x0000000040011e9c        0x0 /home/fsw/rep/tasa/lib/bcc-2.2.3-gcc/bin/../lib/gcc/sparc-gaisler-elf/10.2.0/mfix-b2bst/soft/libgcc.a(_fpcmp_parts_df.o)
 .data          0x0000000040011e9c        0x0 /home/fsw/rep/tasa/lib/bcc-2.2.3-gcc/bin/../lib/gcc/sparc-gaisler-elf/10.2.0/mfix-b2bst/soft/crtend.o
 .data          0x0000000040011e9c        0x0 /home/fsw/rep/tasa/lib/bcc-2.2.3-gcc/bin/../lib/gcc/sparc-gaisler-elf/10.2.0/mfix-b2bst/soft/crtn.o
                0x0000000040011ea0                . = ALIGN (0x8)
 *fill*         0x0000000040011e9c        0x4 
                0x0000000040011ea0                __data_end = .
                0x0000000040011890                __data_start_lma = LOADADDR (.data)
                0x0000000000000610                __data_size = SIZEOF (.data)

.iplt           0x0000000040011ea0        0x0
 .iplt          0x0000000040011ea0        0x0 /home/fsw/rep/tasa/lib/bcc-2.2.3-gcc/bin/../sparc-gaisler-elf/bsp/leon3/mfix-b2bst/soft/trap_table_mvt.S.o

.tm_clone_table
                0x0000000040011ea0        0x0
 .tm_clone_table
                0x0000000040011ea0        0x0 /home/fsw/rep/tasa/lib/bcc-2.2.3-gcc/bin/../lib/gcc/sparc-gaisler-elf/10.2.0/mfix-b2bst/soft/crtbegin.o
 .tm_clone_table
                0x0000000040011ea0        0x0 /home/fsw/rep/tasa/lib/bcc-2.2.3-gcc/bin/../lib/gcc/sparc-gaisler-elf/10.2.0/mfix-b2bst/soft/crtend.o

.bss            0x0000000040011ea0      0x1c0
                0x0000000040011ea0                . = ALIGN (0x8)
                0x0000000040011ea0                __bss_start = .
 *(.bss .bss.*)
 .bss           0x0000000040011ea0        0x0 /home/fsw/rep/tasa/lib/bcc-2.2.3-gcc/bin/../sparc-gaisler-elf/bsp/leon3/mfix-b2bst/soft/trap_table_mvt.S.o
 .bss           0x0000000040011ea0        0x4 /home/fsw/rep/tasa/lib/bcc-2.2.3-gcc/bin/../sparc-gaisler-elf/bsp/leon3/mfix-b2bst/soft/crt0.S.o
                0x0000000040011ea0                __bcc_sp_at_entry
 .bss           0x0000000040011ea4        0x0 /home/fsw/rep/tasa/lib/bcc-2.2.3-gcc/bin/../lib/gcc/sparc-gaisler-elf/10.2.0/mfix-b2bst/soft/crti.o
 .bss           0x0000000040011ea4       0x20 /home/fsw/rep/tasa/lib/bcc-2.2.3-gcc/bin/../lib/gcc/sparc-gaisler-elf/10.2.0/mfix-b2bst/soft/crtbegin.o
 .bss           0x0000000040011ec4        0x0 /tmp/ccjQJ0Dl.o
 .bss           0x0000000040011ec4        0x0 /home/fsw/rep/tasa/lib/bcc-2.2.3-gcc/bin/../sparc-gaisler-elf/bsp/leon3/mfix-b2bst/soft/libbcc.a(reset_trap_mvt.S.o)
 .bss           0x0000000040011ec4        0x0 /home/fsw/rep/tasa/lib/bcc-2.2.3-gcc/bin/../sparc-gaisler-elf/bsp/leon3/mfix-b2bst/soft/libbcc.a(window_trap.S.o)
 .bss           0x0000000040011ec4        0x0 /home/fsw/rep/tasa/lib/bcc-2.2.3-gcc/bin/../sparc-gaisler-elf/bsp/leon3/mfix-b2bst/soft/libbcc.a(interrupt_trap.S.o)
 *fill*         0x0000000040011ec4        0x4 
 .bss           0x0000000040011ec8       0x14 /home/fsw/rep/tasa/lib/bcc-2.2.3-gcc/bin/../sparc-gaisler-elf/bsp/leon3/mfix-b2bst/soft/libbcc.a(flush_windows_trap.S.o)
 .bss           0x0000000040011edc        0x0 /home/fsw/rep/tasa/lib/bcc-2.2.3-gcc/bin/../sparc-gaisler-elf/bsp/leon3/mfix-b2bst/soft/libbcc.a(sw_trap_set_pil.S.o)
 .bss           0x0000000040011edc       0x80 /home/fsw/rep/tasa/lib/bcc-2.2.3-gcc/bin/../sparc-gaisler-elf/bsp/leon3/mfix-b2bst/soft/libbcc.a(isr.c.o)
                0x0000000040011edc                __bcc_isr_list
 .bss           0x0000000040011f5c        0x0 /home/fsw/rep/tasa/lib/bcc-2.2.3-gcc/bin/../sparc-gaisler-elf/bsp/leon3/mfix-b2bst/soft/libbcc.a(int_nest.c.o)
 .bss           0x0000000040011f5c        0x0 /home/fsw/rep/tasa/lib/bcc-2.2.3-gcc/bin/../sparc-gaisler-elf/bsp/leon3/mfix-b2bst/soft/libbcc.a(init.S.o)
 .bss           0x0000000040011f5c        0x0 /home/fsw/rep/tasa/lib/bcc-2.2.3-gcc/bin/../sparc-gaisler-elf/bsp/leon3/mfix-b2bst/soft/libbcc.a(leon_info.S.o)
 .bss           0x0000000040011f5c        0x0 /home/fsw/rep/tasa/lib/bcc-2.2.3-gcc/bin/../sparc-gaisler-elf/bsp/leon3/mfix-b2bst/soft/libbcc.a(dwzero.S.o)
 .bss           0x0000000040011f5c        0x0 /home/fsw/rep/tasa/lib/bcc-2.2.3-gcc/bin/../sparc-gaisler-elf/bsp/leon3/mfix-b2bst/soft/libbcc.a(copy_data.c.o)
 .bss           0x0000000040011f5c        0x8 /home/fsw/rep/tasa/lib/bcc-2.2.3-gcc/bin/../sparc-gaisler-elf/bsp/leon3/mfix-b2bst/soft/libbcc.a(argv.c.o)
                0x0000000040011f60                __bcc_argc
 .bss           0x0000000040011f64        0x0 /home/fsw/rep/tasa/lib/bcc-2.2.3-gcc/bin/../sparc-gaisler-elf/bsp/leon3/mfix-b2bst/soft/libbcc.a(int_irqmp_get_source.c.o)
 .bss           0x0000000040011f64        0x0 /home/fsw/rep/tasa/lib/bcc-2.2.3-gcc/bin/../sparc-gaisler-elf/bsp/leon3/mfix-b2bst/soft/libbcc.a(int_irqmp_mp.c.o)
 .bss           0x0000000040011f64        0x0 /home/fsw/rep/tasa/lib/bcc-2.2.3-gcc/bin/../sparc-gaisler-elf/bsp/leon3/mfix-b2bst/soft/libbcc.a(int_irqmp_init.c.o)
 .bss           0x0000000040011f64        0x0 /home/fsw/rep/tasa/lib/bcc-2.2.3-gcc/bin/../sparc-gaisler-elf/bsp/leon3/mfix-b2bst/soft/libbcc.a(con_apbuart_init.c.o)
 .bss           0x0000000040011f64        0x0 /home/fsw/rep/tasa/lib/bcc-2.2.3-gcc/bin/../sparc-gaisler-elf/bsp/leon3/mfix-b2bst/soft/libbcc.a(timer_gptimer_init.c.o)
 .bss           0x0000000040011f64        0x0 /home/fsw/rep/tasa/lib/bcc-2.2.3-gcc/bin/../sparc-gaisler-elf/bsp/leon3/mfix-b2bst/soft/libbcc.a(ambapp.c.o)
 .bss           0x0000000040011f64        0x0 /home/fsw/rep/tasa/lib/bcc-2.2.3-gcc/bin/../sparc-gaisler-elf/bsp/leon3/mfix-b2bst/soft/libbcc.a(ambapp_findfirst_fn.c.o)
 .bss           0x0000000040011f64       0x10 /home/fsw/rep/tasa/lib/bcc-2.2.3-gcc/bin/../sparc-gaisler-elf/bsp/leon3/mfix-b2bst/soft/libbcc.a(int_irqmp_handle.c.o)
                0x0000000040011f64                __bcc_int_irqmp_nts
                0x0000000040011f68                __bcc_int_irqmp_map
                0x0000000040011f6c                __bcc_int_irqmp_eirq
                0x0000000040011f70                __bcc_int_handle
 .bss           0x0000000040011f74        0x4 /home/fsw/rep/tasa/lib/bcc-2.2.3-gcc/bin/../sparc-gaisler-elf/bsp/leon3/mfix-b2bst/soft/libbcc.a(con_handle.c.o)
                0x0000000040011f74                __bcc_con_handle
 .bss           0x0000000040011f78        0x8 /home/fsw/rep/tasa/lib/bcc-2.2.3-gcc/bin/../sparc-gaisler-elf/bsp/leon3/mfix-b2bst/soft/libbcc.a(timer_handle.c.o)
                0x0000000040011f78                __bcc_timer_interrupt
                0x0000000040011f7c                __bcc_timer_handle
 .bss           0x0000000040011f80        0x0 /home/fsw/rep/tasa/lib/bcc-2.2.3-gcc/bin/../lib/gcc/sparc-gaisler-elf/10.2.0/../../../../sparc-gaisler-elf/lib/mfix-b2bst/soft/libc.a(lib_a-atexit.o)
 .bss           0x0000000040011f80        0x0 /home/fsw/rep/tasa/lib/bcc-2.2.3-gcc/bin/../lib/gcc/sparc-gaisler-elf/10.2.0/../../../../sparc-gaisler-elf/lib/mfix-b2bst/soft/libc.a(lib_a-exit.o)
 .bss           0x0000000040011f80        0x0 /home/fsw/rep/tasa/lib/bcc-2.2.3-gcc/bin/../lib/gcc/sparc-gaisler-elf/10.2.0/../../../../sparc-gaisler-elf/lib/mfix-b2bst/soft/libc.a(lib_a-impure.o)
 .bss           0x0000000040011f80        0x0 /home/fsw/rep/tasa/lib/bcc-2.2.3-gcc/bin/../lib/gcc/sparc-gaisler-elf/10.2.0/../../../../sparc-gaisler-elf/lib/mfix-b2bst/soft/libc.a(lib_a-memcpy.o)
 .bss           0x0000000040011f80        0x0 /home/fsw/rep/tasa/lib/bcc-2.2.3-gcc/bin/../lib/gcc/sparc-gaisler-elf/10.2.0/../../../../sparc-gaisler-elf/lib/mfix-b2bst/soft/libc.a(lib_a-printf.o)
 .bss           0x0000000040011f80        0x0 /home/fsw/rep/tasa/lib/bcc-2.2.3-gcc/bin/../lib/gcc/sparc-gaisler-elf/10.2.0/../../../../sparc-gaisler-elf/lib/mfix-b2bst/soft/libc.a(lib_a-putchar.o)
 .bss           0x0000000040011f80        0x0 /home/fsw/rep/tasa/lib/bcc-2.2.3-gcc/bin/../lib/gcc/sparc-gaisler-elf/10.2.0/../../../../sparc-gaisler-elf/lib/mfix-b2bst/soft/libc.a(lib_a-puts.o)
 .bss           0x0000000040011f80        0x0 /home/fsw/rep/tasa/lib/bcc-2.2.3-gcc/bin/../lib/gcc/sparc-gaisler-elf/10.2.0/../../../../sparc-gaisler-elf/lib/mfix-b2bst/soft/libc.a(lib_a-strlen.o)
 .bss           0x0000000040011f80        0x0 /home/fsw/rep/tasa/lib/bcc-2.2.3-gcc/bin/../lib/gcc/sparc-gaisler-elf/10.2.0/../../../../sparc-gaisler-elf/lib/mfix-b2bst/soft/libc.a(lib_a-vfprintf.o)
 .bss           0x0000000040011f80        0x0 /home/fsw/rep/tasa/lib/bcc-2.2.3-gcc/bin/../lib/gcc/sparc-gaisler-elf/10.2.0/../../../../sparc-gaisler-elf/lib/mfix-b2bst/soft/libc.a(lib_a-wsetup.o)
 .bss           0x0000000040011f80       0x8c /home/fsw/rep/tasa/lib/bcc-2.2.3-gcc/bin/../lib/gcc/sparc-gaisler-elf/10.2.0/../../../../sparc-gaisler-elf/lib/mfix-b2bst/soft/libc.a(lib_a-__atexit.o)
 .bss           0x000000004001200c        0x4 /home/fsw/rep/tasa/lib/bcc-2.2.3-gcc/bin/../lib/gcc/sparc-gaisler-elf/10.2.0/../../../../sparc-gaisler-elf/lib/mfix-b2bst/soft/libc.a(lib_a-__call_atexit.o)
                0x000000004001200c                _global_atexit
 .bss           0x0000000040012010        0x0 /home/fsw/rep/tasa/lib/bcc-2.2.3-gcc/bin/../lib/gcc/sparc-gaisler-elf/10.2.0/../../../../sparc-gaisler-elf/lib/mfix-b2bst/soft/libc.a(lib_a-dtoa.o)
 .bss           0x0000000040012010        0x0 /home/fsw/rep/tasa/lib/bcc-2.2.3-gcc/bin/../lib/gcc/sparc-gaisler-elf/10.2.0/../../../../sparc-gaisler-elf/lib/mfix-b2bst/soft/libc.a(lib_a-fflush.o)
 .bss           0x0000000040012010        0x0 /home/fsw/rep/tasa/lib/bcc-2.2.3-gcc/bin/../lib/gcc/sparc-gaisler-elf/10.2.0/../../../../sparc-gaisler-elf/lib/mfix-b2bst/soft/libc.a(lib_a-findfp.o)
 .bss           0x0000000040012010        0x0 /home/fsw/rep/tasa/lib/bcc-2.2.3-gcc/bin/../lib/gcc/sparc-gaisler-elf/10.2.0/../../../../sparc-gaisler-elf/lib/mfix-b2bst/soft/libc.a(lib_a-freer.o)
 .bss           0x0000000040012010        0x0 /home/fsw/rep/tasa/lib/bcc-2.2.3-gcc/bin/../lib/gcc/sparc-gaisler-elf/10.2.0/../../../../sparc-gaisler-elf/lib/mfix-b2bst/soft/libc.a(lib_a-fvwrite.o)
 .bss           0x0000000040012010        0x0 /home/fsw/rep/tasa/lib/bcc-2.2.3-gcc/bin/../lib/gcc/sparc-gaisler-elf/10.2.0/../../../../sparc-gaisler-elf/lib/mfix-b2bst/soft/libc.a(lib_a-fwalk.o)
 .bss           0x0000000040012010        0x0 /home/fsw/rep/tasa/lib/bcc-2.2.3-gcc/bin/../lib/gcc/sparc-gaisler-elf/10.2.0/../../../../sparc-gaisler-elf/lib/mfix-b2bst/soft/libc.a(lib_a-localeconv.o)
 .bss           0x0000000040012010        0x0 /home/fsw/rep/tasa/lib/bcc-2.2.3-gcc/bin/../lib/gcc/sparc-gaisler-elf/10.2.0/../../../../sparc-gaisler-elf/lib/mfix-b2bst/soft/libc.a(lib_a-makebuf.o)
 .bss           0x0000000040012010        0x0 /home/fsw/rep/tasa/lib/bcc-2.2.3-gcc/bin/../lib/gcc/sparc-gaisler-elf/10.2.0/../../../../sparc-gaisler-elf/lib/mfix-b2bst/soft/libc.a(lib_a-malloc.o)
 .bss           0x0000000040012010       0x34 /home/fsw/rep/tasa/lib/bcc-2.2.3-gcc/bin/../lib/gcc/sparc-gaisler-elf/10.2.0/../../../../sparc-gaisler-elf/lib/mfix-b2bst/soft/libc.a(lib_a-mallocr.o)
                0x0000000040012010                __malloc_current_mallinfo
                0x0000000040012038                __malloc_max_total_mem
                0x000000004001203c                __malloc_max_sbrked_mem
                0x0000000040012040                __malloc_top_pad
 .bss           0x0000000040012044        0x0 /home/fsw/rep/tasa/lib/bcc-2.2.3-gcc/bin/../lib/gcc/sparc-gaisler-elf/10.2.0/../../../../sparc-gaisler-elf/lib/mfix-b2bst/soft/libc.a(lib_a-memchr.o)
 .bss           0x0000000040012044        0x0 /home/fsw/rep/tasa/lib/bcc-2.2.3-gcc/bin/../lib/gcc/sparc-gaisler-elf/10.2.0/../../../../sparc-gaisler-elf/lib/mfix-b2bst/soft/libc.a(lib_a-memmove.o)
 .bss           0x0000000040012044        0x0 /home/fsw/rep/tasa/lib/bcc-2.2.3-gcc/bin/../lib/gcc/sparc-gaisler-elf/10.2.0/../../../../sparc-gaisler-elf/lib/mfix-b2bst/soft/libc.a(lib_a-memset.o)
 .bss           0x0000000040012044        0x0 /home/fsw/rep/tasa/lib/bcc-2.2.3-gcc/bin/../lib/gcc/sparc-gaisler-elf/10.2.0/../../../../sparc-gaisler-elf/lib/mfix-b2bst/soft/libc.a(lib_a-mlock.o)
 .bss           0x0000000040012044        0x0 /home/fsw/rep/tasa/lib/bcc-2.2.3-gcc/bin/../lib/gcc/sparc-gaisler-elf/10.2.0/../../../../sparc-gaisler-elf/lib/mfix-b2bst/soft/libc.a(lib_a-mprec.o)
 .bss           0x0000000040012044        0x0 /home/fsw/rep/tasa/lib/bcc-2.2.3-gcc/bin/../lib/gcc/sparc-gaisler-elf/10.2.0/../../../../sparc-gaisler-elf/lib/mfix-b2bst/soft/libc.a(lib_a-putc.o)
 .bss           0x0000000040012044        0x0 /home/fsw/rep/tasa/lib/bcc-2.2.3-gcc/bin/../lib/gcc/sparc-gaisler-elf/10.2.0/../../../../sparc-gaisler-elf/lib/mfix-b2bst/soft/libc.a(lib_a-reallocr.o)
 .bss           0x0000000040012044        0x0 /home/fsw/rep/tasa/lib/bcc-2.2.3-gcc/bin/../lib/gcc/sparc-gaisler-elf/10.2.0/../../../../sparc-gaisler-elf/lib/mfix-b2bst/soft/libc.a(lib_a-s_frexp.o)
 .bss           0x0000000040012044        0x0 /home/fsw/rep/tasa/lib/bcc-2.2.3-gcc/bin/../lib/gcc/sparc-gaisler-elf/10.2.0/../../../../sparc-gaisler-elf/lib/mfix-b2bst/soft/libc.a(lib_a-sbrkr.o)
 .bss           0x0000000040012044        0x0 /home/fsw/rep/tasa/lib/bcc-2.2.3-gcc/bin/../lib/gcc/sparc-gaisler-elf/10.2.0/../../../../sparc-gaisler-elf/lib/mfix-b2bst/soft/libc.a(lib_a-stdio.o)
 .bss           0x0000000040012044        0x0 /home/fsw/rep/tasa/lib/bcc-2.2.3-gcc/bin/../lib/gcc/sparc-gaisler-elf/10.2.0/../../../../sparc-gaisler-elf/lib/mfix-b2bst/soft/libc.a(lib_a-strncpy.o)
 .bss           0x0000000040012044        0x0 /home/fsw/rep/tasa/lib/bcc-2.2.3-gcc/bin/../lib/gcc/sparc-gaisler-elf/10.2.0/../../../../sparc-gaisler-elf/lib/mfix-b2bst/soft/libc.a(lib_a-vfiprintf.o)
 .bss           0x0000000040012044        0x0 /home/fsw/rep/tasa/lib/bcc-2.2.3-gcc/bin/../lib/gcc/sparc-gaisler-elf/10.2.0/../../../../sparc-gaisler-elf/lib/mfix-b2bst/soft/libc.a(lib_a-wbuf.o)
 .bss           0x0000000040012044        0x0 /home/fsw/rep/tasa/lib/bcc-2.2.3-gcc/bin/../lib/gcc/sparc-gaisler-elf/10.2.0/../../../../sparc-gaisler-elf/lib/mfix-b2bst/soft/libc.a(lib_a-writer.o)
 .bss           0x0000000040012044        0x0 /home/fsw/rep/tasa/lib/bcc-2.2.3-gcc/bin/../lib/gcc/sparc-gaisler-elf/10.2.0/../../../../sparc-gaisler-elf/lib/mfix-b2bst/soft/libc.a(lib_a-callocr.o)
 .bss           0x0000000040012044        0x0 /home/fsw/rep/tasa/lib/bcc-2.2.3-gcc/bin/../lib/gcc/sparc-gaisler-elf/10.2.0/../../../../sparc-gaisler-elf/lib/mfix-b2bst/soft/libc.a(lib_a-closer.o)
 .bss           0x0000000040012044        0x0 /home/fsw/rep/tasa/lib/bcc-2.2.3-gcc/bin/../lib/gcc/sparc-gaisler-elf/10.2.0/../../../../sparc-gaisler-elf/lib/mfix-b2bst/soft/libc.a(lib_a-fclose.o)
 .bss           0x0000000040012044        0x0 /home/fsw/rep/tasa/lib/bcc-2.2.3-gcc/bin/../lib/gcc/sparc-gaisler-elf/10.2.0/../../../../sparc-gaisler-elf/lib/mfix-b2bst/soft/libc.a(lib_a-fputwc.o)
 .bss           0x0000000040012044        0x0 /home/fsw/rep/tasa/lib/bcc-2.2.3-gcc/bin/../lib/gcc/sparc-gaisler-elf/10.2.0/../../../../sparc-gaisler-elf/lib/mfix-b2bst/soft/libc.a(lib_a-fstatr.o)
 .bss           0x0000000040012044        0x0 /home/fsw/rep/tasa/lib/bcc-2.2.3-gcc/bin/../lib/gcc/sparc-gaisler-elf/10.2.0/../../../../sparc-gaisler-elf/lib/mfix-b2bst/soft/libc.a(lib_a-isattyr.o)
 .bss           0x0000000040012044        0x4 /home/fsw/rep/tasa/lib/bcc-2.2.3-gcc/bin/../lib/gcc/sparc-gaisler-elf/10.2.0/../../../../sparc-gaisler-elf/lib/mfix-b2bst/soft/libc.a(lib_a-locale.o)
                0x0000000040012044                _PathLocale
 .bss           0x0000000040012048        0x0 /home/fsw/rep/tasa/lib/bcc-2.2.3-gcc/bin/../lib/gcc/sparc-gaisler-elf/10.2.0/../../../../sparc-gaisler-elf/lib/mfix-b2bst/soft/libc.a(lib_a-lseekr.o)
 .bss           0x0000000040012048        0x0 /home/fsw/rep/tasa/lib/bcc-2.2.3-gcc/bin/../lib/gcc/sparc-gaisler-elf/10.2.0/../../../../sparc-gaisler-elf/lib/mfix-b2bst/soft/libc.a(lib_a-mbtowc_r.o)
 .bss           0x0000000040012048        0x0 /home/fsw/rep/tasa/lib/bcc-2.2.3-gcc/bin/../lib/gcc/sparc-gaisler-elf/10.2.0/../../../../sparc-gaisler-elf/lib/mfix-b2bst/soft/libc.a(lib_a-readr.o)
 .bss           0x0000000040012048        0x4 /home/fsw/rep/tasa/lib/bcc-2.2.3-gcc/bin/../lib/gcc/sparc-gaisler-elf/10.2.0/../../../../sparc-gaisler-elf/lib/mfix-b2bst/soft/libc.a(lib_a-reent.o)
                0x0000000040012048                errno
 .bss           0x000000004001204c        0x0 /home/fsw/rep/tasa/lib/bcc-2.2.3-gcc/bin/../lib/gcc/sparc-gaisler-elf/10.2.0/../../../../sparc-gaisler-elf/lib/mfix-b2bst/soft/libc.a(lib_a-strcmp.o)
 .bss           0x000000004001204c        0x0 /home/fsw/rep/tasa/lib/bcc-2.2.3-gcc/bin/../lib/gcc/sparc-gaisler-elf/10.2.0/../../../../sparc-gaisler-elf/lib/mfix-b2bst/soft/libc.a(lib_a-wcrtomb.o)
 .bss           0x000000004001204c        0x0 /home/fsw/rep/tasa/lib/bcc-2.2.3-gcc/bin/../lib/gcc/sparc-gaisler-elf/10.2.0/../../../../sparc-gaisler-elf/lib/mfix-b2bst/soft/libc.a(lib_a-wctomb_r.o)
 .bss           0x000000004001204c        0x0 /home/fsw/rep/tasa/lib/bcc-2.2.3-gcc/bin/../lib/gcc/sparc-gaisler-elf/10.2.0/../../../../sparc-gaisler-elf/lib/mfix-b2bst/soft/libc.a(lib_a-ctype_.o)
 .bss           0x000000004001204c        0x0 /home/fsw/rep/tasa/lib/bcc-2.2.3-gcc/bin/../sparc-gaisler-elf/bsp/leon3/mfix-b2bst/soft/libbcc.a(_exit.S.o)
 .bss           0x000000004001204c        0x0 /home/fsw/rep/tasa/lib/bcc-2.2.3-gcc/bin/../sparc-gaisler-elf/bsp/leon3/mfix-b2bst/soft/libbcc.a(read.c.o)
 .bss           0x000000004001204c        0x4 /home/fsw/rep/tasa/lib/bcc-2.2.3-gcc/bin/../sparc-gaisler-elf/bsp/leon3/mfix-b2bst/soft/libbcc.a(sbrk.c.o)
 .bss           0x0000000040012050        0x8 /home/fsw/rep/tasa/lib/bcc-2.2.3-gcc/bin/../sparc-gaisler-elf/bsp/leon3/mfix-b2bst/soft/libbcc.a(heap.c.o)
                0x0000000040012050                __bcc_heap_max
                0x0000000040012054                __bcc_heap_min
 .bss           0x0000000040012058        0x0 /home/fsw/rep/tasa/lib/bcc-2.2.3-gcc/bin/../sparc-gaisler-elf/bsp/leon3/mfix-b2bst/soft/libbcc.a(write.c.o)
 .bss           0x0000000040012058        0x0 /home/fsw/rep/tasa/lib/bcc-2.2.3-gcc/bin/../sparc-gaisler-elf/bsp/leon3/mfix-b2bst/soft/libbcc.a(stubs.S.o)
 .bss           0x0000000040012058        0x4 /home/fsw/rep/tasa/lib/bcc-2.2.3-gcc/bin/../sparc-gaisler-elf/bsp/leon3/mfix-b2bst/soft/libbcc.a(con_apbuart.c.o)
 .bss           0x000000004001205c        0x0 /home/fsw/rep/tasa/lib/bcc-2.2.3-gcc/bin/../lib/gcc/sparc-gaisler-elf/10.2.0/mfix-b2bst/soft/libgcc.a(_mulsi3.o)
 .bss           0x000000004001205c        0x0 /home/fsw/rep/tasa/lib/bcc-2.2.3-gcc/bin/../lib/gcc/sparc-gaisler-elf/10.2.0/mfix-b2bst/soft/libgcc.a(_divsi3.o)
 .bss           0x000000004001205c        0x0 /home/fsw/rep/tasa/lib/bcc-2.2.3-gcc/bin/../lib/gcc/sparc-gaisler-elf/10.2.0/mfix-b2bst/soft/libgcc.a(_modsi3.o)
 .bss           0x000000004001205c        0x0 /home/fsw/rep/tasa/lib/bcc-2.2.3-gcc/bin/../lib/gcc/sparc-gaisler-elf/10.2.0/mfix-b2bst/soft/libgcc.a(_udivdi3.o)
 .bss           0x000000004001205c        0x0 /home/fsw/rep/tasa/lib/bcc-2.2.3-gcc/bin/../lib/gcc/sparc-gaisler-elf/10.2.0/mfix-b2bst/soft/libgcc.a(_umoddi3.o)
 .bss           0x000000004001205c        0x0 /home/fsw/rep/tasa/lib/bcc-2.2.3-gcc/bin/../lib/gcc/sparc-gaisler-elf/10.2.0/mfix-b2bst/soft/libgcc.a(_addsub_df.o)
 .bss           0x000000004001205c        0x0 /home/fsw/rep/tasa/lib/bcc-2.2.3-gcc/bin/../lib/gcc/sparc-gaisler-elf/10.2.0/mfix-b2bst/soft/libgcc.a(_mul_df.o)
 .bss           0x000000004001205c        0x0 /home/fsw/rep/tasa/lib/bcc-2.2.3-gcc/bin/../lib/gcc/sparc-gaisler-elf/10.2.0/mfix-b2bst/soft/libgcc.a(_div_df.o)
 .bss           0x000000004001205c        0x0 /home/fsw/rep/tasa/lib/bcc-2.2.3-gcc/bin/../lib/gcc/sparc-gaisler-elf/10.2.0/mfix-b2bst/soft/libgcc.a(_eq_df.o)
 .bss           0x000000004001205c        0x0 /home/fsw/rep/tasa/lib/bcc-2.2.3-gcc/bin/../lib/gcc/sparc-gaisler-elf/10.2.0/mfix-b2bst/soft/libgcc.a(_ne_df.o)
 .bss           0x000000004001205c        0x0 /home/fsw/rep/tasa/lib/bcc-2.2.3-gcc/bin/../lib/gcc/sparc-gaisler-elf/10.2.0/mfix-b2bst/soft/libgcc.a(_gt_df.o)
 .bss           0x000000004001205c        0x0 /home/fsw/rep/tasa/lib/bcc-2.2.3-gcc/bin/../lib/gcc/sparc-gaisler-elf/10.2.0/mfix-b2bst/soft/libgcc.a(_lt_df.o)
 .bss           0x000000004001205c        0x0 /home/fsw/rep/tasa/lib/bcc-2.2.3-gcc/bin/../lib/gcc/sparc-gaisler-elf/10.2.0/mfix-b2bst/soft/libgcc.a(_le_df.o)
 .bss           0x000000004001205c        0x0 /home/fsw/rep/tasa/lib/bcc-2.2.3-gcc/bin/../lib/gcc/sparc-gaisler-elf/10.2.0/mfix-b2bst/soft/libgcc.a(_unord_df.o)
 .bss           0x000000004001205c        0x0 /home/fsw/rep/tasa/lib/bcc-2.2.3-gcc/bin/../lib/gcc/sparc-gaisler-elf/10.2.0/mfix-b2bst/soft/libgcc.a(_si_to_df.o)
 .bss           0x000000004001205c        0x0 /home/fsw/rep/tasa/lib/bcc-2.2.3-gcc/bin/../lib/gcc/sparc-gaisler-elf/10.2.0/mfix-b2bst/soft/libgcc.a(_df_to_si.o)
 .bss           0x000000004001205c        0x0 /home/fsw/rep/tasa/lib/bcc-2.2.3-gcc/bin/../lib/gcc/sparc-gaisler-elf/10.2.0/mfix-b2bst/soft/libgcc.a(_thenan_df.o)
 .bss           0x000000004001205c        0x0 /home/fsw/rep/tasa/lib/bcc-2.2.3-gcc/bin/../lib/gcc/sparc-gaisler-elf/10.2.0/mfix-b2bst/soft/libgcc.a(_usi_to_df.o)
 .bss           0x000000004001205c        0x0 /home/fsw/rep/tasa/lib/bcc-2.2.3-gcc/bin/../lib/gcc/sparc-gaisler-elf/10.2.0/mfix-b2bst/soft/libgcc.a(_muldi3.o)
 .bss           0x000000004001205c        0x0 /home/fsw/rep/tasa/lib/bcc-2.2.3-gcc/bin/../lib/gcc/sparc-gaisler-elf/10.2.0/mfix-b2bst/soft/libgcc.a(_clz.o)
 .bss           0x000000004001205c        0x0 /home/fsw/rep/tasa/lib/bcc-2.2.3-gcc/bin/../lib/gcc/sparc-gaisler-elf/10.2.0/mfix-b2bst/soft/libgcc.a(_clzsi2.o)
 .bss           0x000000004001205c        0x0 /home/fsw/rep/tasa/lib/bcc-2.2.3-gcc/bin/../lib/gcc/sparc-gaisler-elf/10.2.0/mfix-b2bst/soft/libgcc.a(_pack_df.o)
 .bss           0x000000004001205c        0x0 /home/fsw/rep/tasa/lib/bcc-2.2.3-gcc/bin/../lib/gcc/sparc-gaisler-elf/10.2.0/mfix-b2bst/soft/libgcc.a(_unpack_df.o)
 .bss           0x000000004001205c        0x0 /home/fsw/rep/tasa/lib/bcc-2.2.3-gcc/bin/../lib/gcc/sparc-gaisler-elf/10.2.0/mfix-b2bst/soft/libgcc.a(_fpcmp_parts_df.o)
 .bss           0x000000004001205c        0x0 /home/fsw/rep/tasa/lib/bcc-2.2.3-gcc/bin/../lib/gcc/sparc-gaisler-elf/10.2.0/mfix-b2bst/soft/crtend.o
 .bss           0x000000004001205c        0x0 /home/fsw/rep/tasa/lib/bcc-2.2.3-gcc/bin/../lib/gcc/sparc-gaisler-elf/10.2.0/mfix-b2bst/soft/crtn.o
 *(COMMON)
                0x0000000040012060                . = ALIGN (0x8)
 *fill*         0x000000004001205c        0x4 
                0x0000000040012060                __bss_end = .
                0x0000000040012060                __heap_min = .
                0x0000000040012060                . = ALIGN (0x8)

.jcr
 *(.jcr)

.stab
 *(.stab)

.stabstr
 *(.stabstr)

.debug
 *(.debug)

.line
 *(.line)

.debug_srcinfo
 *(.debug_srcinfo)

.debug_sfnames
 *(.debug_sfnames)

.debug_aranges  0x0000000000000000      0xd08
 *(.debug_aranges)
 .debug_aranges
                0x0000000000000000       0x20 /home/fsw/rep/tasa/lib/bcc-2.2.3-gcc/bin/../sparc-gaisler-elf/bsp/leon3/mfix-b2bst/soft/trap_table_mvt.S.o
 .debug_aranges
                0x0000000000000020       0x20 /home/fsw/rep/tasa/lib/bcc-2.2.3-gcc/bin/../sparc-gaisler-elf/bsp/leon3/mfix-b2bst/soft/crt0.S.o
 .debug_aranges
                0x0000000000000040       0x20 /tmp/ccjQJ0Dl.o
 .debug_aranges
                0x0000000000000060       0x20 /home/fsw/rep/tasa/lib/bcc-2.2.3-gcc/bin/../sparc-gaisler-elf/bsp/leon3/mfix-b2bst/soft/libbcc.a(reset_trap_mvt.S.o)
 .debug_aranges
                0x0000000000000080       0x20 /home/fsw/rep/tasa/lib/bcc-2.2.3-gcc/bin/../sparc-gaisler-elf/bsp/leon3/mfix-b2bst/soft/libbcc.a(window_trap.S.o)
 .debug_aranges
                0x00000000000000a0       0x20 /home/fsw/rep/tasa/lib/bcc-2.2.3-gcc/bin/../sparc-gaisler-elf/bsp/leon3/mfix-b2bst/soft/libbcc.a(interrupt_trap.S.o)
 .debug_aranges
                0x00000000000000c0       0x20 /home/fsw/rep/tasa/lib/bcc-2.2.3-gcc/bin/../sparc-gaisler-elf/bsp/leon3/mfix-b2bst/soft/libbcc.a(flush_windows_trap.S.o)
 .debug_aranges
                0x00000000000000e0       0x20 /home/fsw/rep/tasa/lib/bcc-2.2.3-gcc/bin/../sparc-gaisler-elf/bsp/leon3/mfix-b2bst/soft/libbcc.a(sw_trap_set_pil.S.o)
 .debug_aranges
                0x0000000000000100       0x18 /home/fsw/rep/tasa/lib/bcc-2.2.3-gcc/bin/../sparc-gaisler-elf/bsp/leon3/mfix-b2bst/soft/libbcc.a(isr.c.o)
 .debug_aranges
                0x0000000000000118       0x18 /home/fsw/rep/tasa/lib/bcc-2.2.3-gcc/bin/../sparc-gaisler-elf/bsp/leon3/mfix-b2bst/soft/libbcc.a(int_nest.c.o)
 .debug_aranges
                0x0000000000000130       0x20 /home/fsw/rep/tasa/lib/bcc-2.2.3-gcc/bin/../sparc-gaisler-elf/bsp/leon3/mfix-b2bst/soft/libbcc.a(init.S.o)
 .debug_aranges
                0x0000000000000150       0x20 /home/fsw/rep/tasa/lib/bcc-2.2.3-gcc/bin/../sparc-gaisler-elf/bsp/leon3/mfix-b2bst/soft/libbcc.a(leon_info.S.o)
 .debug_aranges
                0x0000000000000170       0x20 /home/fsw/rep/tasa/lib/bcc-2.2.3-gcc/bin/../sparc-gaisler-elf/bsp/leon3/mfix-b2bst/soft/libbcc.a(dwzero.S.o)
 .debug_aranges
                0x0000000000000190       0x20 /home/fsw/rep/tasa/lib/bcc-2.2.3-gcc/bin/../sparc-gaisler-elf/bsp/leon3/mfix-b2bst/soft/libbcc.a(copy_data.c.o)
 .debug_aranges
                0x00000000000001b0       0x18 /home/fsw/rep/tasa/lib/bcc-2.2.3-gcc/bin/../sparc-gaisler-elf/bsp/leon3/mfix-b2bst/soft/libbcc.a(argv.c.o)
 .debug_aranges
                0x00000000000001c8       0x20 /home/fsw/rep/tasa/lib/bcc-2.2.3-gcc/bin/../sparc-gaisler-elf/bsp/leon3/mfix-b2bst/soft/libbcc.a(int_irqmp_get_source.c.o)
 .debug_aranges
                0x00000000000001e8       0x20 /home/fsw/rep/tasa/lib/bcc-2.2.3-gcc/bin/../sparc-gaisler-elf/bsp/leon3/mfix-b2bst/soft/libbcc.a(int_irqmp_mp.c.o)
 .debug_aranges
                0x0000000000000208       0x20 /home/fsw/rep/tasa/lib/bcc-2.2.3-gcc/bin/../sparc-gaisler-elf/bsp/leon3/mfix-b2bst/soft/libbcc.a(int_irqmp_init.c.o)
 .debug_aranges
                0x0000000000000228       0x20 /home/fsw/rep/tasa/lib/bcc-2.2.3-gcc/bin/../sparc-gaisler-elf/bsp/leon3/mfix-b2bst/soft/libbcc.a(con_apbuart_init.c.o)
 .debug_aranges
                0x0000000000000248       0x20 /home/fsw/rep/tasa/lib/bcc-2.2.3-gcc/bin/../sparc-gaisler-elf/bsp/leon3/mfix-b2bst/soft/libbcc.a(timer_gptimer_init.c.o)
 .debug_aranges
                0x0000000000000268       0x20 /home/fsw/rep/tasa/lib/bcc-2.2.3-gcc/bin/../sparc-gaisler-elf/bsp/leon3/mfix-b2bst/soft/libbcc.a(ambapp.c.o)
 .debug_aranges
                0x0000000000000288       0x20 /home/fsw/rep/tasa/lib/bcc-2.2.3-gcc/bin/../sparc-gaisler-elf/bsp/leon3/mfix-b2bst/soft/libbcc.a(ambapp_findfirst_fn.c.o)
 .debug_aranges
                0x00000000000002a8       0x18 /home/fsw/rep/tasa/lib/bcc-2.2.3-gcc/bin/../sparc-gaisler-elf/bsp/leon3/mfix-b2bst/soft/libbcc.a(int_irqmp_handle.c.o)
 .debug_aranges
                0x00000000000002c0       0x18 /home/fsw/rep/tasa/lib/bcc-2.2.3-gcc/bin/../sparc-gaisler-elf/bsp/leon3/mfix-b2bst/soft/libbcc.a(con_handle.c.o)
 .debug_aranges
                0x00000000000002d8       0x18 /home/fsw/rep/tasa/lib/bcc-2.2.3-gcc/bin/../sparc-gaisler-elf/bsp/leon3/mfix-b2bst/soft/libbcc.a(timer_handle.c.o)
 .debug_aranges
                0x00000000000002f0       0x20 /home/fsw/rep/tasa/lib/bcc-2.2.3-gcc/bin/../lib/gcc/sparc-gaisler-elf/10.2.0/../../../../sparc-gaisler-elf/lib/mfix-b2bst/soft/libc.a(lib_a-atexit.o)
 .debug_aranges
                0x0000000000000310       0x20 /home/fsw/rep/tasa/lib/bcc-2.2.3-gcc/bin/../lib/gcc/sparc-gaisler-elf/10.2.0/../../../../sparc-gaisler-elf/lib/mfix-b2bst/soft/libc.a(lib_a-exit.o)
 .debug_aranges
                0x0000000000000330       0x18 /home/fsw/rep/tasa/lib/bcc-2.2.3-gcc/bin/../lib/gcc/sparc-gaisler-elf/10.2.0/../../../../sparc-gaisler-elf/lib/mfix-b2bst/soft/libc.a(lib_a-impure.o)
 .debug_aranges
                0x0000000000000348       0x20 /home/fsw/rep/tasa/lib/bcc-2.2.3-gcc/bin/../lib/gcc/sparc-gaisler-elf/10.2.0/../../../../sparc-gaisler-elf/lib/mfix-b2bst/soft/libc.a(lib_a-memcpy.o)
 .debug_aranges
                0x0000000000000368       0x20 /home/fsw/rep/tasa/lib/bcc-2.2.3-gcc/bin/../lib/gcc/sparc-gaisler-elf/10.2.0/../../../../sparc-gaisler-elf/lib/mfix-b2bst/soft/libc.a(lib_a-printf.o)
 .debug_aranges
                0x0000000000000388       0x20 /home/fsw/rep/tasa/lib/bcc-2.2.3-gcc/bin/../lib/gcc/sparc-gaisler-elf/10.2.0/../../../../sparc-gaisler-elf/lib/mfix-b2bst/soft/libc.a(lib_a-putchar.o)
 .debug_aranges
                0x00000000000003a8       0x20 /home/fsw/rep/tasa/lib/bcc-2.2.3-gcc/bin/../lib/gcc/sparc-gaisler-elf/10.2.0/../../../../sparc-gaisler-elf/lib/mfix-b2bst/soft/libc.a(lib_a-puts.o)
 .debug_aranges
                0x00000000000003c8       0x20 /home/fsw/rep/tasa/lib/bcc-2.2.3-gcc/bin/../lib/gcc/sparc-gaisler-elf/10.2.0/../../../../sparc-gaisler-elf/lib/mfix-b2bst/soft/libc.a(lib_a-strlen.o)
 .debug_aranges
                0x00000000000003e8       0x20 /home/fsw/rep/tasa/lib/bcc-2.2.3-gcc/bin/../lib/gcc/sparc-gaisler-elf/10.2.0/../../../../sparc-gaisler-elf/lib/mfix-b2bst/soft/libc.a(lib_a-vfprintf.o)
 .debug_aranges
                0x0000000000000408       0x20 /home/fsw/rep/tasa/lib/bcc-2.2.3-gcc/bin/../lib/gcc/sparc-gaisler-elf/10.2.0/../../../../sparc-gaisler-elf/lib/mfix-b2bst/soft/libc.a(lib_a-wsetup.o)
 .debug_aranges
                0x0000000000000428       0x20 /home/fsw/rep/tasa/lib/bcc-2.2.3-gcc/bin/../lib/gcc/sparc-gaisler-elf/10.2.0/../../../../sparc-gaisler-elf/lib/mfix-b2bst/soft/libc.a(lib_a-__atexit.o)
 .debug_aranges
                0x0000000000000448       0x20 /home/fsw/rep/tasa/lib/bcc-2.2.3-gcc/bin/../lib/gcc/sparc-gaisler-elf/10.2.0/../../../../sparc-gaisler-elf/lib/mfix-b2bst/soft/libc.a(lib_a-__call_atexit.o)
 .debug_aranges
                0x0000000000000468       0x20 /home/fsw/rep/tasa/lib/bcc-2.2.3-gcc/bin/../lib/gcc/sparc-gaisler-elf/10.2.0/../../../../sparc-gaisler-elf/lib/mfix-b2bst/soft/libc.a(lib_a-dtoa.o)
 .debug_aranges
                0x0000000000000488       0x20 /home/fsw/rep/tasa/lib/bcc-2.2.3-gcc/bin/../lib/gcc/sparc-gaisler-elf/10.2.0/../../../../sparc-gaisler-elf/lib/mfix-b2bst/soft/libc.a(lib_a-fflush.o)
 .debug_aranges
                0x00000000000004a8       0x20 /home/fsw/rep/tasa/lib/bcc-2.2.3-gcc/bin/../lib/gcc/sparc-gaisler-elf/10.2.0/../../../../sparc-gaisler-elf/lib/mfix-b2bst/soft/libc.a(lib_a-findfp.o)
 .debug_aranges
                0x00000000000004c8       0x20 /home/fsw/rep/tasa/lib/bcc-2.2.3-gcc/bin/../lib/gcc/sparc-gaisler-elf/10.2.0/../../../../sparc-gaisler-elf/lib/mfix-b2bst/soft/libc.a(lib_a-freer.o)
 .debug_aranges
                0x00000000000004e8       0x20 /home/fsw/rep/tasa/lib/bcc-2.2.3-gcc/bin/../lib/gcc/sparc-gaisler-elf/10.2.0/../../../../sparc-gaisler-elf/lib/mfix-b2bst/soft/libc.a(lib_a-fvwrite.o)
 .debug_aranges
                0x0000000000000508       0x20 /home/fsw/rep/tasa/lib/bcc-2.2.3-gcc/bin/../lib/gcc/sparc-gaisler-elf/10.2.0/../../../../sparc-gaisler-elf/lib/mfix-b2bst/soft/libc.a(lib_a-fwalk.o)
 .debug_aranges
                0x0000000000000528       0x20 /home/fsw/rep/tasa/lib/bcc-2.2.3-gcc/bin/../lib/gcc/sparc-gaisler-elf/10.2.0/../../../../sparc-gaisler-elf/lib/mfix-b2bst/soft/libc.a(lib_a-localeconv.o)
 .debug_aranges
                0x0000000000000548       0x20 /home/fsw/rep/tasa/lib/bcc-2.2.3-gcc/bin/../lib/gcc/sparc-gaisler-elf/10.2.0/../../../../sparc-gaisler-elf/lib/mfix-b2bst/soft/libc.a(lib_a-makebuf.o)
 .debug_aranges
                0x0000000000000568       0x20 /home/fsw/rep/tasa/lib/bcc-2.2.3-gcc/bin/../lib/gcc/sparc-gaisler-elf/10.2.0/../../../../sparc-gaisler-elf/lib/mfix-b2bst/soft/libc.a(lib_a-malloc.o)
 .debug_aranges
                0x0000000000000588       0x20 /home/fsw/rep/tasa/lib/bcc-2.2.3-gcc/bin/../lib/gcc/sparc-gaisler-elf/10.2.0/../../../../sparc-gaisler-elf/lib/mfix-b2bst/soft/libc.a(lib_a-mallocr.o)
 .debug_aranges
                0x00000000000005a8       0x20 /home/fsw/rep/tasa/lib/bcc-2.2.3-gcc/bin/../lib/gcc/sparc-gaisler-elf/10.2.0/../../../../sparc-gaisler-elf/lib/mfix-b2bst/soft/libc.a(lib_a-memchr.o)
 .debug_aranges
                0x00000000000005c8       0x20 /home/fsw/rep/tasa/lib/bcc-2.2.3-gcc/bin/../lib/gcc/sparc-gaisler-elf/10.2.0/../../../../sparc-gaisler-elf/lib/mfix-b2bst/soft/libc.a(lib_a-memmove.o)
 .debug_aranges
                0x00000000000005e8       0x20 /home/fsw/rep/tasa/lib/bcc-2.2.3-gcc/bin/../lib/gcc/sparc-gaisler-elf/10.2.0/../../../../sparc-gaisler-elf/lib/mfix-b2bst/soft/libc.a(lib_a-memset.o)
 .debug_aranges
                0x0000000000000608       0x20 /home/fsw/rep/tasa/lib/bcc-2.2.3-gcc/bin/../lib/gcc/sparc-gaisler-elf/10.2.0/../../../../sparc-gaisler-elf/lib/mfix-b2bst/soft/libc.a(lib_a-mlock.o)
 .debug_aranges
                0x0000000000000628       0x20 /home/fsw/rep/tasa/lib/bcc-2.2.3-gcc/bin/../lib/gcc/sparc-gaisler-elf/10.2.0/../../../../sparc-gaisler-elf/lib/mfix-b2bst/soft/libc.a(lib_a-mprec.o)
 .debug_aranges
                0x0000000000000648       0x20 /home/fsw/rep/tasa/lib/bcc-2.2.3-gcc/bin/../lib/gcc/sparc-gaisler-elf/10.2.0/../../../../sparc-gaisler-elf/lib/mfix-b2bst/soft/libc.a(lib_a-putc.o)
 .debug_aranges
                0x0000000000000668       0x20 /home/fsw/rep/tasa/lib/bcc-2.2.3-gcc/bin/../lib/gcc/sparc-gaisler-elf/10.2.0/../../../../sparc-gaisler-elf/lib/mfix-b2bst/soft/libc.a(lib_a-reallocr.o)
 .debug_aranges
                0x0000000000000688       0x20 /home/fsw/rep/tasa/lib/bcc-2.2.3-gcc/bin/../lib/gcc/sparc-gaisler-elf/10.2.0/../../../../sparc-gaisler-elf/lib/mfix-b2bst/soft/libc.a(lib_a-s_frexp.o)
 .debug_aranges
                0x00000000000006a8       0x20 /home/fsw/rep/tasa/lib/bcc-2.2.3-gcc/bin/../lib/gcc/sparc-gaisler-elf/10.2.0/../../../../sparc-gaisler-elf/lib/mfix-b2bst/soft/libc.a(lib_a-sbrkr.o)
 .debug_aranges
                0x00000000000006c8       0x20 /home/fsw/rep/tasa/lib/bcc-2.2.3-gcc/bin/../lib/gcc/sparc-gaisler-elf/10.2.0/../../../../sparc-gaisler-elf/lib/mfix-b2bst/soft/libc.a(lib_a-stdio.o)
 .debug_aranges
                0x00000000000006e8       0x20 /home/fsw/rep/tasa/lib/bcc-2.2.3-gcc/bin/../lib/gcc/sparc-gaisler-elf/10.2.0/../../../../sparc-gaisler-elf/lib/mfix-b2bst/soft/libc.a(lib_a-strncpy.o)
 .debug_aranges
                0x0000000000000708       0x20 /home/fsw/rep/tasa/lib/bcc-2.2.3-gcc/bin/../lib/gcc/sparc-gaisler-elf/10.2.0/../../../../sparc-gaisler-elf/lib/mfix-b2bst/soft/libc.a(lib_a-vfiprintf.o)
 .debug_aranges
                0x0000000000000728       0x20 /home/fsw/rep/tasa/lib/bcc-2.2.3-gcc/bin/../lib/gcc/sparc-gaisler-elf/10.2.0/../../../../sparc-gaisler-elf/lib/mfix-b2bst/soft/libc.a(lib_a-wbuf.o)
 .debug_aranges
                0x0000000000000748       0x20 /home/fsw/rep/tasa/lib/bcc-2.2.3-gcc/bin/../lib/gcc/sparc-gaisler-elf/10.2.0/../../../../sparc-gaisler-elf/lib/mfix-b2bst/soft/libc.a(lib_a-writer.o)
 .debug_aranges
                0x0000000000000768       0x20 /home/fsw/rep/tasa/lib/bcc-2.2.3-gcc/bin/../lib/gcc/sparc-gaisler-elf/10.2.0/../../../../sparc-gaisler-elf/lib/mfix-b2bst/soft/libc.a(lib_a-callocr.o)
 .debug_aranges
                0x0000000000000788       0x20 /home/fsw/rep/tasa/lib/bcc-2.2.3-gcc/bin/../lib/gcc/sparc-gaisler-elf/10.2.0/../../../../sparc-gaisler-elf/lib/mfix-b2bst/soft/libc.a(lib_a-closer.o)
 .debug_aranges
                0x00000000000007a8       0x20 /home/fsw/rep/tasa/lib/bcc-2.2.3-gcc/bin/../lib/gcc/sparc-gaisler-elf/10.2.0/../../../../sparc-gaisler-elf/lib/mfix-b2bst/soft/libc.a(lib_a-fclose.o)
 .debug_aranges
                0x00000000000007c8       0x20 /home/fsw/rep/tasa/lib/bcc-2.2.3-gcc/bin/../lib/gcc/sparc-gaisler-elf/10.2.0/../../../../sparc-gaisler-elf/lib/mfix-b2bst/soft/libc.a(lib_a-fputwc.o)
 .debug_aranges
                0x00000000000007e8       0x20 /home/fsw/rep/tasa/lib/bcc-2.2.3-gcc/bin/../lib/gcc/sparc-gaisler-elf/10.2.0/../../../../sparc-gaisler-elf/lib/mfix-b2bst/soft/libc.a(lib_a-fstatr.o)
 .debug_aranges
                0x0000000000000808       0x20 /home/fsw/rep/tasa/lib/bcc-2.2.3-gcc/bin/../lib/gcc/sparc-gaisler-elf/10.2.0/../../../../sparc-gaisler-elf/lib/mfix-b2bst/soft/libc.a(lib_a-isattyr.o)
 .debug_aranges
                0x0000000000000828       0x20 /home/fsw/rep/tasa/lib/bcc-2.2.3-gcc/bin/../lib/gcc/sparc-gaisler-elf/10.2.0/../../../../sparc-gaisler-elf/lib/mfix-b2bst/soft/libc.a(lib_a-locale.o)
 .debug_aranges
                0x0000000000000848       0x20 /home/fsw/rep/tasa/lib/bcc-2.2.3-gcc/bin/../lib/gcc/sparc-gaisler-elf/10.2.0/../../../../sparc-gaisler-elf/lib/mfix-b2bst/soft/libc.a(lib_a-lseekr.o)
 .debug_aranges
                0x0000000000000868       0x20 /home/fsw/rep/tasa/lib/bcc-2.2.3-gcc/bin/../lib/gcc/sparc-gaisler-elf/10.2.0/../../../../sparc-gaisler-elf/lib/mfix-b2bst/soft/libc.a(lib_a-mbtowc_r.o)
 .debug_aranges
                0x0000000000000888       0x20 /home/fsw/rep/tasa/lib/bcc-2.2.3-gcc/bin/../lib/gcc/sparc-gaisler-elf/10.2.0/../../../../sparc-gaisler-elf/lib/mfix-b2bst/soft/libc.a(lib_a-readr.o)
 .debug_aranges
                0x00000000000008a8       0x20 /home/fsw/rep/tasa/lib/bcc-2.2.3-gcc/bin/../lib/gcc/sparc-gaisler-elf/10.2.0/../../../../sparc-gaisler-elf/lib/mfix-b2bst/soft/libc.a(lib_a-reent.o)
 .debug_aranges
                0x00000000000008c8       0x20 /home/fsw/rep/tasa/lib/bcc-2.2.3-gcc/bin/../lib/gcc/sparc-gaisler-elf/10.2.0/../../../../sparc-gaisler-elf/lib/mfix-b2bst/soft/libc.a(lib_a-strcmp.o)
 .debug_aranges
                0x00000000000008e8       0x20 /home/fsw/rep/tasa/lib/bcc-2.2.3-gcc/bin/../lib/gcc/sparc-gaisler-elf/10.2.0/../../../../sparc-gaisler-elf/lib/mfix-b2bst/soft/libc.a(lib_a-wcrtomb.o)
 .debug_aranges
                0x0000000000000908       0x20 /home/fsw/rep/tasa/lib/bcc-2.2.3-gcc/bin/../lib/gcc/sparc-gaisler-elf/10.2.0/../../../../sparc-gaisler-elf/lib/mfix-b2bst/soft/libc.a(lib_a-wctomb_r.o)
 .debug_aranges
                0x0000000000000928       0x18 /home/fsw/rep/tasa/lib/bcc-2.2.3-gcc/bin/../lib/gcc/sparc-gaisler-elf/10.2.0/../../../../sparc-gaisler-elf/lib/mfix-b2bst/soft/libc.a(lib_a-ctype_.o)
 .debug_aranges
                0x0000000000000940       0x20 /home/fsw/rep/tasa/lib/bcc-2.2.3-gcc/bin/../sparc-gaisler-elf/bsp/leon3/mfix-b2bst/soft/libbcc.a(_exit.S.o)
 .debug_aranges
                0x0000000000000960       0x20 /home/fsw/rep/tasa/lib/bcc-2.2.3-gcc/bin/../sparc-gaisler-elf/bsp/leon3/mfix-b2bst/soft/libbcc.a(read.c.o)
 .debug_aranges
                0x0000000000000980       0x20 /home/fsw/rep/tasa/lib/bcc-2.2.3-gcc/bin/../sparc-gaisler-elf/bsp/leon3/mfix-b2bst/soft/libbcc.a(sbrk.c.o)
 .debug_aranges
                0x00000000000009a0       0x18 /home/fsw/rep/tasa/lib/bcc-2.2.3-gcc/bin/../sparc-gaisler-elf/bsp/leon3/mfix-b2bst/soft/libbcc.a(heap.c.o)
 .debug_aranges
                0x00000000000009b8       0x20 /home/fsw/rep/tasa/lib/bcc-2.2.3-gcc/bin/../sparc-gaisler-elf/bsp/leon3/mfix-b2bst/soft/libbcc.a(write.c.o)
 .debug_aranges
                0x00000000000009d8       0x20 /home/fsw/rep/tasa/lib/bcc-2.2.3-gcc/bin/../sparc-gaisler-elf/bsp/leon3/mfix-b2bst/soft/libbcc.a(stubs.S.o)
 .debug_aranges
                0x00000000000009f8       0x20 /home/fsw/rep/tasa/lib/bcc-2.2.3-gcc/bin/../sparc-gaisler-elf/bsp/leon3/mfix-b2bst/soft/libbcc.a(con_apbuart.c.o)
 .debug_aranges
                0x0000000000000a18       0x20 /home/fsw/rep/tasa/lib/bcc-2.2.3-gcc/bin/../lib/gcc/sparc-gaisler-elf/10.2.0/mfix-b2bst/soft/libgcc.a(_mulsi3.o)
 .debug_aranges
                0x0000000000000a38       0x20 /home/fsw/rep/tasa/lib/bcc-2.2.3-gcc/bin/../lib/gcc/sparc-gaisler-elf/10.2.0/mfix-b2bst/soft/libgcc.a(_divsi3.o)
 .debug_aranges
                0x0000000000000a58       0x20 /home/fsw/rep/tasa/lib/bcc-2.2.3-gcc/bin/../lib/gcc/sparc-gaisler-elf/10.2.0/mfix-b2bst/soft/libgcc.a(_modsi3.o)
 .debug_aranges
                0x0000000000000a78       0x20 /home/fsw/rep/tasa/lib/bcc-2.2.3-gcc/bin/../lib/gcc/sparc-gaisler-elf/10.2.0/mfix-b2bst/soft/libgcc.a(_udivdi3.o)
 .debug_aranges
                0x0000000000000a98       0x20 /home/fsw/rep/tasa/lib/bcc-2.2.3-gcc/bin/../lib/gcc/sparc-gaisler-elf/10.2.0/mfix-b2bst/soft/libgcc.a(_umoddi3.o)
 .debug_aranges
                0x0000000000000ab8       0x20 /home/fsw/rep/tasa/lib/bcc-2.2.3-gcc/bin/../lib/gcc/sparc-gaisler-elf/10.2.0/mfix-b2bst/soft/libgcc.a(_addsub_df.o)
 .debug_aranges
                0x0000000000000ad8       0x20 /home/fsw/rep/tasa/lib/bcc-2.2.3-gcc/bin/../lib/gcc/sparc-gaisler-elf/10.2.0/mfix-b2bst/soft/libgcc.a(_mul_df.o)
 .debug_aranges
                0x0000000000000af8       0x20 /home/fsw/rep/tasa/lib/bcc-2.2.3-gcc/bin/../lib/gcc/sparc-gaisler-elf/10.2.0/mfix-b2bst/soft/libgcc.a(_div_df.o)
 .debug_aranges
                0x0000000000000b18       0x20 /home/fsw/rep/tasa/lib/bcc-2.2.3-gcc/bin/../lib/gcc/sparc-gaisler-elf/10.2.0/mfix-b2bst/soft/libgcc.a(_eq_df.o)
 .debug_aranges
                0x0000000000000b38       0x20 /home/fsw/rep/tasa/lib/bcc-2.2.3-gcc/bin/../lib/gcc/sparc-gaisler-elf/10.2.0/mfix-b2bst/soft/libgcc.a(_ne_df.o)
 .debug_aranges
                0x0000000000000b58       0x20 /home/fsw/rep/tasa/lib/bcc-2.2.3-gcc/bin/../lib/gcc/sparc-gaisler-elf/10.2.0/mfix-b2bst/soft/libgcc.a(_gt_df.o)
 .debug_aranges
                0x0000000000000b78       0x20 /home/fsw/rep/tasa/lib/bcc-2.2.3-gcc/bin/../lib/gcc/sparc-gaisler-elf/10.2.0/mfix-b2bst/soft/libgcc.a(_lt_df.o)
 .debug_aranges
                0x0000000000000b98       0x20 /home/fsw/rep/tasa/lib/bcc-2.2.3-gcc/bin/../lib/gcc/sparc-gaisler-elf/10.2.0/mfix-b2bst/soft/libgcc.a(_le_df.o)
 .debug_aranges
                0x0000000000000bb8       0x20 /home/fsw/rep/tasa/lib/bcc-2.2.3-gcc/bin/../lib/gcc/sparc-gaisler-elf/10.2.0/mfix-b2bst/soft/libgcc.a(_unord_df.o)
 .debug_aranges
                0x0000000000000bd8       0x20 /home/fsw/rep/tasa/lib/bcc-2.2.3-gcc/bin/../lib/gcc/sparc-gaisler-elf/10.2.0/mfix-b2bst/soft/libgcc.a(_si_to_df.o)
 .debug_aranges
                0x0000000000000bf8       0x20 /home/fsw/rep/tasa/lib/bcc-2.2.3-gcc/bin/../lib/gcc/sparc-gaisler-elf/10.2.0/mfix-b2bst/soft/libgcc.a(_df_to_si.o)
 .debug_aranges
                0x0000000000000c18       0x18 /home/fsw/rep/tasa/lib/bcc-2.2.3-gcc/bin/../lib/gcc/sparc-gaisler-elf/10.2.0/mfix-b2bst/soft/libgcc.a(_thenan_df.o)
 .debug_aranges
                0x0000000000000c30       0x20 /home/fsw/rep/tasa/lib/bcc-2.2.3-gcc/bin/../lib/gcc/sparc-gaisler-elf/10.2.0/mfix-b2bst/soft/libgcc.a(_usi_to_df.o)
 .debug_aranges
                0x0000000000000c50       0x20 /home/fsw/rep/tasa/lib/bcc-2.2.3-gcc/bin/../lib/gcc/sparc-gaisler-elf/10.2.0/mfix-b2bst/soft/libgcc.a(_muldi3.o)
 .debug_aranges
                0x0000000000000c70       0x18 /home/fsw/rep/tasa/lib/bcc-2.2.3-gcc/bin/../lib/gcc/sparc-gaisler-elf/10.2.0/mfix-b2bst/soft/libgcc.a(_clz.o)
 .debug_aranges
                0x0000000000000c88       0x20 /home/fsw/rep/tasa/lib/bcc-2.2.3-gcc/bin/../lib/gcc/sparc-gaisler-elf/10.2.0/mfix-b2bst/soft/libgcc.a(_clzsi2.o)
 .debug_aranges
                0x0000000000000ca8       0x20 /home/fsw/rep/tasa/lib/bcc-2.2.3-gcc/bin/../lib/gcc/sparc-gaisler-elf/10.2.0/mfix-b2bst/soft/libgcc.a(_pack_df.o)
 .debug_aranges
                0x0000000000000cc8       0x20 /home/fsw/rep/tasa/lib/bcc-2.2.3-gcc/bin/../lib/gcc/sparc-gaisler-elf/10.2.0/mfix-b2bst/soft/libgcc.a(_unpack_df.o)
 .debug_aranges
                0x0000000000000ce8       0x20 /home/fsw/rep/tasa/lib/bcc-2.2.3-gcc/bin/../lib/gcc/sparc-gaisler-elf/10.2.0/mfix-b2bst/soft/libgcc.a(_fpcmp_parts_df.o)

.debug_pubnames
 *(.debug_pubnames)

.debug_info     0x0000000000000000    0x25b8a
 *(.debug_info)
 .debug_info    0x0000000000000000       0x26 /home/fsw/rep/tasa/lib/bcc-2.2.3-gcc/bin/../sparc-gaisler-elf/bsp/leon3/mfix-b2bst/soft/trap_table_mvt.S.o
 .debug_info    0x0000000000000026       0x26 /home/fsw/rep/tasa/lib/bcc-2.2.3-gcc/bin/../sparc-gaisler-elf/bsp/leon3/mfix-b2bst/soft/crt0.S.o
 .debug_info    0x000000000000004c      0x368 /tmp/ccjQJ0Dl.o
 .debug_info    0x00000000000003b4       0x26 /home/fsw/rep/tasa/lib/bcc-2.2.3-gcc/bin/../sparc-gaisler-elf/bsp/leon3/mfix-b2bst/soft/libbcc.a(reset_trap_mvt.S.o)
 .debug_info    0x00000000000003da       0x26 /home/fsw/rep/tasa/lib/bcc-2.2.3-gcc/bin/../sparc-gaisler-elf/bsp/leon3/mfix-b2bst/soft/libbcc.a(window_trap.S.o)
 .debug_info    0x0000000000000400       0x26 /home/fsw/rep/tasa/lib/bcc-2.2.3-gcc/bin/../sparc-gaisler-elf/bsp/leon3/mfix-b2bst/soft/libbcc.a(interrupt_trap.S.o)
 .debug_info    0x0000000000000426       0x26 /home/fsw/rep/tasa/lib/bcc-2.2.3-gcc/bin/../sparc-gaisler-elf/bsp/leon3/mfix-b2bst/soft/libbcc.a(flush_windows_trap.S.o)
 .debug_info    0x000000000000044c       0x26 /home/fsw/rep/tasa/lib/bcc-2.2.3-gcc/bin/../sparc-gaisler-elf/bsp/leon3/mfix-b2bst/soft/libbcc.a(sw_trap_set_pil.S.o)
 .debug_info    0x0000000000000472       0xf5 /home/fsw/rep/tasa/lib/bcc-2.2.3-gcc/bin/../sparc-gaisler-elf/bsp/leon3/mfix-b2bst/soft/libbcc.a(isr.c.o)
 .debug_info    0x0000000000000567       0xcd /home/fsw/rep/tasa/lib/bcc-2.2.3-gcc/bin/../sparc-gaisler-elf/bsp/leon3/mfix-b2bst/soft/libbcc.a(int_nest.c.o)
 .debug_info    0x0000000000000634       0x26 /home/fsw/rep/tasa/lib/bcc-2.2.3-gcc/bin/../sparc-gaisler-elf/bsp/leon3/mfix-b2bst/soft/libbcc.a(init.S.o)
 .debug_info    0x000000000000065a       0x26 /home/fsw/rep/tasa/lib/bcc-2.2.3-gcc/bin/../sparc-gaisler-elf/bsp/leon3/mfix-b2bst/soft/libbcc.a(leon_info.S.o)
 .debug_info    0x0000000000000680       0x26 /home/fsw/rep/tasa/lib/bcc-2.2.3-gcc/bin/../sparc-gaisler-elf/bsp/leon3/mfix-b2bst/soft/libbcc.a(dwzero.S.o)
 .debug_info    0x00000000000006a6       0xe8 /home/fsw/rep/tasa/lib/bcc-2.2.3-gcc/bin/../sparc-gaisler-elf/bsp/leon3/mfix-b2bst/soft/libbcc.a(copy_data.c.o)
 .debug_info    0x000000000000078e       0xd9 /home/fsw/rep/tasa/lib/bcc-2.2.3-gcc/bin/../sparc-gaisler-elf/bsp/leon3/mfix-b2bst/soft/libbcc.a(argv.c.o)
 .debug_info    0x0000000000000867      0x2db /home/fsw/rep/tasa/lib/bcc-2.2.3-gcc/bin/../sparc-gaisler-elf/bsp/leon3/mfix-b2bst/soft/libbcc.a(int_irqmp_get_source.c.o)
 .debug_info    0x0000000000000b42      0x3a6 /home/fsw/rep/tasa/lib/bcc-2.2.3-gcc/bin/../sparc-gaisler-elf/bsp/leon3/mfix-b2bst/soft/libbcc.a(int_irqmp_mp.c.o)
 .debug_info    0x0000000000000ee8      0x5c9 /home/fsw/rep/tasa/lib/bcc-2.2.3-gcc/bin/../sparc-gaisler-elf/bsp/leon3/mfix-b2bst/soft/libbcc.a(int_irqmp_init.c.o)
 .debug_info    0x00000000000014b1      0x122 /home/fsw/rep/tasa/lib/bcc-2.2.3-gcc/bin/../sparc-gaisler-elf/bsp/leon3/mfix-b2bst/soft/libbcc.a(con_apbuart_init.c.o)
 .debug_info    0x00000000000015d3      0x1d6 /home/fsw/rep/tasa/lib/bcc-2.2.3-gcc/bin/../sparc-gaisler-elf/bsp/leon3/mfix-b2bst/soft/libbcc.a(timer_gptimer_init.c.o)
 .debug_info    0x00000000000017a9      0x8e0 /home/fsw/rep/tasa/lib/bcc-2.2.3-gcc/bin/../sparc-gaisler-elf/bsp/leon3/mfix-b2bst/soft/libbcc.a(ambapp.c.o)
 .debug_info    0x0000000000002089      0x336 /home/fsw/rep/tasa/lib/bcc-2.2.3-gcc/bin/../sparc-gaisler-elf/bsp/leon3/mfix-b2bst/soft/libbcc.a(ambapp_findfirst_fn.c.o)
 .debug_info    0x00000000000023bf       0xeb /home/fsw/rep/tasa/lib/bcc-2.2.3-gcc/bin/../sparc-gaisler-elf/bsp/leon3/mfix-b2bst/soft/libbcc.a(int_irqmp_handle.c.o)
 .debug_info    0x00000000000024aa       0x9d /home/fsw/rep/tasa/lib/bcc-2.2.3-gcc/bin/../sparc-gaisler-elf/bsp/leon3/mfix-b2bst/soft/libbcc.a(con_handle.c.o)
 .debug_info    0x0000000000002547       0xb7 /home/fsw/rep/tasa/lib/bcc-2.2.3-gcc/bin/../sparc-gaisler-elf/bsp/leon3/mfix-b2bst/soft/libbcc.a(timer_handle.c.o)
 .debug_info    0x00000000000025fe      0x102 /home/fsw/rep/tasa/lib/bcc-2.2.3-gcc/bin/../lib/gcc/sparc-gaisler-elf/10.2.0/../../../../sparc-gaisler-elf/lib/mfix-b2bst/soft/libc.a(lib_a-atexit.o)
 .debug_info    0x0000000000002700      0x7de /home/fsw/rep/tasa/lib/bcc-2.2.3-gcc/bin/../lib/gcc/sparc-gaisler-elf/10.2.0/../../../../sparc-gaisler-elf/lib/mfix-b2bst/soft/libc.a(lib_a-exit.o)
 .debug_info    0x0000000000002ede      0x83e /home/fsw/rep/tasa/lib/bcc-2.2.3-gcc/bin/../lib/gcc/sparc-gaisler-elf/10.2.0/../../../../sparc-gaisler-elf/lib/mfix-b2bst/soft/libc.a(lib_a-impure.o)
 .debug_info    0x000000000000371c      0x162 /home/fsw/rep/tasa/lib/bcc-2.2.3-gcc/bin/../lib/gcc/sparc-gaisler-elf/10.2.0/../../../../sparc-gaisler-elf/lib/mfix-b2bst/soft/libc.a(lib_a-memcpy.o)
 .debug_info    0x000000000000387e      0x916 /home/fsw/rep/tasa/lib/bcc-2.2.3-gcc/bin/../lib/gcc/sparc-gaisler-elf/10.2.0/../../../../sparc-gaisler-elf/lib/mfix-b2bst/soft/libc.a(lib_a-printf.o)
 .debug_info    0x0000000000004194      0x891 /home/fsw/rep/tasa/lib/bcc-2.2.3-gcc/bin/../lib/gcc/sparc-gaisler-elf/10.2.0/../../../../sparc-gaisler-elf/lib/mfix-b2bst/soft/libc.a(lib_a-putchar.o)
 .debug_info    0x0000000000004a25      0xaf5 /home/fsw/rep/tasa/lib/bcc-2.2.3-gcc/bin/../lib/gcc/sparc-gaisler-elf/10.2.0/../../../../sparc-gaisler-elf/lib/mfix-b2bst/soft/libc.a(lib_a-puts.o)
 .debug_info    0x000000000000551a       0xee /home/fsw/rep/tasa/lib/bcc-2.2.3-gcc/bin/../lib/gcc/sparc-gaisler-elf/10.2.0/../../../../sparc-gaisler-elf/lib/mfix-b2bst/soft/libc.a(lib_a-strlen.o)
 .debug_info    0x0000000000005608     0x1ec1 /home/fsw/rep/tasa/lib/bcc-2.2.3-gcc/bin/../lib/gcc/sparc-gaisler-elf/10.2.0/../../../../sparc-gaisler-elf/lib/mfix-b2bst/soft/libc.a(lib_a-vfprintf.o)
 .debug_info    0x00000000000074c9      0x8dd /home/fsw/rep/tasa/lib/bcc-2.2.3-gcc/bin/../lib/gcc/sparc-gaisler-elf/10.2.0/../../../../sparc-gaisler-elf/lib/mfix-b2bst/soft/libc.a(lib_a-wsetup.o)
 .debug_info    0x0000000000007da6      0x264 /home/fsw/rep/tasa/lib/bcc-2.2.3-gcc/bin/../lib/gcc/sparc-gaisler-elf/10.2.0/../../../../sparc-gaisler-elf/lib/mfix-b2bst/soft/libc.a(lib_a-__atexit.o)
 .debug_info    0x000000000000800a      0x28d /home/fsw/rep/tasa/lib/bcc-2.2.3-gcc/bin/../lib/gcc/sparc-gaisler-elf/10.2.0/../../../../sparc-gaisler-elf/lib/mfix-b2bst/soft/libc.a(lib_a-__call_atexit.o)
 .debug_info    0x0000000000008297     0x185e /home/fsw/rep/tasa/lib/bcc-2.2.3-gcc/bin/../lib/gcc/sparc-gaisler-elf/10.2.0/../../../../sparc-gaisler-elf/lib/mfix-b2bst/soft/libc.a(lib_a-dtoa.o)
 .debug_info    0x0000000000009af5      0xb04 /home/fsw/rep/tasa/lib/bcc-2.2.3-gcc/bin/../lib/gcc/sparc-gaisler-elf/10.2.0/../../../../sparc-gaisler-elf/lib/mfix-b2bst/soft/libc.a(lib_a-fflush.o)
 .debug_info    0x000000000000a5f9      0xdd9 /home/fsw/rep/tasa/lib/bcc-2.2.3-gcc/bin/../lib/gcc/sparc-gaisler-elf/10.2.0/../../../../sparc-gaisler-elf/lib/mfix-b2bst/soft/libc.a(lib_a-findfp.o)
 .debug_info    0x000000000000b3d2      0xb8d /home/fsw/rep/tasa/lib/bcc-2.2.3-gcc/bin/../lib/gcc/sparc-gaisler-elf/10.2.0/../../../../sparc-gaisler-elf/lib/mfix-b2bst/soft/libc.a(lib_a-freer.o)
 .debug_info    0x000000000000bf5f      0xb27 /home/fsw/rep/tasa/lib/bcc-2.2.3-gcc/bin/../lib/gcc/sparc-gaisler-elf/10.2.0/../../../../sparc-gaisler-elf/lib/mfix-b2bst/soft/libc.a(lib_a-fvwrite.o)
 .debug_info    0x000000000000ca86      0x8db /home/fsw/rep/tasa/lib/bcc-2.2.3-gcc/bin/../lib/gcc/sparc-gaisler-elf/10.2.0/../../../../sparc-gaisler-elf/lib/mfix-b2bst/soft/libc.a(lib_a-fwalk.o)
 .debug_info    0x000000000000d361      0xb4b /home/fsw/rep/tasa/lib/bcc-2.2.3-gcc/bin/../lib/gcc/sparc-gaisler-elf/10.2.0/../../../../sparc-gaisler-elf/lib/mfix-b2bst/soft/libc.a(lib_a-localeconv.o)
 .debug_info    0x000000000000deac      0xc41 /home/fsw/rep/tasa/lib/bcc-2.2.3-gcc/bin/../lib/gcc/sparc-gaisler-elf/10.2.0/../../../../sparc-gaisler-elf/lib/mfix-b2bst/soft/libc.a(lib_a-makebuf.o)
 .debug_info    0x000000000000eaed      0x817 /home/fsw/rep/tasa/lib/bcc-2.2.3-gcc/bin/../lib/gcc/sparc-gaisler-elf/10.2.0/../../../../sparc-gaisler-elf/lib/mfix-b2bst/soft/libc.a(lib_a-malloc.o)
 .debug_info    0x000000000000f304      0xcf9 /home/fsw/rep/tasa/lib/bcc-2.2.3-gcc/bin/../lib/gcc/sparc-gaisler-elf/10.2.0/../../../../sparc-gaisler-elf/lib/mfix-b2bst/soft/libc.a(lib_a-mallocr.o)
 .debug_info    0x000000000000fffd      0x14e /home/fsw/rep/tasa/lib/bcc-2.2.3-gcc/bin/../lib/gcc/sparc-gaisler-elf/10.2.0/../../../../sparc-gaisler-elf/lib/mfix-b2bst/soft/libc.a(lib_a-memchr.o)
 .debug_info    0x000000000001014b      0x152 /home/fsw/rep/tasa/lib/bcc-2.2.3-gcc/bin/../lib/gcc/sparc-gaisler-elf/10.2.0/../../../../sparc-gaisler-elf/lib/mfix-b2bst/soft/libc.a(lib_a-memmove.o)
 .debug_info    0x000000000001029d      0x13d /home/fsw/rep/tasa/lib/bcc-2.2.3-gcc/bin/../lib/gcc/sparc-gaisler-elf/10.2.0/../../../../sparc-gaisler-elf/lib/mfix-b2bst/soft/libc.a(lib_a-memset.o)
 .debug_info    0x00000000000103da      0x7aa /home/fsw/rep/tasa/lib/bcc-2.2.3-gcc/bin/../lib/gcc/sparc-gaisler-elf/10.2.0/../../../../sparc-gaisler-elf/lib/mfix-b2bst/soft/libc.a(lib_a-mlock.o)
 .debug_info    0x0000000000010b84     0x2167 /home/fsw/rep/tasa/lib/bcc-2.2.3-gcc/bin/../lib/gcc/sparc-gaisler-elf/10.2.0/../../../../sparc-gaisler-elf/lib/mfix-b2bst/soft/libc.a(lib_a-mprec.o)
 .debug_info    0x0000000000012ceb      0xa23 /home/fsw/rep/tasa/lib/bcc-2.2.3-gcc/bin/../lib/gcc/sparc-gaisler-elf/10.2.0/../../../../sparc-gaisler-elf/lib/mfix-b2bst/soft/libc.a(lib_a-putc.o)
 .debug_info    0x000000000001370e      0xc0f /home/fsw/rep/tasa/lib/bcc-2.2.3-gcc/bin/../lib/gcc/sparc-gaisler-elf/10.2.0/../../../../sparc-gaisler-elf/lib/mfix-b2bst/soft/libc.a(lib_a-reallocr.o)
 .debug_info    0x000000000001431d      0x1eb /home/fsw/rep/tasa/lib/bcc-2.2.3-gcc/bin/../lib/gcc/sparc-gaisler-elf/10.2.0/../../../../sparc-gaisler-elf/lib/mfix-b2bst/soft/libc.a(lib_a-s_frexp.o)
 .debug_info    0x0000000000014508      0x801 /home/fsw/rep/tasa/lib/bcc-2.2.3-gcc/bin/../lib/gcc/sparc-gaisler-elf/10.2.0/../../../../sparc-gaisler-elf/lib/mfix-b2bst/soft/libc.a(lib_a-sbrkr.o)
 .debug_info    0x0000000000014d09      0xab3 /home/fsw/rep/tasa/lib/bcc-2.2.3-gcc/bin/../lib/gcc/sparc-gaisler-elf/10.2.0/../../../../sparc-gaisler-elf/lib/mfix-b2bst/soft/libc.a(lib_a-stdio.o)
 .debug_info    0x00000000000157bc      0x153 /home/fsw/rep/tasa/lib/bcc-2.2.3-gcc/bin/../lib/gcc/sparc-gaisler-elf/10.2.0/../../../../sparc-gaisler-elf/lib/mfix-b2bst/soft/libc.a(lib_a-strncpy.o)
 .debug_info    0x000000000001590f     0x2413 /home/fsw/rep/tasa/lib/bcc-2.2.3-gcc/bin/../lib/gcc/sparc-gaisler-elf/10.2.0/../../../../sparc-gaisler-elf/lib/mfix-b2bst/soft/libc.a(lib_a-vfiprintf.o)
 .debug_info    0x0000000000017d22      0xa45 /home/fsw/rep/tasa/lib/bcc-2.2.3-gcc/bin/../lib/gcc/sparc-gaisler-elf/10.2.0/../../../../sparc-gaisler-elf/lib/mfix-b2bst/soft/libc.a(lib_a-wbuf.o)
 .debug_info    0x0000000000018767      0x831 /home/fsw/rep/tasa/lib/bcc-2.2.3-gcc/bin/../lib/gcc/sparc-gaisler-elf/10.2.0/../../../../sparc-gaisler-elf/lib/mfix-b2bst/soft/libc.a(lib_a-writer.o)
 .debug_info    0x0000000000018f98      0x8f6 /home/fsw/rep/tasa/lib/bcc-2.2.3-gcc/bin/../lib/gcc/sparc-gaisler-elf/10.2.0/../../../../sparc-gaisler-elf/lib/mfix-b2bst/soft/libc.a(lib_a-callocr.o)
 .debug_info    0x000000000001988e      0x7de /home/fsw/rep/tasa/lib/bcc-2.2.3-gcc/bin/../lib/gcc/sparc-gaisler-elf/10.2.0/../../../../sparc-gaisler-elf/lib/mfix-b2bst/soft/libc.a(lib_a-closer.o)
 .debug_info    0x000000000001a06c      0xa42 /home/fsw/rep/tasa/lib/bcc-2.2.3-gcc/bin/../lib/gcc/sparc-gaisler-elf/10.2.0/../../../../sparc-gaisler-elf/lib/mfix-b2bst/soft/libc.a(lib_a-fclose.o)
 .debug_info    0x000000000001aaae      0xb09 /home/fsw/rep/tasa/lib/bcc-2.2.3-gcc/bin/../lib/gcc/sparc-gaisler-elf/10.2.0/../../../../sparc-gaisler-elf/lib/mfix-b2bst/soft/libc.a(lib_a-fputwc.o)
 .debug_info    0x000000000001b5b7      0x9dd /home/fsw/rep/tasa/lib/bcc-2.2.3-gcc/bin/../lib/gcc/sparc-gaisler-elf/10.2.0/../../../../sparc-gaisler-elf/lib/mfix-b2bst/soft/libc.a(lib_a-fstatr.o)
 .debug_info    0x000000000001bf94      0x7de /home/fsw/rep/tasa/lib/bcc-2.2.3-gcc/bin/../lib/gcc/sparc-gaisler-elf/10.2.0/../../../../sparc-gaisler-elf/lib/mfix-b2bst/soft/libc.a(lib_a-isattyr.o)
 .debug_info    0x000000000001c772      0xcf4 /home/fsw/rep/tasa/lib/bcc-2.2.3-gcc/bin/../lib/gcc/sparc-gaisler-elf/10.2.0/../../../../sparc-gaisler-elf/lib/mfix-b2bst/soft/libc.a(lib_a-locale.o)
 .debug_info    0x000000000001d466      0x812 /home/fsw/rep/tasa/lib/bcc-2.2.3-gcc/bin/../lib/gcc/sparc-gaisler-elf/10.2.0/../../../../sparc-gaisler-elf/lib/mfix-b2bst/soft/libc.a(lib_a-lseekr.o)
 .debug_info    0x000000000001dc78      0xb78 /home/fsw/rep/tasa/lib/bcc-2.2.3-gcc/bin/../lib/gcc/sparc-gaisler-elf/10.2.0/../../../../sparc-gaisler-elf/lib/mfix-b2bst/soft/libc.a(lib_a-mbtowc_r.o)
 .debug_info    0x000000000001e7f0      0x82a /home/fsw/rep/tasa/lib/bcc-2.2.3-gcc/bin/../lib/gcc/sparc-gaisler-elf/10.2.0/../../../../sparc-gaisler-elf/lib/mfix-b2bst/soft/libc.a(lib_a-readr.o)
 .debug_info    0x000000000001f01a      0xc8c /home/fsw/rep/tasa/lib/bcc-2.2.3-gcc/bin/../lib/gcc/sparc-gaisler-elf/10.2.0/../../../../sparc-gaisler-elf/lib/mfix-b2bst/soft/libc.a(lib_a-reent.o)
 .debug_info    0x000000000001fca6       0xf2 /home/fsw/rep/tasa/lib/bcc-2.2.3-gcc/bin/../lib/gcc/sparc-gaisler-elf/10.2.0/../../../../sparc-gaisler-elf/lib/mfix-b2bst/soft/libc.a(lib_a-strcmp.o)
 .debug_info    0x000000000001fd98      0xc0c /home/fsw/rep/tasa/lib/bcc-2.2.3-gcc/bin/../lib/gcc/sparc-gaisler-elf/10.2.0/../../../../sparc-gaisler-elf/lib/mfix-b2bst/soft/libc.a(lib_a-wcrtomb.o)
 .debug_info    0x00000000000209a4      0xb31 /home/fsw/rep/tasa/lib/bcc-2.2.3-gcc/bin/../lib/gcc/sparc-gaisler-elf/10.2.0/../../../../sparc-gaisler-elf/lib/mfix-b2bst/soft/libc.a(lib_a-wctomb_r.o)
 .debug_info    0x00000000000214d5       0xec /home/fsw/rep/tasa/lib/bcc-2.2.3-gcc/bin/../lib/gcc/sparc-gaisler-elf/10.2.0/../../../../sparc-gaisler-elf/lib/mfix-b2bst/soft/libc.a(lib_a-ctype_.o)
 .debug_info    0x00000000000215c1       0x26 /home/fsw/rep/tasa/lib/bcc-2.2.3-gcc/bin/../sparc-gaisler-elf/bsp/leon3/mfix-b2bst/soft/libbcc.a(_exit.S.o)
 .debug_info    0x00000000000215e7      0x12f /home/fsw/rep/tasa/lib/bcc-2.2.3-gcc/bin/../sparc-gaisler-elf/bsp/leon3/mfix-b2bst/soft/libbcc.a(read.c.o)
 .debug_info    0x0000000000021716      0x138 /home/fsw/rep/tasa/lib/bcc-2.2.3-gcc/bin/../sparc-gaisler-elf/bsp/leon3/mfix-b2bst/soft/libbcc.a(sbrk.c.o)
 .debug_info    0x000000000002184e       0xbd /home/fsw/rep/tasa/lib/bcc-2.2.3-gcc/bin/../sparc-gaisler-elf/bsp/leon3/mfix-b2bst/soft/libbcc.a(heap.c.o)
 .debug_info    0x000000000002190b      0x154 /home/fsw/rep/tasa/lib/bcc-2.2.3-gcc/bin/../sparc-gaisler-elf/bsp/leon3/mfix-b2bst/soft/libbcc.a(write.c.o)
 .debug_info    0x0000000000021a5f       0x26 /home/fsw/rep/tasa/lib/bcc-2.2.3-gcc/bin/../sparc-gaisler-elf/bsp/leon3/mfix-b2bst/soft/libbcc.a(stubs.S.o)
 .debug_info    0x0000000000021a85      0x1a7 /home/fsw/rep/tasa/lib/bcc-2.2.3-gcc/bin/../sparc-gaisler-elf/bsp/leon3/mfix-b2bst/soft/libbcc.a(con_apbuart.c.o)
 .debug_info    0x0000000000021c2c       0x26 /home/fsw/rep/tasa/lib/bcc-2.2.3-gcc/bin/../lib/gcc/sparc-gaisler-elf/10.2.0/mfix-b2bst/soft/libgcc.a(_mulsi3.o)
 .debug_info    0x0000000000021c52       0x26 /home/fsw/rep/tasa/lib/bcc-2.2.3-gcc/bin/../lib/gcc/sparc-gaisler-elf/10.2.0/mfix-b2bst/soft/libgcc.a(_divsi3.o)
 .debug_info    0x0000000000021c78       0x26 /home/fsw/rep/tasa/lib/bcc-2.2.3-gcc/bin/../lib/gcc/sparc-gaisler-elf/10.2.0/mfix-b2bst/soft/libgcc.a(_modsi3.o)
 .debug_info    0x0000000000021c9e      0x3ca /home/fsw/rep/tasa/lib/bcc-2.2.3-gcc/bin/../lib/gcc/sparc-gaisler-elf/10.2.0/mfix-b2bst/soft/libgcc.a(_udivdi3.o)
 .debug_info    0x0000000000022068      0x3dd /home/fsw/rep/tasa/lib/bcc-2.2.3-gcc/bin/../lib/gcc/sparc-gaisler-elf/10.2.0/mfix-b2bst/soft/libgcc.a(_umoddi3.o)
 .debug_info    0x0000000000022445      0x726 /home/fsw/rep/tasa/lib/bcc-2.2.3-gcc/bin/../lib/gcc/sparc-gaisler-elf/10.2.0/mfix-b2bst/soft/libgcc.a(_addsub_df.o)
 .debug_info    0x0000000000022b6b      0x580 /home/fsw/rep/tasa/lib/bcc-2.2.3-gcc/bin/../lib/gcc/sparc-gaisler-elf/10.2.0/mfix-b2bst/soft/libgcc.a(_mul_df.o)
 .debug_info    0x00000000000230eb      0x42d /home/fsw/rep/tasa/lib/bcc-2.2.3-gcc/bin/../lib/gcc/sparc-gaisler-elf/10.2.0/mfix-b2bst/soft/libgcc.a(_div_df.o)
 .debug_info    0x0000000000023518      0x317 /home/fsw/rep/tasa/lib/bcc-2.2.3-gcc/bin/../lib/gcc/sparc-gaisler-elf/10.2.0/mfix-b2bst/soft/libgcc.a(_eq_df.o)
 .debug_info    0x000000000002382f      0x317 /home/fsw/rep/tasa/lib/bcc-2.2.3-gcc/bin/../lib/gcc/sparc-gaisler-elf/10.2.0/mfix-b2bst/soft/libgcc.a(_ne_df.o)
 .debug_info    0x0000000000023b46      0x317 /home/fsw/rep/tasa/lib/bcc-2.2.3-gcc/bin/../lib/gcc/sparc-gaisler-elf/10.2.0/mfix-b2bst/soft/libgcc.a(_gt_df.o)
 .debug_info    0x0000000000023e5d      0x317 /home/fsw/rep/tasa/lib/bcc-2.2.3-gcc/bin/../lib/gcc/sparc-gaisler-elf/10.2.0/mfix-b2bst/soft/libgcc.a(_lt_df.o)
 .debug_info    0x0000000000024174      0x317 /home/fsw/rep/tasa/lib/bcc-2.2.3-gcc/bin/../lib/gcc/sparc-gaisler-elf/10.2.0/mfix-b2bst/soft/libgcc.a(_le_df.o)
 .debug_info    0x000000000002448b      0x2f0 /home/fsw/rep/tasa/lib/bcc-2.2.3-gcc/bin/../lib/gcc/sparc-gaisler-elf/10.2.0/mfix-b2bst/soft/libgcc.a(_unord_df.o)
 .debug_info    0x000000000002477b      0x290 /home/fsw/rep/tasa/lib/bcc-2.2.3-gcc/bin/../lib/gcc/sparc-gaisler-elf/10.2.0/mfix-b2bst/soft/libgcc.a(_si_to_df.o)
 .debug_info    0x0000000000024a0b      0x2c9 /home/fsw/rep/tasa/lib/bcc-2.2.3-gcc/bin/../lib/gcc/sparc-gaisler-elf/10.2.0/mfix-b2bst/soft/libgcc.a(_df_to_si.o)
 .debug_info    0x0000000000024cd4      0x168 /home/fsw/rep/tasa/lib/bcc-2.2.3-gcc/bin/../lib/gcc/sparc-gaisler-elf/10.2.0/mfix-b2bst/soft/libgcc.a(_thenan_df.o)
 .debug_info    0x0000000000024e3c      0x263 /home/fsw/rep/tasa/lib/bcc-2.2.3-gcc/bin/../lib/gcc/sparc-gaisler-elf/10.2.0/mfix-b2bst/soft/libgcc.a(_usi_to_df.o)
 .debug_info    0x000000000002509f      0x1a9 /home/fsw/rep/tasa/lib/bcc-2.2.3-gcc/bin/../lib/gcc/sparc-gaisler-elf/10.2.0/mfix-b2bst/soft/libgcc.a(_muldi3.o)
 .debug_info    0x0000000000025248       0xc9 /home/fsw/rep/tasa/lib/bcc-2.2.3-gcc/bin/../lib/gcc/sparc-gaisler-elf/10.2.0/mfix-b2bst/soft/libgcc.a(_clz.o)
 .debug_info    0x0000000000025311      0x13a /home/fsw/rep/tasa/lib/bcc-2.2.3-gcc/bin/../lib/gcc/sparc-gaisler-elf/10.2.0/mfix-b2bst/soft/libgcc.a(_clzsi2.o)
 .debug_info    0x000000000002544b      0x2da /home/fsw/rep/tasa/lib/bcc-2.2.3-gcc/bin/../lib/gcc/sparc-gaisler-elf/10.2.0/mfix-b2bst/soft/libgcc.a(_pack_df.o)
 .debug_info    0x0000000000025725      0x223 /home/fsw/rep/tasa/lib/bcc-2.2.3-gcc/bin/../lib/gcc/sparc-gaisler-elf/10.2.0/mfix-b2bst/soft/libgcc.a(_unpack_df.o)
 .debug_info    0x0000000000025948      0x242 /home/fsw/rep/tasa/lib/bcc-2.2.3-gcc/bin/../lib/gcc/sparc-gaisler-elf/10.2.0/mfix-b2bst/soft/libgcc.a(_fpcmp_parts_df.o)

.debug_abbrev   0x0000000000000000     0x981a
 *(.debug_abbrev)
 .debug_abbrev  0x0000000000000000       0x14 /home/fsw/rep/tasa/lib/bcc-2.2.3-gcc/bin/../sparc-gaisler-elf/bsp/leon3/mfix-b2bst/soft/trap_table_mvt.S.o
 .debug_abbrev  0x0000000000000014       0x14 /home/fsw/rep/tasa/lib/bcc-2.2.3-gcc/bin/../sparc-gaisler-elf/bsp/leon3/mfix-b2bst/soft/crt0.S.o
 .debug_abbrev  0x0000000000000028       0xe8 /tmp/ccjQJ0Dl.o
 .debug_abbrev  0x0000000000000110       0x14 /home/fsw/rep/tasa/lib/bcc-2.2.3-gcc/bin/../sparc-gaisler-elf/bsp/leon3/mfix-b2bst/soft/libbcc.a(reset_trap_mvt.S.o)
 .debug_abbrev  0x0000000000000124       0x14 /home/fsw/rep/tasa/lib/bcc-2.2.3-gcc/bin/../sparc-gaisler-elf/bsp/leon3/mfix-b2bst/soft/libbcc.a(window_trap.S.o)
 .debug_abbrev  0x0000000000000138       0x14 /home/fsw/rep/tasa/lib/bcc-2.2.3-gcc/bin/../sparc-gaisler-elf/bsp/leon3/mfix-b2bst/soft/libbcc.a(interrupt_trap.S.o)
 .debug_abbrev  0x000000000000014c       0x14 /home/fsw/rep/tasa/lib/bcc-2.2.3-gcc/bin/../sparc-gaisler-elf/bsp/leon3/mfix-b2bst/soft/libbcc.a(flush_windows_trap.S.o)
 .debug_abbrev  0x0000000000000160       0x14 /home/fsw/rep/tasa/lib/bcc-2.2.3-gcc/bin/../sparc-gaisler-elf/bsp/leon3/mfix-b2bst/soft/libbcc.a(sw_trap_set_pil.S.o)
 .debug_abbrev  0x0000000000000174       0xad /home/fsw/rep/tasa/lib/bcc-2.2.3-gcc/bin/../sparc-gaisler-elf/bsp/leon3/mfix-b2bst/soft/libbcc.a(isr.c.o)
 .debug_abbrev  0x0000000000000221       0x85 /home/fsw/rep/tasa/lib/bcc-2.2.3-gcc/bin/../sparc-gaisler-elf/bsp/leon3/mfix-b2bst/soft/libbcc.a(int_nest.c.o)
 .debug_abbrev  0x00000000000002a6       0x14 /home/fsw/rep/tasa/lib/bcc-2.2.3-gcc/bin/../sparc-gaisler-elf/bsp/leon3/mfix-b2bst/soft/libbcc.a(init.S.o)
 .debug_abbrev  0x00000000000002ba       0x14 /home/fsw/rep/tasa/lib/bcc-2.2.3-gcc/bin/../sparc-gaisler-elf/bsp/leon3/mfix-b2bst/soft/libbcc.a(leon_info.S.o)
 .debug_abbrev  0x00000000000002ce       0x14 /home/fsw/rep/tasa/lib/bcc-2.2.3-gcc/bin/../sparc-gaisler-elf/bsp/leon3/mfix-b2bst/soft/libbcc.a(dwzero.S.o)
 .debug_abbrev  0x00000000000002e2       0x87 /home/fsw/rep/tasa/lib/bcc-2.2.3-gcc/bin/../sparc-gaisler-elf/bsp/leon3/mfix-b2bst/soft/libbcc.a(copy_data.c.o)
 .debug_abbrev  0x0000000000000369       0x70 /home/fsw/rep/tasa/lib/bcc-2.2.3-gcc/bin/../sparc-gaisler-elf/bsp/leon3/mfix-b2bst/soft/libbcc.a(argv.c.o)
 .debug_abbrev  0x00000000000003d9      0x132 /home/fsw/rep/tasa/lib/bcc-2.2.3-gcc/bin/../sparc-gaisler-elf/bsp/leon3/mfix-b2bst/soft/libbcc.a(int_irqmp_get_source.c.o)
 .debug_abbrev  0x000000000000050b      0x16d /home/fsw/rep/tasa/lib/bcc-2.2.3-gcc/bin/../sparc-gaisler-elf/bsp/leon3/mfix-b2bst/soft/libbcc.a(int_irqmp_mp.c.o)
 .debug_abbrev  0x0000000000000678      0x216 /home/fsw/rep/tasa/lib/bcc-2.2.3-gcc/bin/../sparc-gaisler-elf/bsp/leon3/mfix-b2bst/soft/libbcc.a(int_irqmp_init.c.o)
 .debug_abbrev  0x000000000000088e       0xc8 /home/fsw/rep/tasa/lib/bcc-2.2.3-gcc/bin/../sparc-gaisler-elf/bsp/leon3/mfix-b2bst/soft/libbcc.a(con_apbuart_init.c.o)
 .debug_abbrev  0x0000000000000956      0x115 /home/fsw/rep/tasa/lib/bcc-2.2.3-gcc/bin/../sparc-gaisler-elf/bsp/leon3/mfix-b2bst/soft/libbcc.a(timer_gptimer_init.c.o)
 .debug_abbrev  0x0000000000000a6b      0x2f0 /home/fsw/rep/tasa/lib/bcc-2.2.3-gcc/bin/../sparc-gaisler-elf/bsp/leon3/mfix-b2bst/soft/libbcc.a(ambapp.c.o)
 .debug_abbrev  0x0000000000000d5b      0x129 /home/fsw/rep/tasa/lib/bcc-2.2.3-gcc/bin/../sparc-gaisler-elf/bsp/leon3/mfix-b2bst/soft/libbcc.a(ambapp_findfirst_fn.c.o)
 .debug_abbrev  0x0000000000000e84       0x57 /home/fsw/rep/tasa/lib/bcc-2.2.3-gcc/bin/../sparc-gaisler-elf/bsp/leon3/mfix-b2bst/soft/libbcc.a(int_irqmp_handle.c.o)
 .debug_abbrev  0x0000000000000edb       0x57 /home/fsw/rep/tasa/lib/bcc-2.2.3-gcc/bin/../sparc-gaisler-elf/bsp/leon3/mfix-b2bst/soft/libbcc.a(con_handle.c.o)
 .debug_abbrev  0x0000000000000f32       0x57 /home/fsw/rep/tasa/lib/bcc-2.2.3-gcc/bin/../sparc-gaisler-elf/bsp/leon3/mfix-b2bst/soft/libbcc.a(timer_handle.c.o)
 .debug_abbrev  0x0000000000000f89       0xb7 /home/fsw/rep/tasa/lib/bcc-2.2.3-gcc/bin/../lib/gcc/sparc-gaisler-elf/10.2.0/../../../../sparc-gaisler-elf/lib/mfix-b2bst/soft/libc.a(lib_a-atexit.o)
 .debug_abbrev  0x0000000000001040      0x1a5 /home/fsw/rep/tasa/lib/bcc-2.2.3-gcc/bin/../lib/gcc/sparc-gaisler-elf/10.2.0/../../../../sparc-gaisler-elf/lib/mfix-b2bst/soft/libc.a(lib_a-exit.o)
 .debug_abbrev  0x00000000000011e5      0x151 /home/fsw/rep/tasa/lib/bcc-2.2.3-gcc/bin/../lib/gcc/sparc-gaisler-elf/10.2.0/../../../../sparc-gaisler-elf/lib/mfix-b2bst/soft/libc.a(lib_a-impure.o)
 .debug_abbrev  0x0000000000001336       0xb6 /home/fsw/rep/tasa/lib/bcc-2.2.3-gcc/bin/../lib/gcc/sparc-gaisler-elf/10.2.0/../../../../sparc-gaisler-elf/lib/mfix-b2bst/soft/libc.a(lib_a-memcpy.o)
 .debug_abbrev  0x00000000000013ec      0x20f /home/fsw/rep/tasa/lib/bcc-2.2.3-gcc/bin/../lib/gcc/sparc-gaisler-elf/10.2.0/../../../../sparc-gaisler-elf/lib/mfix-b2bst/soft/libc.a(lib_a-printf.o)
 .debug_abbrev  0x00000000000015fb      0x1fc /home/fsw/rep/tasa/lib/bcc-2.2.3-gcc/bin/../lib/gcc/sparc-gaisler-elf/10.2.0/../../../../sparc-gaisler-elf/lib/mfix-b2bst/soft/libc.a(lib_a-putchar.o)
 .debug_abbrev  0x00000000000017f7      0x252 /home/fsw/rep/tasa/lib/bcc-2.2.3-gcc/bin/../lib/gcc/sparc-gaisler-elf/10.2.0/../../../../sparc-gaisler-elf/lib/mfix-b2bst/soft/libc.a(lib_a-puts.o)
 .debug_abbrev  0x0000000000001a49       0x8f /home/fsw/rep/tasa/lib/bcc-2.2.3-gcc/bin/../lib/gcc/sparc-gaisler-elf/10.2.0/../../../../sparc-gaisler-elf/lib/mfix-b2bst/soft/libc.a(lib_a-strlen.o)
 .debug_abbrev  0x0000000000001ad8      0x406 /home/fsw/rep/tasa/lib/bcc-2.2.3-gcc/bin/../lib/gcc/sparc-gaisler-elf/10.2.0/../../../../sparc-gaisler-elf/lib/mfix-b2bst/soft/libc.a(lib_a-vfprintf.o)
 .debug_abbrev  0x0000000000001ede      0x1d4 /home/fsw/rep/tasa/lib/bcc-2.2.3-gcc/bin/../lib/gcc/sparc-gaisler-elf/10.2.0/../../../../sparc-gaisler-elf/lib/mfix-b2bst/soft/libc.a(lib_a-wsetup.o)
 .debug_abbrev  0x00000000000020b2      0x1b2 /home/fsw/rep/tasa/lib/bcc-2.2.3-gcc/bin/../lib/gcc/sparc-gaisler-elf/10.2.0/../../../../sparc-gaisler-elf/lib/mfix-b2bst/soft/libc.a(lib_a-__atexit.o)
 .debug_abbrev  0x0000000000002264      0x1a0 /home/fsw/rep/tasa/lib/bcc-2.2.3-gcc/bin/../lib/gcc/sparc-gaisler-elf/10.2.0/../../../../sparc-gaisler-elf/lib/mfix-b2bst/soft/libc.a(lib_a-__call_atexit.o)
 .debug_abbrev  0x0000000000002404      0x2f7 /home/fsw/rep/tasa/lib/bcc-2.2.3-gcc/bin/../lib/gcc/sparc-gaisler-elf/10.2.0/../../../../sparc-gaisler-elf/lib/mfix-b2bst/soft/libc.a(lib_a-dtoa.o)
 .debug_abbrev  0x00000000000026fb      0x2b3 /home/fsw/rep/tasa/lib/bcc-2.2.3-gcc/bin/../lib/gcc/sparc-gaisler-elf/10.2.0/../../../../sparc-gaisler-elf/lib/mfix-b2bst/soft/libc.a(lib_a-fflush.o)
 .debug_abbrev  0x00000000000029ae      0x336 /home/fsw/rep/tasa/lib/bcc-2.2.3-gcc/bin/../lib/gcc/sparc-gaisler-elf/10.2.0/../../../../sparc-gaisler-elf/lib/mfix-b2bst/soft/libc.a(lib_a-findfp.o)
 .debug_abbrev  0x0000000000002ce4      0x247 /home/fsw/rep/tasa/lib/bcc-2.2.3-gcc/bin/../lib/gcc/sparc-gaisler-elf/10.2.0/../../../../sparc-gaisler-elf/lib/mfix-b2bst/soft/libc.a(lib_a-freer.o)
 .debug_abbrev  0x0000000000002f2b      0x20c /home/fsw/rep/tasa/lib/bcc-2.2.3-gcc/bin/../lib/gcc/sparc-gaisler-elf/10.2.0/../../../../sparc-gaisler-elf/lib/mfix-b2bst/soft/libc.a(lib_a-fvwrite.o)
 .debug_abbrev  0x0000000000003137      0x197 /home/fsw/rep/tasa/lib/bcc-2.2.3-gcc/bin/../lib/gcc/sparc-gaisler-elf/10.2.0/../../../../sparc-gaisler-elf/lib/mfix-b2bst/soft/libc.a(lib_a-fwalk.o)
 .debug_abbrev  0x00000000000032ce      0x24b /home/fsw/rep/tasa/lib/bcc-2.2.3-gcc/bin/../lib/gcc/sparc-gaisler-elf/10.2.0/../../../../sparc-gaisler-elf/lib/mfix-b2bst/soft/libc.a(lib_a-localeconv.o)
 .debug_abbrev  0x0000000000003519      0x290 /home/fsw/rep/tasa/lib/bcc-2.2.3-gcc/bin/../lib/gcc/sparc-gaisler-elf/10.2.0/../../../../sparc-gaisler-elf/lib/mfix-b2bst/soft/libc.a(lib_a-makebuf.o)
 .debug_abbrev  0x00000000000037a9      0x1b6 /home/fsw/rep/tasa/lib/bcc-2.2.3-gcc/bin/../lib/gcc/sparc-gaisler-elf/10.2.0/../../../../sparc-gaisler-elf/lib/mfix-b2bst/soft/libc.a(lib_a-malloc.o)
 .debug_abbrev  0x000000000000395f      0x273 /home/fsw/rep/tasa/lib/bcc-2.2.3-gcc/bin/../lib/gcc/sparc-gaisler-elf/10.2.0/../../../../sparc-gaisler-elf/lib/mfix-b2bst/soft/libc.a(lib_a-mallocr.o)
 .debug_abbrev  0x0000000000003bd2       0xd4 /home/fsw/rep/tasa/lib/bcc-2.2.3-gcc/bin/../lib/gcc/sparc-gaisler-elf/10.2.0/../../../../sparc-gaisler-elf/lib/mfix-b2bst/soft/libc.a(lib_a-memchr.o)
 .debug_abbrev  0x0000000000003ca6       0xc0 /home/fsw/rep/tasa/lib/bcc-2.2.3-gcc/bin/../lib/gcc/sparc-gaisler-elf/10.2.0/../../../../sparc-gaisler-elf/lib/mfix-b2bst/soft/libc.a(lib_a-memmove.o)
 .debug_abbrev  0x0000000000003d66       0xb4 /home/fsw/rep/tasa/lib/bcc-2.2.3-gcc/bin/../lib/gcc/sparc-gaisler-elf/10.2.0/../../../../sparc-gaisler-elf/lib/mfix-b2bst/soft/libc.a(lib_a-memset.o)
 .debug_abbrev  0x0000000000003e1a      0x174 /home/fsw/rep/tasa/lib/bcc-2.2.3-gcc/bin/../lib/gcc/sparc-gaisler-elf/10.2.0/../../../../sparc-gaisler-elf/lib/mfix-b2bst/soft/libc.a(lib_a-mlock.o)
 .debug_abbrev  0x0000000000003f8e      0x42e /home/fsw/rep/tasa/lib/bcc-2.2.3-gcc/bin/../lib/gcc/sparc-gaisler-elf/10.2.0/../../../../sparc-gaisler-elf/lib/mfix-b2bst/soft/libc.a(lib_a-mprec.o)
 .debug_abbrev  0x00000000000043bc      0x263 /home/fsw/rep/tasa/lib/bcc-2.2.3-gcc/bin/../lib/gcc/sparc-gaisler-elf/10.2.0/../../../../sparc-gaisler-elf/lib/mfix-b2bst/soft/libc.a(lib_a-putc.o)
 .debug_abbrev  0x000000000000461f      0x224 /home/fsw/rep/tasa/lib/bcc-2.2.3-gcc/bin/../lib/gcc/sparc-gaisler-elf/10.2.0/../../../../sparc-gaisler-elf/lib/mfix-b2bst/soft/libc.a(lib_a-reallocr.o)
 .debug_abbrev  0x0000000000004843      0x15f /home/fsw/rep/tasa/lib/bcc-2.2.3-gcc/bin/../lib/gcc/sparc-gaisler-elf/10.2.0/../../../../sparc-gaisler-elf/lib/mfix-b2bst/soft/libc.a(lib_a-s_frexp.o)
 .debug_abbrev  0x00000000000049a2      0x1d6 /home/fsw/rep/tasa/lib/bcc-2.2.3-gcc/bin/../lib/gcc/sparc-gaisler-elf/10.2.0/../../../../sparc-gaisler-elf/lib/mfix-b2bst/soft/libc.a(lib_a-sbrkr.o)
 .debug_abbrev  0x0000000000004b78      0x219 /home/fsw/rep/tasa/lib/bcc-2.2.3-gcc/bin/../lib/gcc/sparc-gaisler-elf/10.2.0/../../../../sparc-gaisler-elf/lib/mfix-b2bst/soft/libc.a(lib_a-stdio.o)
 .debug_abbrev  0x0000000000004d91       0xbb /home/fsw/rep/tasa/lib/bcc-2.2.3-gcc/bin/../lib/gcc/sparc-gaisler-elf/10.2.0/../../../../sparc-gaisler-elf/lib/mfix-b2bst/soft/libc.a(lib_a-strncpy.o)
 .debug_abbrev  0x0000000000004e4c      0x3e5 /home/fsw/rep/tasa/lib/bcc-2.2.3-gcc/bin/../lib/gcc/sparc-gaisler-elf/10.2.0/../../../../sparc-gaisler-elf/lib/mfix-b2bst/soft/libc.a(lib_a-vfiprintf.o)
 .debug_abbrev  0x0000000000005231      0x257 /home/fsw/rep/tasa/lib/bcc-2.2.3-gcc/bin/../lib/gcc/sparc-gaisler-elf/10.2.0/../../../../sparc-gaisler-elf/lib/mfix-b2bst/soft/libc.a(lib_a-wbuf.o)
 .debug_abbrev  0x0000000000005488      0x1b0 /home/fsw/rep/tasa/lib/bcc-2.2.3-gcc/bin/../lib/gcc/sparc-gaisler-elf/10.2.0/../../../../sparc-gaisler-elf/lib/mfix-b2bst/soft/libc.a(lib_a-writer.o)
 .debug_abbrev  0x0000000000005638      0x1f2 /home/fsw/rep/tasa/lib/bcc-2.2.3-gcc/bin/../lib/gcc/sparc-gaisler-elf/10.2.0/../../../../sparc-gaisler-elf/lib/mfix-b2bst/soft/libc.a(lib_a-callocr.o)
 .debug_abbrev  0x000000000000582a      0x1ab /home/fsw/rep/tasa/lib/bcc-2.2.3-gcc/bin/../lib/gcc/sparc-gaisler-elf/10.2.0/../../../../sparc-gaisler-elf/lib/mfix-b2bst/soft/libc.a(lib_a-closer.o)
 .debug_abbrev  0x00000000000059d5      0x265 /home/fsw/rep/tasa/lib/bcc-2.2.3-gcc/bin/../lib/gcc/sparc-gaisler-elf/10.2.0/../../../../sparc-gaisler-elf/lib/mfix-b2bst/soft/libc.a(lib_a-fclose.o)
 .debug_abbrev  0x0000000000005c3a      0x2d5 /home/fsw/rep/tasa/lib/bcc-2.2.3-gcc/bin/../lib/gcc/sparc-gaisler-elf/10.2.0/../../../../sparc-gaisler-elf/lib/mfix-b2bst/soft/libc.a(lib_a-fputwc.o)
 .debug_abbrev  0x0000000000005f0f      0x1bf /home/fsw/rep/tasa/lib/bcc-2.2.3-gcc/bin/../lib/gcc/sparc-gaisler-elf/10.2.0/../../../../sparc-gaisler-elf/lib/mfix-b2bst/soft/libc.a(lib_a-fstatr.o)
 .debug_abbrev  0x00000000000060ce      0x1ab /home/fsw/rep/tasa/lib/bcc-2.2.3-gcc/bin/../lib/gcc/sparc-gaisler-elf/10.2.0/../../../../sparc-gaisler-elf/lib/mfix-b2bst/soft/libc.a(lib_a-isattyr.o)
 .debug_abbrev  0x0000000000006279      0x2bb /home/fsw/rep/tasa/lib/bcc-2.2.3-gcc/bin/../lib/gcc/sparc-gaisler-elf/10.2.0/../../../../sparc-gaisler-elf/lib/mfix-b2bst/soft/libc.a(lib_a-locale.o)
 .debug_abbrev  0x0000000000006534      0x1bf /home/fsw/rep/tasa/lib/bcc-2.2.3-gcc/bin/../lib/gcc/sparc-gaisler-elf/10.2.0/../../../../sparc-gaisler-elf/lib/mfix-b2bst/soft/libc.a(lib_a-lseekr.o)
 .debug_abbrev  0x00000000000066f3      0x253 /home/fsw/rep/tasa/lib/bcc-2.2.3-gcc/bin/../lib/gcc/sparc-gaisler-elf/10.2.0/../../../../sparc-gaisler-elf/lib/mfix-b2bst/soft/libc.a(lib_a-mbtowc_r.o)
 .debug_abbrev  0x0000000000006946      0x1ab /home/fsw/rep/tasa/lib/bcc-2.2.3-gcc/bin/../lib/gcc/sparc-gaisler-elf/10.2.0/../../../../sparc-gaisler-elf/lib/mfix-b2bst/soft/libc.a(lib_a-readr.o)
 .debug_abbrev  0x0000000000006af1      0x263 /home/fsw/rep/tasa/lib/bcc-2.2.3-gcc/bin/../lib/gcc/sparc-gaisler-elf/10.2.0/../../../../sparc-gaisler-elf/lib/mfix-b2bst/soft/libc.a(lib_a-reent.o)
 .debug_abbrev  0x0000000000006d54       0x80 /home/fsw/rep/tasa/lib/bcc-2.2.3-gcc/bin/../lib/gcc/sparc-gaisler-elf/10.2.0/../../../../sparc-gaisler-elf/lib/mfix-b2bst/soft/libc.a(lib_a-strcmp.o)
 .debug_abbrev  0x0000000000006dd4      0x233 /home/fsw/rep/tasa/lib/bcc-2.2.3-gcc/bin/../lib/gcc/sparc-gaisler-elf/10.2.0/../../../../sparc-gaisler-elf/lib/mfix-b2bst/soft/libc.a(lib_a-wcrtomb.o)
 .debug_abbrev  0x0000000000007007      0x23b /home/fsw/rep/tasa/lib/bcc-2.2.3-gcc/bin/../lib/gcc/sparc-gaisler-elf/10.2.0/../../../../sparc-gaisler-elf/lib/mfix-b2bst/soft/libc.a(lib_a-wctomb_r.o)
 .debug_abbrev  0x0000000000007242       0x73 /home/fsw/rep/tasa/lib/bcc-2.2.3-gcc/bin/../lib/gcc/sparc-gaisler-elf/10.2.0/../../../../sparc-gaisler-elf/lib/mfix-b2bst/soft/libc.a(lib_a-ctype_.o)
 .debug_abbrev  0x00000000000072b5       0x14 /home/fsw/rep/tasa/lib/bcc-2.2.3-gcc/bin/../sparc-gaisler-elf/bsp/leon3/mfix-b2bst/soft/libbcc.a(_exit.S.o)
 .debug_abbrev  0x00000000000072c9       0xc8 /home/fsw/rep/tasa/lib/bcc-2.2.3-gcc/bin/../sparc-gaisler-elf/bsp/leon3/mfix-b2bst/soft/libbcc.a(read.c.o)
 .debug_abbrev  0x0000000000007391       0xc9 /home/fsw/rep/tasa/lib/bcc-2.2.3-gcc/bin/../sparc-gaisler-elf/bsp/leon3/mfix-b2bst/soft/libbcc.a(sbrk.c.o)
 .debug_abbrev  0x000000000000745a       0x60 /home/fsw/rep/tasa/lib/bcc-2.2.3-gcc/bin/../sparc-gaisler-elf/bsp/leon3/mfix-b2bst/soft/libbcc.a(heap.c.o)
 .debug_abbrev  0x00000000000074ba      0x102 /home/fsw/rep/tasa/lib/bcc-2.2.3-gcc/bin/../sparc-gaisler-elf/bsp/leon3/mfix-b2bst/soft/libbcc.a(write.c.o)
 .debug_abbrev  0x00000000000075bc       0x14 /home/fsw/rep/tasa/lib/bcc-2.2.3-gcc/bin/../sparc-gaisler-elf/bsp/leon3/mfix-b2bst/soft/libbcc.a(stubs.S.o)
 .debug_abbrev  0x00000000000075d0      0x13f /home/fsw/rep/tasa/lib/bcc-2.2.3-gcc/bin/../sparc-gaisler-elf/bsp/leon3/mfix-b2bst/soft/libbcc.a(con_apbuart.c.o)
 .debug_abbrev  0x000000000000770f       0x14 /home/fsw/rep/tasa/lib/bcc-2.2.3-gcc/bin/../lib/gcc/sparc-gaisler-elf/10.2.0/mfix-b2bst/soft/libgcc.a(_mulsi3.o)
 .debug_abbrev  0x0000000000007723       0x14 /home/fsw/rep/tasa/lib/bcc-2.2.3-gcc/bin/../lib/gcc/sparc-gaisler-elf/10.2.0/mfix-b2bst/soft/libgcc.a(_divsi3.o)
 .debug_abbrev  0x0000000000007737       0x14 /home/fsw/rep/tasa/lib/bcc-2.2.3-gcc/bin/../lib/gcc/sparc-gaisler-elf/10.2.0/mfix-b2bst/soft/libgcc.a(_modsi3.o)
 .debug_abbrev  0x000000000000774b      0x1bf /home/fsw/rep/tasa/lib/bcc-2.2.3-gcc/bin/../lib/gcc/sparc-gaisler-elf/10.2.0/mfix-b2bst/soft/libgcc.a(_udivdi3.o)
 .debug_abbrev  0x000000000000790a      0x1d3 /home/fsw/rep/tasa/lib/bcc-2.2.3-gcc/bin/../lib/gcc/sparc-gaisler-elf/10.2.0/mfix-b2bst/soft/libgcc.a(_umoddi3.o)
 .debug_abbrev  0x0000000000007add      0x257 /home/fsw/rep/tasa/lib/bcc-2.2.3-gcc/bin/../lib/gcc/sparc-gaisler-elf/10.2.0/mfix-b2bst/soft/libgcc.a(_addsub_df.o)
 .debug_abbrev  0x0000000000007d34      0x27a /home/fsw/rep/tasa/lib/bcc-2.2.3-gcc/bin/../lib/gcc/sparc-gaisler-elf/10.2.0/mfix-b2bst/soft/libgcc.a(_mul_df.o)
 .debug_abbrev  0x0000000000007fae      0x263 /home/fsw/rep/tasa/lib/bcc-2.2.3-gcc/bin/../lib/gcc/sparc-gaisler-elf/10.2.0/mfix-b2bst/soft/libgcc.a(_div_df.o)
 .debug_abbrev  0x0000000000008211      0x195 /home/fsw/rep/tasa/lib/bcc-2.2.3-gcc/bin/../lib/gcc/sparc-gaisler-elf/10.2.0/mfix-b2bst/soft/libgcc.a(_eq_df.o)
 .debug_abbrev  0x00000000000083a6      0x195 /home/fsw/rep/tasa/lib/bcc-2.2.3-gcc/bin/../lib/gcc/sparc-gaisler-elf/10.2.0/mfix-b2bst/soft/libgcc.a(_ne_df.o)
 .debug_abbrev  0x000000000000853b      0x195 /home/fsw/rep/tasa/lib/bcc-2.2.3-gcc/bin/../lib/gcc/sparc-gaisler-elf/10.2.0/mfix-b2bst/soft/libgcc.a(_gt_df.o)
 .debug_abbrev  0x00000000000086d0      0x195 /home/fsw/rep/tasa/lib/bcc-2.2.3-gcc/bin/../lib/gcc/sparc-gaisler-elf/10.2.0/mfix-b2bst/soft/libgcc.a(_lt_df.o)
 .debug_abbrev  0x0000000000008865      0x195 /home/fsw/rep/tasa/lib/bcc-2.2.3-gcc/bin/../lib/gcc/sparc-gaisler-elf/10.2.0/mfix-b2bst/soft/libgcc.a(_le_df.o)
 .debug_abbrev  0x00000000000089fa      0x195 /home/fsw/rep/tasa/lib/bcc-2.2.3-gcc/bin/../lib/gcc/sparc-gaisler-elf/10.2.0/mfix-b2bst/soft/libgcc.a(_unord_df.o)
 .debug_abbrev  0x0000000000008b8f      0x1ca /home/fsw/rep/tasa/lib/bcc-2.2.3-gcc/bin/../lib/gcc/sparc-gaisler-elf/10.2.0/mfix-b2bst/soft/libgcc.a(_si_to_df.o)
 .debug_abbrev  0x0000000000008d59      0x19c /home/fsw/rep/tasa/lib/bcc-2.2.3-gcc/bin/../lib/gcc/sparc-gaisler-elf/10.2.0/mfix-b2bst/soft/libgcc.a(_df_to_si.o)
 .debug_abbrev  0x0000000000008ef5       0xca /home/fsw/rep/tasa/lib/bcc-2.2.3-gcc/bin/../lib/gcc/sparc-gaisler-elf/10.2.0/mfix-b2bst/soft/libgcc.a(_thenan_df.o)
 .debug_abbrev  0x0000000000008fbf      0x1ce /home/fsw/rep/tasa/lib/bcc-2.2.3-gcc/bin/../lib/gcc/sparc-gaisler-elf/10.2.0/mfix-b2bst/soft/libgcc.a(_usi_to_df.o)
 .debug_abbrev  0x000000000000918d      0x102 /home/fsw/rep/tasa/lib/bcc-2.2.3-gcc/bin/../lib/gcc/sparc-gaisler-elf/10.2.0/mfix-b2bst/soft/libgcc.a(_muldi3.o)
 .debug_abbrev  0x000000000000928f       0x70 /home/fsw/rep/tasa/lib/bcc-2.2.3-gcc/bin/../lib/gcc/sparc-gaisler-elf/10.2.0/mfix-b2bst/soft/libgcc.a(_clz.o)
 .debug_abbrev  0x00000000000092ff       0xbf /home/fsw/rep/tasa/lib/bcc-2.2.3-gcc/bin/../lib/gcc/sparc-gaisler-elf/10.2.0/mfix-b2bst/soft/libgcc.a(_clzsi2.o)
 .debug_abbrev  0x00000000000093be      0x1b7 /home/fsw/rep/tasa/lib/bcc-2.2.3-gcc/bin/../lib/gcc/sparc-gaisler-elf/10.2.0/mfix-b2bst/soft/libgcc.a(_pack_df.o)
 .debug_abbrev  0x0000000000009575      0x12d /home/fsw/rep/tasa/lib/bcc-2.2.3-gcc/bin/../lib/gcc/sparc-gaisler-elf/10.2.0/mfix-b2bst/soft/libgcc.a(_unpack_df.o)
 .debug_abbrev  0x00000000000096a2      0x178 /home/fsw/rep/tasa/lib/bcc-2.2.3-gcc/bin/../lib/gcc/sparc-gaisler-elf/10.2.0/mfix-b2bst/soft/libgcc.a(_fpcmp_parts_df.o)

.debug_line     0x0000000000000000    0x14f48
 *(.debug_line)
 .debug_line    0x0000000000000000       0xda /home/fsw/rep/tasa/lib/bcc-2.2.3-gcc/bin/../sparc-gaisler-elf/bsp/leon3/mfix-b2bst/soft/trap_table_mvt.S.o
 .debug_line    0x00000000000000da       0x88 /home/fsw/rep/tasa/lib/bcc-2.2.3-gcc/bin/../sparc-gaisler-elf/bsp/leon3/mfix-b2bst/soft/crt0.S.o
 .debug_line    0x0000000000000162      0x195 /tmp/ccjQJ0Dl.o
 .debug_line    0x00000000000002f7       0x8c /home/fsw/rep/tasa/lib/bcc-2.2.3-gcc/bin/../sparc-gaisler-elf/bsp/leon3/mfix-b2bst/soft/libbcc.a(reset_trap_mvt.S.o)
 .debug_line    0x0000000000000383       0x90 /home/fsw/rep/tasa/lib/bcc-2.2.3-gcc/bin/../sparc-gaisler-elf/bsp/leon3/mfix-b2bst/soft/libbcc.a(window_trap.S.o)
 .debug_line    0x0000000000000413       0xd9 /home/fsw/rep/tasa/lib/bcc-2.2.3-gcc/bin/../sparc-gaisler-elf/bsp/leon3/mfix-b2bst/soft/libbcc.a(interrupt_trap.S.o)
 .debug_line    0x00000000000004ec       0x8e /home/fsw/rep/tasa/lib/bcc-2.2.3-gcc/bin/../sparc-gaisler-elf/bsp/leon3/mfix-b2bst/soft/libbcc.a(flush_windows_trap.S.o)
 .debug_line    0x000000000000057a       0x75 /home/fsw/rep/tasa/lib/bcc-2.2.3-gcc/bin/../sparc-gaisler-elf/bsp/leon3/mfix-b2bst/soft/libbcc.a(sw_trap_set_pil.S.o)
 .debug_line    0x00000000000005ef       0x93 /home/fsw/rep/tasa/lib/bcc-2.2.3-gcc/bin/../sparc-gaisler-elf/bsp/leon3/mfix-b2bst/soft/libbcc.a(isr.c.o)
 .debug_line    0x0000000000000682      0x1c2 /home/fsw/rep/tasa/lib/bcc-2.2.3-gcc/bin/../sparc-gaisler-elf/bsp/leon3/mfix-b2bst/soft/libbcc.a(int_nest.c.o)
 .debug_line    0x0000000000000844       0x5c /home/fsw/rep/tasa/lib/bcc-2.2.3-gcc/bin/../sparc-gaisler-elf/bsp/leon3/mfix-b2bst/soft/libbcc.a(init.S.o)
 .debug_line    0x00000000000008a0       0x84 /home/fsw/rep/tasa/lib/bcc-2.2.3-gcc/bin/../sparc-gaisler-elf/bsp/leon3/mfix-b2bst/soft/libbcc.a(leon_info.S.o)
 .debug_line    0x0000000000000924       0x67 /home/fsw/rep/tasa/lib/bcc-2.2.3-gcc/bin/../sparc-gaisler-elf/bsp/leon3/mfix-b2bst/soft/libbcc.a(dwzero.S.o)
 .debug_line    0x000000000000098b      0x1de /home/fsw/rep/tasa/lib/bcc-2.2.3-gcc/bin/../sparc-gaisler-elf/bsp/leon3/mfix-b2bst/soft/libbcc.a(copy_data.c.o)
 .debug_line    0x0000000000000b69       0x8c /home/fsw/rep/tasa/lib/bcc-2.2.3-gcc/bin/../sparc-gaisler-elf/bsp/leon3/mfix-b2bst/soft/libbcc.a(argv.c.o)
 .debug_line    0x0000000000000bf5      0x2a6 /home/fsw/rep/tasa/lib/bcc-2.2.3-gcc/bin/../sparc-gaisler-elf/bsp/leon3/mfix-b2bst/soft/libbcc.a(int_irqmp_get_source.c.o)
 .debug_line    0x0000000000000e9b      0x31f /home/fsw/rep/tasa/lib/bcc-2.2.3-gcc/bin/../sparc-gaisler-elf/bsp/leon3/mfix-b2bst/soft/libbcc.a(int_irqmp_mp.c.o)
 .debug_line    0x00000000000011ba      0x484 /home/fsw/rep/tasa/lib/bcc-2.2.3-gcc/bin/../sparc-gaisler-elf/bsp/leon3/mfix-b2bst/soft/libbcc.a(int_irqmp_init.c.o)
 .debug_line    0x000000000000163e      0x24f /home/fsw/rep/tasa/lib/bcc-2.2.3-gcc/bin/../sparc-gaisler-elf/bsp/leon3/mfix-b2bst/soft/libbcc.a(con_apbuart_init.c.o)
 .debug_line    0x000000000000188d      0x25d /home/fsw/rep/tasa/lib/bcc-2.2.3-gcc/bin/../sparc-gaisler-elf/bsp/leon3/mfix-b2bst/soft/libbcc.a(timer_gptimer_init.c.o)
 .debug_line    0x0000000000001aea      0x890 /home/fsw/rep/tasa/lib/bcc-2.2.3-gcc/bin/../sparc-gaisler-elf/bsp/leon3/mfix-b2bst/soft/libbcc.a(ambapp.c.o)
 .debug_line    0x000000000000237a      0x273 /home/fsw/rep/tasa/lib/bcc-2.2.3-gcc/bin/../sparc-gaisler-elf/bsp/leon3/mfix-b2bst/soft/libbcc.a(ambapp_findfirst_fn.c.o)
 .debug_line    0x00000000000025ed      0x201 /home/fsw/rep/tasa/lib/bcc-2.2.3-gcc/bin/../sparc-gaisler-elf/bsp/leon3/mfix-b2bst/soft/libbcc.a(int_irqmp_handle.c.o)
 .debug_line    0x00000000000027ee      0x1f9 /home/fsw/rep/tasa/lib/bcc-2.2.3-gcc/bin/../sparc-gaisler-elf/bsp/leon3/mfix-b2bst/soft/libbcc.a(con_handle.c.o)
 .debug_line    0x00000000000029e7      0x1f9 /home/fsw/rep/tasa/lib/bcc-2.2.3-gcc/bin/../sparc-gaisler-elf/bsp/leon3/mfix-b2bst/soft/libbcc.a(timer_handle.c.o)
 .debug_line    0x0000000000002be0       0xd1 /home/fsw/rep/tasa/lib/bcc-2.2.3-gcc/bin/../lib/gcc/sparc-gaisler-elf/10.2.0/../../../../sparc-gaisler-elf/lib/mfix-b2bst/soft/libc.a(lib_a-atexit.o)
 .debug_line    0x0000000000002cb1      0x1fa /home/fsw/rep/tasa/lib/bcc-2.2.3-gcc/bin/../lib/gcc/sparc-gaisler-elf/10.2.0/../../../../sparc-gaisler-elf/lib/mfix-b2bst/soft/libc.a(lib_a-exit.o)
 .debug_line    0x0000000000002eab      0x16e /home/fsw/rep/tasa/lib/bcc-2.2.3-gcc/bin/../lib/gcc/sparc-gaisler-elf/10.2.0/../../../../sparc-gaisler-elf/lib/mfix-b2bst/soft/libc.a(lib_a-impure.o)
 .debug_line    0x0000000000003019      0x261 /home/fsw/rep/tasa/lib/bcc-2.2.3-gcc/bin/../lib/gcc/sparc-gaisler-elf/10.2.0/../../../../sparc-gaisler-elf/lib/mfix-b2bst/soft/libc.a(lib_a-memcpy.o)
 .debug_line    0x000000000000327a      0x308 /home/fsw/rep/tasa/lib/bcc-2.2.3-gcc/bin/../lib/gcc/sparc-gaisler-elf/10.2.0/../../../../sparc-gaisler-elf/lib/mfix-b2bst/soft/libc.a(lib_a-printf.o)
 .debug_line    0x0000000000003582      0x25d /home/fsw/rep/tasa/lib/bcc-2.2.3-gcc/bin/../lib/gcc/sparc-gaisler-elf/10.2.0/../../../../sparc-gaisler-elf/lib/mfix-b2bst/soft/libc.a(lib_a-putchar.o)
 .debug_line    0x00000000000037df      0x3bf /home/fsw/rep/tasa/lib/bcc-2.2.3-gcc/bin/../lib/gcc/sparc-gaisler-elf/10.2.0/../../../../sparc-gaisler-elf/lib/mfix-b2bst/soft/libc.a(lib_a-puts.o)
 .debug_line    0x0000000000003b9e      0x1db /home/fsw/rep/tasa/lib/bcc-2.2.3-gcc/bin/../lib/gcc/sparc-gaisler-elf/10.2.0/../../../../sparc-gaisler-elf/lib/mfix-b2bst/soft/libc.a(lib_a-strlen.o)
 .debug_line    0x0000000000003d79     0x1f42 /home/fsw/rep/tasa/lib/bcc-2.2.3-gcc/bin/../lib/gcc/sparc-gaisler-elf/10.2.0/../../../../sparc-gaisler-elf/lib/mfix-b2bst/soft/libc.a(lib_a-vfprintf.o)
 .debug_line    0x0000000000005cbb      0x398 /home/fsw/rep/tasa/lib/bcc-2.2.3-gcc/bin/../lib/gcc/sparc-gaisler-elf/10.2.0/../../../../sparc-gaisler-elf/lib/mfix-b2bst/soft/libc.a(lib_a-wsetup.o)
 .debug_line    0x0000000000006053      0x23f /home/fsw/rep/tasa/lib/bcc-2.2.3-gcc/bin/../lib/gcc/sparc-gaisler-elf/10.2.0/../../../../sparc-gaisler-elf/lib/mfix-b2bst/soft/libc.a(lib_a-__atexit.o)
 .debug_line    0x0000000000006292      0x326 /home/fsw/rep/tasa/lib/bcc-2.2.3-gcc/bin/../lib/gcc/sparc-gaisler-elf/10.2.0/../../../../sparc-gaisler-elf/lib/mfix-b2bst/soft/libc.a(lib_a-__call_atexit.o)
 .debug_line    0x00000000000065b8     0x1448 /home/fsw/rep/tasa/lib/bcc-2.2.3-gcc/bin/../lib/gcc/sparc-gaisler-elf/10.2.0/../../../../sparc-gaisler-elf/lib/mfix-b2bst/soft/libc.a(lib_a-dtoa.o)
 .debug_line    0x0000000000007a00      0x4f4 /home/fsw/rep/tasa/lib/bcc-2.2.3-gcc/bin/../lib/gcc/sparc-gaisler-elf/10.2.0/../../../../sparc-gaisler-elf/lib/mfix-b2bst/soft/libc.a(lib_a-fflush.o)
 .debug_line    0x0000000000007ef4      0x580 /home/fsw/rep/tasa/lib/bcc-2.2.3-gcc/bin/../lib/gcc/sparc-gaisler-elf/10.2.0/../../../../sparc-gaisler-elf/lib/mfix-b2bst/soft/libc.a(lib_a-findfp.o)
 .debug_line    0x0000000000008474      0x529 /home/fsw/rep/tasa/lib/bcc-2.2.3-gcc/bin/../lib/gcc/sparc-gaisler-elf/10.2.0/../../../../sparc-gaisler-elf/lib/mfix-b2bst/soft/libc.a(lib_a-freer.o)
 .debug_line    0x000000000000899d      0x645 /home/fsw/rep/tasa/lib/bcc-2.2.3-gcc/bin/../lib/gcc/sparc-gaisler-elf/10.2.0/../../../../sparc-gaisler-elf/lib/mfix-b2bst/soft/libc.a(lib_a-fvwrite.o)
 .debug_line    0x0000000000008fe2      0x2e5 /home/fsw/rep/tasa/lib/bcc-2.2.3-gcc/bin/../lib/gcc/sparc-gaisler-elf/10.2.0/../../../../sparc-gaisler-elf/lib/mfix-b2bst/soft/libc.a(lib_a-fwalk.o)
 .debug_line    0x00000000000092c7      0x2bd /home/fsw/rep/tasa/lib/bcc-2.2.3-gcc/bin/../lib/gcc/sparc-gaisler-elf/10.2.0/../../../../sparc-gaisler-elf/lib/mfix-b2bst/soft/libc.a(lib_a-localeconv.o)
 .debug_line    0x0000000000009584      0x3a0 /home/fsw/rep/tasa/lib/bcc-2.2.3-gcc/bin/../lib/gcc/sparc-gaisler-elf/10.2.0/../../../../sparc-gaisler-elf/lib/mfix-b2bst/soft/libc.a(lib_a-makebuf.o)
 .debug_line    0x0000000000009924      0x1da /home/fsw/rep/tasa/lib/bcc-2.2.3-gcc/bin/../lib/gcc/sparc-gaisler-elf/10.2.0/../../../../sparc-gaisler-elf/lib/mfix-b2bst/soft/libc.a(lib_a-malloc.o)
 .debug_line    0x0000000000009afe      0x850 /home/fsw/rep/tasa/lib/bcc-2.2.3-gcc/bin/../lib/gcc/sparc-gaisler-elf/10.2.0/../../../../sparc-gaisler-elf/lib/mfix-b2bst/soft/libc.a(lib_a-mallocr.o)
 .debug_line    0x000000000000a34e      0x21f /home/fsw/rep/tasa/lib/bcc-2.2.3-gcc/bin/../lib/gcc/sparc-gaisler-elf/10.2.0/../../../../sparc-gaisler-elf/lib/mfix-b2bst/soft/libc.a(lib_a-memchr.o)
 .debug_line    0x000000000000a56d      0x2ba /home/fsw/rep/tasa/lib/bcc-2.2.3-gcc/bin/../lib/gcc/sparc-gaisler-elf/10.2.0/../../../../sparc-gaisler-elf/lib/mfix-b2bst/soft/libc.a(lib_a-memmove.o)
 .debug_line    0x000000000000a827      0x278 /home/fsw/rep/tasa/lib/bcc-2.2.3-gcc/bin/../lib/gcc/sparc-gaisler-elf/10.2.0/../../../../sparc-gaisler-elf/lib/mfix-b2bst/soft/libc.a(lib_a-memset.o)
 .debug_line    0x000000000000aa9f      0x180 /home/fsw/rep/tasa/lib/bcc-2.2.3-gcc/bin/../lib/gcc/sparc-gaisler-elf/10.2.0/../../../../sparc-gaisler-elf/lib/mfix-b2bst/soft/libc.a(lib_a-mlock.o)
 .debug_line    0x000000000000ac1f     0x1a4c /home/fsw/rep/tasa/lib/bcc-2.2.3-gcc/bin/../lib/gcc/sparc-gaisler-elf/10.2.0/../../../../sparc-gaisler-elf/lib/mfix-b2bst/soft/libc.a(lib_a-mprec.o)
 .debug_line    0x000000000000c66b      0x35b /home/fsw/rep/tasa/lib/bcc-2.2.3-gcc/bin/../lib/gcc/sparc-gaisler-elf/10.2.0/../../../../sparc-gaisler-elf/lib/mfix-b2bst/soft/libc.a(lib_a-putc.o)
 .debug_line    0x000000000000c9c6      0x6e5 /home/fsw/rep/tasa/lib/bcc-2.2.3-gcc/bin/../lib/gcc/sparc-gaisler-elf/10.2.0/../../../../sparc-gaisler-elf/lib/mfix-b2bst/soft/libc.a(lib_a-reallocr.o)
 .debug_line    0x000000000000d0ab      0x1ed /home/fsw/rep/tasa/lib/bcc-2.2.3-gcc/bin/../lib/gcc/sparc-gaisler-elf/10.2.0/../../../../sparc-gaisler-elf/lib/mfix-b2bst/soft/libc.a(lib_a-s_frexp.o)
 .debug_line    0x000000000000d298      0x1f6 /home/fsw/rep/tasa/lib/bcc-2.2.3-gcc/bin/../lib/gcc/sparc-gaisler-elf/10.2.0/../../../../sparc-gaisler-elf/lib/mfix-b2bst/soft/libc.a(lib_a-sbrkr.o)
 .debug_line    0x000000000000d48e      0x2b1 /home/fsw/rep/tasa/lib/bcc-2.2.3-gcc/bin/../lib/gcc/sparc-gaisler-elf/10.2.0/../../../../sparc-gaisler-elf/lib/mfix-b2bst/soft/libc.a(lib_a-stdio.o)
 .debug_line    0x000000000000d73f      0x293 /home/fsw/rep/tasa/lib/bcc-2.2.3-gcc/bin/../lib/gcc/sparc-gaisler-elf/10.2.0/../../../../sparc-gaisler-elf/lib/mfix-b2bst/soft/libc.a(lib_a-strncpy.o)
 .debug_line    0x000000000000d9d2     0x1abb /home/fsw/rep/tasa/lib/bcc-2.2.3-gcc/bin/../lib/gcc/sparc-gaisler-elf/10.2.0/../../../../sparc-gaisler-elf/lib/mfix-b2bst/soft/libc.a(lib_a-vfiprintf.o)
 .debug_line    0x000000000000f48d      0x441 /home/fsw/rep/tasa/lib/bcc-2.2.3-gcc/bin/../lib/gcc/sparc-gaisler-elf/10.2.0/../../../../sparc-gaisler-elf/lib/mfix-b2bst/soft/libc.a(lib_a-wbuf.o)
 .debug_line    0x000000000000f8ce      0x208 /home/fsw/rep/tasa/lib/bcc-2.2.3-gcc/bin/../lib/gcc/sparc-gaisler-elf/10.2.0/../../../../sparc-gaisler-elf/lib/mfix-b2bst/soft/libc.a(lib_a-writer.o)
 .debug_line    0x000000000000fad6      0x24e /home/fsw/rep/tasa/lib/bcc-2.2.3-gcc/bin/../lib/gcc/sparc-gaisler-elf/10.2.0/../../../../sparc-gaisler-elf/lib/mfix-b2bst/soft/libc.a(lib_a-callocr.o)
 .debug_line    0x000000000000fd24      0x202 /home/fsw/rep/tasa/lib/bcc-2.2.3-gcc/bin/../lib/gcc/sparc-gaisler-elf/10.2.0/../../../../sparc-gaisler-elf/lib/mfix-b2bst/soft/libc.a(lib_a-closer.o)
 .debug_line    0x000000000000ff26      0x3e9 /home/fsw/rep/tasa/lib/bcc-2.2.3-gcc/bin/../lib/gcc/sparc-gaisler-elf/10.2.0/../../../../sparc-gaisler-elf/lib/mfix-b2bst/soft/libc.a(lib_a-fclose.o)
 .debug_line    0x000000000001030f      0x379 /home/fsw/rep/tasa/lib/bcc-2.2.3-gcc/bin/../lib/gcc/sparc-gaisler-elf/10.2.0/../../../../sparc-gaisler-elf/lib/mfix-b2bst/soft/libc.a(lib_a-fputwc.o)
 .debug_line    0x0000000000010688      0x21f /home/fsw/rep/tasa/lib/bcc-2.2.3-gcc/bin/../lib/gcc/sparc-gaisler-elf/10.2.0/../../../../sparc-gaisler-elf/lib/mfix-b2bst/soft/libc.a(lib_a-fstatr.o)
 .debug_line    0x00000000000108a7      0x203 /home/fsw/rep/tasa/lib/bcc-2.2.3-gcc/bin/../lib/gcc/sparc-gaisler-elf/10.2.0/../../../../sparc-gaisler-elf/lib/mfix-b2bst/soft/libc.a(lib_a-isattyr.o)
 .debug_line    0x0000000000010aaa      0x34c /home/fsw/rep/tasa/lib/bcc-2.2.3-gcc/bin/../lib/gcc/sparc-gaisler-elf/10.2.0/../../../../sparc-gaisler-elf/lib/mfix-b2bst/soft/libc.a(lib_a-locale.o)
 .debug_line    0x0000000000010df6      0x208 /home/fsw/rep/tasa/lib/bcc-2.2.3-gcc/bin/../lib/gcc/sparc-gaisler-elf/10.2.0/../../../../sparc-gaisler-elf/lib/mfix-b2bst/soft/libc.a(lib_a-lseekr.o)
 .debug_line    0x0000000000010ffe      0x2bb /home/fsw/rep/tasa/lib/bcc-2.2.3-gcc/bin/../lib/gcc/sparc-gaisler-elf/10.2.0/../../../../sparc-gaisler-elf/lib/mfix-b2bst/soft/libc.a(lib_a-mbtowc_r.o)
 .debug_line    0x00000000000112b9      0x207 /home/fsw/rep/tasa/lib/bcc-2.2.3-gcc/bin/../lib/gcc/sparc-gaisler-elf/10.2.0/../../../../sparc-gaisler-elf/lib/mfix-b2bst/soft/libc.a(lib_a-readr.o)
 .debug_line    0x00000000000114c0      0x3f5 /home/fsw/rep/tasa/lib/bcc-2.2.3-gcc/bin/../lib/gcc/sparc-gaisler-elf/10.2.0/../../../../sparc-gaisler-elf/lib/mfix-b2bst/soft/libc.a(lib_a-reent.o)
 .debug_line    0x00000000000118b5      0x149 /home/fsw/rep/tasa/lib/bcc-2.2.3-gcc/bin/../lib/gcc/sparc-gaisler-elf/10.2.0/../../../../sparc-gaisler-elf/lib/mfix-b2bst/soft/libc.a(lib_a-strcmp.o)
 .debug_line    0x00000000000119fe      0x35e /home/fsw/rep/tasa/lib/bcc-2.2.3-gcc/bin/../lib/gcc/sparc-gaisler-elf/10.2.0/../../../../sparc-gaisler-elf/lib/mfix-b2bst/soft/libc.a(lib_a-wcrtomb.o)
 .debug_line    0x0000000000011d5c      0x2af /home/fsw/rep/tasa/lib/bcc-2.2.3-gcc/bin/../lib/gcc/sparc-gaisler-elf/10.2.0/../../../../sparc-gaisler-elf/lib/mfix-b2bst/soft/libc.a(lib_a-wctomb_r.o)
 .debug_line    0x000000000001200b       0xb6 /home/fsw/rep/tasa/lib/bcc-2.2.3-gcc/bin/../lib/gcc/sparc-gaisler-elf/10.2.0/../../../../sparc-gaisler-elf/lib/mfix-b2bst/soft/libc.a(lib_a-ctype_.o)
 .debug_line    0x00000000000120c1       0x5f /home/fsw/rep/tasa/lib/bcc-2.2.3-gcc/bin/../sparc-gaisler-elf/bsp/leon3/mfix-b2bst/soft/libbcc.a(_exit.S.o)
 .debug_line    0x0000000000012120      0x23e /home/fsw/rep/tasa/lib/bcc-2.2.3-gcc/bin/../sparc-gaisler-elf/bsp/leon3/mfix-b2bst/soft/libbcc.a(read.c.o)
 .debug_line    0x000000000001235e      0x321 /home/fsw/rep/tasa/lib/bcc-2.2.3-gcc/bin/../sparc-gaisler-elf/bsp/leon3/mfix-b2bst/soft/libbcc.a(sbrk.c.o)
 .debug_line    0x000000000001267f      0x1eb /home/fsw/rep/tasa/lib/bcc-2.2.3-gcc/bin/../sparc-gaisler-elf/bsp/leon3/mfix-b2bst/soft/libbcc.a(heap.c.o)
 .debug_line    0x000000000001286a      0x26f /home/fsw/rep/tasa/lib/bcc-2.2.3-gcc/bin/../sparc-gaisler-elf/bsp/leon3/mfix-b2bst/soft/libbcc.a(write.c.o)
 .debug_line    0x0000000000012ad9       0x68 /home/fsw/rep/tasa/lib/bcc-2.2.3-gcc/bin/../sparc-gaisler-elf/bsp/leon3/mfix-b2bst/soft/libbcc.a(stubs.S.o)
 .debug_line    0x0000000000012b41      0x325 /home/fsw/rep/tasa/lib/bcc-2.2.3-gcc/bin/../sparc-gaisler-elf/bsp/leon3/mfix-b2bst/soft/libbcc.a(con_apbuart.c.o)
 .debug_line    0x0000000000012e66       0xaa /home/fsw/rep/tasa/lib/bcc-2.2.3-gcc/bin/../lib/gcc/sparc-gaisler-elf/10.2.0/mfix-b2bst/soft/libgcc.a(_mulsi3.o)
 .debug_line    0x0000000000012f10      0x11f /home/fsw/rep/tasa/lib/bcc-2.2.3-gcc/bin/../lib/gcc/sparc-gaisler-elf/10.2.0/mfix-b2bst/soft/libgcc.a(_divsi3.o)
 .debug_line    0x000000000001302f      0x11f /home/fsw/rep/tasa/lib/bcc-2.2.3-gcc/bin/../lib/gcc/sparc-gaisler-elf/10.2.0/mfix-b2bst/soft/libgcc.a(_modsi3.o)
 .debug_line    0x000000000001314e      0x182 /home/fsw/rep/tasa/lib/bcc-2.2.3-gcc/bin/../lib/gcc/sparc-gaisler-elf/10.2.0/mfix-b2bst/soft/libgcc.a(_udivdi3.o)
 .debug_line    0x00000000000132d0      0x1e5 /home/fsw/rep/tasa/lib/bcc-2.2.3-gcc/bin/../lib/gcc/sparc-gaisler-elf/10.2.0/mfix-b2bst/soft/libgcc.a(_umoddi3.o)
 .debug_line    0x00000000000134b5      0x602 /home/fsw/rep/tasa/lib/bcc-2.2.3-gcc/bin/../lib/gcc/sparc-gaisler-elf/10.2.0/mfix-b2bst/soft/libgcc.a(_addsub_df.o)
 .debug_line    0x0000000000013ab7      0x303 /home/fsw/rep/tasa/lib/bcc-2.2.3-gcc/bin/../lib/gcc/sparc-gaisler-elf/10.2.0/mfix-b2bst/soft/libgcc.a(_mul_df.o)
 .debug_line    0x0000000000013dba      0x259 /home/fsw/rep/tasa/lib/bcc-2.2.3-gcc/bin/../lib/gcc/sparc-gaisler-elf/10.2.0/mfix-b2bst/soft/libgcc.a(_div_df.o)
 .debug_line    0x0000000000014013       0xbe /home/fsw/rep/tasa/lib/bcc-2.2.3-gcc/bin/../lib/gcc/sparc-gaisler-elf/10.2.0/mfix-b2bst/soft/libgcc.a(_eq_df.o)
 .debug_line    0x00000000000140d1       0xbe /home/fsw/rep/tasa/lib/bcc-2.2.3-gcc/bin/../lib/gcc/sparc-gaisler-elf/10.2.0/mfix-b2bst/soft/libgcc.a(_ne_df.o)
 .debug_line    0x000000000001418f       0xbe /home/fsw/rep/tasa/lib/bcc-2.2.3-gcc/bin/../lib/gcc/sparc-gaisler-elf/10.2.0/mfix-b2bst/soft/libgcc.a(_gt_df.o)
 .debug_line    0x000000000001424d       0xbe /home/fsw/rep/tasa/lib/bcc-2.2.3-gcc/bin/../lib/gcc/sparc-gaisler-elf/10.2.0/mfix-b2bst/soft/libgcc.a(_lt_df.o)
 .debug_line    0x000000000001430b       0xbe /home/fsw/rep/tasa/lib/bcc-2.2.3-gcc/bin/../lib/gcc/sparc-gaisler-elf/10.2.0/mfix-b2bst/soft/libgcc.a(_le_df.o)
 .debug_line    0x00000000000143c9       0xb6 /home/fsw/rep/tasa/lib/bcc-2.2.3-gcc/bin/../lib/gcc/sparc-gaisler-elf/10.2.0/mfix-b2bst/soft/libgcc.a(_unord_df.o)
 .debug_line    0x000000000001447f      0x135 /home/fsw/rep/tasa/lib/bcc-2.2.3-gcc/bin/../lib/gcc/sparc-gaisler-elf/10.2.0/mfix-b2bst/soft/libgcc.a(_si_to_df.o)
 .debug_line    0x00000000000145b4       0xef /home/fsw/rep/tasa/lib/bcc-2.2.3-gcc/bin/../lib/gcc/sparc-gaisler-elf/10.2.0/mfix-b2bst/soft/libgcc.a(_df_to_si.o)
 .debug_line    0x00000000000146a3       0x61 /home/fsw/rep/tasa/lib/bcc-2.2.3-gcc/bin/../lib/gcc/sparc-gaisler-elf/10.2.0/mfix-b2bst/soft/libgcc.a(_thenan_df.o)
 .debug_line    0x0000000000014704       0xdb /home/fsw/rep/tasa/lib/bcc-2.2.3-gcc/bin/../lib/gcc/sparc-gaisler-elf/10.2.0/mfix-b2bst/soft/libgcc.a(_usi_to_df.o)
 .debug_line    0x00000000000147df       0xa1 /home/fsw/rep/tasa/lib/bcc-2.2.3-gcc/bin/../lib/gcc/sparc-gaisler-elf/10.2.0/mfix-b2bst/soft/libgcc.a(_muldi3.o)
 .debug_line    0x0000000000014880       0x63 /home/fsw/rep/tasa/lib/bcc-2.2.3-gcc/bin/../lib/gcc/sparc-gaisler-elf/10.2.0/mfix-b2bst/soft/libgcc.a(_clz.o)
 .debug_line    0x00000000000148e3       0xe0 /home/fsw/rep/tasa/lib/bcc-2.2.3-gcc/bin/../lib/gcc/sparc-gaisler-elf/10.2.0/mfix-b2bst/soft/libgcc.a(_clzsi2.o)
 .debug_line    0x00000000000149c3      0x29b /home/fsw/rep/tasa/lib/bcc-2.2.3-gcc/bin/../lib/gcc/sparc-gaisler-elf/10.2.0/mfix-b2bst/soft/libgcc.a(_pack_df.o)
 .debug_line    0x0000000000014c5e      0x156 /home/fsw/rep/tasa/lib/bcc-2.2.3-gcc/bin/../lib/gcc/sparc-gaisler-elf/10.2.0/mfix-b2bst/soft/libgcc.a(_unpack_df.o)
 .debug_line    0x0000000000014db4      0x194 /home/fsw/rep/tasa/lib/bcc-2.2.3-gcc/bin/../lib/gcc/sparc-gaisler-elf/10.2.0/mfix-b2bst/soft/libgcc.a(_fpcmp_parts_df.o)

.debug_frame    0x0000000000000000     0x1104
 *(.debug_frame)
 .debug_frame   0x0000000000000000       0x28 /tmp/ccjQJ0Dl.o
 .debug_frame   0x0000000000000028       0x20 /home/fsw/rep/tasa/lib/bcc-2.2.3-gcc/bin/../sparc-gaisler-elf/bsp/leon3/mfix-b2bst/soft/libbcc.a(copy_data.c.o)
 .debug_frame   0x0000000000000048       0x20 /home/fsw/rep/tasa/lib/bcc-2.2.3-gcc/bin/../sparc-gaisler-elf/bsp/leon3/mfix-b2bst/soft/libbcc.a(int_irqmp_get_source.c.o)
 .debug_frame   0x0000000000000068       0x40 /home/fsw/rep/tasa/lib/bcc-2.2.3-gcc/bin/../sparc-gaisler-elf/bsp/leon3/mfix-b2bst/soft/libbcc.a(int_irqmp_mp.c.o)
 .debug_frame   0x00000000000000a8       0x28 /home/fsw/rep/tasa/lib/bcc-2.2.3-gcc/bin/../sparc-gaisler-elf/bsp/leon3/mfix-b2bst/soft/libbcc.a(int_irqmp_init.c.o)
 .debug_frame   0x00000000000000d0       0x28 /home/fsw/rep/tasa/lib/bcc-2.2.3-gcc/bin/../sparc-gaisler-elf/bsp/leon3/mfix-b2bst/soft/libbcc.a(con_apbuart_init.c.o)
 .debug_frame   0x00000000000000f8       0x28 /home/fsw/rep/tasa/lib/bcc-2.2.3-gcc/bin/../sparc-gaisler-elf/bsp/leon3/mfix-b2bst/soft/libbcc.a(timer_gptimer_init.c.o)
 .debug_frame   0x0000000000000120       0x60 /home/fsw/rep/tasa/lib/bcc-2.2.3-gcc/bin/../sparc-gaisler-elf/bsp/leon3/mfix-b2bst/soft/libbcc.a(ambapp.c.o)
 .debug_frame   0x0000000000000180       0x28 /home/fsw/rep/tasa/lib/bcc-2.2.3-gcc/bin/../sparc-gaisler-elf/bsp/leon3/mfix-b2bst/soft/libbcc.a(ambapp_findfirst_fn.c.o)
 .debug_frame   0x00000000000001a8       0x20 /home/fsw/rep/tasa/lib/bcc-2.2.3-gcc/bin/../lib/gcc/sparc-gaisler-elf/10.2.0/../../../../sparc-gaisler-elf/lib/mfix-b2bst/soft/libc.a(lib_a-atexit.o)
 .debug_frame   0x00000000000001c8       0x28 /home/fsw/rep/tasa/lib/bcc-2.2.3-gcc/bin/../lib/gcc/sparc-gaisler-elf/10.2.0/../../../../sparc-gaisler-elf/lib/mfix-b2bst/soft/libc.a(lib_a-exit.o)
 .debug_frame   0x00000000000001f0       0x28 /home/fsw/rep/tasa/lib/bcc-2.2.3-gcc/bin/../lib/gcc/sparc-gaisler-elf/10.2.0/../../../../sparc-gaisler-elf/lib/mfix-b2bst/soft/libc.a(lib_a-memcpy.o)
 .debug_frame   0x0000000000000218       0x40 /home/fsw/rep/tasa/lib/bcc-2.2.3-gcc/bin/../lib/gcc/sparc-gaisler-elf/10.2.0/../../../../sparc-gaisler-elf/lib/mfix-b2bst/soft/libc.a(lib_a-printf.o)
 .debug_frame   0x0000000000000258       0x40 /home/fsw/rep/tasa/lib/bcc-2.2.3-gcc/bin/../lib/gcc/sparc-gaisler-elf/10.2.0/../../../../sparc-gaisler-elf/lib/mfix-b2bst/soft/libc.a(lib_a-putchar.o)
 .debug_frame   0x0000000000000298       0x40 /home/fsw/rep/tasa/lib/bcc-2.2.3-gcc/bin/../lib/gcc/sparc-gaisler-elf/10.2.0/../../../../sparc-gaisler-elf/lib/mfix-b2bst/soft/libc.a(lib_a-puts.o)
 .debug_frame   0x00000000000002d8       0x20 /home/fsw/rep/tasa/lib/bcc-2.2.3-gcc/bin/../lib/gcc/sparc-gaisler-elf/10.2.0/../../../../sparc-gaisler-elf/lib/mfix-b2bst/soft/libc.a(lib_a-strlen.o)
 .debug_frame   0x00000000000002f8       0x50 /home/fsw/rep/tasa/lib/bcc-2.2.3-gcc/bin/../lib/gcc/sparc-gaisler-elf/10.2.0/../../../../sparc-gaisler-elf/lib/mfix-b2bst/soft/libc.a(lib_a-vfprintf.o)
 .debug_frame   0x0000000000000348       0x28 /home/fsw/rep/tasa/lib/bcc-2.2.3-gcc/bin/../lib/gcc/sparc-gaisler-elf/10.2.0/../../../../sparc-gaisler-elf/lib/mfix-b2bst/soft/libc.a(lib_a-wsetup.o)
 .debug_frame   0x0000000000000370       0x28 /home/fsw/rep/tasa/lib/bcc-2.2.3-gcc/bin/../lib/gcc/sparc-gaisler-elf/10.2.0/../../../../sparc-gaisler-elf/lib/mfix-b2bst/soft/libc.a(lib_a-__atexit.o)
 .debug_frame   0x0000000000000398       0x28 /home/fsw/rep/tasa/lib/bcc-2.2.3-gcc/bin/../lib/gcc/sparc-gaisler-elf/10.2.0/../../../../sparc-gaisler-elf/lib/mfix-b2bst/soft/libc.a(lib_a-__call_atexit.o)
 .debug_frame   0x00000000000003c0       0x40 /home/fsw/rep/tasa/lib/bcc-2.2.3-gcc/bin/../lib/gcc/sparc-gaisler-elf/10.2.0/../../../../sparc-gaisler-elf/lib/mfix-b2bst/soft/libc.a(lib_a-dtoa.o)
 .debug_frame   0x0000000000000400       0x58 /home/fsw/rep/tasa/lib/bcc-2.2.3-gcc/bin/../lib/gcc/sparc-gaisler-elf/10.2.0/../../../../sparc-gaisler-elf/lib/mfix-b2bst/soft/libc.a(lib_a-fflush.o)
 .debug_frame   0x0000000000000458       0x88 /home/fsw/rep/tasa/lib/bcc-2.2.3-gcc/bin/../lib/gcc/sparc-gaisler-elf/10.2.0/../../../../sparc-gaisler-elf/lib/mfix-b2bst/soft/libc.a(lib_a-findfp.o)
 .debug_frame   0x00000000000004e0       0x40 /home/fsw/rep/tasa/lib/bcc-2.2.3-gcc/bin/../lib/gcc/sparc-gaisler-elf/10.2.0/../../../../sparc-gaisler-elf/lib/mfix-b2bst/soft/libc.a(lib_a-freer.o)
 .debug_frame   0x0000000000000520       0x28 /home/fsw/rep/tasa/lib/bcc-2.2.3-gcc/bin/../lib/gcc/sparc-gaisler-elf/10.2.0/../../../../sparc-gaisler-elf/lib/mfix-b2bst/soft/libc.a(lib_a-fvwrite.o)
 .debug_frame   0x0000000000000548       0x40 /home/fsw/rep/tasa/lib/bcc-2.2.3-gcc/bin/../lib/gcc/sparc-gaisler-elf/10.2.0/../../../../sparc-gaisler-elf/lib/mfix-b2bst/soft/libc.a(lib_a-fwalk.o)
 .debug_frame   0x0000000000000588       0x40 /home/fsw/rep/tasa/lib/bcc-2.2.3-gcc/bin/../lib/gcc/sparc-gaisler-elf/10.2.0/../../../../sparc-gaisler-elf/lib/mfix-b2bst/soft/libc.a(lib_a-localeconv.o)
 .debug_frame   0x00000000000005c8       0x40 /home/fsw/rep/tasa/lib/bcc-2.2.3-gcc/bin/../lib/gcc/sparc-gaisler-elf/10.2.0/../../../../sparc-gaisler-elf/lib/mfix-b2bst/soft/libc.a(lib_a-makebuf.o)
 .debug_frame   0x0000000000000608       0x30 /home/fsw/rep/tasa/lib/bcc-2.2.3-gcc/bin/../lib/gcc/sparc-gaisler-elf/10.2.0/../../../../sparc-gaisler-elf/lib/mfix-b2bst/soft/libc.a(lib_a-malloc.o)
 .debug_frame   0x0000000000000638       0x28 /home/fsw/rep/tasa/lib/bcc-2.2.3-gcc/bin/../lib/gcc/sparc-gaisler-elf/10.2.0/../../../../sparc-gaisler-elf/lib/mfix-b2bst/soft/libc.a(lib_a-mallocr.o)
 .debug_frame   0x0000000000000660       0x20 /home/fsw/rep/tasa/lib/bcc-2.2.3-gcc/bin/../lib/gcc/sparc-gaisler-elf/10.2.0/../../../../sparc-gaisler-elf/lib/mfix-b2bst/soft/libc.a(lib_a-memchr.o)
 .debug_frame   0x0000000000000680       0x20 /home/fsw/rep/tasa/lib/bcc-2.2.3-gcc/bin/../lib/gcc/sparc-gaisler-elf/10.2.0/../../../../sparc-gaisler-elf/lib/mfix-b2bst/soft/libc.a(lib_a-memmove.o)
 .debug_frame   0x00000000000006a0       0x20 /home/fsw/rep/tasa/lib/bcc-2.2.3-gcc/bin/../lib/gcc/sparc-gaisler-elf/10.2.0/../../../../sparc-gaisler-elf/lib/mfix-b2bst/soft/libc.a(lib_a-memset.o)
 .debug_frame   0x00000000000006c0       0x30 /home/fsw/rep/tasa/lib/bcc-2.2.3-gcc/bin/../lib/gcc/sparc-gaisler-elf/10.2.0/../../../../sparc-gaisler-elf/lib/mfix-b2bst/soft/libc.a(lib_a-mlock.o)
 .debug_frame   0x00000000000006f0      0x1a8 /home/fsw/rep/tasa/lib/bcc-2.2.3-gcc/bin/../lib/gcc/sparc-gaisler-elf/10.2.0/../../../../sparc-gaisler-elf/lib/mfix-b2bst/soft/libc.a(lib_a-mprec.o)
 .debug_frame   0x0000000000000898       0x40 /home/fsw/rep/tasa/lib/bcc-2.2.3-gcc/bin/../lib/gcc/sparc-gaisler-elf/10.2.0/../../../../sparc-gaisler-elf/lib/mfix-b2bst/soft/libc.a(lib_a-putc.o)
 .debug_frame   0x00000000000008d8       0x28 /home/fsw/rep/tasa/lib/bcc-2.2.3-gcc/bin/../lib/gcc/sparc-gaisler-elf/10.2.0/../../../../sparc-gaisler-elf/lib/mfix-b2bst/soft/libc.a(lib_a-reallocr.o)
 .debug_frame   0x0000000000000900       0x28 /home/fsw/rep/tasa/lib/bcc-2.2.3-gcc/bin/../lib/gcc/sparc-gaisler-elf/10.2.0/../../../../sparc-gaisler-elf/lib/mfix-b2bst/soft/libc.a(lib_a-s_frexp.o)
 .debug_frame   0x0000000000000928       0x28 /home/fsw/rep/tasa/lib/bcc-2.2.3-gcc/bin/../lib/gcc/sparc-gaisler-elf/10.2.0/../../../../sparc-gaisler-elf/lib/mfix-b2bst/soft/libc.a(lib_a-sbrkr.o)
 .debug_frame   0x0000000000000950       0x78 /home/fsw/rep/tasa/lib/bcc-2.2.3-gcc/bin/../lib/gcc/sparc-gaisler-elf/10.2.0/../../../../sparc-gaisler-elf/lib/mfix-b2bst/soft/libc.a(lib_a-stdio.o)
 .debug_frame   0x00000000000009c8       0x20 /home/fsw/rep/tasa/lib/bcc-2.2.3-gcc/bin/../lib/gcc/sparc-gaisler-elf/10.2.0/../../../../sparc-gaisler-elf/lib/mfix-b2bst/soft/libc.a(lib_a-strncpy.o)
 .debug_frame   0x00000000000009e8       0x68 /home/fsw/rep/tasa/lib/bcc-2.2.3-gcc/bin/../lib/gcc/sparc-gaisler-elf/10.2.0/../../../../sparc-gaisler-elf/lib/mfix-b2bst/soft/libc.a(lib_a-vfiprintf.o)
 .debug_frame   0x0000000000000a50       0x40 /home/fsw/rep/tasa/lib/bcc-2.2.3-gcc/bin/../lib/gcc/sparc-gaisler-elf/10.2.0/../../../../sparc-gaisler-elf/lib/mfix-b2bst/soft/libc.a(lib_a-wbuf.o)
 .debug_frame   0x0000000000000a90       0x28 /home/fsw/rep/tasa/lib/bcc-2.2.3-gcc/bin/../lib/gcc/sparc-gaisler-elf/10.2.0/../../../../sparc-gaisler-elf/lib/mfix-b2bst/soft/libc.a(lib_a-writer.o)
 .debug_frame   0x0000000000000ab8       0x28 /home/fsw/rep/tasa/lib/bcc-2.2.3-gcc/bin/../lib/gcc/sparc-gaisler-elf/10.2.0/../../../../sparc-gaisler-elf/lib/mfix-b2bst/soft/libc.a(lib_a-callocr.o)
 .debug_frame   0x0000000000000ae0       0x28 /home/fsw/rep/tasa/lib/bcc-2.2.3-gcc/bin/../lib/gcc/sparc-gaisler-elf/10.2.0/../../../../sparc-gaisler-elf/lib/mfix-b2bst/soft/libc.a(lib_a-closer.o)
 .debug_frame   0x0000000000000b08       0x40 /home/fsw/rep/tasa/lib/bcc-2.2.3-gcc/bin/../lib/gcc/sparc-gaisler-elf/10.2.0/../../../../sparc-gaisler-elf/lib/mfix-b2bst/soft/libc.a(lib_a-fclose.o)
 .debug_frame   0x0000000000000b48       0x50 /home/fsw/rep/tasa/lib/bcc-2.2.3-gcc/bin/../lib/gcc/sparc-gaisler-elf/10.2.0/../../../../sparc-gaisler-elf/lib/mfix-b2bst/soft/libc.a(lib_a-fputwc.o)
 .debug_frame   0x0000000000000b98       0x28 /home/fsw/rep/tasa/lib/bcc-2.2.3-gcc/bin/../lib/gcc/sparc-gaisler-elf/10.2.0/../../../../sparc-gaisler-elf/lib/mfix-b2bst/soft/libc.a(lib_a-fstatr.o)
 .debug_frame   0x0000000000000bc0       0x28 /home/fsw/rep/tasa/lib/bcc-2.2.3-gcc/bin/../lib/gcc/sparc-gaisler-elf/10.2.0/../../../../sparc-gaisler-elf/lib/mfix-b2bst/soft/libc.a(lib_a-isattyr.o)
 .debug_frame   0x0000000000000be8       0x70 /home/fsw/rep/tasa/lib/bcc-2.2.3-gcc/bin/../lib/gcc/sparc-gaisler-elf/10.2.0/../../../../sparc-gaisler-elf/lib/mfix-b2bst/soft/libc.a(lib_a-locale.o)
 .debug_frame   0x0000000000000c58       0x28 /home/fsw/rep/tasa/lib/bcc-2.2.3-gcc/bin/../lib/gcc/sparc-gaisler-elf/10.2.0/../../../../sparc-gaisler-elf/lib/mfix-b2bst/soft/libc.a(lib_a-lseekr.o)
 .debug_frame   0x0000000000000c80       0x3c /home/fsw/rep/tasa/lib/bcc-2.2.3-gcc/bin/../lib/gcc/sparc-gaisler-elf/10.2.0/../../../../sparc-gaisler-elf/lib/mfix-b2bst/soft/libc.a(lib_a-mbtowc_r.o)
 .debug_frame   0x0000000000000cbc       0x28 /home/fsw/rep/tasa/lib/bcc-2.2.3-gcc/bin/../lib/gcc/sparc-gaisler-elf/10.2.0/../../../../sparc-gaisler-elf/lib/mfix-b2bst/soft/libc.a(lib_a-readr.o)
 .debug_frame   0x0000000000000ce4       0x40 /home/fsw/rep/tasa/lib/bcc-2.2.3-gcc/bin/../lib/gcc/sparc-gaisler-elf/10.2.0/../../../../sparc-gaisler-elf/lib/mfix-b2bst/soft/libc.a(lib_a-reent.o)
 .debug_frame   0x0000000000000d24       0x20 /home/fsw/rep/tasa/lib/bcc-2.2.3-gcc/bin/../lib/gcc/sparc-gaisler-elf/10.2.0/../../../../sparc-gaisler-elf/lib/mfix-b2bst/soft/libc.a(lib_a-strcmp.o)
 .debug_frame   0x0000000000000d44       0x40 /home/fsw/rep/tasa/lib/bcc-2.2.3-gcc/bin/../lib/gcc/sparc-gaisler-elf/10.2.0/../../../../sparc-gaisler-elf/lib/mfix-b2bst/soft/libc.a(lib_a-wcrtomb.o)
 .debug_frame   0x0000000000000d84       0x38 /home/fsw/rep/tasa/lib/bcc-2.2.3-gcc/bin/../lib/gcc/sparc-gaisler-elf/10.2.0/../../../../sparc-gaisler-elf/lib/mfix-b2bst/soft/libc.a(lib_a-wctomb_r.o)
 .debug_frame   0x0000000000000dbc       0x28 /home/fsw/rep/tasa/lib/bcc-2.2.3-gcc/bin/../sparc-gaisler-elf/bsp/leon3/mfix-b2bst/soft/libbcc.a(read.c.o)
 .debug_frame   0x0000000000000de4       0x20 /home/fsw/rep/tasa/lib/bcc-2.2.3-gcc/bin/../sparc-gaisler-elf/bsp/leon3/mfix-b2bst/soft/libbcc.a(sbrk.c.o)
 .debug_frame   0x0000000000000e04       0x28 /home/fsw/rep/tasa/lib/bcc-2.2.3-gcc/bin/../sparc-gaisler-elf/bsp/leon3/mfix-b2bst/soft/libbcc.a(write.c.o)
 .debug_frame   0x0000000000000e2c       0x30 /home/fsw/rep/tasa/lib/bcc-2.2.3-gcc/bin/../sparc-gaisler-elf/bsp/leon3/mfix-b2bst/soft/libbcc.a(con_apbuart.c.o)
 .debug_frame   0x0000000000000e5c       0x40 /home/fsw/rep/tasa/lib/bcc-2.2.3-gcc/bin/../lib/gcc/sparc-gaisler-elf/10.2.0/mfix-b2bst/soft/libgcc.a(_addsub_df.o)
 .debug_frame   0x0000000000000e9c       0x28 /home/fsw/rep/tasa/lib/bcc-2.2.3-gcc/bin/../lib/gcc/sparc-gaisler-elf/10.2.0/mfix-b2bst/soft/libgcc.a(_mul_df.o)
 .debug_frame   0x0000000000000ec4       0x28 /home/fsw/rep/tasa/lib/bcc-2.2.3-gcc/bin/../lib/gcc/sparc-gaisler-elf/10.2.0/mfix-b2bst/soft/libgcc.a(_div_df.o)
 .debug_frame   0x0000000000000eec       0x28 /home/fsw/rep/tasa/lib/bcc-2.2.3-gcc/bin/../lib/gcc/sparc-gaisler-elf/10.2.0/mfix-b2bst/soft/libgcc.a(_eq_df.o)
 .debug_frame   0x0000000000000f14       0x28 /home/fsw/rep/tasa/lib/bcc-2.2.3-gcc/bin/../lib/gcc/sparc-gaisler-elf/10.2.0/mfix-b2bst/soft/libgcc.a(_ne_df.o)
 .debug_frame   0x0000000000000f3c       0x28 /home/fsw/rep/tasa/lib/bcc-2.2.3-gcc/bin/../lib/gcc/sparc-gaisler-elf/10.2.0/mfix-b2bst/soft/libgcc.a(_gt_df.o)
 .debug_frame   0x0000000000000f64       0x28 /home/fsw/rep/tasa/lib/bcc-2.2.3-gcc/bin/../lib/gcc/sparc-gaisler-elf/10.2.0/mfix-b2bst/soft/libgcc.a(_lt_df.o)
 .debug_frame   0x0000000000000f8c       0x28 /home/fsw/rep/tasa/lib/bcc-2.2.3-gcc/bin/../lib/gcc/sparc-gaisler-elf/10.2.0/mfix-b2bst/soft/libgcc.a(_le_df.o)
 .debug_frame   0x0000000000000fb4       0x28 /home/fsw/rep/tasa/lib/bcc-2.2.3-gcc/bin/../lib/gcc/sparc-gaisler-elf/10.2.0/mfix-b2bst/soft/libgcc.a(_unord_df.o)
 .debug_frame   0x0000000000000fdc       0x28 /home/fsw/rep/tasa/lib/bcc-2.2.3-gcc/bin/../lib/gcc/sparc-gaisler-elf/10.2.0/mfix-b2bst/soft/libgcc.a(_si_to_df.o)
 .debug_frame   0x0000000000001004       0x28 /home/fsw/rep/tasa/lib/bcc-2.2.3-gcc/bin/../lib/gcc/sparc-gaisler-elf/10.2.0/mfix-b2bst/soft/libgcc.a(_df_to_si.o)
 .debug_frame   0x000000000000102c       0x28 /home/fsw/rep/tasa/lib/bcc-2.2.3-gcc/bin/../lib/gcc/sparc-gaisler-elf/10.2.0/mfix-b2bst/soft/libgcc.a(_usi_to_df.o)
 .debug_frame   0x0000000000001054       0x28 /home/fsw/rep/tasa/lib/bcc-2.2.3-gcc/bin/../lib/gcc/sparc-gaisler-elf/10.2.0/mfix-b2bst/soft/libgcc.a(_muldi3.o)
 .debug_frame   0x000000000000107c       0x20 /home/fsw/rep/tasa/lib/bcc-2.2.3-gcc/bin/../lib/gcc/sparc-gaisler-elf/10.2.0/mfix-b2bst/soft/libgcc.a(_clzsi2.o)
 .debug_frame   0x000000000000109c       0x28 /home/fsw/rep/tasa/lib/bcc-2.2.3-gcc/bin/../lib/gcc/sparc-gaisler-elf/10.2.0/mfix-b2bst/soft/libgcc.a(_pack_df.o)
 .debug_frame   0x00000000000010c4       0x20 /home/fsw/rep/tasa/lib/bcc-2.2.3-gcc/bin/../lib/gcc/sparc-gaisler-elf/10.2.0/mfix-b2bst/soft/libgcc.a(_unpack_df.o)
 .debug_frame   0x00000000000010e4       0x20 /home/fsw/rep/tasa/lib/bcc-2.2.3-gcc/bin/../lib/gcc/sparc-gaisler-elf/10.2.0/mfix-b2bst/soft/libgcc.a(_fpcmp_parts_df.o)

.debug_str      0x0000000000000000     0x35e4
 *(.debug_str)
 .debug_str     0x0000000000000000       0xb3 /home/fsw/rep/tasa/lib/bcc-2.2.3-gcc/bin/../sparc-gaisler-elf/bsp/leon3/mfix-b2bst/soft/trap_table_mvt.S.o
 .debug_str     0x00000000000000b3       0x2c /home/fsw/rep/tasa/lib/bcc-2.2.3-gcc/bin/../sparc-gaisler-elf/bsp/leon3/mfix-b2bst/soft/crt0.S.o
                                         0xa4 (size before relaxing)
 .debug_str     0x00000000000000df      0x129 /tmp/ccjQJ0Dl.o
                                        0x181 (size before relaxing)
 .debug_str     0x0000000000000208       0x3b /home/fsw/rep/tasa/lib/bcc-2.2.3-gcc/bin/../sparc-gaisler-elf/bsp/leon3/mfix-b2bst/soft/libbcc.a(reset_trap_mvt.S.o)
                                         0xb3 (size before relaxing)
 .debug_str     0x0000000000000243       0x38 /home/fsw/rep/tasa/lib/bcc-2.2.3-gcc/bin/../sparc-gaisler-elf/bsp/leon3/mfix-b2bst/soft/libbcc.a(window_trap.S.o)
                                         0xb0 (size before relaxing)
 .debug_str     0x000000000000027b       0x3b /home/fsw/rep/tasa/lib/bcc-2.2.3-gcc/bin/../sparc-gaisler-elf/bsp/leon3/mfix-b2bst/soft/libbcc.a(interrupt_trap.S.o)
                                         0xb3 (size before relaxing)
 .debug_str     0x00000000000002b6       0x3f /home/fsw/rep/tasa/lib/bcc-2.2.3-gcc/bin/../sparc-gaisler-elf/bsp/leon3/mfix-b2bst/soft/libbcc.a(flush_windows_trap.S.o)
                                         0xb7 (size before relaxing)
 .debug_str     0x00000000000002f5       0x3c /home/fsw/rep/tasa/lib/bcc-2.2.3-gcc/bin/../sparc-gaisler-elf/bsp/leon3/mfix-b2bst/soft/libbcc.a(sw_trap_set_pil.S.o)
                                         0xb4 (size before relaxing)
 .debug_str     0x0000000000000331       0xa7 /home/fsw/rep/tasa/lib/bcc-2.2.3-gcc/bin/../sparc-gaisler-elf/bsp/leon3/mfix-b2bst/soft/libbcc.a(isr.c.o)
                                        0x1a3 (size before relaxing)
 .debug_str     0x00000000000003d8       0x77 /home/fsw/rep/tasa/lib/bcc-2.2.3-gcc/bin/../sparc-gaisler-elf/bsp/leon3/mfix-b2bst/soft/libbcc.a(int_nest.c.o)
                                        0x1bd (size before relaxing)
 .debug_str     0x000000000000044f       0x2c /home/fsw/rep/tasa/lib/bcc-2.2.3-gcc/bin/../sparc-gaisler-elf/bsp/leon3/mfix-b2bst/soft/libbcc.a(init.S.o)
                                         0xa4 (size before relaxing)
 .debug_str     0x000000000000047b       0x31 /home/fsw/rep/tasa/lib/bcc-2.2.3-gcc/bin/../sparc-gaisler-elf/bsp/leon3/mfix-b2bst/soft/libbcc.a(leon_info.S.o)
                                         0xa9 (size before relaxing)
 .debug_str     0x00000000000004ac       0x2e /home/fsw/rep/tasa/lib/bcc-2.2.3-gcc/bin/../sparc-gaisler-elf/bsp/leon3/mfix-b2bst/soft/libbcc.a(dwzero.S.o)
                                         0xa6 (size before relaxing)
 .debug_str     0x00000000000004da       0x75 /home/fsw/rep/tasa/lib/bcc-2.2.3-gcc/bin/../sparc-gaisler-elf/bsp/leon3/mfix-b2bst/soft/libbcc.a(copy_data.c.o)
                                        0x1bc (size before relaxing)
 .debug_str     0x000000000000054f       0x4e /home/fsw/rep/tasa/lib/bcc-2.2.3-gcc/bin/../sparc-gaisler-elf/bsp/leon3/mfix-b2bst/soft/libbcc.a(argv.c.o)
                                        0x191 (size before relaxing)
 .debug_str     0x000000000000059d      0x17b /home/fsw/rep/tasa/lib/bcc-2.2.3-gcc/bin/../sparc-gaisler-elf/bsp/leon3/mfix-b2bst/soft/libbcc.a(int_irqmp_get_source.c.o)
                                        0x2de (size before relaxing)
 .debug_str     0x0000000000000718       0x93 /home/fsw/rep/tasa/lib/bcc-2.2.3-gcc/bin/../sparc-gaisler-elf/bsp/leon3/mfix-b2bst/soft/libbcc.a(int_irqmp_mp.c.o)
                                        0x31b (size before relaxing)
 .debug_str     0x00000000000007ab       0xe9 /home/fsw/rep/tasa/lib/bcc-2.2.3-gcc/bin/../sparc-gaisler-elf/bsp/leon3/mfix-b2bst/soft/libbcc.a(int_irqmp_init.c.o)
                                        0x3b0 (size before relaxing)
 .debug_str     0x0000000000000894       0x60 /home/fsw/rep/tasa/lib/bcc-2.2.3-gcc/bin/../sparc-gaisler-elf/bsp/leon3/mfix-b2bst/soft/libbcc.a(con_apbuart_init.c.o)
                                        0x1ed (size before relaxing)
 .debug_str     0x00000000000008f4       0x7a /home/fsw/rep/tasa/lib/bcc-2.2.3-gcc/bin/../sparc-gaisler-elf/bsp/leon3/mfix-b2bst/soft/libbcc.a(timer_gptimer_init.c.o)
                                        0x251 (size before relaxing)
 .debug_str     0x000000000000096e       0xfc /home/fsw/rep/tasa/lib/bcc-2.2.3-gcc/bin/../sparc-gaisler-elf/bsp/leon3/mfix-b2bst/soft/libbcc.a(ambapp.c.o)
                                        0x2c4 (size before relaxing)
 .debug_str     0x0000000000000a6a       0x6b /home/fsw/rep/tasa/lib/bcc-2.2.3-gcc/bin/../sparc-gaisler-elf/bsp/leon3/mfix-b2bst/soft/libbcc.a(ambapp_findfirst_fn.c.o)
                                        0x25f (size before relaxing)
 .debug_str     0x0000000000000ad5       0x42 /home/fsw/rep/tasa/lib/bcc-2.2.3-gcc/bin/../sparc-gaisler-elf/bsp/leon3/mfix-b2bst/soft/libbcc.a(int_irqmp_handle.c.o)
                                        0x1e7 (size before relaxing)
 .debug_str     0x0000000000000b17       0x3a /home/fsw/rep/tasa/lib/bcc-2.2.3-gcc/bin/../sparc-gaisler-elf/bsp/leon3/mfix-b2bst/soft/libbcc.a(con_handle.c.o)
                                        0x1a2 (size before relaxing)
 .debug_str     0x0000000000000b51       0x3a /home/fsw/rep/tasa/lib/bcc-2.2.3-gcc/bin/../sparc-gaisler-elf/bsp/leon3/mfix-b2bst/soft/libbcc.a(timer_handle.c.o)
                                        0x1ba (size before relaxing)
 .debug_str     0x0000000000000b8b      0x19b /home/fsw/rep/tasa/lib/bcc-2.2.3-gcc/bin/../lib/gcc/sparc-gaisler-elf/10.2.0/../../../../sparc-gaisler-elf/lib/mfix-b2bst/soft/libc.a(lib_a-atexit.o)
                                        0x22b (size before relaxing)
 .debug_str     0x0000000000000d26      0x341 /home/fsw/rep/tasa/lib/bcc-2.2.3-gcc/bin/../lib/gcc/sparc-gaisler-elf/10.2.0/../../../../sparc-gaisler-elf/lib/mfix-b2bst/soft/libc.a(lib_a-exit.o)
                                        0x549 (size before relaxing)
 .debug_str     0x0000000000001067      0x136 /home/fsw/rep/tasa/lib/bcc-2.2.3-gcc/bin/../lib/gcc/sparc-gaisler-elf/10.2.0/../../../../sparc-gaisler-elf/lib/mfix-b2bst/soft/libc.a(lib_a-impure.o)
                                        0x57f (size before relaxing)
 .debug_str     0x000000000000119d      0x114 /home/fsw/rep/tasa/lib/bcc-2.2.3-gcc/bin/../lib/gcc/sparc-gaisler-elf/10.2.0/../../../../sparc-gaisler-elf/lib/mfix-b2bst/soft/libc.a(lib_a-memcpy.o)
                                        0x215 (size before relaxing)
 .debug_str     0x00000000000012b1      0x12a /home/fsw/rep/tasa/lib/bcc-2.2.3-gcc/bin/../lib/gcc/sparc-gaisler-elf/10.2.0/../../../../sparc-gaisler-elf/lib/mfix-b2bst/soft/libc.a(lib_a-printf.o)
                                        0x56f (size before relaxing)
 .debug_str     0x00000000000013db       0x57 /home/fsw/rep/tasa/lib/bcc-2.2.3-gcc/bin/../lib/gcc/sparc-gaisler-elf/10.2.0/../../../../sparc-gaisler-elf/lib/mfix-b2bst/soft/libc.a(lib_a-putchar.o)
                                        0x54b (size before relaxing)
 .debug_str     0x0000000000001432       0xa9 /home/fsw/rep/tasa/lib/bcc-2.2.3-gcc/bin/../lib/gcc/sparc-gaisler-elf/10.2.0/../../../../sparc-gaisler-elf/lib/mfix-b2bst/soft/libc.a(lib_a-puts.o)
                                        0x5e6 (size before relaxing)
 .debug_str     0x00000000000014db       0x51 /home/fsw/rep/tasa/lib/bcc-2.2.3-gcc/bin/../lib/gcc/sparc-gaisler-elf/10.2.0/../../../../sparc-gaisler-elf/lib/mfix-b2bst/soft/libc.a(lib_a-strlen.o)
                                        0x201 (size before relaxing)
 .debug_str     0x000000000000152c      0x402 /home/fsw/rep/tasa/lib/bcc-2.2.3-gcc/bin/../lib/gcc/sparc-gaisler-elf/10.2.0/../../../../sparc-gaisler-elf/lib/mfix-b2bst/soft/libc.a(lib_a-vfprintf.o)
                                        0xa94 (size before relaxing)
 .debug_str     0x000000000000192e       0x50 /home/fsw/rep/tasa/lib/bcc-2.2.3-gcc/bin/../lib/gcc/sparc-gaisler-elf/10.2.0/../../../../sparc-gaisler-elf/lib/mfix-b2bst/soft/libc.a(lib_a-wsetup.o)
                                        0x59e (size before relaxing)
 .debug_str     0x000000000000197e       0xbc /home/fsw/rep/tasa/lib/bcc-2.2.3-gcc/bin/../lib/gcc/sparc-gaisler-elf/10.2.0/../../../../sparc-gaisler-elf/lib/mfix-b2bst/soft/libc.a(lib_a-__atexit.o)
                                        0x2ca (size before relaxing)
 .debug_str     0x0000000000001a3a       0x67 /home/fsw/rep/tasa/lib/bcc-2.2.3-gcc/bin/../lib/gcc/sparc-gaisler-elf/10.2.0/../../../../sparc-gaisler-elf/lib/mfix-b2bst/soft/libc.a(lib_a-__call_atexit.o)
                                        0x297 (size before relaxing)
 .debug_str     0x0000000000001aa1      0x187 /home/fsw/rep/tasa/lib/bcc-2.2.3-gcc/bin/../lib/gcc/sparc-gaisler-elf/10.2.0/../../../../sparc-gaisler-elf/lib/mfix-b2bst/soft/libc.a(lib_a-dtoa.o)
                                        0x8ee (size before relaxing)
 .debug_str     0x0000000000001c28       0x73 /home/fsw/rep/tasa/lib/bcc-2.2.3-gcc/bin/../lib/gcc/sparc-gaisler-elf/10.2.0/../../../../sparc-gaisler-elf/lib/mfix-b2bst/soft/libc.a(lib_a-fflush.o)
                                        0x5df (size before relaxing)
 .debug_str     0x0000000000001c9b      0x100 /home/fsw/rep/tasa/lib/bcc-2.2.3-gcc/bin/../lib/gcc/sparc-gaisler-elf/10.2.0/../../../../sparc-gaisler-elf/lib/mfix-b2bst/soft/libc.a(lib_a-findfp.o)
                                        0x675 (size before relaxing)
 .debug_str     0x0000000000001d9b      0x182 /home/fsw/rep/tasa/lib/bcc-2.2.3-gcc/bin/../lib/gcc/sparc-gaisler-elf/10.2.0/../../../../sparc-gaisler-elf/lib/mfix-b2bst/soft/libc.a(lib_a-freer.o)
                                        0x68f (size before relaxing)
 .debug_str     0x0000000000001f1d       0x75 /home/fsw/rep/tasa/lib/bcc-2.2.3-gcc/bin/../lib/gcc/sparc-gaisler-elf/10.2.0/../../../../sparc-gaisler-elf/lib/mfix-b2bst/soft/libc.a(lib_a-fvwrite.o)
                                        0x5ea (size before relaxing)
 .debug_str     0x0000000000001f92       0x58 /home/fsw/rep/tasa/lib/bcc-2.2.3-gcc/bin/../lib/gcc/sparc-gaisler-elf/10.2.0/../../../../sparc-gaisler-elf/lib/mfix-b2bst/soft/libc.a(lib_a-fwalk.o)
                                        0x545 (size before relaxing)
 .debug_str     0x0000000000001fea      0x153 /home/fsw/rep/tasa/lib/bcc-2.2.3-gcc/bin/../lib/gcc/sparc-gaisler-elf/10.2.0/../../../../sparc-gaisler-elf/lib/mfix-b2bst/soft/libc.a(lib_a-localeconv.o)
                                        0x781 (size before relaxing)
 .debug_str     0x000000000000213d      0x16a /home/fsw/rep/tasa/lib/bcc-2.2.3-gcc/bin/../lib/gcc/sparc-gaisler-elf/10.2.0/../../../../sparc-gaisler-elf/lib/mfix-b2bst/soft/libc.a(lib_a-makebuf.o)
                                        0x6af (size before relaxing)
 .debug_str     0x00000000000022a7       0x50 /home/fsw/rep/tasa/lib/bcc-2.2.3-gcc/bin/../lib/gcc/sparc-gaisler-elf/10.2.0/../../../../sparc-gaisler-elf/lib/mfix-b2bst/soft/libc.a(lib_a-malloc.o)
                                        0x554 (size before relaxing)
 .debug_str     0x00000000000022f7       0xdf /home/fsw/rep/tasa/lib/bcc-2.2.3-gcc/bin/../lib/gcc/sparc-gaisler-elf/10.2.0/../../../../sparc-gaisler-elf/lib/mfix-b2bst/soft/libc.a(lib_a-mallocr.o)
                                        0x745 (size before relaxing)
 .debug_str     0x00000000000023d6       0x52 /home/fsw/rep/tasa/lib/bcc-2.2.3-gcc/bin/../lib/gcc/sparc-gaisler-elf/10.2.0/../../../../sparc-gaisler-elf/lib/mfix-b2bst/soft/libc.a(lib_a-memchr.o)
                                        0x208 (size before relaxing)
 .debug_str     0x0000000000002428       0x4e /home/fsw/rep/tasa/lib/bcc-2.2.3-gcc/bin/../lib/gcc/sparc-gaisler-elf/10.2.0/../../../../sparc-gaisler-elf/lib/mfix-b2bst/soft/libc.a(lib_a-memmove.o)
                                        0x221 (size before relaxing)
 .debug_str     0x0000000000002476       0x4b /home/fsw/rep/tasa/lib/bcc-2.2.3-gcc/bin/../lib/gcc/sparc-gaisler-elf/10.2.0/../../../../sparc-gaisler-elf/lib/mfix-b2bst/soft/libc.a(lib_a-memset.o)
                                        0x202 (size before relaxing)
 .debug_str     0x00000000000024c1       0x43 /home/fsw/rep/tasa/lib/bcc-2.2.3-gcc/bin/../lib/gcc/sparc-gaisler-elf/10.2.0/../../../../sparc-gaisler-elf/lib/mfix-b2bst/soft/libc.a(lib_a-mlock.o)
                                        0x534 (size before relaxing)
 .debug_str     0x0000000000002504       0xae /home/fsw/rep/tasa/lib/bcc-2.2.3-gcc/bin/../lib/gcc/sparc-gaisler-elf/10.2.0/../../../../sparc-gaisler-elf/lib/mfix-b2bst/soft/libc.a(lib_a-mprec.o)
                                        0x848 (size before relaxing)
 .debug_str     0x00000000000025b2       0x5a /home/fsw/rep/tasa/lib/bcc-2.2.3-gcc/bin/../lib/gcc/sparc-gaisler-elf/10.2.0/../../../../sparc-gaisler-elf/lib/mfix-b2bst/soft/libc.a(lib_a-putc.o)
                                        0x5ae (size before relaxing)
 .debug_str     0x000000000000260c       0x4e /home/fsw/rep/tasa/lib/bcc-2.2.3-gcc/bin/../lib/gcc/sparc-gaisler-elf/10.2.0/../../../../sparc-gaisler-elf/lib/mfix-b2bst/soft/libc.a(lib_a-reallocr.o)
                                        0x621 (size before relaxing)
 .debug_str     0x000000000000265a      0x125 /home/fsw/rep/tasa/lib/bcc-2.2.3-gcc/bin/../lib/gcc/sparc-gaisler-elf/10.2.0/../../../../sparc-gaisler-elf/lib/mfix-b2bst/soft/libc.a(lib_a-s_frexp.o)
                                        0x24b (size before relaxing)
 .debug_str     0x000000000000277f       0x56 /home/fsw/rep/tasa/lib/bcc-2.2.3-gcc/bin/../lib/gcc/sparc-gaisler-elf/10.2.0/../../../../sparc-gaisler-elf/lib/mfix-b2bst/soft/libc.a(lib_a-sbrkr.o)
                                        0x536 (size before relaxing)
 .debug_str     0x00000000000027d5       0xa2 /home/fsw/rep/tasa/lib/bcc-2.2.3-gcc/bin/../lib/gcc/sparc-gaisler-elf/10.2.0/../../../../sparc-gaisler-elf/lib/mfix-b2bst/soft/libc.a(lib_a-stdio.o)
                                        0x594 (size before relaxing)
 .debug_str     0x0000000000002877       0x45 /home/fsw/rep/tasa/lib/bcc-2.2.3-gcc/bin/../lib/gcc/sparc-gaisler-elf/10.2.0/../../../../sparc-gaisler-elf/lib/mfix-b2bst/soft/libc.a(lib_a-strncpy.o)
                                        0x218 (size before relaxing)
 .debug_str     0x00000000000028bc       0x21 /home/fsw/rep/tasa/lib/bcc-2.2.3-gcc/bin/../lib/gcc/sparc-gaisler-elf/10.2.0/../../../../sparc-gaisler-elf/lib/mfix-b2bst/soft/libc.a(lib_a-vfiprintf.o)
                                        0x96a (size before relaxing)
 .debug_str     0x00000000000028dd       0x49 /home/fsw/rep/tasa/lib/bcc-2.2.3-gcc/bin/../lib/gcc/sparc-gaisler-elf/10.2.0/../../../../sparc-gaisler-elf/lib/mfix-b2bst/soft/libc.a(lib_a-wbuf.o)
                                        0x5a3 (size before relaxing)
 .debug_str     0x0000000000002926       0x43 /home/fsw/rep/tasa/lib/bcc-2.2.3-gcc/bin/../lib/gcc/sparc-gaisler-elf/10.2.0/../../../../sparc-gaisler-elf/lib/mfix-b2bst/soft/libc.a(lib_a-writer.o)
                                        0x53a (size before relaxing)
 .debug_str     0x0000000000002969        0xf /home/fsw/rep/tasa/lib/bcc-2.2.3-gcc/bin/../lib/gcc/sparc-gaisler-elf/10.2.0/../../../../sparc-gaisler-elf/lib/mfix-b2bst/soft/libc.a(lib_a-callocr.o)
                                        0x586 (size before relaxing)
 .debug_str     0x0000000000002978       0x43 /home/fsw/rep/tasa/lib/bcc-2.2.3-gcc/bin/../lib/gcc/sparc-gaisler-elf/10.2.0/../../../../sparc-gaisler-elf/lib/mfix-b2bst/soft/libc.a(lib_a-closer.o)
                                        0x52a (size before relaxing)
 .debug_str     0x00000000000029bb       0x54 /home/fsw/rep/tasa/lib/bcc-2.2.3-gcc/bin/../lib/gcc/sparc-gaisler-elf/10.2.0/../../../../sparc-gaisler-elf/lib/mfix-b2bst/soft/libc.a(lib_a-fclose.o)
                                        0x5a6 (size before relaxing)
 .debug_str     0x0000000000002a0f       0x6b /home/fsw/rep/tasa/lib/bcc-2.2.3-gcc/bin/../lib/gcc/sparc-gaisler-elf/10.2.0/../../../../sparc-gaisler-elf/lib/mfix-b2bst/soft/libc.a(lib_a-fputwc.o)
                                        0x5e4 (size before relaxing)
 .debug_str     0x0000000000002a7a       0x49 /home/fsw/rep/tasa/lib/bcc-2.2.3-gcc/bin/../lib/gcc/sparc-gaisler-elf/10.2.0/../../../../sparc-gaisler-elf/lib/mfix-b2bst/soft/libc.a(lib_a-fstatr.o)
                                        0x663 (size before relaxing)
 .debug_str     0x0000000000002ac3       0x4b /home/fsw/rep/tasa/lib/bcc-2.2.3-gcc/bin/../lib/gcc/sparc-gaisler-elf/10.2.0/../../../../sparc-gaisler-elf/lib/mfix-b2bst/soft/libc.a(lib_a-isattyr.o)
                                        0x52d (size before relaxing)
 .debug_str     0x0000000000002b0e       0xa8 /home/fsw/rep/tasa/lib/bcc-2.2.3-gcc/bin/../lib/gcc/sparc-gaisler-elf/10.2.0/../../../../sparc-gaisler-elf/lib/mfix-b2bst/soft/libc.a(lib_a-locale.o)
                                        0x7b9 (size before relaxing)
 .debug_str     0x0000000000002bb6       0x49 /home/fsw/rep/tasa/lib/bcc-2.2.3-gcc/bin/../lib/gcc/sparc-gaisler-elf/10.2.0/../../../../sparc-gaisler-elf/lib/mfix-b2bst/soft/libc.a(lib_a-lseekr.o)
                                        0x531 (size before relaxing)
 .debug_str     0x0000000000002bff       0x65 /home/fsw/rep/tasa/lib/bcc-2.2.3-gcc/bin/../lib/gcc/sparc-gaisler-elf/10.2.0/../../../../sparc-gaisler-elf/lib/mfix-b2bst/soft/libc.a(lib_a-mbtowc_r.o)
                                        0x76f (size before relaxing)
 .debug_str     0x0000000000002c64       0x42 /home/fsw/rep/tasa/lib/bcc-2.2.3-gcc/bin/../lib/gcc/sparc-gaisler-elf/10.2.0/../../../../sparc-gaisler-elf/lib/mfix-b2bst/soft/libc.a(lib_a-readr.o)
                                        0x537 (size before relaxing)
 .debug_str     0x0000000000002ca6       0x6e /home/fsw/rep/tasa/lib/bcc-2.2.3-gcc/bin/../lib/gcc/sparc-gaisler-elf/10.2.0/../../../../sparc-gaisler-elf/lib/mfix-b2bst/soft/libc.a(lib_a-reent.o)
                                        0x55f (size before relaxing)
 .debug_str     0x0000000000002d14       0x44 /home/fsw/rep/tasa/lib/bcc-2.2.3-gcc/bin/../lib/gcc/sparc-gaisler-elf/10.2.0/../../../../sparc-gaisler-elf/lib/mfix-b2bst/soft/libc.a(lib_a-strcmp.o)
                                        0x1e7 (size before relaxing)
 .debug_str     0x0000000000002d58       0x54 /home/fsw/rep/tasa/lib/bcc-2.2.3-gcc/bin/../lib/gcc/sparc-gaisler-elf/10.2.0/../../../../sparc-gaisler-elf/lib/mfix-b2bst/soft/libc.a(lib_a-wcrtomb.o)
                                        0x75b (size before relaxing)
 .debug_str     0x0000000000002dac       0x66 /home/fsw/rep/tasa/lib/bcc-2.2.3-gcc/bin/../lib/gcc/sparc-gaisler-elf/10.2.0/../../../../sparc-gaisler-elf/lib/mfix-b2bst/soft/libc.a(lib_a-wctomb_r.o)
                                        0x768 (size before relaxing)
 .debug_str     0x0000000000002e12       0xf3 /home/fsw/rep/tasa/lib/bcc-2.2.3-gcc/bin/../lib/gcc/sparc-gaisler-elf/10.2.0/../../../../sparc-gaisler-elf/lib/mfix-b2bst/soft/libc.a(lib_a-ctype_.o)
                                        0x1ef (size before relaxing)
 .debug_str     0x0000000000002f05       0x2d /home/fsw/rep/tasa/lib/bcc-2.2.3-gcc/bin/../sparc-gaisler-elf/bsp/leon3/mfix-b2bst/soft/libbcc.a(_exit.S.o)
                                         0xa5 (size before relaxing)
 .debug_str     0x0000000000002f32       0x3d /home/fsw/rep/tasa/lib/bcc-2.2.3-gcc/bin/../sparc-gaisler-elf/bsp/leon3/mfix-b2bst/soft/libbcc.a(read.c.o)
                                        0x192 (size before relaxing)
 .debug_str     0x0000000000002f6f       0x9d /home/fsw/rep/tasa/lib/bcc-2.2.3-gcc/bin/../sparc-gaisler-elf/bsp/leon3/mfix-b2bst/soft/libbcc.a(sbrk.c.o)
                                        0x206 (size before relaxing)
 .debug_str     0x000000000000300c       0x2c /home/fsw/rep/tasa/lib/bcc-2.2.3-gcc/bin/../sparc-gaisler-elf/bsp/leon3/mfix-b2bst/soft/libbcc.a(heap.c.o)
                                        0x19f (size before relaxing)
 .debug_str     0x0000000000003038       0x3f /home/fsw/rep/tasa/lib/bcc-2.2.3-gcc/bin/../sparc-gaisler-elf/bsp/leon3/mfix-b2bst/soft/libbcc.a(write.c.o)
                                        0x195 (size before relaxing)
 .debug_str     0x0000000000003077       0x33 /home/fsw/rep/tasa/lib/bcc-2.2.3-gcc/bin/../sparc-gaisler-elf/bsp/leon3/mfix-b2bst/soft/libbcc.a(stubs.S.o)
                                         0xab (size before relaxing)
 .debug_str     0x00000000000030aa       0x89 /home/fsw/rep/tasa/lib/bcc-2.2.3-gcc/bin/../sparc-gaisler-elf/bsp/leon3/mfix-b2bst/soft/libbcc.a(con_apbuart.c.o)
                                        0x223 (size before relaxing)
 .debug_str     0x0000000000003133       0xdc /home/fsw/rep/tasa/lib/bcc-2.2.3-gcc/bin/../lib/gcc/sparc-gaisler-elf/10.2.0/mfix-b2bst/soft/libgcc.a(_mulsi3.o)
                                         0xe8 (size before relaxing)
 .debug_str     0x000000000000320f       0xe8 /home/fsw/rep/tasa/lib/bcc-2.2.3-gcc/bin/../lib/gcc/sparc-gaisler-elf/10.2.0/mfix-b2bst/soft/libgcc.a(_divsi3.o)
 .debug_str     0x000000000000320f       0xe8 /home/fsw/rep/tasa/lib/bcc-2.2.3-gcc/bin/../lib/gcc/sparc-gaisler-elf/10.2.0/mfix-b2bst/soft/libgcc.a(_modsi3.o)
 .debug_str     0x000000000000320f      0x141 /home/fsw/rep/tasa/lib/bcc-2.2.3-gcc/bin/../lib/gcc/sparc-gaisler-elf/10.2.0/mfix-b2bst/soft/libgcc.a(_udivdi3.o)
                                        0x290 (size before relaxing)
 .debug_str     0x0000000000003350      0x290 /home/fsw/rep/tasa/lib/bcc-2.2.3-gcc/bin/../lib/gcc/sparc-gaisler-elf/10.2.0/mfix-b2bst/soft/libgcc.a(_umoddi3.o)
 .debug_str     0x0000000000003350      0x1ee /home/fsw/rep/tasa/lib/bcc-2.2.3-gcc/bin/../lib/gcc/sparc-gaisler-elf/10.2.0/mfix-b2bst/soft/libgcc.a(_addsub_df.o)
                                        0x34d (size before relaxing)
 .debug_str     0x000000000000353e       0x40 /home/fsw/rep/tasa/lib/bcc-2.2.3-gcc/bin/../lib/gcc/sparc-gaisler-elf/10.2.0/mfix-b2bst/soft/libgcc.a(_mul_df.o)
                                        0x328 (size before relaxing)
 .debug_str     0x000000000000357e       0x2c /home/fsw/rep/tasa/lib/bcc-2.2.3-gcc/bin/../lib/gcc/sparc-gaisler-elf/10.2.0/mfix-b2bst/soft/libgcc.a(_div_df.o)
                                        0x30f (size before relaxing)
 .debug_str     0x00000000000035aa       0x18 /home/fsw/rep/tasa/lib/bcc-2.2.3-gcc/bin/../lib/gcc/sparc-gaisler-elf/10.2.0/mfix-b2bst/soft/libgcc.a(_eq_df.o)
                                        0x2d0 (size before relaxing)
 .debug_str     0x00000000000035c2      0x2d0 /home/fsw/rep/tasa/lib/bcc-2.2.3-gcc/bin/../lib/gcc/sparc-gaisler-elf/10.2.0/mfix-b2bst/soft/libgcc.a(_ne_df.o)
 .debug_str     0x00000000000035c2      0x2d0 /home/fsw/rep/tasa/lib/bcc-2.2.3-gcc/bin/../lib/gcc/sparc-gaisler-elf/10.2.0/mfix-b2bst/soft/libgcc.a(_gt_df.o)
 .debug_str     0x00000000000035c2      0x2d0 /home/fsw/rep/tasa/lib/bcc-2.2.3-gcc/bin/../lib/gcc/sparc-gaisler-elf/10.2.0/mfix-b2bst/soft/libgcc.a(_lt_df.o)
 .debug_str     0x00000000000035c2      0x2d0 /home/fsw/rep/tasa/lib/bcc-2.2.3-gcc/bin/../lib/gcc/sparc-gaisler-elf/10.2.0/mfix-b2bst/soft/libgcc.a(_le_df.o)
 .debug_str     0x00000000000035c2      0x2c3 /home/fsw/rep/tasa/lib/bcc-2.2.3-gcc/bin/../lib/gcc/sparc-gaisler-elf/10.2.0/mfix-b2bst/soft/libgcc.a(_unord_df.o)
 .debug_str     0x00000000000035c2       0x15 /home/fsw/rep/tasa/lib/bcc-2.2.3-gcc/bin/../lib/gcc/sparc-gaisler-elf/10.2.0/mfix-b2bst/soft/libgcc.a(_si_to_df.o)
                                        0x2ab (size before relaxing)
 .debug_str     0x00000000000035d7      0x2c8 /home/fsw/rep/tasa/lib/bcc-2.2.3-gcc/bin/../lib/gcc/sparc-gaisler-elf/10.2.0/mfix-b2bst/soft/libgcc.a(_df_to_si.o)
 .debug_str     0x00000000000035d7      0x26a /home/fsw/rep/tasa/lib/bcc-2.2.3-gcc/bin/../lib/gcc/sparc-gaisler-elf/10.2.0/mfix-b2bst/soft/libgcc.a(_thenan_df.o)
 .debug_str     0x00000000000035d7        0x6 /home/fsw/rep/tasa/lib/bcc-2.2.3-gcc/bin/../lib/gcc/sparc-gaisler-elf/10.2.0/mfix-b2bst/soft/libgcc.a(_usi_to_df.o)
                                        0x2a7 (size before relaxing)
 .debug_str     0x00000000000035dd      0x240 /home/fsw/rep/tasa/lib/bcc-2.2.3-gcc/bin/../lib/gcc/sparc-gaisler-elf/10.2.0/mfix-b2bst/soft/libgcc.a(_muldi3.o)
 .debug_str     0x00000000000035dd      0x210 /home/fsw/rep/tasa/lib/bcc-2.2.3-gcc/bin/../lib/gcc/sparc-gaisler-elf/10.2.0/mfix-b2bst/soft/libgcc.a(_clz.o)
 .debug_str     0x00000000000035dd      0x22d /home/fsw/rep/tasa/lib/bcc-2.2.3-gcc/bin/../lib/gcc/sparc-gaisler-elf/10.2.0/mfix-b2bst/soft/libgcc.a(_clzsi2.o)
 .debug_str     0x00000000000035dd        0x7 /home/fsw/rep/tasa/lib/bcc-2.2.3-gcc/bin/../lib/gcc/sparc-gaisler-elf/10.2.0/mfix-b2bst/soft/libgcc.a(_pack_df.o)
                                        0x2bc (size before relaxing)
 .debug_str     0x00000000000035e4      0x29e /home/fsw/rep/tasa/lib/bcc-2.2.3-gcc/bin/../lib/gcc/sparc-gaisler-elf/10.2.0/mfix-b2bst/soft/libgcc.a(_unpack_df.o)
 .debug_str     0x00000000000035e4      0x281 /home/fsw/rep/tasa/lib/bcc-2.2.3-gcc/bin/../lib/gcc/sparc-gaisler-elf/10.2.0/mfix-b2bst/soft/libgcc.a(_fpcmp_parts_df.o)

.debug_loc      0x0000000000000000    0x197a4
 *(.debug_loc)
 .debug_loc     0x0000000000000000       0x44 /tmp/ccjQJ0Dl.o
 .debug_loc     0x0000000000000044       0x58 /home/fsw/rep/tasa/lib/bcc-2.2.3-gcc/bin/../sparc-gaisler-elf/bsp/leon3/mfix-b2bst/soft/libbcc.a(int_irqmp_get_source.c.o)
 .debug_loc     0x000000000000009c       0xdf /home/fsw/rep/tasa/lib/bcc-2.2.3-gcc/bin/../sparc-gaisler-elf/bsp/leon3/mfix-b2bst/soft/libbcc.a(int_irqmp_mp.c.o)
 .debug_loc     0x000000000000017b      0x286 /home/fsw/rep/tasa/lib/bcc-2.2.3-gcc/bin/../sparc-gaisler-elf/bsp/leon3/mfix-b2bst/soft/libbcc.a(int_irqmp_init.c.o)
 .debug_loc     0x0000000000000401      0xb88 /home/fsw/rep/tasa/lib/bcc-2.2.3-gcc/bin/../sparc-gaisler-elf/bsp/leon3/mfix-b2bst/soft/libbcc.a(ambapp.c.o)
 .debug_loc     0x0000000000000f89      0x239 /home/fsw/rep/tasa/lib/bcc-2.2.3-gcc/bin/../sparc-gaisler-elf/bsp/leon3/mfix-b2bst/soft/libbcc.a(ambapp_findfirst_fn.c.o)
 .debug_loc     0x00000000000011c2       0x22 /home/fsw/rep/tasa/lib/bcc-2.2.3-gcc/bin/../lib/gcc/sparc-gaisler-elf/10.2.0/../../../../sparc-gaisler-elf/lib/mfix-b2bst/soft/libc.a(lib_a-atexit.o)
 .debug_loc     0x00000000000011e4       0x22 /home/fsw/rep/tasa/lib/bcc-2.2.3-gcc/bin/../lib/gcc/sparc-gaisler-elf/10.2.0/../../../../sparc-gaisler-elf/lib/mfix-b2bst/soft/libc.a(lib_a-exit.o)
 .debug_loc     0x0000000000001206      0x4c5 /home/fsw/rep/tasa/lib/bcc-2.2.3-gcc/bin/../lib/gcc/sparc-gaisler-elf/10.2.0/../../../../sparc-gaisler-elf/lib/mfix-b2bst/soft/libc.a(lib_a-memcpy.o)
 .debug_loc     0x00000000000016cb      0x134 /home/fsw/rep/tasa/lib/bcc-2.2.3-gcc/bin/../lib/gcc/sparc-gaisler-elf/10.2.0/../../../../sparc-gaisler-elf/lib/mfix-b2bst/soft/libc.a(lib_a-printf.o)
 .debug_loc     0x00000000000017ff       0x88 /home/fsw/rep/tasa/lib/bcc-2.2.3-gcc/bin/../lib/gcc/sparc-gaisler-elf/10.2.0/../../../../sparc-gaisler-elf/lib/mfix-b2bst/soft/libc.a(lib_a-putchar.o)
 .debug_loc     0x0000000000001887      0x249 /home/fsw/rep/tasa/lib/bcc-2.2.3-gcc/bin/../lib/gcc/sparc-gaisler-elf/10.2.0/../../../../sparc-gaisler-elf/lib/mfix-b2bst/soft/libc.a(lib_a-puts.o)
 .debug_loc     0x0000000000001ad0       0x86 /home/fsw/rep/tasa/lib/bcc-2.2.3-gcc/bin/../lib/gcc/sparc-gaisler-elf/10.2.0/../../../../sparc-gaisler-elf/lib/mfix-b2bst/soft/libc.a(lib_a-strlen.o)
 .debug_loc     0x0000000000001b56     0x4f78 /home/fsw/rep/tasa/lib/bcc-2.2.3-gcc/bin/../lib/gcc/sparc-gaisler-elf/10.2.0/../../../../sparc-gaisler-elf/lib/mfix-b2bst/soft/libc.a(lib_a-vfprintf.o)
 .debug_loc     0x0000000000006ace       0x86 /home/fsw/rep/tasa/lib/bcc-2.2.3-gcc/bin/../lib/gcc/sparc-gaisler-elf/10.2.0/../../../../sparc-gaisler-elf/lib/mfix-b2bst/soft/libc.a(lib_a-wsetup.o)
 .debug_loc     0x0000000000006b54      0x15d /home/fsw/rep/tasa/lib/bcc-2.2.3-gcc/bin/../lib/gcc/sparc-gaisler-elf/10.2.0/../../../../sparc-gaisler-elf/lib/mfix-b2bst/soft/libc.a(lib_a-__atexit.o)
 .debug_loc     0x0000000000006cb1      0x2a2 /home/fsw/rep/tasa/lib/bcc-2.2.3-gcc/bin/../lib/gcc/sparc-gaisler-elf/10.2.0/../../../../sparc-gaisler-elf/lib/mfix-b2bst/soft/libc.a(lib_a-__call_atexit.o)
 .debug_loc     0x0000000000006f53     0x2f2a /home/fsw/rep/tasa/lib/bcc-2.2.3-gcc/bin/../lib/gcc/sparc-gaisler-elf/10.2.0/../../../../sparc-gaisler-elf/lib/mfix-b2bst/soft/libc.a(lib_a-dtoa.o)
 .debug_loc     0x0000000000009e7d      0x358 /home/fsw/rep/tasa/lib/bcc-2.2.3-gcc/bin/../lib/gcc/sparc-gaisler-elf/10.2.0/../../../../sparc-gaisler-elf/lib/mfix-b2bst/soft/libc.a(lib_a-fflush.o)
 .debug_loc     0x000000000000a1d5      0x2d8 /home/fsw/rep/tasa/lib/bcc-2.2.3-gcc/bin/../lib/gcc/sparc-gaisler-elf/10.2.0/../../../../sparc-gaisler-elf/lib/mfix-b2bst/soft/libc.a(lib_a-findfp.o)
 .debug_loc     0x000000000000a4ad      0x6b3 /home/fsw/rep/tasa/lib/bcc-2.2.3-gcc/bin/../lib/gcc/sparc-gaisler-elf/10.2.0/../../../../sparc-gaisler-elf/lib/mfix-b2bst/soft/libc.a(lib_a-freer.o)
 .debug_loc     0x000000000000ab60      0x604 /home/fsw/rep/tasa/lib/bcc-2.2.3-gcc/bin/../lib/gcc/sparc-gaisler-elf/10.2.0/../../../../sparc-gaisler-elf/lib/mfix-b2bst/soft/libc.a(lib_a-fvwrite.o)
 .debug_loc     0x000000000000b164      0x1be /home/fsw/rep/tasa/lib/bcc-2.2.3-gcc/bin/../lib/gcc/sparc-gaisler-elf/10.2.0/../../../../sparc-gaisler-elf/lib/mfix-b2bst/soft/libc.a(lib_a-fwalk.o)
 .debug_loc     0x000000000000b322      0x103 /home/fsw/rep/tasa/lib/bcc-2.2.3-gcc/bin/../lib/gcc/sparc-gaisler-elf/10.2.0/../../../../sparc-gaisler-elf/lib/mfix-b2bst/soft/libc.a(lib_a-localeconv.o)
 .debug_loc     0x000000000000b425      0x394 /home/fsw/rep/tasa/lib/bcc-2.2.3-gcc/bin/../lib/gcc/sparc-gaisler-elf/10.2.0/../../../../sparc-gaisler-elf/lib/mfix-b2bst/soft/libc.a(lib_a-makebuf.o)
 .debug_loc     0x000000000000b7b9       0x44 /home/fsw/rep/tasa/lib/bcc-2.2.3-gcc/bin/../lib/gcc/sparc-gaisler-elf/10.2.0/../../../../sparc-gaisler-elf/lib/mfix-b2bst/soft/libc.a(lib_a-malloc.o)
 .debug_loc     0x000000000000b7fd      0xd66 /home/fsw/rep/tasa/lib/bcc-2.2.3-gcc/bin/../lib/gcc/sparc-gaisler-elf/10.2.0/../../../../sparc-gaisler-elf/lib/mfix-b2bst/soft/libc.a(lib_a-mallocr.o)
 .debug_loc     0x000000000000c563      0x19e /home/fsw/rep/tasa/lib/bcc-2.2.3-gcc/bin/../lib/gcc/sparc-gaisler-elf/10.2.0/../../../../sparc-gaisler-elf/lib/mfix-b2bst/soft/libc.a(lib_a-memchr.o)
 .debug_loc     0x000000000000c701      0x561 /home/fsw/rep/tasa/lib/bcc-2.2.3-gcc/bin/../lib/gcc/sparc-gaisler-elf/10.2.0/../../../../sparc-gaisler-elf/lib/mfix-b2bst/soft/libc.a(lib_a-memmove.o)
 .debug_loc     0x000000000000cc62      0x274 /home/fsw/rep/tasa/lib/bcc-2.2.3-gcc/bin/../lib/gcc/sparc-gaisler-elf/10.2.0/../../../../sparc-gaisler-elf/lib/mfix-b2bst/soft/libc.a(lib_a-memset.o)
 .debug_loc     0x000000000000ced6     0x2d24 /home/fsw/rep/tasa/lib/bcc-2.2.3-gcc/bin/../lib/gcc/sparc-gaisler-elf/10.2.0/../../../../sparc-gaisler-elf/lib/mfix-b2bst/soft/libc.a(lib_a-mprec.o)
 .debug_loc     0x000000000000fbfa      0x260 /home/fsw/rep/tasa/lib/bcc-2.2.3-gcc/bin/../lib/gcc/sparc-gaisler-elf/10.2.0/../../../../sparc-gaisler-elf/lib/mfix-b2bst/soft/libc.a(lib_a-putc.o)
 .debug_loc     0x000000000000fe5a      0xecb /home/fsw/rep/tasa/lib/bcc-2.2.3-gcc/bin/../lib/gcc/sparc-gaisler-elf/10.2.0/../../../../sparc-gaisler-elf/lib/mfix-b2bst/soft/libc.a(lib_a-reallocr.o)
 .debug_loc     0x0000000000010d25      0x11d /home/fsw/rep/tasa/lib/bcc-2.2.3-gcc/bin/../lib/gcc/sparc-gaisler-elf/10.2.0/../../../../sparc-gaisler-elf/lib/mfix-b2bst/soft/libc.a(lib_a-s_frexp.o)
 .debug_loc     0x0000000000010e42       0x86 /home/fsw/rep/tasa/lib/bcc-2.2.3-gcc/bin/../lib/gcc/sparc-gaisler-elf/10.2.0/../../../../sparc-gaisler-elf/lib/mfix-b2bst/soft/libc.a(lib_a-sbrkr.o)
 .debug_loc     0x0000000000010ec8      0x295 /home/fsw/rep/tasa/lib/bcc-2.2.3-gcc/bin/../lib/gcc/sparc-gaisler-elf/10.2.0/../../../../sparc-gaisler-elf/lib/mfix-b2bst/soft/libc.a(lib_a-stdio.o)
 .debug_loc     0x000000000001115d      0x2ac /home/fsw/rep/tasa/lib/bcc-2.2.3-gcc/bin/../lib/gcc/sparc-gaisler-elf/10.2.0/../../../../sparc-gaisler-elf/lib/mfix-b2bst/soft/libc.a(lib_a-strncpy.o)
 .debug_loc     0x0000000000011409     0x3b11 /home/fsw/rep/tasa/lib/bcc-2.2.3-gcc/bin/../lib/gcc/sparc-gaisler-elf/10.2.0/../../../../sparc-gaisler-elf/lib/mfix-b2bst/soft/libc.a(lib_a-vfiprintf.o)
 .debug_loc     0x0000000000014f1a      0x21b /home/fsw/rep/tasa/lib/bcc-2.2.3-gcc/bin/../lib/gcc/sparc-gaisler-elf/10.2.0/../../../../sparc-gaisler-elf/lib/mfix-b2bst/soft/libc.a(lib_a-wbuf.o)
 .debug_loc     0x0000000000015135       0xca /home/fsw/rep/tasa/lib/bcc-2.2.3-gcc/bin/../lib/gcc/sparc-gaisler-elf/10.2.0/../../../../sparc-gaisler-elf/lib/mfix-b2bst/soft/libc.a(lib_a-writer.o)
 .debug_loc     0x00000000000151ff      0x1df /home/fsw/rep/tasa/lib/bcc-2.2.3-gcc/bin/../lib/gcc/sparc-gaisler-elf/10.2.0/../../../../sparc-gaisler-elf/lib/mfix-b2bst/soft/libc.a(lib_a-callocr.o)
 .debug_loc     0x00000000000153de       0x86 /home/fsw/rep/tasa/lib/bcc-2.2.3-gcc/bin/../lib/gcc/sparc-gaisler-elf/10.2.0/../../../../sparc-gaisler-elf/lib/mfix-b2bst/soft/libc.a(lib_a-closer.o)
 .debug_loc     0x0000000000015464      0x1c7 /home/fsw/rep/tasa/lib/bcc-2.2.3-gcc/bin/../lib/gcc/sparc-gaisler-elf/10.2.0/../../../../sparc-gaisler-elf/lib/mfix-b2bst/soft/libc.a(lib_a-fclose.o)
 .debug_loc     0x000000000001562b      0x287 /home/fsw/rep/tasa/lib/bcc-2.2.3-gcc/bin/../lib/gcc/sparc-gaisler-elf/10.2.0/../../../../sparc-gaisler-elf/lib/mfix-b2bst/soft/libc.a(lib_a-fputwc.o)
 .debug_loc     0x00000000000158b2       0xa8 /home/fsw/rep/tasa/lib/bcc-2.2.3-gcc/bin/../lib/gcc/sparc-gaisler-elf/10.2.0/../../../../sparc-gaisler-elf/lib/mfix-b2bst/soft/libc.a(lib_a-fstatr.o)
 .debug_loc     0x000000000001595a       0x86 /home/fsw/rep/tasa/lib/bcc-2.2.3-gcc/bin/../lib/gcc/sparc-gaisler-elf/10.2.0/../../../../sparc-gaisler-elf/lib/mfix-b2bst/soft/libc.a(lib_a-isattyr.o)
 .debug_loc     0x00000000000159e0      0x204 /home/fsw/rep/tasa/lib/bcc-2.2.3-gcc/bin/../lib/gcc/sparc-gaisler-elf/10.2.0/../../../../sparc-gaisler-elf/lib/mfix-b2bst/soft/libc.a(lib_a-locale.o)
 .debug_loc     0x0000000000015be4       0xca /home/fsw/rep/tasa/lib/bcc-2.2.3-gcc/bin/../lib/gcc/sparc-gaisler-elf/10.2.0/../../../../sparc-gaisler-elf/lib/mfix-b2bst/soft/libc.a(lib_a-lseekr.o)
 .debug_loc     0x0000000000015cae      0x15d /home/fsw/rep/tasa/lib/bcc-2.2.3-gcc/bin/../lib/gcc/sparc-gaisler-elf/10.2.0/../../../../sparc-gaisler-elf/lib/mfix-b2bst/soft/libc.a(lib_a-mbtowc_r.o)
 .debug_loc     0x0000000000015e0b       0xca /home/fsw/rep/tasa/lib/bcc-2.2.3-gcc/bin/../lib/gcc/sparc-gaisler-elf/10.2.0/../../../../sparc-gaisler-elf/lib/mfix-b2bst/soft/libc.a(lib_a-readr.o)
 .debug_loc     0x0000000000015ed5      0x26b /home/fsw/rep/tasa/lib/bcc-2.2.3-gcc/bin/../lib/gcc/sparc-gaisler-elf/10.2.0/../../../../sparc-gaisler-elf/lib/mfix-b2bst/soft/libc.a(lib_a-reent.o)
 .debug_loc     0x0000000000016140       0xa8 /home/fsw/rep/tasa/lib/bcc-2.2.3-gcc/bin/../lib/gcc/sparc-gaisler-elf/10.2.0/../../../../sparc-gaisler-elf/lib/mfix-b2bst/soft/libc.a(lib_a-strcmp.o)
 .debug_loc     0x00000000000161e8      0x20f /home/fsw/rep/tasa/lib/bcc-2.2.3-gcc/bin/../lib/gcc/sparc-gaisler-elf/10.2.0/../../../../sparc-gaisler-elf/lib/mfix-b2bst/soft/libc.a(lib_a-wcrtomb.o)
 .debug_loc     0x00000000000163f7      0x129 /home/fsw/rep/tasa/lib/bcc-2.2.3-gcc/bin/../lib/gcc/sparc-gaisler-elf/10.2.0/../../../../sparc-gaisler-elf/lib/mfix-b2bst/soft/libc.a(lib_a-wctomb_r.o)
 .debug_loc     0x0000000000016520      0x106 /home/fsw/rep/tasa/lib/bcc-2.2.3-gcc/bin/../sparc-gaisler-elf/bsp/leon3/mfix-b2bst/soft/libbcc.a(read.c.o)
 .debug_loc     0x0000000000016626       0x5c /home/fsw/rep/tasa/lib/bcc-2.2.3-gcc/bin/../sparc-gaisler-elf/bsp/leon3/mfix-b2bst/soft/libbcc.a(sbrk.c.o)
 .debug_loc     0x0000000000016682       0xdc /home/fsw/rep/tasa/lib/bcc-2.2.3-gcc/bin/../sparc-gaisler-elf/bsp/leon3/mfix-b2bst/soft/libbcc.a(write.c.o)
 .debug_loc     0x000000000001675e       0xa7 /home/fsw/rep/tasa/lib/bcc-2.2.3-gcc/bin/../sparc-gaisler-elf/bsp/leon3/mfix-b2bst/soft/libbcc.a(con_apbuart.c.o)
 .debug_loc     0x0000000000016805      0x58c /home/fsw/rep/tasa/lib/bcc-2.2.3-gcc/bin/../lib/gcc/sparc-gaisler-elf/10.2.0/mfix-b2bst/soft/libgcc.a(_udivdi3.o)
 .debug_loc     0x0000000000016d91      0x5df /home/fsw/rep/tasa/lib/bcc-2.2.3-gcc/bin/../lib/gcc/sparc-gaisler-elf/10.2.0/mfix-b2bst/soft/libgcc.a(_umoddi3.o)
 .debug_loc     0x0000000000017370      0xfbe /home/fsw/rep/tasa/lib/bcc-2.2.3-gcc/bin/../lib/gcc/sparc-gaisler-elf/10.2.0/mfix-b2bst/soft/libgcc.a(_addsub_df.o)
 .debug_loc     0x000000000001832e      0x562 /home/fsw/rep/tasa/lib/bcc-2.2.3-gcc/bin/../lib/gcc/sparc-gaisler-elf/10.2.0/mfix-b2bst/soft/libgcc.a(_mul_df.o)
 .debug_loc     0x0000000000018890      0x2a9 /home/fsw/rep/tasa/lib/bcc-2.2.3-gcc/bin/../lib/gcc/sparc-gaisler-elf/10.2.0/mfix-b2bst/soft/libgcc.a(_div_df.o)
 .debug_loc     0x0000000000018b39       0x98 /home/fsw/rep/tasa/lib/bcc-2.2.3-gcc/bin/../lib/gcc/sparc-gaisler-elf/10.2.0/mfix-b2bst/soft/libgcc.a(_eq_df.o)
 .debug_loc     0x0000000000018bd1       0x98 /home/fsw/rep/tasa/lib/bcc-2.2.3-gcc/bin/../lib/gcc/sparc-gaisler-elf/10.2.0/mfix-b2bst/soft/libgcc.a(_ne_df.o)
 .debug_loc     0x0000000000018c69       0x98 /home/fsw/rep/tasa/lib/bcc-2.2.3-gcc/bin/../lib/gcc/sparc-gaisler-elf/10.2.0/mfix-b2bst/soft/libgcc.a(_gt_df.o)
 .debug_loc     0x0000000000018d01       0x98 /home/fsw/rep/tasa/lib/bcc-2.2.3-gcc/bin/../lib/gcc/sparc-gaisler-elf/10.2.0/mfix-b2bst/soft/libgcc.a(_lt_df.o)
 .debug_loc     0x0000000000018d99       0x98 /home/fsw/rep/tasa/lib/bcc-2.2.3-gcc/bin/../lib/gcc/sparc-gaisler-elf/10.2.0/mfix-b2bst/soft/libgcc.a(_le_df.o)
 .debug_loc     0x0000000000018e31       0x98 /home/fsw/rep/tasa/lib/bcc-2.2.3-gcc/bin/../lib/gcc/sparc-gaisler-elf/10.2.0/mfix-b2bst/soft/libgcc.a(_unord_df.o)
 .debug_loc     0x0000000000018ec9       0xe2 /home/fsw/rep/tasa/lib/bcc-2.2.3-gcc/bin/../lib/gcc/sparc-gaisler-elf/10.2.0/mfix-b2bst/soft/libgcc.a(_si_to_df.o)
 .debug_loc     0x0000000000018fab       0x6a /home/fsw/rep/tasa/lib/bcc-2.2.3-gcc/bin/../lib/gcc/sparc-gaisler-elf/10.2.0/mfix-b2bst/soft/libgcc.a(_df_to_si.o)
 .debug_loc     0x0000000000019015       0x86 /home/fsw/rep/tasa/lib/bcc-2.2.3-gcc/bin/../lib/gcc/sparc-gaisler-elf/10.2.0/mfix-b2bst/soft/libgcc.a(_usi_to_df.o)
 .debug_loc     0x000000000001909b       0x6a /home/fsw/rep/tasa/lib/bcc-2.2.3-gcc/bin/../lib/gcc/sparc-gaisler-elf/10.2.0/mfix-b2bst/soft/libgcc.a(_muldi3.o)
 .debug_loc     0x0000000000019105       0xf8 /home/fsw/rep/tasa/lib/bcc-2.2.3-gcc/bin/../lib/gcc/sparc-gaisler-elf/10.2.0/mfix-b2bst/soft/libgcc.a(_clzsi2.o)
 .debug_loc     0x00000000000191fd      0x436 /home/fsw/rep/tasa/lib/bcc-2.2.3-gcc/bin/../lib/gcc/sparc-gaisler-elf/10.2.0/mfix-b2bst/soft/libgcc.a(_pack_df.o)
 .debug_loc     0x0000000000019633       0x74 /home/fsw/rep/tasa/lib/bcc-2.2.3-gcc/bin/../lib/gcc/sparc-gaisler-elf/10.2.0/mfix-b2bst/soft/libgcc.a(_unpack_df.o)
 .debug_loc     0x00000000000196a7       0xfd /home/fsw/rep/tasa/lib/bcc-2.2.3-gcc/bin/../lib/gcc/sparc-gaisler-elf/10.2.0/mfix-b2bst/soft/libgcc.a(_fpcmp_parts_df.o)

.comment        0x0000000000000000       0x19
 .comment       0x0000000000000000       0x19 /home/fsw/rep/tasa/lib/bcc-2.2.3-gcc/bin/../lib/gcc/sparc-gaisler-elf/10.2.0/mfix-b2bst/soft/crtbegin.o
                                         0x1a (size before relaxing)
 .comment       0x0000000000000019       0x1a /tmp/ccjQJ0Dl.o
 .comment       0x0000000000000019       0x1a /home/fsw/rep/tasa/lib/bcc-2.2.3-gcc/bin/../sparc-gaisler-elf/bsp/leon3/mfix-b2bst/soft/libbcc.a(isr.c.o)
 .comment       0x0000000000000019       0x1a /home/fsw/rep/tasa/lib/bcc-2.2.3-gcc/bin/../sparc-gaisler-elf/bsp/leon3/mfix-b2bst/soft/libbcc.a(int_nest.c.o)
 .comment       0x0000000000000019       0x1a /home/fsw/rep/tasa/lib/bcc-2.2.3-gcc/bin/../sparc-gaisler-elf/bsp/leon3/mfix-b2bst/soft/libbcc.a(copy_data.c.o)
 .comment       0x0000000000000019       0x1a /home/fsw/rep/tasa/lib/bcc-2.2.3-gcc/bin/../sparc-gaisler-elf/bsp/leon3/mfix-b2bst/soft/libbcc.a(argv.c.o)
 .comment       0x0000000000000019       0x1a /home/fsw/rep/tasa/lib/bcc-2.2.3-gcc/bin/../sparc-gaisler-elf/bsp/leon3/mfix-b2bst/soft/libbcc.a(int_irqmp_get_source.c.o)
 .comment       0x0000000000000019       0x1a /home/fsw/rep/tasa/lib/bcc-2.2.3-gcc/bin/../sparc-gaisler-elf/bsp/leon3/mfix-b2bst/soft/libbcc.a(int_irqmp_mp.c.o)
 .comment       0x0000000000000019       0x1a /home/fsw/rep/tasa/lib/bcc-2.2.3-gcc/bin/../sparc-gaisler-elf/bsp/leon3/mfix-b2bst/soft/libbcc.a(int_irqmp_init.c.o)
 .comment       0x0000000000000019       0x1a /home/fsw/rep/tasa/lib/bcc-2.2.3-gcc/bin/../sparc-gaisler-elf/bsp/leon3/mfix-b2bst/soft/libbcc.a(con_apbuart_init.c.o)
 .comment       0x0000000000000019       0x1a /home/fsw/rep/tasa/lib/bcc-2.2.3-gcc/bin/../sparc-gaisler-elf/bsp/leon3/mfix-b2bst/soft/libbcc.a(timer_gptimer_init.c.o)
 .comment       0x0000000000000019       0x1a /home/fsw/rep/tasa/lib/bcc-2.2.3-gcc/bin/../sparc-gaisler-elf/bsp/leon3/mfix-b2bst/soft/libbcc.a(ambapp.c.o)
 .comment       0x0000000000000019       0x1a /home/fsw/rep/tasa/lib/bcc-2.2.3-gcc/bin/../sparc-gaisler-elf/bsp/leon3/mfix-b2bst/soft/libbcc.a(ambapp_findfirst_fn.c.o)
 .comment       0x0000000000000019       0x1a /home/fsw/rep/tasa/lib/bcc-2.2.3-gcc/bin/../sparc-gaisler-elf/bsp/leon3/mfix-b2bst/soft/libbcc.a(int_irqmp_handle.c.o)
 .comment       0x0000000000000019       0x1a /home/fsw/rep/tasa/lib/bcc-2.2.3-gcc/bin/../sparc-gaisler-elf/bsp/leon3/mfix-b2bst/soft/libbcc.a(con_handle.c.o)
 .comment       0x0000000000000019       0x1a /home/fsw/rep/tasa/lib/bcc-2.2.3-gcc/bin/../sparc-gaisler-elf/bsp/leon3/mfix-b2bst/soft/libbcc.a(timer_handle.c.o)
 .comment       0x0000000000000019       0x1a /home/fsw/rep/tasa/lib/bcc-2.2.3-gcc/bin/../lib/gcc/sparc-gaisler-elf/10.2.0/../../../../sparc-gaisler-elf/lib/mfix-b2bst/soft/libc.a(lib_a-atexit.o)
 .comment       0x0000000000000019       0x1a /home/fsw/rep/tasa/lib/bcc-2.2.3-gcc/bin/../lib/gcc/sparc-gaisler-elf/10.2.0/../../../../sparc-gaisler-elf/lib/mfix-b2bst/soft/libc.a(lib_a-exit.o)
 .comment       0x0000000000000019       0x1a /home/fsw/rep/tasa/lib/bcc-2.2.3-gcc/bin/../lib/gcc/sparc-gaisler-elf/10.2.0/../../../../sparc-gaisler-elf/lib/mfix-b2bst/soft/libc.a(lib_a-impure.o)
 .comment       0x0000000000000019       0x1a /home/fsw/rep/tasa/lib/bcc-2.2.3-gcc/bin/../lib/gcc/sparc-gaisler-elf/10.2.0/../../../../sparc-gaisler-elf/lib/mfix-b2bst/soft/libc.a(lib_a-memcpy.o)
 .comment       0x0000000000000019       0x1a /home/fsw/rep/tasa/lib/bcc-2.2.3-gcc/bin/../lib/gcc/sparc-gaisler-elf/10.2.0/../../../../sparc-gaisler-elf/lib/mfix-b2bst/soft/libc.a(lib_a-printf.o)
 .comment       0x0000000000000019       0x1a /home/fsw/rep/tasa/lib/bcc-2.2.3-gcc/bin/../lib/gcc/sparc-gaisler-elf/10.2.0/../../../../sparc-gaisler-elf/lib/mfix-b2bst/soft/libc.a(lib_a-putchar.o)
 .comment       0x0000000000000019       0x1a /home/fsw/rep/tasa/lib/bcc-2.2.3-gcc/bin/../lib/gcc/sparc-gaisler-elf/10.2.0/../../../../sparc-gaisler-elf/lib/mfix-b2bst/soft/libc.a(lib_a-puts.o)
 .comment       0x0000000000000019       0x1a /home/fsw/rep/tasa/lib/bcc-2.2.3-gcc/bin/../lib/gcc/sparc-gaisler-elf/10.2.0/../../../../sparc-gaisler-elf/lib/mfix-b2bst/soft/libc.a(lib_a-strlen.o)
 .comment       0x0000000000000019       0x1a /home/fsw/rep/tasa/lib/bcc-2.2.3-gcc/bin/../lib/gcc/sparc-gaisler-elf/10.2.0/../../../../sparc-gaisler-elf/lib/mfix-b2bst/soft/libc.a(lib_a-vfprintf.o)
 .comment       0x0000000000000019       0x1a /home/fsw/rep/tasa/lib/bcc-2.2.3-gcc/bin/../lib/gcc/sparc-gaisler-elf/10.2.0/../../../../sparc-gaisler-elf/lib/mfix-b2bst/soft/libc.a(lib_a-wsetup.o)
 .comment       0x0000000000000019       0x1a /home/fsw/rep/tasa/lib/bcc-2.2.3-gcc/bin/../lib/gcc/sparc-gaisler-elf/10.2.0/../../../../sparc-gaisler-elf/lib/mfix-b2bst/soft/libc.a(lib_a-__atexit.o)
 .comment       0x0000000000000019       0x1a /home/fsw/rep/tasa/lib/bcc-2.2.3-gcc/bin/../lib/gcc/sparc-gaisler-elf/10.2.0/../../../../sparc-gaisler-elf/lib/mfix-b2bst/soft/libc.a(lib_a-__call_atexit.o)
 .comment       0x0000000000000019       0x1a /home/fsw/rep/tasa/lib/bcc-2.2.3-gcc/bin/../lib/gcc/sparc-gaisler-elf/10.2.0/../../../../sparc-gaisler-elf/lib/mfix-b2bst/soft/libc.a(lib_a-dtoa.o)
 .comment       0x0000000000000019       0x1a /home/fsw/rep/tasa/lib/bcc-2.2.3-gcc/bin/../lib/gcc/sparc-gaisler-elf/10.2.0/../../../../sparc-gaisler-elf/lib/mfix-b2bst/soft/libc.a(lib_a-fflush.o)
 .comment       0x0000000000000019       0x1a /home/fsw/rep/tasa/lib/bcc-2.2.3-gcc/bin/../lib/gcc/sparc-gaisler-elf/10.2.0/../../../../sparc-gaisler-elf/lib/mfix-b2bst/soft/libc.a(lib_a-findfp.o)
 .comment       0x0000000000000019       0x1a /home/fsw/rep/tasa/lib/bcc-2.2.3-gcc/bin/../lib/gcc/sparc-gaisler-elf/10.2.0/../../../../sparc-gaisler-elf/lib/mfix-b2bst/soft/libc.a(lib_a-freer.o)
 .comment       0x0000000000000019       0x1a /home/fsw/rep/tasa/lib/bcc-2.2.3-gcc/bin/../lib/gcc/sparc-gaisler-elf/10.2.0/../../../../sparc-gaisler-elf/lib/mfix-b2bst/soft/libc.a(lib_a-fvwrite.o)
 .comment       0x0000000000000019       0x1a /home/fsw/rep/tasa/lib/bcc-2.2.3-gcc/bin/../lib/gcc/sparc-gaisler-elf/10.2.0/../../../../sparc-gaisler-elf/lib/mfix-b2bst/soft/libc.a(lib_a-fwalk.o)
 .comment       0x0000000000000019       0x1a /home/fsw/rep/tasa/lib/bcc-2.2.3-gcc/bin/../lib/gcc/sparc-gaisler-elf/10.2.0/../../../../sparc-gaisler-elf/lib/mfix-b2bst/soft/libc.a(lib_a-localeconv.o)
 .comment       0x0000000000000019       0x1a /home/fsw/rep/tasa/lib/bcc-2.2.3-gcc/bin/../lib/gcc/sparc-gaisler-elf/10.2.0/../../../../sparc-gaisler-elf/lib/mfix-b2bst/soft/libc.a(lib_a-makebuf.o)
 .comment       0x0000000000000019       0x1a /home/fsw/rep/tasa/lib/bcc-2.2.3-gcc/bin/../lib/gcc/sparc-gaisler-elf/10.2.0/../../../../sparc-gaisler-elf/lib/mfix-b2bst/soft/libc.a(lib_a-malloc.o)
 .comment       0x0000000000000019       0x1a /home/fsw/rep/tasa/lib/bcc-2.2.3-gcc/bin/../lib/gcc/sparc-gaisler-elf/10.2.0/../../../../sparc-gaisler-elf/lib/mfix-b2bst/soft/libc.a(lib_a-mallocr.o)
 .comment       0x0000000000000019       0x1a /home/fsw/rep/tasa/lib/bcc-2.2.3-gcc/bin/../lib/gcc/sparc-gaisler-elf/10.2.0/../../../../sparc-gaisler-elf/lib/mfix-b2bst/soft/libc.a(lib_a-memchr.o)
 .comment       0x0000000000000019       0x1a /home/fsw/rep/tasa/lib/bcc-2.2.3-gcc/bin/../lib/gcc/sparc-gaisler-elf/10.2.0/../../../../sparc-gaisler-elf/lib/mfix-b2bst/soft/libc.a(lib_a-memmove.o)
 .comment       0x0000000000000019       0x1a /home/fsw/rep/tasa/lib/bcc-2.2.3-gcc/bin/../lib/gcc/sparc-gaisler-elf/10.2.0/../../../../sparc-gaisler-elf/lib/mfix-b2bst/soft/libc.a(lib_a-memset.o)
 .comment       0x0000000000000019       0x1a /home/fsw/rep/tasa/lib/bcc-2.2.3-gcc/bin/../lib/gcc/sparc-gaisler-elf/10.2.0/../../../../sparc-gaisler-elf/lib/mfix-b2bst/soft/libc.a(lib_a-mlock.o)
 .comment       0x0000000000000019       0x1a /home/fsw/rep/tasa/lib/bcc-2.2.3-gcc/bin/../lib/gcc/sparc-gaisler-elf/10.2.0/../../../../sparc-gaisler-elf/lib/mfix-b2bst/soft/libc.a(lib_a-mprec.o)
 .comment       0x0000000000000019       0x1a /home/fsw/rep/tasa/lib/bcc-2.2.3-gcc/bin/../lib/gcc/sparc-gaisler-elf/10.2.0/../../../../sparc-gaisler-elf/lib/mfix-b2bst/soft/libc.a(lib_a-putc.o)
 .comment       0x0000000000000019       0x1a /home/fsw/rep/tasa/lib/bcc-2.2.3-gcc/bin/../lib/gcc/sparc-gaisler-elf/10.2.0/../../../../sparc-gaisler-elf/lib/mfix-b2bst/soft/libc.a(lib_a-reallocr.o)
 .comment       0x0000000000000019       0x1a /home/fsw/rep/tasa/lib/bcc-2.2.3-gcc/bin/../lib/gcc/sparc-gaisler-elf/10.2.0/../../../../sparc-gaisler-elf/lib/mfix-b2bst/soft/libc.a(lib_a-s_frexp.o)
 .comment       0x0000000000000019       0x1a /home/fsw/rep/tasa/lib/bcc-2.2.3-gcc/bin/../lib/gcc/sparc-gaisler-elf/10.2.0/../../../../sparc-gaisler-elf/lib/mfix-b2bst/soft/libc.a(lib_a-sbrkr.o)
 .comment       0x0000000000000019       0x1a /home/fsw/rep/tasa/lib/bcc-2.2.3-gcc/bin/../lib/gcc/sparc-gaisler-elf/10.2.0/../../../../sparc-gaisler-elf/lib/mfix-b2bst/soft/libc.a(lib_a-stdio.o)
 .comment       0x0000000000000019       0x1a /home/fsw/rep/tasa/lib/bcc-2.2.3-gcc/bin/../lib/gcc/sparc-gaisler-elf/10.2.0/../../../../sparc-gaisler-elf/lib/mfix-b2bst/soft/libc.a(lib_a-strncpy.o)
 .comment       0x0000000000000019       0x1a /home/fsw/rep/tasa/lib/bcc-2.2.3-gcc/bin/../lib/gcc/sparc-gaisler-elf/10.2.0/../../../../sparc-gaisler-elf/lib/mfix-b2bst/soft/libc.a(lib_a-vfiprintf.o)
 .comment       0x0000000000000019       0x1a /home/fsw/rep/tasa/lib/bcc-2.2.3-gcc/bin/../lib/gcc/sparc-gaisler-elf/10.2.0/../../../../sparc-gaisler-elf/lib/mfix-b2bst/soft/libc.a(lib_a-wbuf.o)
 .comment       0x0000000000000019       0x1a /home/fsw/rep/tasa/lib/bcc-2.2.3-gcc/bin/../lib/gcc/sparc-gaisler-elf/10.2.0/../../../../sparc-gaisler-elf/lib/mfix-b2bst/soft/libc.a(lib_a-writer.o)
 .comment       0x0000000000000019       0x1a /home/fsw/rep/tasa/lib/bcc-2.2.3-gcc/bin/../lib/gcc/sparc-gaisler-elf/10.2.0/../../../../sparc-gaisler-elf/lib/mfix-b2bst/soft/libc.a(lib_a-callocr.o)
 .comment       0x0000000000000019       0x1a /home/fsw/rep/tasa/lib/bcc-2.2.3-gcc/bin/../lib/gcc/sparc-gaisler-elf/10.2.0/../../../../sparc-gaisler-elf/lib/mfix-b2bst/soft/libc.a(lib_a-closer.o)
 .comment       0x0000000000000019       0x1a /home/fsw/rep/tasa/lib/bcc-2.2.3-gcc/bin/../lib/gcc/sparc-gaisler-elf/10.2.0/../../../../sparc-gaisler-elf/lib/mfix-b2bst/soft/libc.a(lib_a-fclose.o)
 .comment       0x0000000000000019       0x1a /home/fsw/rep/tasa/lib/bcc-2.2.3-gcc/bin/../lib/gcc/sparc-gaisler-elf/10.2.0/../../../../sparc-gaisler-elf/lib/mfix-b2bst/soft/libc.a(lib_a-fputwc.o)
 .comment       0x0000000000000019       0x1a /home/fsw/rep/tasa/lib/bcc-2.2.3-gcc/bin/../lib/gcc/sparc-gaisler-elf/10.2.0/../../../../sparc-gaisler-elf/lib/mfix-b2bst/soft/libc.a(lib_a-fstatr.o)
 .comment       0x0000000000000019       0x1a /home/fsw/rep/tasa/lib/bcc-2.2.3-gcc/bin/../lib/gcc/sparc-gaisler-elf/10.2.0/../../../../sparc-gaisler-elf/lib/mfix-b2bst/soft/libc.a(lib_a-isattyr.o)
 .comment       0x0000000000000019       0x1a /home/fsw/rep/tasa/lib/bcc-2.2.3-gcc/bin/../lib/gcc/sparc-gaisler-elf/10.2.0/../../../../sparc-gaisler-elf/lib/mfix-b2bst/soft/libc.a(lib_a-locale.o)
 .comment       0x0000000000000019       0x1a /home/fsw/rep/tasa/lib/bcc-2.2.3-gcc/bin/../lib/gcc/sparc-gaisler-elf/10.2.0/../../../../sparc-gaisler-elf/lib/mfix-b2bst/soft/libc.a(lib_a-lseekr.o)
 .comment       0x0000000000000019       0x1a /home/fsw/rep/tasa/lib/bcc-2.2.3-gcc/bin/../lib/gcc/sparc-gaisler-elf/10.2.0/../../../../sparc-gaisler-elf/lib/mfix-b2bst/soft/libc.a(lib_a-mbtowc_r.o)
 .comment       0x0000000000000019       0x1a /home/fsw/rep/tasa/lib/bcc-2.2.3-gcc/bin/../lib/gcc/sparc-gaisler-elf/10.2.0/../../../../sparc-gaisler-elf/lib/mfix-b2bst/soft/libc.a(lib_a-readr.o)
 .comment       0x0000000000000019       0x1a /home/fsw/rep/tasa/lib/bcc-2.2.3-gcc/bin/../lib/gcc/sparc-gaisler-elf/10.2.0/../../../../sparc-gaisler-elf/lib/mfix-b2bst/soft/libc.a(lib_a-reent.o)
 .comment       0x0000000000000019       0x1a /home/fsw/rep/tasa/lib/bcc-2.2.3-gcc/bin/../lib/gcc/sparc-gaisler-elf/10.2.0/../../../../sparc-gaisler-elf/lib/mfix-b2bst/soft/libc.a(lib_a-strcmp.o)
 .comment       0x0000000000000019       0x1a /home/fsw/rep/tasa/lib/bcc-2.2.3-gcc/bin/../lib/gcc/sparc-gaisler-elf/10.2.0/../../../../sparc-gaisler-elf/lib/mfix-b2bst/soft/libc.a(lib_a-wcrtomb.o)
 .comment       0x0000000000000019       0x1a /home/fsw/rep/tasa/lib/bcc-2.2.3-gcc/bin/../lib/gcc/sparc-gaisler-elf/10.2.0/../../../../sparc-gaisler-elf/lib/mfix-b2bst/soft/libc.a(lib_a-wctomb_r.o)
 .comment       0x0000000000000019       0x1a /home/fsw/rep/tasa/lib/bcc-2.2.3-gcc/bin/../lib/gcc/sparc-gaisler-elf/10.2.0/../../../../sparc-gaisler-elf/lib/mfix-b2bst/soft/libc.a(lib_a-ctype_.o)
 .comment       0x0000000000000019       0x1a /home/fsw/rep/tasa/lib/bcc-2.2.3-gcc/bin/../sparc-gaisler-elf/bsp/leon3/mfix-b2bst/soft/libbcc.a(read.c.o)
 .comment       0x0000000000000019       0x1a /home/fsw/rep/tasa/lib/bcc-2.2.3-gcc/bin/../sparc-gaisler-elf/bsp/leon3/mfix-b2bst/soft/libbcc.a(sbrk.c.o)
 .comment       0x0000000000000019       0x1a /home/fsw/rep/tasa/lib/bcc-2.2.3-gcc/bin/../sparc-gaisler-elf/bsp/leon3/mfix-b2bst/soft/libbcc.a(heap.c.o)
 .comment       0x0000000000000019       0x1a /home/fsw/rep/tasa/lib/bcc-2.2.3-gcc/bin/../sparc-gaisler-elf/bsp/leon3/mfix-b2bst/soft/libbcc.a(write.c.o)
 .comment       0x0000000000000019       0x1a /home/fsw/rep/tasa/lib/bcc-2.2.3-gcc/bin/../sparc-gaisler-elf/bsp/leon3/mfix-b2bst/soft/libbcc.a(con_apbuart.c.o)
 .comment       0x0000000000000019       0x1a /home/fsw/rep/tasa/lib/bcc-2.2.3-gcc/bin/../lib/gcc/sparc-gaisler-elf/10.2.0/mfix-b2bst/soft/libgcc.a(_udivdi3.o)
 .comment       0x0000000000000019       0x1a /home/fsw/rep/tasa/lib/bcc-2.2.3-gcc/bin/../lib/gcc/sparc-gaisler-elf/10.2.0/mfix-b2bst/soft/libgcc.a(_umoddi3.o)
 .comment       0x0000000000000019       0x1a /home/fsw/rep/tasa/lib/bcc-2.2.3-gcc/bin/../lib/gcc/sparc-gaisler-elf/10.2.0/mfix-b2bst/soft/libgcc.a(_addsub_df.o)
 .comment       0x0000000000000019       0x1a /home/fsw/rep/tasa/lib/bcc-2.2.3-gcc/bin/../lib/gcc/sparc-gaisler-elf/10.2.0/mfix-b2bst/soft/libgcc.a(_mul_df.o)
 .comment       0x0000000000000019       0x1a /home/fsw/rep/tasa/lib/bcc-2.2.3-gcc/bin/../lib/gcc/sparc-gaisler-elf/10.2.0/mfix-b2bst/soft/libgcc.a(_div_df.o)
 .comment       0x0000000000000019       0x1a /home/fsw/rep/tasa/lib/bcc-2.2.3-gcc/bin/../lib/gcc/sparc-gaisler-elf/10.2.0/mfix-b2bst/soft/libgcc.a(_eq_df.o)
 .comment       0x0000000000000019       0x1a /home/fsw/rep/tasa/lib/bcc-2.2.3-gcc/bin/../lib/gcc/sparc-gaisler-elf/10.2.0/mfix-b2bst/soft/libgcc.a(_ne_df.o)
 .comment       0x0000000000000019       0x1a /home/fsw/rep/tasa/lib/bcc-2.2.3-gcc/bin/../lib/gcc/sparc-gaisler-elf/10.2.0/mfix-b2bst/soft/libgcc.a(_gt_df.o)
 .comment       0x0000000000000019       0x1a /home/fsw/rep/tasa/lib/bcc-2.2.3-gcc/bin/../lib/gcc/sparc-gaisler-elf/10.2.0/mfix-b2bst/soft/libgcc.a(_lt_df.o)
 .comment       0x0000000000000019       0x1a /home/fsw/rep/tasa/lib/bcc-2.2.3-gcc/bin/../lib/gcc/sparc-gaisler-elf/10.2.0/mfix-b2bst/soft/libgcc.a(_le_df.o)
 .comment       0x0000000000000019       0x1a /home/fsw/rep/tasa/lib/bcc-2.2.3-gcc/bin/../lib/gcc/sparc-gaisler-elf/10.2.0/mfix-b2bst/soft/libgcc.a(_unord_df.o)
 .comment       0x0000000000000019       0x1a /home/fsw/rep/tasa/lib/bcc-2.2.3-gcc/bin/../lib/gcc/sparc-gaisler-elf/10.2.0/mfix-b2bst/soft/libgcc.a(_si_to_df.o)
 .comment       0x0000000000000019       0x1a /home/fsw/rep/tasa/lib/bcc-2.2.3-gcc/bin/../lib/gcc/sparc-gaisler-elf/10.2.0/mfix-b2bst/soft/libgcc.a(_df_to_si.o)
 .comment       0x0000000000000019       0x1a /home/fsw/rep/tasa/lib/bcc-2.2.3-gcc/bin/../lib/gcc/sparc-gaisler-elf/10.2.0/mfix-b2bst/soft/libgcc.a(_thenan_df.o)
 .comment       0x0000000000000019       0x1a /home/fsw/rep/tasa/lib/bcc-2.2.3-gcc/bin/../lib/gcc/sparc-gaisler-elf/10.2.0/mfix-b2bst/soft/libgcc.a(_usi_to_df.o)
 .comment       0x0000000000000019       0x1a /home/fsw/rep/tasa/lib/bcc-2.2.3-gcc/bin/../lib/gcc/sparc-gaisler-elf/10.2.0/mfix-b2bst/soft/libgcc.a(_muldi3.o)
 .comment       0x0000000000000019       0x1a /home/fsw/rep/tasa/lib/bcc-2.2.3-gcc/bin/../lib/gcc/sparc-gaisler-elf/10.2.0/mfix-b2bst/soft/libgcc.a(_clz.o)
 .comment       0x0000000000000019       0x1a /home/fsw/rep/tasa/lib/bcc-2.2.3-gcc/bin/../lib/gcc/sparc-gaisler-elf/10.2.0/mfix-b2bst/soft/libgcc.a(_clzsi2.o)
 .comment       0x0000000000000019       0x1a /home/fsw/rep/tasa/lib/bcc-2.2.3-gcc/bin/../lib/gcc/sparc-gaisler-elf/10.2.0/mfix-b2bst/soft/libgcc.a(_pack_df.o)
 .comment       0x0000000000000019       0x1a /home/fsw/rep/tasa/lib/bcc-2.2.3-gcc/bin/../lib/gcc/sparc-gaisler-elf/10.2.0/mfix-b2bst/soft/libgcc.a(_unpack_df.o)
 .comment       0x0000000000000019       0x1a /home/fsw/rep/tasa/lib/bcc-2.2.3-gcc/bin/../lib/gcc/sparc-gaisler-elf/10.2.0/mfix-b2bst/soft/libgcc.a(_fpcmp_parts_df.o)
 .comment       0x0000000000000019       0x1a /home/fsw/rep/tasa/lib/bcc-2.2.3-gcc/bin/../lib/gcc/sparc-gaisler-elf/10.2.0/mfix-b2bst/soft/crtend.o

.debug_macinfo
 *(.debug_macinfo)

.debug_weaknames
 *(.debug_weaknames)

.debug_funcnames
 *(.debug_funcnames)

.debug_typenames
 *(.debug_typenames)

.debug_varnames
 *(.debug_varnames)
LOAD /home/fsw/rep/tasa/lib/bcc-2.2.3-gcc/bin/../lib/gcc/sparc-gaisler-elf/10.2.0/mfix-b2bst/soft/libgcc.a
START GROUP
LOAD /home/fsw/rep/tasa/lib/bcc-2.2.3-gcc/bin/../sparc-gaisler-elf/bsp/leon3/mfix-b2bst/soft/libbcc.a
LOAD /home/fsw/rep/tasa/lib/bcc-2.2.3-gcc/bin/../lib/gcc/sparc-gaisler-elf/10.2.0/mfix-b2bst/soft/libatomic.a
LOAD /home/fsw/rep/tasa/lib/bcc-2.2.3-gcc/bin/../lib/gcc/sparc-gaisler-elf/10.2.0/../../../../sparc-gaisler-elf/lib/mfix-b2bst/soft/libc.a
END GROUP
LOAD /home/fsw/rep/tasa/lib/bcc-2.2.3-gcc/bin/../lib/gcc/sparc-gaisler-elf/10.2.0/mfix-b2bst/soft/libgcc.a
LOAD /home/fsw/rep/tasa/lib/bcc-2.2.3-gcc/bin/../lib/gcc/sparc-gaisler-elf/10.2.0/mfix-b2bst/soft/crtend.o
LOAD /home/fsw/rep/tasa/lib/bcc-2.2.3-gcc/bin/../lib/gcc/sparc-gaisler-elf/10.2.0/mfix-b2bst/soft/crtn.o
OUTPUT(bin/leon3/mfix-b2bst/soft/bcc_amp0.elf elf32-sparc)

.debug_ranges   0x0000000000000000     0x19d8
 .debug_ranges  0x0000000000000000       0x10 /tmp/ccjQJ0Dl.o
 .debug_ranges  0x0000000000000010       0x90 /home/fsw/rep/tasa/lib/bcc-2.2.3-gcc/bin/../sparc-gaisler-elf/bsp/leon3/mfix-b2bst/soft/libbcc.a(int_irqmp_init.c.o)
 .debug_ranges  0x00000000000000a0      0x180 /home/fsw/rep/tasa/lib/bcc-2.2.3-gcc/bin/../sparc-gaisler-elf/bsp/leon3/mfix-b2bst/soft/libbcc.a(ambapp.c.o)
 .debug_ranges  0x0000000000000220       0x18 /home/fsw/rep/tasa/lib/bcc-2.2.3-gcc/bin/../sparc-gaisler-elf/bsp/leon3/mfix-b2bst/soft/libbcc.a(ambapp_findfirst_fn.c.o)
 .debug_ranges  0x0000000000000238       0x78 /home/fsw/rep/tasa/lib/bcc-2.2.3-gcc/bin/../lib/gcc/sparc-gaisler-elf/10.2.0/../../../../sparc-gaisler-elf/lib/mfix-b2bst/soft/libc.a(lib_a-puts.o)
 .debug_ranges  0x00000000000002b0      0x2b0 /home/fsw/rep/tasa/lib/bcc-2.2.3-gcc/bin/../lib/gcc/sparc-gaisler-elf/10.2.0/../../../../sparc-gaisler-elf/lib/mfix-b2bst/soft/libc.a(lib_a-vfprintf.o)
 .debug_ranges  0x0000000000000560       0x28 /home/fsw/rep/tasa/lib/bcc-2.2.3-gcc/bin/../lib/gcc/sparc-gaisler-elf/10.2.0/../../../../sparc-gaisler-elf/lib/mfix-b2bst/soft/libc.a(lib_a-wsetup.o)
 .debug_ranges  0x0000000000000588       0x60 /home/fsw/rep/tasa/lib/bcc-2.2.3-gcc/bin/../lib/gcc/sparc-gaisler-elf/10.2.0/../../../../sparc-gaisler-elf/lib/mfix-b2bst/soft/libc.a(lib_a-__call_atexit.o)
 .debug_ranges  0x00000000000005e8       0x18 /home/fsw/rep/tasa/lib/bcc-2.2.3-gcc/bin/../lib/gcc/sparc-gaisler-elf/10.2.0/../../../../sparc-gaisler-elf/lib/mfix-b2bst/soft/libc.a(lib_a-dtoa.o)
 .debug_ranges  0x0000000000000600       0xa8 /home/fsw/rep/tasa/lib/bcc-2.2.3-gcc/bin/../lib/gcc/sparc-gaisler-elf/10.2.0/../../../../sparc-gaisler-elf/lib/mfix-b2bst/soft/libc.a(lib_a-fflush.o)
 .debug_ranges  0x00000000000006a8       0x88 /home/fsw/rep/tasa/lib/bcc-2.2.3-gcc/bin/../lib/gcc/sparc-gaisler-elf/10.2.0/../../../../sparc-gaisler-elf/lib/mfix-b2bst/soft/libc.a(lib_a-findfp.o)
 .debug_ranges  0x0000000000000730       0x30 /home/fsw/rep/tasa/lib/bcc-2.2.3-gcc/bin/../lib/gcc/sparc-gaisler-elf/10.2.0/../../../../sparc-gaisler-elf/lib/mfix-b2bst/soft/libc.a(lib_a-fvwrite.o)
 .debug_ranges  0x0000000000000760       0x70 /home/fsw/rep/tasa/lib/bcc-2.2.3-gcc/bin/../lib/gcc/sparc-gaisler-elf/10.2.0/../../../../sparc-gaisler-elf/lib/mfix-b2bst/soft/libc.a(lib_a-localeconv.o)
 .debug_ranges  0x00000000000007d0       0x40 /home/fsw/rep/tasa/lib/bcc-2.2.3-gcc/bin/../lib/gcc/sparc-gaisler-elf/10.2.0/../../../../sparc-gaisler-elf/lib/mfix-b2bst/soft/libc.a(lib_a-makebuf.o)
 .debug_ranges  0x0000000000000810       0x30 /home/fsw/rep/tasa/lib/bcc-2.2.3-gcc/bin/../lib/gcc/sparc-gaisler-elf/10.2.0/../../../../sparc-gaisler-elf/lib/mfix-b2bst/soft/libc.a(lib_a-mallocr.o)
 .debug_ranges  0x0000000000000840      0x328 /home/fsw/rep/tasa/lib/bcc-2.2.3-gcc/bin/../lib/gcc/sparc-gaisler-elf/10.2.0/../../../../sparc-gaisler-elf/lib/mfix-b2bst/soft/libc.a(lib_a-mprec.o)
 .debug_ranges  0x0000000000000b68       0x70 /home/fsw/rep/tasa/lib/bcc-2.2.3-gcc/bin/../lib/gcc/sparc-gaisler-elf/10.2.0/../../../../sparc-gaisler-elf/lib/mfix-b2bst/soft/libc.a(lib_a-putc.o)
 .debug_ranges  0x0000000000000bd8      0x150 /home/fsw/rep/tasa/lib/bcc-2.2.3-gcc/bin/../lib/gcc/sparc-gaisler-elf/10.2.0/../../../../sparc-gaisler-elf/lib/mfix-b2bst/soft/libc.a(lib_a-reallocr.o)
 .debug_ranges  0x0000000000000d28       0x30 /home/fsw/rep/tasa/lib/bcc-2.2.3-gcc/bin/../lib/gcc/sparc-gaisler-elf/10.2.0/../../../../sparc-gaisler-elf/lib/mfix-b2bst/soft/libc.a(lib_a-s_frexp.o)
 .debug_ranges  0x0000000000000d58      0x650 /home/fsw/rep/tasa/lib/bcc-2.2.3-gcc/bin/../lib/gcc/sparc-gaisler-elf/10.2.0/../../../../sparc-gaisler-elf/lib/mfix-b2bst/soft/libc.a(lib_a-vfiprintf.o)
 .debug_ranges  0x00000000000013a8       0x80 /home/fsw/rep/tasa/lib/bcc-2.2.3-gcc/bin/../lib/gcc/sparc-gaisler-elf/10.2.0/../../../../sparc-gaisler-elf/lib/mfix-b2bst/soft/libc.a(lib_a-wbuf.o)
 .debug_ranges  0x0000000000001428       0x38 /home/fsw/rep/tasa/lib/bcc-2.2.3-gcc/bin/../lib/gcc/sparc-gaisler-elf/10.2.0/../../../../sparc-gaisler-elf/lib/mfix-b2bst/soft/libc.a(lib_a-callocr.o)
 .debug_ranges  0x0000000000001460       0x80 /home/fsw/rep/tasa/lib/bcc-2.2.3-gcc/bin/../lib/gcc/sparc-gaisler-elf/10.2.0/../../../../sparc-gaisler-elf/lib/mfix-b2bst/soft/libc.a(lib_a-fclose.o)
 .debug_ranges  0x00000000000014e0       0x30 /home/fsw/rep/tasa/lib/bcc-2.2.3-gcc/bin/../lib/gcc/sparc-gaisler-elf/10.2.0/../../../../sparc-gaisler-elf/lib/mfix-b2bst/soft/libc.a(lib_a-fputwc.o)
 .debug_ranges  0x0000000000001510       0x48 /home/fsw/rep/tasa/lib/bcc-2.2.3-gcc/bin/../lib/gcc/sparc-gaisler-elf/10.2.0/../../../../sparc-gaisler-elf/lib/mfix-b2bst/soft/libc.a(lib_a-locale.o)
 .debug_ranges  0x0000000000001558       0x18 /home/fsw/rep/tasa/lib/bcc-2.2.3-gcc/bin/../lib/gcc/sparc-gaisler-elf/10.2.0/../../../../sparc-gaisler-elf/lib/mfix-b2bst/soft/libc.a(lib_a-mbtowc_r.o)
 .debug_ranges  0x0000000000001570       0x20 /home/fsw/rep/tasa/lib/bcc-2.2.3-gcc/bin/../lib/gcc/sparc-gaisler-elf/10.2.0/../../../../sparc-gaisler-elf/lib/mfix-b2bst/soft/libc.a(lib_a-wcrtomb.o)
 .debug_ranges  0x0000000000001590       0x18 /home/fsw/rep/tasa/lib/bcc-2.2.3-gcc/bin/../lib/gcc/sparc-gaisler-elf/10.2.0/../../../../sparc-gaisler-elf/lib/mfix-b2bst/soft/libc.a(lib_a-wctomb_r.o)
 .debug_ranges  0x00000000000015a8       0x18 /home/fsw/rep/tasa/lib/bcc-2.2.3-gcc/bin/../sparc-gaisler-elf/bsp/leon3/mfix-b2bst/soft/libbcc.a(read.c.o)
 .debug_ranges  0x00000000000015c0       0x18 /home/fsw/rep/tasa/lib/bcc-2.2.3-gcc/bin/../sparc-gaisler-elf/bsp/leon3/mfix-b2bst/soft/libbcc.a(write.c.o)
 .debug_ranges  0x00000000000015d8       0x50 /home/fsw/rep/tasa/lib/bcc-2.2.3-gcc/bin/../lib/gcc/sparc-gaisler-elf/10.2.0/mfix-b2bst/soft/libgcc.a(_udivdi3.o)
 .debug_ranges  0x0000000000001628       0x48 /home/fsw/rep/tasa/lib/bcc-2.2.3-gcc/bin/../lib/gcc/sparc-gaisler-elf/10.2.0/mfix-b2bst/soft/libgcc.a(_umoddi3.o)
 .debug_ranges  0x0000000000001670      0x160 /home/fsw/rep/tasa/lib/bcc-2.2.3-gcc/bin/../lib/gcc/sparc-gaisler-elf/10.2.0/mfix-b2bst/soft/libgcc.a(_addsub_df.o)
 .debug_ranges  0x00000000000017d0       0x88 /home/fsw/rep/tasa/lib/bcc-2.2.3-gcc/bin/../lib/gcc/sparc-gaisler-elf/10.2.0/mfix-b2bst/soft/libgcc.a(_mul_df.o)
 .debug_ranges  0x0000000000001858       0x58 /home/fsw/rep/tasa/lib/bcc-2.2.3-gcc/bin/../lib/gcc/sparc-gaisler-elf/10.2.0/mfix-b2bst/soft/libgcc.a(_div_df.o)
 .debug_ranges  0x00000000000018b0       0x30 /home/fsw/rep/tasa/lib/bcc-2.2.3-gcc/bin/../lib/gcc/sparc-gaisler-elf/10.2.0/mfix-b2bst/soft/libgcc.a(_si_to_df.o)
 .debug_ranges  0x00000000000018e0       0x18 /home/fsw/rep/tasa/lib/bcc-2.2.3-gcc/bin/../lib/gcc/sparc-gaisler-elf/10.2.0/mfix-b2bst/soft/libgcc.a(_usi_to_df.o)
 .debug_ranges  0x00000000000018f8       0x18 /home/fsw/rep/tasa/lib/bcc-2.2.3-gcc/bin/../lib/gcc/sparc-gaisler-elf/10.2.0/mfix-b2bst/soft/libgcc.a(_muldi3.o)
 .debug_ranges  0x0000000000001910       0x48 /home/fsw/rep/tasa/lib/bcc-2.2.3-gcc/bin/../lib/gcc/sparc-gaisler-elf/10.2.0/mfix-b2bst/soft/libgcc.a(_clzsi2.o)
 .debug_ranges  0x0000000000001958       0x80 /home/fsw/rep/tasa/lib/bcc-2.2.3-gcc/bin/../lib/gcc/sparc-gaisler-elf/10.2.0/mfix-b2bst/soft/libgcc.a(_pack_df.o)
