Archive member included to satisfy reference by file (symbol)

/home/fsw/rep/tasa/lib/bcc-2.2.3-gcc/bin/../sparc-gaisler-elf/bsp/gr716/leon3/libbcc.a(reset_trap_mvt.S.o)
                              /home/fsw/rep/tasa/lib/bcc-2.2.3-gcc/bin/../sparc-gaisler-elf/bsp/gr716/leon3/trap_table_mvt.S.o (__bcc_trap_reset_mvt)
/home/fsw/rep/tasa/lib/bcc-2.2.3-gcc/bin/../sparc-gaisler-elf/bsp/gr716/leon3/libbcc.a(window_trap.S.o)
                              /home/fsw/rep/tasa/lib/bcc-2.2.3-gcc/bin/../sparc-gaisler-elf/bsp/gr716/leon3/trap_table_mvt.S.o (__bcc_trap_window_overflow)
/home/fsw/rep/tasa/lib/bcc-2.2.3-gcc/bin/../sparc-gaisler-elf/bsp/gr716/leon3/libbcc.a(interrupt_trap.S.o)
                              /home/fsw/rep/tasa/lib/bcc-2.2.3-gcc/bin/../sparc-gaisler-elf/bsp/gr716/leon3/trap_table_mvt.S.o (__bcc_trap_interrupt)
/home/fsw/rep/tasa/lib/bcc-2.2.3-gcc/bin/../sparc-gaisler-elf/bsp/gr716/leon3/libbcc.a(flush_windows_trap.S.o)
                              /home/fsw/rep/tasa/lib/bcc-2.2.3-gcc/bin/../sparc-gaisler-elf/bsp/gr716/leon3/trap_table_mvt.S.o (__bcc_trap_flush_windows)
/home/fsw/rep/tasa/lib/bcc-2.2.3-gcc/bin/../sparc-gaisler-elf/bsp/gr716/leon3/libbcc.a(sw_trap_set_pil.S.o)
                              /home/fsw/rep/tasa/lib/bcc-2.2.3-gcc/bin/../sparc-gaisler-elf/bsp/gr716/leon3/trap_table_mvt.S.o (__bcc_trap_sw_set_pil)
/home/fsw/rep/tasa/lib/bcc-2.2.3-gcc/bin/../sparc-gaisler-elf/bsp/gr716/leon3/libbcc.a(isr.c.o)
                              /home/fsw/rep/tasa/lib/bcc-2.2.3-gcc/bin/../sparc-gaisler-elf/bsp/gr716/leon3/libbcc.a(interrupt_trap.S.o) (__bcc_isr_list)
/home/fsw/rep/tasa/lib/bcc-2.2.3-gcc/bin/../sparc-gaisler-elf/bsp/gr716/leon3/libbcc.a(int_nest.c.o)
                              /home/fsw/rep/tasa/lib/bcc-2.2.3-gcc/bin/../sparc-gaisler-elf/bsp/gr716/leon3/libbcc.a(interrupt_trap.S.o) (__bcc_int_nest)
/home/fsw/rep/tasa/lib/bcc-2.2.3-gcc/bin/../sparc-gaisler-elf/bsp/gr716/leon3/libbcc.a(init.S.o)
                              /home/fsw/rep/tasa/lib/bcc-2.2.3-gcc/bin/../sparc-gaisler-elf/bsp/gr716/leon3/libbcc.a(reset_trap_mvt.S.o) (__bcc_init40)
/home/fsw/rep/tasa/lib/bcc-2.2.3-gcc/bin/../sparc-gaisler-elf/bsp/gr716/leon3/libbcc.a(leon_info.S.o)
                              /home/fsw/rep/tasa/lib/bcc-2.2.3-gcc/bin/../sparc-gaisler-elf/bsp/gr716/leon3/crt0.S.o (__bcc_get_leon_info)
/home/fsw/rep/tasa/lib/bcc-2.2.3-gcc/bin/../sparc-gaisler-elf/bsp/gr716/leon3/libbcc.a(dwzero.S.o)
                              /home/fsw/rep/tasa/lib/bcc-2.2.3-gcc/bin/../sparc-gaisler-elf/bsp/gr716/leon3/crt0.S.o (bcc_dwzero)
/home/fsw/rep/tasa/lib/bcc-2.2.3-gcc/bin/../sparc-gaisler-elf/bsp/gr716/leon3/libbcc.a(copy_data.c.o)
                              /home/fsw/rep/tasa/lib/bcc-2.2.3-gcc/bin/../sparc-gaisler-elf/bsp/gr716/leon3/crt0.S.o (__bcc_copy_data)
/home/fsw/rep/tasa/lib/bcc-2.2.3-gcc/bin/../sparc-gaisler-elf/bsp/gr716/leon3/libbcc.a(argv.c.o)
                              /home/fsw/rep/tasa/lib/bcc-2.2.3-gcc/bin/../sparc-gaisler-elf/bsp/gr716/leon3/crt0.S.o (__bcc_argvp)
/home/fsw/rep/tasa/lib/bcc-2.2.3-gcc/bin/../sparc-gaisler-elf/bsp/gr716/leon3/libbcc.a(int_irqmp_get_source.c.o)
                              /home/fsw/rep/tasa/lib/bcc-2.2.3-gcc/bin/../sparc-gaisler-elf/bsp/gr716/leon3/libbcc.a(interrupt_trap.S.o) (__bcc_int_get_source)
/home/fsw/rep/tasa/lib/bcc-2.2.3-gcc/bin/../sparc-gaisler-elf/bsp/gr716/leon3/libbcc.a(int_irqmp_mp.c.o)
                              /tmp/cct7UO0M.o (bcc_get_cpu_count)
/home/fsw/rep/tasa/lib/bcc-2.2.3-gcc/bin/../sparc-gaisler-elf/bsp/gr716/leon3/libbcc.a(int_irqmp_init.c.o)
                              /home/fsw/rep/tasa/lib/bcc-2.2.3-gcc/bin/../sparc-gaisler-elf/bsp/gr716/leon3/crt0.S.o (__bcc_int_init)
/home/fsw/rep/tasa/lib/bcc-2.2.3-gcc/bin/../sparc-gaisler-elf/bsp/gr716/leon3/libbcc.a(bsp_timer_init.c.o)
                              /home/fsw/rep/tasa/lib/bcc-2.2.3-gcc/bin/../sparc-gaisler-elf/bsp/gr716/leon3/crt0.S.o (__bcc_timer_init)
/home/fsw/rep/tasa/lib/bcc-2.2.3-gcc/bin/../sparc-gaisler-elf/bsp/gr716/leon3/libbcc.a(bsp_con_init.c.o)
                              /home/fsw/rep/tasa/lib/bcc-2.2.3-gcc/bin/../sparc-gaisler-elf/bsp/gr716/leon3/crt0.S.o (__bcc_con_init)
/home/fsw/rep/tasa/lib/bcc-2.2.3-gcc/bin/../sparc-gaisler-elf/bsp/gr716/leon3/libbcc.a(int_irqmp_handle.c.o)
                              /home/fsw/rep/tasa/lib/bcc-2.2.3-gcc/bin/../sparc-gaisler-elf/bsp/gr716/leon3/libbcc.a(int_irqmp_get_source.c.o) (__bcc_int_irqmp_eirq)
/home/fsw/rep/tasa/lib/bcc-2.2.3-gcc/bin/../sparc-gaisler-elf/bsp/gr716/leon3/libbcc.a(con_handle.c.o)
                              /home/fsw/rep/tasa/lib/bcc-2.2.3-gcc/bin/../sparc-gaisler-elf/bsp/gr716/leon3/libbcc.a(bsp_con_init.c.o) (__bcc_con_handle)
/home/fsw/rep/tasa/lib/bcc-2.2.3-gcc/bin/../sparc-gaisler-elf/bsp/gr716/leon3/libbcc.a(timer_handle.c.o)
                              /home/fsw/rep/tasa/lib/bcc-2.2.3-gcc/bin/../sparc-gaisler-elf/bsp/gr716/leon3/libbcc.a(bsp_timer_init.c.o) (__bcc_timer_handle)
/home/fsw/rep/tasa/lib/bcc-2.2.3-gcc/bin/../sparc-gaisler-elf/bsp/gr716/leon3/libbcc.a(bsp_sysfreq.c.o)
                              /home/fsw/rep/tasa/lib/bcc-2.2.3-gcc/bin/../sparc-gaisler-elf/bsp/gr716/leon3/libbcc.a(bsp_timer_init.c.o) (__bsp_sysfreq)
/home/fsw/rep/tasa/lib/bcc-2.2.3-gcc/bin/../lib/gcc/sparc-gaisler-elf/10.2.0/../../../../sparc-gaisler-elf/lib/leon3/libc_nano.a(lib_a-atexit.o)
                              /home/fsw/rep/tasa/lib/bcc-2.2.3-gcc/bin/../sparc-gaisler-elf/bsp/gr716/leon3/crt0.S.o (atexit)
/home/fsw/rep/tasa/lib/bcc-2.2.3-gcc/bin/../lib/gcc/sparc-gaisler-elf/10.2.0/../../../../sparc-gaisler-elf/lib/leon3/libc_nano.a(lib_a-exit.o)
                              /home/fsw/rep/tasa/lib/bcc-2.2.3-gcc/bin/../sparc-gaisler-elf/bsp/gr716/leon3/crt0.S.o (exit)
/home/fsw/rep/tasa/lib/bcc-2.2.3-gcc/bin/../lib/gcc/sparc-gaisler-elf/10.2.0/../../../../sparc-gaisler-elf/lib/leon3/libc_nano.a(lib_a-impure.o)
                              /home/fsw/rep/tasa/lib/bcc-2.2.3-gcc/bin/../lib/gcc/sparc-gaisler-elf/10.2.0/../../../../sparc-gaisler-elf/lib/leon3/libc_nano.a(lib_a-exit.o) (_global_impure_ptr)
/home/fsw/rep/tasa/lib/bcc-2.2.3-gcc/bin/../lib/gcc/sparc-gaisler-elf/10.2.0/../../../../sparc-gaisler-elf/lib/leon3/libc_nano.a(lib_a-nano-vfprintf_float.o)
                              (_printf_float)
/home/fsw/rep/tasa/lib/bcc-2.2.3-gcc/bin/../lib/gcc/sparc-gaisler-elf/10.2.0/../../../../sparc-gaisler-elf/lib/leon3/libc_nano.a(lib_a-nano-vfprintf_i.o)
                              /home/fsw/rep/tasa/lib/bcc-2.2.3-gcc/bin/../lib/gcc/sparc-gaisler-elf/10.2.0/../../../../sparc-gaisler-elf/lib/leon3/libc_nano.a(lib_a-nano-vfprintf_float.o) (_printf_common)
/home/fsw/rep/tasa/lib/bcc-2.2.3-gcc/bin/../lib/gcc/sparc-gaisler-elf/10.2.0/../../../../sparc-gaisler-elf/lib/leon3/libc_nano.a(lib_a-printf.o)
                              /tmp/cct7UO0M.o (printf)
/home/fsw/rep/tasa/lib/bcc-2.2.3-gcc/bin/../lib/gcc/sparc-gaisler-elf/10.2.0/../../../../sparc-gaisler-elf/lib/leon3/libc_nano.a(lib_a-putchar.o)
                              /tmp/cct7UO0M.o (putchar)
/home/fsw/rep/tasa/lib/bcc-2.2.3-gcc/bin/../lib/gcc/sparc-gaisler-elf/10.2.0/../../../../sparc-gaisler-elf/lib/leon3/libc_nano.a(lib_a-puts.o)
                              /tmp/cct7UO0M.o (puts)
/home/fsw/rep/tasa/lib/bcc-2.2.3-gcc/bin/../lib/gcc/sparc-gaisler-elf/10.2.0/../../../../sparc-gaisler-elf/lib/leon3/libc_nano.a(lib_a-strlen.o)
                              /home/fsw/rep/tasa/lib/bcc-2.2.3-gcc/bin/../lib/gcc/sparc-gaisler-elf/10.2.0/../../../../sparc-gaisler-elf/lib/leon3/libc_nano.a(lib_a-nano-vfprintf_float.o) (strlen)
/home/fsw/rep/tasa/lib/bcc-2.2.3-gcc/bin/../lib/gcc/sparc-gaisler-elf/10.2.0/../../../../sparc-gaisler-elf/lib/leon3/libc_nano.a(lib_a-wbuf.o)
                              /home/fsw/rep/tasa/lib/bcc-2.2.3-gcc/bin/../lib/gcc/sparc-gaisler-elf/10.2.0/../../../../sparc-gaisler-elf/lib/leon3/libc_nano.a(lib_a-puts.o) (__swbuf_r)
/home/fsw/rep/tasa/lib/bcc-2.2.3-gcc/bin/../lib/gcc/sparc-gaisler-elf/10.2.0/../../../../sparc-gaisler-elf/lib/leon3/libc_nano.a(lib_a-wsetup.o)
                              /home/fsw/rep/tasa/lib/bcc-2.2.3-gcc/bin/../lib/gcc/sparc-gaisler-elf/10.2.0/../../../../sparc-gaisler-elf/lib/leon3/libc_nano.a(lib_a-puts.o) (__swsetup_r)
/home/fsw/rep/tasa/lib/bcc-2.2.3-gcc/bin/../lib/gcc/sparc-gaisler-elf/10.2.0/../../../../sparc-gaisler-elf/lib/leon3/libc_nano.a(lib_a-__atexit.o)
                              /home/fsw/rep/tasa/lib/bcc-2.2.3-gcc/bin/../lib/gcc/sparc-gaisler-elf/10.2.0/../../../../sparc-gaisler-elf/lib/leon3/libc_nano.a(lib_a-atexit.o) (__register_exitproc)
/home/fsw/rep/tasa/lib/bcc-2.2.3-gcc/bin/../lib/gcc/sparc-gaisler-elf/10.2.0/../../../../sparc-gaisler-elf/lib/leon3/libc_nano.a(lib_a-__call_atexit.o)
                              /home/fsw/rep/tasa/lib/bcc-2.2.3-gcc/bin/../lib/gcc/sparc-gaisler-elf/10.2.0/../../../../sparc-gaisler-elf/lib/leon3/libc_nano.a(lib_a-__atexit.o) (__call_exitprocs)
/home/fsw/rep/tasa/lib/bcc-2.2.3-gcc/bin/../lib/gcc/sparc-gaisler-elf/10.2.0/../../../../sparc-gaisler-elf/lib/leon3/libc_nano.a(lib_a-dtoa.o)
                              /home/fsw/rep/tasa/lib/bcc-2.2.3-gcc/bin/../lib/gcc/sparc-gaisler-elf/10.2.0/../../../../sparc-gaisler-elf/lib/leon3/libc_nano.a(lib_a-nano-vfprintf_float.o) (_dtoa_r)
/home/fsw/rep/tasa/lib/bcc-2.2.3-gcc/bin/../lib/gcc/sparc-gaisler-elf/10.2.0/../../../../sparc-gaisler-elf/lib/leon3/libc_nano.a(lib_a-fflush.o)
                              /home/fsw/rep/tasa/lib/bcc-2.2.3-gcc/bin/../lib/gcc/sparc-gaisler-elf/10.2.0/../../../../sparc-gaisler-elf/lib/leon3/libc_nano.a(lib_a-wbuf.o) (_fflush_r)
/home/fsw/rep/tasa/lib/bcc-2.2.3-gcc/bin/../lib/gcc/sparc-gaisler-elf/10.2.0/../../../../sparc-gaisler-elf/lib/leon3/libc_nano.a(lib_a-findfp.o)
                              /home/fsw/rep/tasa/lib/bcc-2.2.3-gcc/bin/../lib/gcc/sparc-gaisler-elf/10.2.0/../../../../sparc-gaisler-elf/lib/leon3/libc_nano.a(lib_a-printf.o) (__sinit)
/home/fsw/rep/tasa/lib/bcc-2.2.3-gcc/bin/../lib/gcc/sparc-gaisler-elf/10.2.0/../../../../sparc-gaisler-elf/lib/leon3/libc_nano.a(lib_a-fwalk.o)
                              /home/fsw/rep/tasa/lib/bcc-2.2.3-gcc/bin/../lib/gcc/sparc-gaisler-elf/10.2.0/../../../../sparc-gaisler-elf/lib/leon3/libc_nano.a(lib_a-fflush.o) (_fwalk_reent)
/home/fsw/rep/tasa/lib/bcc-2.2.3-gcc/bin/../lib/gcc/sparc-gaisler-elf/10.2.0/../../../../sparc-gaisler-elf/lib/leon3/libc_nano.a(lib_a-localeconv.o)
                              /home/fsw/rep/tasa/lib/bcc-2.2.3-gcc/bin/../lib/gcc/sparc-gaisler-elf/10.2.0/../../../../sparc-gaisler-elf/lib/leon3/libc_nano.a(lib_a-nano-vfprintf_float.o) (_localeconv_r)
/home/fsw/rep/tasa/lib/bcc-2.2.3-gcc/bin/../lib/gcc/sparc-gaisler-elf/10.2.0/../../../../sparc-gaisler-elf/lib/leon3/libc_nano.a(lib_a-makebuf.o)
                              /home/fsw/rep/tasa/lib/bcc-2.2.3-gcc/bin/../lib/gcc/sparc-gaisler-elf/10.2.0/../../../../sparc-gaisler-elf/lib/leon3/libc_nano.a(lib_a-wsetup.o) (__smakebuf_r)
/home/fsw/rep/tasa/lib/bcc-2.2.3-gcc/bin/../lib/gcc/sparc-gaisler-elf/10.2.0/../../../../sparc-gaisler-elf/lib/leon3/libc_nano.a(lib_a-malloc.o)
                              /home/fsw/rep/tasa/lib/bcc-2.2.3-gcc/bin/../lib/gcc/sparc-gaisler-elf/10.2.0/../../../../sparc-gaisler-elf/lib/leon3/libc_nano.a(lib_a-dtoa.o) (malloc)
/home/fsw/rep/tasa/lib/bcc-2.2.3-gcc/bin/../lib/gcc/sparc-gaisler-elf/10.2.0/../../../../sparc-gaisler-elf/lib/leon3/libc_nano.a(lib_a-memchr.o)
                              /home/fsw/rep/tasa/lib/bcc-2.2.3-gcc/bin/../lib/gcc/sparc-gaisler-elf/10.2.0/../../../../sparc-gaisler-elf/lib/leon3/libc_nano.a(lib_a-nano-vfprintf_i.o) (memchr)
/home/fsw/rep/tasa/lib/bcc-2.2.3-gcc/bin/../lib/gcc/sparc-gaisler-elf/10.2.0/../../../../sparc-gaisler-elf/lib/leon3/libc_nano.a(lib_a-memcpy.o)
                              /home/fsw/rep/tasa/lib/bcc-2.2.3-gcc/bin/../lib/gcc/sparc-gaisler-elf/10.2.0/../../../../sparc-gaisler-elf/lib/leon3/libc_nano.a(lib_a-nano-vfprintf_float.o) (memcpy)
/home/fsw/rep/tasa/lib/bcc-2.2.3-gcc/bin/../lib/gcc/sparc-gaisler-elf/10.2.0/../../../../sparc-gaisler-elf/lib/leon3/libc_nano.a(lib_a-memset.o)
                              /home/fsw/rep/tasa/lib/bcc-2.2.3-gcc/bin/../lib/gcc/sparc-gaisler-elf/10.2.0/../../../../sparc-gaisler-elf/lib/leon3/libc_nano.a(lib_a-findfp.o) (memset)
/home/fsw/rep/tasa/lib/bcc-2.2.3-gcc/bin/../lib/gcc/sparc-gaisler-elf/10.2.0/../../../../sparc-gaisler-elf/lib/leon3/libc_nano.a(lib_a-mprec.o)
                              /home/fsw/rep/tasa/lib/bcc-2.2.3-gcc/bin/../lib/gcc/sparc-gaisler-elf/10.2.0/../../../../sparc-gaisler-elf/lib/leon3/libc_nano.a(lib_a-dtoa.o) (_Balloc)
/home/fsw/rep/tasa/lib/bcc-2.2.3-gcc/bin/../lib/gcc/sparc-gaisler-elf/10.2.0/../../../../sparc-gaisler-elf/lib/leon3/libc_nano.a(lib_a-nano-callocr.o)
                              /home/fsw/rep/tasa/lib/bcc-2.2.3-gcc/bin/../lib/gcc/sparc-gaisler-elf/10.2.0/../../../../sparc-gaisler-elf/lib/leon3/libc_nano.a(lib_a-mprec.o) (_calloc_r)
/home/fsw/rep/tasa/lib/bcc-2.2.3-gcc/bin/../lib/gcc/sparc-gaisler-elf/10.2.0/../../../../sparc-gaisler-elf/lib/leon3/libc_nano.a(lib_a-nano-freer.o)
                              /home/fsw/rep/tasa/lib/bcc-2.2.3-gcc/bin/../lib/gcc/sparc-gaisler-elf/10.2.0/../../../../sparc-gaisler-elf/lib/leon3/libc_nano.a(lib_a-wsetup.o) (_free_r)
/home/fsw/rep/tasa/lib/bcc-2.2.3-gcc/bin/../lib/gcc/sparc-gaisler-elf/10.2.0/../../../../sparc-gaisler-elf/lib/leon3/libc_nano.a(lib_a-nano-mallocr.o)
                              /home/fsw/rep/tasa/lib/bcc-2.2.3-gcc/bin/../lib/gcc/sparc-gaisler-elf/10.2.0/../../../../sparc-gaisler-elf/lib/leon3/libc_nano.a(lib_a-findfp.o) (_malloc_r)
/home/fsw/rep/tasa/lib/bcc-2.2.3-gcc/bin/../lib/gcc/sparc-gaisler-elf/10.2.0/../../../../sparc-gaisler-elf/lib/leon3/libc_nano.a(lib_a-nano-vfprintf.o)
                              /home/fsw/rep/tasa/lib/bcc-2.2.3-gcc/bin/../lib/gcc/sparc-gaisler-elf/10.2.0/../../../../sparc-gaisler-elf/lib/leon3/libc_nano.a(lib_a-printf.o) (_vfprintf_r)
/home/fsw/rep/tasa/lib/bcc-2.2.3-gcc/bin/../lib/gcc/sparc-gaisler-elf/10.2.0/../../../../sparc-gaisler-elf/lib/leon3/libc_nano.a(lib_a-putc.o)
                              /home/fsw/rep/tasa/lib/bcc-2.2.3-gcc/bin/../lib/gcc/sparc-gaisler-elf/10.2.0/../../../../sparc-gaisler-elf/lib/leon3/libc_nano.a(lib_a-putchar.o) (_putc_r)
/home/fsw/rep/tasa/lib/bcc-2.2.3-gcc/bin/../lib/gcc/sparc-gaisler-elf/10.2.0/../../../../sparc-gaisler-elf/lib/leon3/libc_nano.a(lib_a-sbrkr.o)
                              /home/fsw/rep/tasa/lib/bcc-2.2.3-gcc/bin/../lib/gcc/sparc-gaisler-elf/10.2.0/../../../../sparc-gaisler-elf/lib/leon3/libc_nano.a(lib_a-nano-mallocr.o) (_sbrk_r)
/home/fsw/rep/tasa/lib/bcc-2.2.3-gcc/bin/../lib/gcc/sparc-gaisler-elf/10.2.0/../../../../sparc-gaisler-elf/lib/leon3/libc_nano.a(lib_a-stdio.o)
                              /home/fsw/rep/tasa/lib/bcc-2.2.3-gcc/bin/../lib/gcc/sparc-gaisler-elf/10.2.0/../../../../sparc-gaisler-elf/lib/leon3/libc_nano.a(lib_a-findfp.o) (__sread)
/home/fsw/rep/tasa/lib/bcc-2.2.3-gcc/bin/../lib/gcc/sparc-gaisler-elf/10.2.0/../../../../sparc-gaisler-elf/lib/leon3/libc_nano.a(lib_a-writer.o)
                              /home/fsw/rep/tasa/lib/bcc-2.2.3-gcc/bin/../lib/gcc/sparc-gaisler-elf/10.2.0/../../../../sparc-gaisler-elf/lib/leon3/libc_nano.a(lib_a-stdio.o) (_write_r)
/home/fsw/rep/tasa/lib/bcc-2.2.3-gcc/bin/../lib/gcc/sparc-gaisler-elf/10.2.0/../../../../sparc-gaisler-elf/lib/leon3/libc_nano.a(lib_a-closer.o)
                              /home/fsw/rep/tasa/lib/bcc-2.2.3-gcc/bin/../lib/gcc/sparc-gaisler-elf/10.2.0/../../../../sparc-gaisler-elf/lib/leon3/libc_nano.a(lib_a-stdio.o) (_close_r)
/home/fsw/rep/tasa/lib/bcc-2.2.3-gcc/bin/../lib/gcc/sparc-gaisler-elf/10.2.0/../../../../sparc-gaisler-elf/lib/leon3/libc_nano.a(lib_a-fstatr.o)
                              /home/fsw/rep/tasa/lib/bcc-2.2.3-gcc/bin/../lib/gcc/sparc-gaisler-elf/10.2.0/../../../../sparc-gaisler-elf/lib/leon3/libc_nano.a(lib_a-makebuf.o) (_fstat_r)
/home/fsw/rep/tasa/lib/bcc-2.2.3-gcc/bin/../lib/gcc/sparc-gaisler-elf/10.2.0/../../../../sparc-gaisler-elf/lib/leon3/libc_nano.a(lib_a-fvwrite.o)
                              /home/fsw/rep/tasa/lib/bcc-2.2.3-gcc/bin/../lib/gcc/sparc-gaisler-elf/10.2.0/../../../../sparc-gaisler-elf/lib/leon3/libc_nano.a(lib_a-nano-vfprintf.o) (__sfvwrite_r)
/home/fsw/rep/tasa/lib/bcc-2.2.3-gcc/bin/../lib/gcc/sparc-gaisler-elf/10.2.0/../../../../sparc-gaisler-elf/lib/leon3/libc_nano.a(lib_a-isattyr.o)
                              /home/fsw/rep/tasa/lib/bcc-2.2.3-gcc/bin/../lib/gcc/sparc-gaisler-elf/10.2.0/../../../../sparc-gaisler-elf/lib/leon3/libc_nano.a(lib_a-makebuf.o) (_isatty_r)
/home/fsw/rep/tasa/lib/bcc-2.2.3-gcc/bin/../lib/gcc/sparc-gaisler-elf/10.2.0/../../../../sparc-gaisler-elf/lib/leon3/libc_nano.a(lib_a-locale.o)
                              /home/fsw/rep/tasa/lib/bcc-2.2.3-gcc/bin/../lib/gcc/sparc-gaisler-elf/10.2.0/../../../../sparc-gaisler-elf/lib/leon3/libc_nano.a(lib_a-localeconv.o) (__global_locale)
/home/fsw/rep/tasa/lib/bcc-2.2.3-gcc/bin/../lib/gcc/sparc-gaisler-elf/10.2.0/../../../../sparc-gaisler-elf/lib/leon3/libc_nano.a(lib_a-lseekr.o)
                              /home/fsw/rep/tasa/lib/bcc-2.2.3-gcc/bin/../lib/gcc/sparc-gaisler-elf/10.2.0/../../../../sparc-gaisler-elf/lib/leon3/libc_nano.a(lib_a-stdio.o) (_lseek_r)
/home/fsw/rep/tasa/lib/bcc-2.2.3-gcc/bin/../lib/gcc/sparc-gaisler-elf/10.2.0/../../../../sparc-gaisler-elf/lib/leon3/libc_nano.a(lib_a-mbtowc_r.o)
                              /home/fsw/rep/tasa/lib/bcc-2.2.3-gcc/bin/../lib/gcc/sparc-gaisler-elf/10.2.0/../../../../sparc-gaisler-elf/lib/leon3/libc_nano.a(lib_a-locale.o) (__ascii_mbtowc)
/home/fsw/rep/tasa/lib/bcc-2.2.3-gcc/bin/../lib/gcc/sparc-gaisler-elf/10.2.0/../../../../sparc-gaisler-elf/lib/leon3/libc_nano.a(lib_a-memmove.o)
                              /home/fsw/rep/tasa/lib/bcc-2.2.3-gcc/bin/../lib/gcc/sparc-gaisler-elf/10.2.0/../../../../sparc-gaisler-elf/lib/leon3/libc_nano.a(lib_a-fvwrite.o) (memmove)
/home/fsw/rep/tasa/lib/bcc-2.2.3-gcc/bin/../lib/gcc/sparc-gaisler-elf/10.2.0/../../../../sparc-gaisler-elf/lib/leon3/libc_nano.a(lib_a-mlock.o)
                              /home/fsw/rep/tasa/lib/bcc-2.2.3-gcc/bin/../lib/gcc/sparc-gaisler-elf/10.2.0/../../../../sparc-gaisler-elf/lib/leon3/libc_nano.a(lib_a-nano-freer.o) (__malloc_lock)
/home/fsw/rep/tasa/lib/bcc-2.2.3-gcc/bin/../lib/gcc/sparc-gaisler-elf/10.2.0/../../../../sparc-gaisler-elf/lib/leon3/libc_nano.a(lib_a-nano-reallocr.o)
                              /home/fsw/rep/tasa/lib/bcc-2.2.3-gcc/bin/../lib/gcc/sparc-gaisler-elf/10.2.0/../../../../sparc-gaisler-elf/lib/leon3/libc_nano.a(lib_a-fvwrite.o) (_realloc_r)
/home/fsw/rep/tasa/lib/bcc-2.2.3-gcc/bin/../lib/gcc/sparc-gaisler-elf/10.2.0/../../../../sparc-gaisler-elf/lib/leon3/libc_nano.a(lib_a-readr.o)
                              /home/fsw/rep/tasa/lib/bcc-2.2.3-gcc/bin/../lib/gcc/sparc-gaisler-elf/10.2.0/../../../../sparc-gaisler-elf/lib/leon3/libc_nano.a(lib_a-stdio.o) (_read_r)
/home/fsw/rep/tasa/lib/bcc-2.2.3-gcc/bin/../lib/gcc/sparc-gaisler-elf/10.2.0/../../../../sparc-gaisler-elf/lib/leon3/libc_nano.a(lib_a-reent.o)
                              /home/fsw/rep/tasa/lib/bcc-2.2.3-gcc/bin/../lib/gcc/sparc-gaisler-elf/10.2.0/../../../../sparc-gaisler-elf/lib/leon3/libc_nano.a(lib_a-sbrkr.o) (errno)
/home/fsw/rep/tasa/lib/bcc-2.2.3-gcc/bin/../lib/gcc/sparc-gaisler-elf/10.2.0/../../../../sparc-gaisler-elf/lib/leon3/libc_nano.a(lib_a-strcmp.o)
                              /home/fsw/rep/tasa/lib/bcc-2.2.3-gcc/bin/../lib/gcc/sparc-gaisler-elf/10.2.0/../../../../sparc-gaisler-elf/lib/leon3/libc_nano.a(lib_a-locale.o) (strcmp)
/home/fsw/rep/tasa/lib/bcc-2.2.3-gcc/bin/../lib/gcc/sparc-gaisler-elf/10.2.0/../../../../sparc-gaisler-elf/lib/leon3/libc_nano.a(lib_a-wctomb_r.o)
                              /home/fsw/rep/tasa/lib/bcc-2.2.3-gcc/bin/../lib/gcc/sparc-gaisler-elf/10.2.0/../../../../sparc-gaisler-elf/lib/leon3/libc_nano.a(lib_a-locale.o) (__ascii_wctomb)
/home/fsw/rep/tasa/lib/bcc-2.2.3-gcc/bin/../lib/gcc/sparc-gaisler-elf/10.2.0/../../../../sparc-gaisler-elf/lib/leon3/libc_nano.a(lib_a-ctype_.o)
                              /home/fsw/rep/tasa/lib/bcc-2.2.3-gcc/bin/../lib/gcc/sparc-gaisler-elf/10.2.0/../../../../sparc-gaisler-elf/lib/leon3/libc_nano.a(lib_a-locale.o) (_ctype_b)
/home/fsw/rep/tasa/lib/bcc-2.2.3-gcc/bin/../lib/gcc/sparc-gaisler-elf/10.2.0/../../../../sparc-gaisler-elf/lib/leon3/libc_nano.a(lib_a-nano-msizer.o)
                              /home/fsw/rep/tasa/lib/bcc-2.2.3-gcc/bin/../lib/gcc/sparc-gaisler-elf/10.2.0/../../../../sparc-gaisler-elf/lib/leon3/libc_nano.a(lib_a-nano-reallocr.o) (_malloc_usable_size_r)
/home/fsw/rep/tasa/lib/bcc-2.2.3-gcc/bin/../sparc-gaisler-elf/bsp/gr716/leon3/libbcc.a(_exit.S.o)
                              /home/fsw/rep/tasa/lib/bcc-2.2.3-gcc/bin/../lib/gcc/sparc-gaisler-elf/10.2.0/../../../../sparc-gaisler-elf/lib/leon3/libc_nano.a(lib_a-exit.o) (_exit)
/home/fsw/rep/tasa/lib/bcc-2.2.3-gcc/bin/../sparc-gaisler-elf/bsp/gr716/leon3/libbcc.a(read.c.o)
                              /home/fsw/rep/tasa/lib/bcc-2.2.3-gcc/bin/../lib/gcc/sparc-gaisler-elf/10.2.0/../../../../sparc-gaisler-elf/lib/leon3/libc_nano.a(lib_a-readr.o) (read)
/home/fsw/rep/tasa/lib/bcc-2.2.3-gcc/bin/../sparc-gaisler-elf/bsp/gr716/leon3/libbcc.a(sbrk.c.o)
                              /home/fsw/rep/tasa/lib/bcc-2.2.3-gcc/bin/../lib/gcc/sparc-gaisler-elf/10.2.0/../../../../sparc-gaisler-elf/lib/leon3/libc_nano.a(lib_a-sbrkr.o) (sbrk)
/home/fsw/rep/tasa/lib/bcc-2.2.3-gcc/bin/../sparc-gaisler-elf/bsp/gr716/leon3/libbcc.a(heap.c.o)
                              /home/fsw/rep/tasa/lib/bcc-2.2.3-gcc/bin/../sparc-gaisler-elf/bsp/gr716/leon3/libbcc.a(sbrk.c.o) (__bcc_heap_max)
/home/fsw/rep/tasa/lib/bcc-2.2.3-gcc/bin/../sparc-gaisler-elf/bsp/gr716/leon3/libbcc.a(write.c.o)
                              /home/fsw/rep/tasa/lib/bcc-2.2.3-gcc/bin/../lib/gcc/sparc-gaisler-elf/10.2.0/../../../../sparc-gaisler-elf/lib/leon3/libc_nano.a(lib_a-writer.o) (write)
/home/fsw/rep/tasa/lib/bcc-2.2.3-gcc/bin/../sparc-gaisler-elf/bsp/gr716/leon3/libbcc.a(stubs.S.o)
                              /home/fsw/rep/tasa/lib/bcc-2.2.3-gcc/bin/../lib/gcc/sparc-gaisler-elf/10.2.0/../../../../sparc-gaisler-elf/lib/leon3/libc_nano.a(lib_a-closer.o) (close)
/home/fsw/rep/tasa/lib/bcc-2.2.3-gcc/bin/../sparc-gaisler-elf/bsp/gr716/leon3/libbcc.a(con_apbuart.c.o)
                              /home/fsw/rep/tasa/lib/bcc-2.2.3-gcc/bin/../sparc-gaisler-elf/bsp/gr716/leon3/libbcc.a(write.c.o) (__bcc_con_outbyte)

Memory Configuration

Name             Origin             Length             Attributes
bootprom         0x0000000000000000 0x0000000000001000
extprom          0x0000000001000000 0x0000000001000000
spi0             0x0000000002000000 0x0000000002000000
spi1             0x0000000004000000 0x0000000002000000
dram             0x0000000030000000 0x0000000000010000
iram             0x0000000031000000 0x0000000000020000
extram           0x0000000040000000 0x0000000010000000
*default*        0x0000000000000000 0xffffffffffffffff

Linker script and memory map

LOAD /home/fsw/rep/tasa/lib/bcc-2.2.3-gcc/bin/../sparc-gaisler-elf/bsp/gr716/leon3/trap_table_mvt.S.o
LOAD /home/fsw/rep/tasa/lib/bcc-2.2.3-gcc/bin/../sparc-gaisler-elf/bsp/gr716/leon3/crt0.S.o
LOAD /home/fsw/rep/tasa/lib/bcc-2.2.3-gcc/bin/../lib/gcc/sparc-gaisler-elf/10.2.0/leon3/crti.o
LOAD /home/fsw/rep/tasa/lib/bcc-2.2.3-gcc/bin/../lib/gcc/sparc-gaisler-elf/10.2.0/leon3/crtbegin.o
LOAD /tmp/cct7UO0M.o
                0x0000000000000000                PROVIDE (__bcc_cfg_skip_clear_bss = 0x0)

.text           0x0000000031000000     0x7300
 CREATE_OBJECT_SYMBOLS
                0x0000000031000000                __text_start = .
                0x0000000031000000                . = ALIGN (0x1000)
 *(.text.traptable)
 .text.traptable
                0x0000000031000000     0x1000 /home/fsw/rep/tasa/lib/bcc-2.2.3-gcc/bin/../sparc-gaisler-elf/bsp/gr716/leon3/trap_table_mvt.S.o
                0x0000000031000000                __bcc_trap_table
                0x0000000031000000                __bcc_entry_point
 *(.text .text.*)
 .text          0x0000000031001000        0x0 /home/fsw/rep/tasa/lib/bcc-2.2.3-gcc/bin/../sparc-gaisler-elf/bsp/gr716/leon3/trap_table_mvt.S.o
 .text          0x0000000031001000       0xc8 /home/fsw/rep/tasa/lib/bcc-2.2.3-gcc/bin/../sparc-gaisler-elf/bsp/gr716/leon3/crt0.S.o
                0x0000000031001000                __bcc_crt0
 .text          0x00000000310010c8        0x0 /home/fsw/rep/tasa/lib/bcc-2.2.3-gcc/bin/../lib/gcc/sparc-gaisler-elf/10.2.0/leon3/crti.o
 .text          0x00000000310010c8      0x180 /home/fsw/rep/tasa/lib/bcc-2.2.3-gcc/bin/../lib/gcc/sparc-gaisler-elf/10.2.0/leon3/crtbegin.o
 .text          0x0000000031001248        0x0 /tmp/cct7UO0M.o
 .text.startup  0x0000000031001248      0x14c /tmp/cct7UO0M.o
                0x0000000031001248                main
 .text          0x0000000031001394       0x90 /home/fsw/rep/tasa/lib/bcc-2.2.3-gcc/bin/../sparc-gaisler-elf/bsp/gr716/leon3/libbcc.a(reset_trap_mvt.S.o)
                0x0000000031001394                __bcc_trap_reset_mvt
 .text          0x0000000031001424       0xb0 /home/fsw/rep/tasa/lib/bcc-2.2.3-gcc/bin/../sparc-gaisler-elf/bsp/gr716/leon3/libbcc.a(window_trap.S.o)
                0x0000000031001424                __bcc_trap_window_overflow
                0x0000000031001474                __bcc_trap_window_underflow
 .text          0x00000000310014d4      0x1b0 /home/fsw/rep/tasa/lib/bcc-2.2.3-gcc/bin/../sparc-gaisler-elf/bsp/gr716/leon3/libbcc.a(interrupt_trap.S.o)
                0x00000000310014d4                __bcc_trap_interrupt_svt
                0x00000000310014d8                __bcc_trap_interrupt
 .text          0x0000000031001684       0x88 /home/fsw/rep/tasa/lib/bcc-2.2.3-gcc/bin/../sparc-gaisler-elf/bsp/gr716/leon3/libbcc.a(flush_windows_trap.S.o)
                0x0000000031001684                __bcc_trap_flush_windows
 .text          0x000000003100170c       0x2c /home/fsw/rep/tasa/lib/bcc-2.2.3-gcc/bin/../sparc-gaisler-elf/bsp/gr716/leon3/libbcc.a(sw_trap_set_pil.S.o)
                0x000000003100170c                __bcc_trap_sw_set_pil
 .text          0x0000000031001738        0x0 /home/fsw/rep/tasa/lib/bcc-2.2.3-gcc/bin/../sparc-gaisler-elf/bsp/gr716/leon3/libbcc.a(isr.c.o)
 .text          0x0000000031001738        0x0 /home/fsw/rep/tasa/lib/bcc-2.2.3-gcc/bin/../sparc-gaisler-elf/bsp/gr716/leon3/libbcc.a(int_nest.c.o)
 .text          0x0000000031001738        0x8 /home/fsw/rep/tasa/lib/bcc-2.2.3-gcc/bin/../sparc-gaisler-elf/bsp/gr716/leon3/libbcc.a(init.S.o)
                0x0000000031001738                __bcc_init50
                0x0000000031001738                __bcc_init40
                0x0000000031001738                __bcc_init70
                0x0000000031001738                __bcc_init60
 .text          0x0000000031001740       0x98 /home/fsw/rep/tasa/lib/bcc-2.2.3-gcc/bin/../sparc-gaisler-elf/bsp/gr716/leon3/libbcc.a(leon_info.S.o)
                0x0000000031001740                __bcc_get_leon_info
                0x00000000310017c8                bcc_get_cpuid
 .text          0x00000000310017d8       0x2c /home/fsw/rep/tasa/lib/bcc-2.2.3-gcc/bin/../sparc-gaisler-elf/bsp/gr716/leon3/libbcc.a(dwzero.S.o)
                0x00000000310017d8                bcc_dwzero
 .text          0x0000000031001804       0x5c /home/fsw/rep/tasa/lib/bcc-2.2.3-gcc/bin/../sparc-gaisler-elf/bsp/gr716/leon3/libbcc.a(copy_data.c.o)
                0x0000000031001804                __bcc_copy_data
 .text          0x0000000031001860        0x0 /home/fsw/rep/tasa/lib/bcc-2.2.3-gcc/bin/../sparc-gaisler-elf/bsp/gr716/leon3/libbcc.a(argv.c.o)
 .text          0x0000000031001860       0x48 /home/fsw/rep/tasa/lib/bcc-2.2.3-gcc/bin/../sparc-gaisler-elf/bsp/gr716/leon3/libbcc.a(int_irqmp_get_source.c.o)
                0x0000000031001860                __bcc_int_get_source
 .text          0x00000000310018a8       0x9c /home/fsw/rep/tasa/lib/bcc-2.2.3-gcc/bin/../sparc-gaisler-elf/bsp/gr716/leon3/libbcc.a(int_irqmp_mp.c.o)
                0x00000000310018a8                bcc_send_interrupt
                0x00000000310018e4                bcc_get_cpu_count
                0x0000000031001910                bcc_start_processor
 .text          0x0000000031001944        0x8 /home/fsw/rep/tasa/lib/bcc-2.2.3-gcc/bin/../sparc-gaisler-elf/bsp/gr716/leon3/libbcc.a(int_irqmp_init.c.o)
                0x0000000031001944                __bcc_int_init
 .text          0x000000003100194c       0x64 /home/fsw/rep/tasa/lib/bcc-2.2.3-gcc/bin/../sparc-gaisler-elf/bsp/gr716/leon3/libbcc.a(bsp_timer_init.c.o)
                0x000000003100194c                __bcc_timer_init
 .text          0x00000000310019b0       0x8c /home/fsw/rep/tasa/lib/bcc-2.2.3-gcc/bin/../sparc-gaisler-elf/bsp/gr716/leon3/libbcc.a(bsp_con_init.c.o)
                0x00000000310019b0                __bcc_con_init
 .text          0x0000000031001a3c        0x0 /home/fsw/rep/tasa/lib/bcc-2.2.3-gcc/bin/../sparc-gaisler-elf/bsp/gr716/leon3/libbcc.a(int_irqmp_handle.c.o)
 .text          0x0000000031001a3c        0x0 /home/fsw/rep/tasa/lib/bcc-2.2.3-gcc/bin/../sparc-gaisler-elf/bsp/gr716/leon3/libbcc.a(con_handle.c.o)
 .text          0x0000000031001a3c        0x0 /home/fsw/rep/tasa/lib/bcc-2.2.3-gcc/bin/../sparc-gaisler-elf/bsp/gr716/leon3/libbcc.a(timer_handle.c.o)
 .text          0x0000000031001a3c        0x0 /home/fsw/rep/tasa/lib/bcc-2.2.3-gcc/bin/../sparc-gaisler-elf/bsp/gr716/leon3/libbcc.a(bsp_sysfreq.c.o)
 .text          0x0000000031001a3c       0x1c /home/fsw/rep/tasa/lib/bcc-2.2.3-gcc/bin/../lib/gcc/sparc-gaisler-elf/10.2.0/../../../../sparc-gaisler-elf/lib/leon3/libc_nano.a(lib_a-atexit.o)
                0x0000000031001a3c                atexit
 .text          0x0000000031001a58       0x4c /home/fsw/rep/tasa/lib/bcc-2.2.3-gcc/bin/../lib/gcc/sparc-gaisler-elf/10.2.0/../../../../sparc-gaisler-elf/lib/leon3/libc_nano.a(lib_a-exit.o)
                0x0000000031001a58                exit
 .text          0x0000000031001aa4        0x0 /home/fsw/rep/tasa/lib/bcc-2.2.3-gcc/bin/../lib/gcc/sparc-gaisler-elf/10.2.0/../../../../sparc-gaisler-elf/lib/leon3/libc_nano.a(lib_a-impure.o)
 .text          0x0000000031001aa4      0x9cc /home/fsw/rep/tasa/lib/bcc-2.2.3-gcc/bin/../lib/gcc/sparc-gaisler-elf/10.2.0/../../../../sparc-gaisler-elf/lib/leon3/libc_nano.a(lib_a-nano-vfprintf_float.o)
                0x0000000031001aa4                __cvt
                0x0000000031001bec                __exponent
                0x0000000031001cd8                _printf_float
 .text          0x0000000031002470      0x59c /home/fsw/rep/tasa/lib/bcc-2.2.3-gcc/bin/../lib/gcc/sparc-gaisler-elf/10.2.0/../../../../sparc-gaisler-elf/lib/leon3/libc_nano.a(lib_a-nano-vfprintf_i.o)
                0x00000000310024c8                _printf_common
                0x0000000031002640                _printf_i
 .text          0x0000000031002a0c       0xb8 /home/fsw/rep/tasa/lib/bcc-2.2.3-gcc/bin/../lib/gcc/sparc-gaisler-elf/10.2.0/../../../../sparc-gaisler-elf/lib/leon3/libc_nano.a(lib_a-printf.o)
                0x0000000031002a0c                _printf_r
                0x0000000031002a0c                _iprintf_r
                0x0000000031002a60                printf
                0x0000000031002a60                iprintf
 .text          0x0000000031002ac4       0x74 /home/fsw/rep/tasa/lib/bcc-2.2.3-gcc/bin/../lib/gcc/sparc-gaisler-elf/10.2.0/../../../../sparc-gaisler-elf/lib/leon3/libc_nano.a(lib_a-putchar.o)
                0x0000000031002ac4                _putchar_r
                0x0000000031002af8                putchar
 .text          0x0000000031002b38      0x1a8 /home/fsw/rep/tasa/lib/bcc-2.2.3-gcc/bin/../lib/gcc/sparc-gaisler-elf/10.2.0/../../../../sparc-gaisler-elf/lib/leon3/libc_nano.a(lib_a-puts.o)
                0x0000000031002b38                _puts_r
                0x0000000031002cc8                puts
 .text          0x0000000031002ce0       0x1c /home/fsw/rep/tasa/lib/bcc-2.2.3-gcc/bin/../lib/gcc/sparc-gaisler-elf/10.2.0/../../../../sparc-gaisler-elf/lib/leon3/libc_nano.a(lib_a-strlen.o)
                0x0000000031002ce0                strlen
 .text          0x0000000031002cfc      0x168 /home/fsw/rep/tasa/lib/bcc-2.2.3-gcc/bin/../lib/gcc/sparc-gaisler-elf/10.2.0/../../../../sparc-gaisler-elf/lib/leon3/libc_nano.a(lib_a-wbuf.o)
                0x0000000031002cfc                __swbuf_r
                0x0000000031002e48                __swbuf
 .text          0x0000000031002e64      0x184 /home/fsw/rep/tasa/lib/bcc-2.2.3-gcc/bin/../lib/gcc/sparc-gaisler-elf/10.2.0/../../../../sparc-gaisler-elf/lib/leon3/libc_nano.a(lib_a-wsetup.o)
                0x0000000031002e64                __swsetup_r
 .text          0x0000000031002fe8      0x138 /home/fsw/rep/tasa/lib/bcc-2.2.3-gcc/bin/../lib/gcc/sparc-gaisler-elf/10.2.0/../../../../sparc-gaisler-elf/lib/leon3/libc_nano.a(lib_a-__atexit.o)
                0x0000000031002fe8                __register_exitproc
 .text          0x0000000031003120      0x180 /home/fsw/rep/tasa/lib/bcc-2.2.3-gcc/bin/../lib/gcc/sparc-gaisler-elf/10.2.0/../../../../sparc-gaisler-elf/lib/leon3/libc_nano.a(lib_a-__call_atexit.o)
                0x0000000031003120                __call_exitprocs
 .text          0x00000000310032a0     0x1190 /home/fsw/rep/tasa/lib/bcc-2.2.3-gcc/bin/../lib/gcc/sparc-gaisler-elf/10.2.0/../../../../sparc-gaisler-elf/lib/leon3/libc_nano.a(lib_a-dtoa.o)
                0x0000000031003480                _dtoa_r
 .text          0x0000000031004430      0x2ec /home/fsw/rep/tasa/lib/bcc-2.2.3-gcc/bin/../lib/gcc/sparc-gaisler-elf/10.2.0/../../../../sparc-gaisler-elf/lib/leon3/libc_nano.a(lib_a-fflush.o)
                0x0000000031004430                __sflush_r
                0x0000000031004648                _fflush_r
                0x00000000310046e4                fflush
 .text          0x000000003100471c      0x258 /home/fsw/rep/tasa/lib/bcc-2.2.3-gcc/bin/../lib/gcc/sparc-gaisler-elf/10.2.0/../../../../sparc-gaisler-elf/lib/leon3/libc_nano.a(lib_a-findfp.o)
                0x000000003100471c                _cleanup_r
                0x00000000310047a4                __sfmoreglue
                0x00000000310047e8                _cleanup
                0x00000000310047fc                __sinit
                0x00000000310048a0                __sfp
 .text          0x0000000031004974       0xd0 /home/fsw/rep/tasa/lib/bcc-2.2.3-gcc/bin/../lib/gcc/sparc-gaisler-elf/10.2.0/../../../../sparc-gaisler-elf/lib/leon3/libc_nano.a(lib_a-fwalk.o)
                0x0000000031004974                _fwalk
                0x00000000310049dc                _fwalk_reent
 .text          0x0000000031004a44       0x58 /home/fsw/rep/tasa/lib/bcc-2.2.3-gcc/bin/../lib/gcc/sparc-gaisler-elf/10.2.0/../../../../sparc-gaisler-elf/lib/leon3/libc_nano.a(lib_a-localeconv.o)
                0x0000000031004a44                __localeconv_l
                0x0000000031004a4c                _localeconv_r
                0x0000000031004a74                localeconv
 .text          0x0000000031004a9c      0x154 /home/fsw/rep/tasa/lib/bcc-2.2.3-gcc/bin/../lib/gcc/sparc-gaisler-elf/10.2.0/../../../../sparc-gaisler-elf/lib/leon3/libc_nano.a(lib_a-makebuf.o)
                0x0000000031004a9c                __swhatbuf_r
                0x0000000031004b0c                __smakebuf_r
 .text          0x0000000031004bf0       0x30 /home/fsw/rep/tasa/lib/bcc-2.2.3-gcc/bin/../lib/gcc/sparc-gaisler-elf/10.2.0/../../../../sparc-gaisler-elf/lib/leon3/libc_nano.a(lib_a-malloc.o)
                0x0000000031004bf0                malloc
                0x0000000031004c08                free
 .text          0x0000000031004c20       0x34 /home/fsw/rep/tasa/lib/bcc-2.2.3-gcc/bin/../lib/gcc/sparc-gaisler-elf/10.2.0/../../../../sparc-gaisler-elf/lib/leon3/libc_nano.a(lib_a-memchr.o)
                0x0000000031004c20                memchr
 .text          0x0000000031004c54       0x24 /home/fsw/rep/tasa/lib/bcc-2.2.3-gcc/bin/../lib/gcc/sparc-gaisler-elf/10.2.0/../../../../sparc-gaisler-elf/lib/leon3/libc_nano.a(lib_a-memcpy.o)
                0x0000000031004c54                memcpy
 .text          0x0000000031004c78       0x20 /home/fsw/rep/tasa/lib/bcc-2.2.3-gcc/bin/../lib/gcc/sparc-gaisler-elf/10.2.0/../../../../sparc-gaisler-elf/lib/leon3/libc_nano.a(lib_a-memset.o)
                0x0000000031004c78                memset
 .text          0x0000000031004c98      0xeb8 /home/fsw/rep/tasa/lib/bcc-2.2.3-gcc/bin/../lib/gcc/sparc-gaisler-elf/10.2.0/../../../../sparc-gaisler-elf/lib/leon3/libc_nano.a(lib_a-mprec.o)
                0x0000000031004c98                _Balloc
                0x0000000031004d6c                _Bfree
                0x0000000031004dcc                __multadd
                0x0000000031004ea0                __s2b
                0x0000000031004f78                __hi0bits
                0x0000000031004ff8                __lo0bits
                0x00000000310050c0                __i2b
                0x00000000310050e4                __multiply
                0x00000000310052d0                __pow5mult
                0x00000000310053e8                __lshift
                0x0000000031005518                __mcmp
                0x0000000031005578                __mdiff
                0x000000003100571c                __ulp
                0x000000003100578c                __b2d
                0x0000000031005870                __d2b
                0x0000000031005980                __ratio
                0x0000000031005a10                _mprec_log10
                0x0000000031005a50                __copybits
                0x0000000031005ad0                __any_on
 .text          0x0000000031005b50       0x34 /home/fsw/rep/tasa/lib/bcc-2.2.3-gcc/bin/../lib/gcc/sparc-gaisler-elf/10.2.0/../../../../sparc-gaisler-elf/lib/leon3/libc_nano.a(lib_a-nano-callocr.o)
                0x0000000031005b50                _calloc_r
 .text          0x0000000031005b84      0x130 /home/fsw/rep/tasa/lib/bcc-2.2.3-gcc/bin/../lib/gcc/sparc-gaisler-elf/10.2.0/../../../../sparc-gaisler-elf/lib/leon3/libc_nano.a(lib_a-nano-freer.o)
                0x0000000031005b84                _free_r
 .text          0x0000000031005cb4      0x150 /home/fsw/rep/tasa/lib/bcc-2.2.3-gcc/bin/../lib/gcc/sparc-gaisler-elf/10.2.0/../../../../sparc-gaisler-elf/lib/leon3/libc_nano.a(lib_a-nano-mallocr.o)
                0x0000000031005cb4                _malloc_r
 .text          0x0000000031005e04      0x4f4 /home/fsw/rep/tasa/lib/bcc-2.2.3-gcc/bin/../lib/gcc/sparc-gaisler-elf/10.2.0/../../../../sparc-gaisler-elf/lib/leon3/libc_nano.a(lib_a-nano-vfprintf.o)
                0x0000000031005e64                __sfputs_r
                0x0000000031005ea4                __sprint_r
                0x0000000031005ee0                _vfiprintf_r
                0x0000000031005ee0                _vfprintf_r
                0x00000000310062d8                vfiprintf
                0x00000000310062d8                vfprintf
 .text          0x00000000310062f8       0xe8 /home/fsw/rep/tasa/lib/bcc-2.2.3-gcc/bin/../lib/gcc/sparc-gaisler-elf/10.2.0/../../../../sparc-gaisler-elf/lib/leon3/libc_nano.a(lib_a-putc.o)
                0x00000000310062f8                _putc_r
                0x00000000310063c4                putc
 .text          0x00000000310063e0       0x34 /home/fsw/rep/tasa/lib/bcc-2.2.3-gcc/bin/../lib/gcc/sparc-gaisler-elf/10.2.0/../../../../sparc-gaisler-elf/lib/leon3/libc_nano.a(lib_a-sbrkr.o)
                0x00000000310063e0                _sbrk_r
 .text          0x0000000031006414       0xf8 /home/fsw/rep/tasa/lib/bcc-2.2.3-gcc/bin/../lib/gcc/sparc-gaisler-elf/10.2.0/../../../../sparc-gaisler-elf/lib/leon3/libc_nano.a(lib_a-stdio.o)
                0x0000000031006414                __sread
                0x0000000031006460                __seofread
                0x0000000031006468                __swrite
                0x00000000310064ac                __sseek
                0x00000000310064fc                __sclose
 .text          0x000000003100650c       0x3c /home/fsw/rep/tasa/lib/bcc-2.2.3-gcc/bin/../lib/gcc/sparc-gaisler-elf/10.2.0/../../../../sparc-gaisler-elf/lib/leon3/libc_nano.a(lib_a-writer.o)
                0x000000003100650c                _write_r
 .text          0x0000000031006548       0x34 /home/fsw/rep/tasa/lib/bcc-2.2.3-gcc/bin/../lib/gcc/sparc-gaisler-elf/10.2.0/../../../../sparc-gaisler-elf/lib/leon3/libc_nano.a(lib_a-closer.o)
                0x0000000031006548                _close_r
 .text          0x000000003100657c       0x38 /home/fsw/rep/tasa/lib/bcc-2.2.3-gcc/bin/../lib/gcc/sparc-gaisler-elf/10.2.0/../../../../sparc-gaisler-elf/lib/leon3/libc_nano.a(lib_a-fstatr.o)
                0x000000003100657c                _fstat_r
 .text          0x00000000310065b4      0x4b0 /home/fsw/rep/tasa/lib/bcc-2.2.3-gcc/bin/../lib/gcc/sparc-gaisler-elf/10.2.0/../../../../sparc-gaisler-elf/lib/leon3/libc_nano.a(lib_a-fvwrite.o)
                0x00000000310065b4                __sfvwrite_r
 .text          0x0000000031006a64       0x34 /home/fsw/rep/tasa/lib/bcc-2.2.3-gcc/bin/../lib/gcc/sparc-gaisler-elf/10.2.0/../../../../sparc-gaisler-elf/lib/leon3/libc_nano.a(lib_a-isattyr.o)
                0x0000000031006a64                _isatty_r
 .text          0x0000000031006a98       0xdc /home/fsw/rep/tasa/lib/bcc-2.2.3-gcc/bin/../lib/gcc/sparc-gaisler-elf/10.2.0/../../../../sparc-gaisler-elf/lib/leon3/libc_nano.a(lib_a-locale.o)
                0x0000000031006a98                _setlocale_r
                0x0000000031006b00                __locale_mb_cur_max
                0x0000000031006b28                __locale_ctype_ptr_l
                0x0000000031006b30                __locale_ctype_ptr
                0x0000000031006b58                setlocale
 .text          0x0000000031006b74       0x3c /home/fsw/rep/tasa/lib/bcc-2.2.3-gcc/bin/../lib/gcc/sparc-gaisler-elf/10.2.0/../../../../sparc-gaisler-elf/lib/leon3/libc_nano.a(lib_a-lseekr.o)
                0x0000000031006b74                _lseek_r
 .text          0x0000000031006bb0       0x8c /home/fsw/rep/tasa/lib/bcc-2.2.3-gcc/bin/../lib/gcc/sparc-gaisler-elf/10.2.0/../../../../sparc-gaisler-elf/lib/leon3/libc_nano.a(lib_a-mbtowc_r.o)
                0x0000000031006bb0                _mbtowc_r
                0x0000000031006bf8                __ascii_mbtowc
 .text          0x0000000031006c3c       0x60 /home/fsw/rep/tasa/lib/bcc-2.2.3-gcc/bin/../lib/gcc/sparc-gaisler-elf/10.2.0/../../../../sparc-gaisler-elf/lib/leon3/libc_nano.a(lib_a-memmove.o)
                0x0000000031006c3c                memmove
 .text          0x0000000031006c9c       0x10 /home/fsw/rep/tasa/lib/bcc-2.2.3-gcc/bin/../lib/gcc/sparc-gaisler-elf/10.2.0/../../../../sparc-gaisler-elf/lib/leon3/libc_nano.a(lib_a-mlock.o)
                0x0000000031006c9c                __malloc_lock
                0x0000000031006ca4                __malloc_unlock
 .text          0x0000000031006cac       0x74 /home/fsw/rep/tasa/lib/bcc-2.2.3-gcc/bin/../lib/gcc/sparc-gaisler-elf/10.2.0/../../../../sparc-gaisler-elf/lib/leon3/libc_nano.a(lib_a-nano-reallocr.o)
                0x0000000031006cac                _realloc_r
 .text          0x0000000031006d20       0x3c /home/fsw/rep/tasa/lib/bcc-2.2.3-gcc/bin/../lib/gcc/sparc-gaisler-elf/10.2.0/../../../../sparc-gaisler-elf/lib/leon3/libc_nano.a(lib_a-readr.o)
                0x0000000031006d20                _read_r
 .text          0x0000000031006d5c      0x1b8 /home/fsw/rep/tasa/lib/bcc-2.2.3-gcc/bin/../lib/gcc/sparc-gaisler-elf/10.2.0/../../../../sparc-gaisler-elf/lib/leon3/libc_nano.a(lib_a-reent.o)
                0x0000000031006d5c                cleanup_glue
                0x0000000031006d80                _reclaim_reent
 .text          0x0000000031006f14       0x3c /home/fsw/rep/tasa/lib/bcc-2.2.3-gcc/bin/../lib/gcc/sparc-gaisler-elf/10.2.0/../../../../sparc-gaisler-elf/lib/leon3/libc_nano.a(lib_a-strcmp.o)
                0x0000000031006f14                strcmp
 .text          0x0000000031006f50       0x78 /home/fsw/rep/tasa/lib/bcc-2.2.3-gcc/bin/../lib/gcc/sparc-gaisler-elf/10.2.0/../../../../sparc-gaisler-elf/lib/leon3/libc_nano.a(lib_a-wctomb_r.o)
                0x0000000031006f50                _wctomb_r
                0x0000000031006f94                __ascii_wctomb
 .text          0x0000000031006fc8        0x0 /home/fsw/rep/tasa/lib/bcc-2.2.3-gcc/bin/../lib/gcc/sparc-gaisler-elf/10.2.0/../../../../sparc-gaisler-elf/lib/leon3/libc_nano.a(lib_a-ctype_.o)
 .text          0x0000000031006fc8       0x20 /home/fsw/rep/tasa/lib/bcc-2.2.3-gcc/bin/../lib/gcc/sparc-gaisler-elf/10.2.0/../../../../sparc-gaisler-elf/lib/leon3/libc_nano.a(lib_a-nano-msizer.o)
                0x0000000031006fc8                _malloc_usable_size_r
 .text          0x0000000031006fe8       0x10 /home/fsw/rep/tasa/lib/bcc-2.2.3-gcc/bin/../sparc-gaisler-elf/bsp/gr716/leon3/libbcc.a(_exit.S.o)
                0x0000000031006fe8                _exit
 .text          0x0000000031006ff8       0x4c /home/fsw/rep/tasa/lib/bcc-2.2.3-gcc/bin/../sparc-gaisler-elf/bsp/gr716/leon3/libbcc.a(read.c.o)
                0x0000000031006ff8                read
 .text          0x0000000031007044       0xb0 /home/fsw/rep/tasa/lib/bcc-2.2.3-gcc/bin/../sparc-gaisler-elf/bsp/gr716/leon3/libbcc.a(sbrk.c.o)
                0x0000000031007044                sbrk
 .text          0x00000000310070f4        0x0 /home/fsw/rep/tasa/lib/bcc-2.2.3-gcc/bin/../sparc-gaisler-elf/bsp/gr716/leon3/libbcc.a(heap.c.o)
 .text          0x00000000310070f4       0x64 /home/fsw/rep/tasa/lib/bcc-2.2.3-gcc/bin/../sparc-gaisler-elf/bsp/gr716/leon3/libbcc.a(write.c.o)
                0x00000000310070f4                write
 .text          0x0000000031007158       0x20 /home/fsw/rep/tasa/lib/bcc-2.2.3-gcc/bin/../sparc-gaisler-elf/bsp/gr716/leon3/libbcc.a(stubs.S.o)
                0x0000000031007158                execve
                0x0000000031007158                lseek
                0x0000000031007158                fstat
                0x0000000031007158                kill
                0x0000000031007158                wait
                0x0000000031007158                unlink
                0x0000000031007158                fork
                0x0000000031007158                stat
                0x0000000031007158                link
                0x0000000031007158                open
                0x0000000031007158                close
                0x0000000031007170                getpid
                0x0000000031007170                isatty
 .text          0x0000000031007178       0xc4 /home/fsw/rep/tasa/lib/bcc-2.2.3-gcc/bin/../sparc-gaisler-elf/bsp/gr716/leon3/libbcc.a(con_apbuart.c.o)
                0x0000000031007178                __bcc_con_outbyte
                0x0000000031007208                __bcc_con_inbyte
 .text          0x000000003100723c       0x48 /home/fsw/rep/tasa/lib/bcc-2.2.3-gcc/bin/../lib/gcc/sparc-gaisler-elf/10.2.0/leon3/crtend.o
 .text          0x0000000031007284        0x0 /home/fsw/rep/tasa/lib/bcc-2.2.3-gcc/bin/../lib/gcc/sparc-gaisler-elf/10.2.0/leon3/crtn.o
                0x0000000031007290                . = ALIGN (0x10)
 *fill*         0x0000000031007284        0xc 
 *(.eh_frame)
 .eh_frame      0x0000000031007290        0x0 /home/fsw/rep/tasa/lib/bcc-2.2.3-gcc/bin/../lib/gcc/sparc-gaisler-elf/10.2.0/leon3/crtbegin.o
 .eh_frame      0x0000000031007290        0x4 /home/fsw/rep/tasa/lib/bcc-2.2.3-gcc/bin/../lib/gcc/sparc-gaisler-elf/10.2.0/leon3/crtend.o
                0x00000000310072a0                . = ALIGN (0x10)
 *fill*         0x0000000031007294        0xc 
 *(.gnu.linkonce.t*)
                0x00000000310072a0                ___CTOR_LIST__ = .
                0x00000000310072a0        0x4 LONG 0x2 (((___CTOR_END__ - ___CTOR_LIST__) / 0x4) - 0x2)
 *(SORT_BY_NAME(.ctors.*))
 *(.ctors)
 .ctors         0x00000000310072a4        0x4 /home/fsw/rep/tasa/lib/bcc-2.2.3-gcc/bin/../lib/gcc/sparc-gaisler-elf/10.2.0/leon3/crtbegin.o
 .ctors         0x00000000310072a8        0x4 /home/fsw/rep/tasa/lib/bcc-2.2.3-gcc/bin/../lib/gcc/sparc-gaisler-elf/10.2.0/leon3/crtend.o
                0x00000000310072ac        0x4 LONG 0x0
                0x00000000310072b0                ___CTOR_END__ = .
                0x00000000310072b0                ___DTOR_LIST__ = .
                0x00000000310072b0        0x4 LONG 0x2 (((___DTOR_END__ - ___DTOR_LIST__) / 0x4) - 0x2)
 *(SORT_BY_NAME(.dtors.*))
 *(.dtors)
 .dtors         0x00000000310072b4        0x4 /home/fsw/rep/tasa/lib/bcc-2.2.3-gcc/bin/../lib/gcc/sparc-gaisler-elf/10.2.0/leon3/crtbegin.o
 .dtors         0x00000000310072b8        0x4 /home/fsw/rep/tasa/lib/bcc-2.2.3-gcc/bin/../lib/gcc/sparc-gaisler-elf/10.2.0/leon3/crtend.o
                0x00000000310072b8                __DTOR_END__
                0x00000000310072bc        0x4 LONG 0x0
                0x00000000310072c0                ___DTOR_END__ = .
 *(.gnu.linkonce*)
 *(.init)
 .init          0x00000000310072c0        0x4 /home/fsw/rep/tasa/lib/bcc-2.2.3-gcc/bin/../lib/gcc/sparc-gaisler-elf/10.2.0/leon3/crti.o
                0x00000000310072c0                _init
 .init          0x00000000310072c4        0x8 /home/fsw/rep/tasa/lib/bcc-2.2.3-gcc/bin/../lib/gcc/sparc-gaisler-elf/10.2.0/leon3/crtbegin.o
 .init          0x00000000310072cc        0x8 /home/fsw/rep/tasa/lib/bcc-2.2.3-gcc/bin/../lib/gcc/sparc-gaisler-elf/10.2.0/leon3/crtend.o
 .init          0x00000000310072d4        0xc /home/fsw/rep/tasa/lib/bcc-2.2.3-gcc/bin/../lib/gcc/sparc-gaisler-elf/10.2.0/leon3/crtn.o
 *(.fini)
 .fini          0x00000000310072e0        0x4 /home/fsw/rep/tasa/lib/bcc-2.2.3-gcc/bin/../lib/gcc/sparc-gaisler-elf/10.2.0/leon3/crti.o
                0x00000000310072e0                _fini
 .fini          0x00000000310072e4        0x8 /home/fsw/rep/tasa/lib/bcc-2.2.3-gcc/bin/../lib/gcc/sparc-gaisler-elf/10.2.0/leon3/crtbegin.o
 .fini          0x00000000310072ec        0xc /home/fsw/rep/tasa/lib/bcc-2.2.3-gcc/bin/../lib/gcc/sparc-gaisler-elf/10.2.0/leon3/crtn.o
 *(.lit)
 *(.shdata)
                0x0000000031007300                . = ALIGN (0x10)
 *fill*         0x00000000310072f8        0x8 
                0x0000000031007300                __text_end = .

.gcc_except_table
 *(.gcc_except_table.*)

.rodata         0x0000000030000000      0x5f0
                0x0000000030000000                __rodata_start = .
 *(.rodata*)
 .rodata.str1.8
                0x0000000030000000       0xcf /tmp/cct7UO0M.o
 *fill*         0x00000000300000cf        0x1 
 .rodata        0x00000000300000d0        0x5 /tmp/cct7UO0M.o
 *fill*         0x00000000300000d5        0x3 
 .rodata        0x00000000300000d8        0x4 /home/fsw/rep/tasa/lib/bcc-2.2.3-gcc/bin/../sparc-gaisler-elf/bsp/gr716/leon3/libbcc.a(bsp_sysfreq.c.o)
                0x00000000300000d8                __bsp_sysfreq
 .rodata        0x00000000300000dc        0x4 /home/fsw/rep/tasa/lib/bcc-2.2.3-gcc/bin/../lib/gcc/sparc-gaisler-elf/10.2.0/../../../../sparc-gaisler-elf/lib/leon3/libc_nano.a(lib_a-impure.o)
                0x00000000300000dc                _global_impure_ptr
 .rodata.str1.8
                0x00000000300000e0       0x22 /home/fsw/rep/tasa/lib/bcc-2.2.3-gcc/bin/../lib/gcc/sparc-gaisler-elf/10.2.0/../../../../sparc-gaisler-elf/lib/leon3/libc_nano.a(lib_a-nano-vfprintf_float.o)
 *fill*         0x0000000030000102        0x6 
 .rodata.cst8   0x0000000030000108       0x10 /home/fsw/rep/tasa/lib/bcc-2.2.3-gcc/bin/../lib/gcc/sparc-gaisler-elf/10.2.0/../../../../sparc-gaisler-elf/lib/leon3/libc_nano.a(lib_a-nano-vfprintf_float.o)
 .rodata.str1.8
                0x0000000030000118       0x29 /home/fsw/rep/tasa/lib/bcc-2.2.3-gcc/bin/../lib/gcc/sparc-gaisler-elf/10.2.0/../../../../sparc-gaisler-elf/lib/leon3/libc_nano.a(lib_a-nano-vfprintf_i.o)
 .rodata        0x0000000030000141        0x0 /home/fsw/rep/tasa/lib/bcc-2.2.3-gcc/bin/../lib/gcc/sparc-gaisler-elf/10.2.0/../../../../sparc-gaisler-elf/lib/leon3/libc_nano.a(lib_a-nano-vfprintf_i.o)
 *fill*         0x0000000030000141        0x7 
 .rodata.str1.8
                0x0000000030000148       0x14 /home/fsw/rep/tasa/lib/bcc-2.2.3-gcc/bin/../lib/gcc/sparc-gaisler-elf/10.2.0/../../../../sparc-gaisler-elf/lib/leon3/libc_nano.a(lib_a-dtoa.o)
                                         0x1a (size before relaxing)
 *fill*         0x000000003000015c        0x4 
 .rodata.cst8   0x0000000030000160       0x50 /home/fsw/rep/tasa/lib/bcc-2.2.3-gcc/bin/../lib/gcc/sparc-gaisler-elf/10.2.0/../../../../sparc-gaisler-elf/lib/leon3/libc_nano.a(lib_a-dtoa.o)
                                         0x58 (size before relaxing)
 .rodata        0x00000000300001b0       0x60 /home/fsw/rep/tasa/lib/bcc-2.2.3-gcc/bin/../lib/gcc/sparc-gaisler-elf/10.2.0/../../../../sparc-gaisler-elf/lib/leon3/libc_nano.a(lib_a-findfp.o)
                0x00000000300001b0                __sf_fake_stderr
                0x00000000300001d0                __sf_fake_stdout
                0x00000000300001f0                __sf_fake_stdin
 .rodata.cst8   0x0000000030000210       0x10 /home/fsw/rep/tasa/lib/bcc-2.2.3-gcc/bin/../lib/gcc/sparc-gaisler-elf/10.2.0/../../../../sparc-gaisler-elf/lib/leon3/libc_nano.a(lib_a-mprec.o)
 .rodata        0x0000000030000210      0x128 /home/fsw/rep/tasa/lib/bcc-2.2.3-gcc/bin/../lib/gcc/sparc-gaisler-elf/10.2.0/../../../../sparc-gaisler-elf/lib/leon3/libc_nano.a(lib_a-mprec.o)
                0x0000000030000220                __mprec_tinytens
                0x0000000030000248                __mprec_bigtens
                0x0000000030000270                __mprec_tens
 .rodata.str1.8
                0x0000000030000338       0x17 /home/fsw/rep/tasa/lib/bcc-2.2.3-gcc/bin/../lib/gcc/sparc-gaisler-elf/10.2.0/../../../../sparc-gaisler-elf/lib/leon3/libc_nano.a(lib_a-nano-vfprintf.o)
 *fill*         0x000000003000034f        0x1 
 .rodata.str1.8
                0x0000000030000350       0x12 /home/fsw/rep/tasa/lib/bcc-2.2.3-gcc/bin/../lib/gcc/sparc-gaisler-elf/10.2.0/../../../../sparc-gaisler-elf/lib/leon3/libc_nano.a(lib_a-locale.o)
                                         0x1a (size before relaxing)
 *fill*         0x0000000030000362        0x6 
 .rodata        0x0000000030000368      0x288 /home/fsw/rep/tasa/lib/bcc-2.2.3-gcc/bin/../lib/gcc/sparc-gaisler-elf/10.2.0/../../../../sparc-gaisler-elf/lib/leon3/libc_nano.a(lib_a-ctype_.o)
                0x0000000030000368                _ctype_
                0x0000000030000470                _ctype_b
 *(.gnu.linkonce.r*)
                0x00000000300005f0                . = ALIGN (0x10)
                0x00000000300005f0                __rodata_end = .

.rela.dyn       0x00000000300005f0        0x0
 .rela.iplt     0x00000000300005f0        0x0 /home/fsw/rep/tasa/lib/bcc-2.2.3-gcc/bin/../sparc-gaisler-elf/bsp/gr716/leon3/trap_table_mvt.S.o
 .rela.text.traptable
                0x00000000300005f0        0x0 /home/fsw/rep/tasa/lib/bcc-2.2.3-gcc/bin/../sparc-gaisler-elf/bsp/gr716/leon3/trap_table_mvt.S.o
 .rela.text     0x00000000300005f0        0x0 /home/fsw/rep/tasa/lib/bcc-2.2.3-gcc/bin/../sparc-gaisler-elf/bsp/gr716/leon3/trap_table_mvt.S.o

.ext.data       0x0000000040000000        0x0
                0x0000000040000000                . = ALIGN (0x8)
                0x0000000040000000                __extdata_start = .
 *(.data.ext)
                0x0000000040000000                . = ALIGN (0x8)
                0x0000000040000000                __extdata_end = .
                0x0000000040000000                __extdata_start_lma = LOADADDR (.ext.data)
                0x0000000000000000                __extdata_size = SIZEOF (.ext.data)

.data           0x00000000300005f0      0x220
                0x00000000300005f0                . = ALIGN (0x8)
                0x00000000300005f0                __data_start = .
 *(.data .data.*)
 .data          0x00000000300005f0        0x0 /home/fsw/rep/tasa/lib/bcc-2.2.3-gcc/bin/../sparc-gaisler-elf/bsp/gr716/leon3/trap_table_mvt.S.o
 .data          0x00000000300005f0        0x0 /home/fsw/rep/tasa/lib/bcc-2.2.3-gcc/bin/../sparc-gaisler-elf/bsp/gr716/leon3/crt0.S.o
 .data          0x00000000300005f0        0x0 /home/fsw/rep/tasa/lib/bcc-2.2.3-gcc/bin/../lib/gcc/sparc-gaisler-elf/10.2.0/leon3/crti.o
 .data          0x00000000300005f0        0x4 /home/fsw/rep/tasa/lib/bcc-2.2.3-gcc/bin/../lib/gcc/sparc-gaisler-elf/10.2.0/leon3/crtbegin.o
                0x00000000300005f0                __dso_handle
 .data          0x00000000300005f4        0x0 /tmp/cct7UO0M.o
 .data          0x00000000300005f4        0x0 /home/fsw/rep/tasa/lib/bcc-2.2.3-gcc/bin/../sparc-gaisler-elf/bsp/gr716/leon3/libbcc.a(reset_trap_mvt.S.o)
 .data          0x00000000300005f4        0x0 /home/fsw/rep/tasa/lib/bcc-2.2.3-gcc/bin/../sparc-gaisler-elf/bsp/gr716/leon3/libbcc.a(window_trap.S.o)
 .data          0x00000000300005f4        0x0 /home/fsw/rep/tasa/lib/bcc-2.2.3-gcc/bin/../sparc-gaisler-elf/bsp/gr716/leon3/libbcc.a(interrupt_trap.S.o)
 .data          0x00000000300005f4        0x0 /home/fsw/rep/tasa/lib/bcc-2.2.3-gcc/bin/../sparc-gaisler-elf/bsp/gr716/leon3/libbcc.a(flush_windows_trap.S.o)
 .data          0x00000000300005f4        0x0 /home/fsw/rep/tasa/lib/bcc-2.2.3-gcc/bin/../sparc-gaisler-elf/bsp/gr716/leon3/libbcc.a(sw_trap_set_pil.S.o)
 .data          0x00000000300005f4        0x0 /home/fsw/rep/tasa/lib/bcc-2.2.3-gcc/bin/../sparc-gaisler-elf/bsp/gr716/leon3/libbcc.a(isr.c.o)
 *fill*         0x00000000300005f4        0x4 
 .data          0x00000000300005f8       0x10 /home/fsw/rep/tasa/lib/bcc-2.2.3-gcc/bin/../sparc-gaisler-elf/bsp/gr716/leon3/libbcc.a(int_nest.c.o)
                0x00000000300005f8                __bcc_int_nest
 .data          0x0000000030000608        0x0 /home/fsw/rep/tasa/lib/bcc-2.2.3-gcc/bin/../sparc-gaisler-elf/bsp/gr716/leon3/libbcc.a(init.S.o)
 .data          0x0000000030000608       0x10 /home/fsw/rep/tasa/lib/bcc-2.2.3-gcc/bin/../sparc-gaisler-elf/bsp/gr716/leon3/libbcc.a(leon_info.S.o)
                0x0000000030000608                __bcc_leon_version
                0x000000003000060c                __bcc_nwindows_min1
                0x0000000030000610                __bcc_nwindows
                0x0000000030000614                __bcc_cpuid
 .data          0x0000000030000618        0x0 /home/fsw/rep/tasa/lib/bcc-2.2.3-gcc/bin/../sparc-gaisler-elf/bsp/gr716/leon3/libbcc.a(dwzero.S.o)
 .data          0x0000000030000618        0x0 /home/fsw/rep/tasa/lib/bcc-2.2.3-gcc/bin/../sparc-gaisler-elf/bsp/gr716/leon3/libbcc.a(copy_data.c.o)
 .data          0x0000000030000618        0x4 /home/fsw/rep/tasa/lib/bcc-2.2.3-gcc/bin/../sparc-gaisler-elf/bsp/gr716/leon3/libbcc.a(argv.c.o)
                0x0000000030000618                __bcc_argvp
 .data          0x000000003000061c        0x0 /home/fsw/rep/tasa/lib/bcc-2.2.3-gcc/bin/../sparc-gaisler-elf/bsp/gr716/leon3/libbcc.a(int_irqmp_get_source.c.o)
 .data          0x000000003000061c        0x0 /home/fsw/rep/tasa/lib/bcc-2.2.3-gcc/bin/../sparc-gaisler-elf/bsp/gr716/leon3/libbcc.a(int_irqmp_mp.c.o)
 .data          0x000000003000061c        0x0 /home/fsw/rep/tasa/lib/bcc-2.2.3-gcc/bin/../sparc-gaisler-elf/bsp/gr716/leon3/libbcc.a(int_irqmp_init.c.o)
 .data          0x000000003000061c        0x0 /home/fsw/rep/tasa/lib/bcc-2.2.3-gcc/bin/../sparc-gaisler-elf/bsp/gr716/leon3/libbcc.a(bsp_timer_init.c.o)
 .data          0x000000003000061c        0x0 /home/fsw/rep/tasa/lib/bcc-2.2.3-gcc/bin/../sparc-gaisler-elf/bsp/gr716/leon3/libbcc.a(bsp_con_init.c.o)
 .data          0x000000003000061c       0x10 /home/fsw/rep/tasa/lib/bcc-2.2.3-gcc/bin/../sparc-gaisler-elf/bsp/gr716/leon3/libbcc.a(int_irqmp_handle.c.o)
                0x000000003000061c                __bcc_int_irqmp_nts
                0x0000000030000620                __bcc_int_irqmp_map
                0x0000000030000624                __bcc_int_irqmp_eirq
                0x0000000030000628                __bcc_int_handle
 .data          0x000000003000062c        0x4 /home/fsw/rep/tasa/lib/bcc-2.2.3-gcc/bin/../sparc-gaisler-elf/bsp/gr716/leon3/libbcc.a(con_handle.c.o)
                0x000000003000062c                __bcc_con_handle
 .data          0x0000000030000630        0x8 /home/fsw/rep/tasa/lib/bcc-2.2.3-gcc/bin/../sparc-gaisler-elf/bsp/gr716/leon3/libbcc.a(timer_handle.c.o)
                0x0000000030000630                __bcc_timer_interrupt
                0x0000000030000634                __bcc_timer_handle
 .data          0x0000000030000638        0x0 /home/fsw/rep/tasa/lib/bcc-2.2.3-gcc/bin/../sparc-gaisler-elf/bsp/gr716/leon3/libbcc.a(bsp_sysfreq.c.o)
 .data          0x0000000030000638        0x0 /home/fsw/rep/tasa/lib/bcc-2.2.3-gcc/bin/../lib/gcc/sparc-gaisler-elf/10.2.0/../../../../sparc-gaisler-elf/lib/leon3/libc_nano.a(lib_a-atexit.o)
 .data          0x0000000030000638        0x0 /home/fsw/rep/tasa/lib/bcc-2.2.3-gcc/bin/../lib/gcc/sparc-gaisler-elf/10.2.0/../../../../sparc-gaisler-elf/lib/leon3/libc_nano.a(lib_a-exit.o)
 .data          0x0000000030000638       0x64 /home/fsw/rep/tasa/lib/bcc-2.2.3-gcc/bin/../lib/gcc/sparc-gaisler-elf/10.2.0/../../../../sparc-gaisler-elf/lib/leon3/libc_nano.a(lib_a-impure.o)
                0x0000000030000638                _impure_ptr
 .data          0x000000003000069c        0x0 /home/fsw/rep/tasa/lib/bcc-2.2.3-gcc/bin/../lib/gcc/sparc-gaisler-elf/10.2.0/../../../../sparc-gaisler-elf/lib/leon3/libc_nano.a(lib_a-nano-vfprintf_float.o)
 .data          0x000000003000069c        0x0 /home/fsw/rep/tasa/lib/bcc-2.2.3-gcc/bin/../lib/gcc/sparc-gaisler-elf/10.2.0/../../../../sparc-gaisler-elf/lib/leon3/libc_nano.a(lib_a-nano-vfprintf_i.o)
 .data          0x000000003000069c        0x0 /home/fsw/rep/tasa/lib/bcc-2.2.3-gcc/bin/../lib/gcc/sparc-gaisler-elf/10.2.0/../../../../sparc-gaisler-elf/lib/leon3/libc_nano.a(lib_a-printf.o)
 .data          0x000000003000069c        0x0 /home/fsw/rep/tasa/lib/bcc-2.2.3-gcc/bin/../lib/gcc/sparc-gaisler-elf/10.2.0/../../../../sparc-gaisler-elf/lib/leon3/libc_nano.a(lib_a-putchar.o)
 .data          0x000000003000069c        0x0 /home/fsw/rep/tasa/lib/bcc-2.2.3-gcc/bin/../lib/gcc/sparc-gaisler-elf/10.2.0/../../../../sparc-gaisler-elf/lib/leon3/libc_nano.a(lib_a-puts.o)
 .data          0x000000003000069c        0x0 /home/fsw/rep/tasa/lib/bcc-2.2.3-gcc/bin/../lib/gcc/sparc-gaisler-elf/10.2.0/../../../../sparc-gaisler-elf/lib/leon3/libc_nano.a(lib_a-strlen.o)
 .data          0x000000003000069c        0x0 /home/fsw/rep/tasa/lib/bcc-2.2.3-gcc/bin/../lib/gcc/sparc-gaisler-elf/10.2.0/../../../../sparc-gaisler-elf/lib/leon3/libc_nano.a(lib_a-wbuf.o)
 .data          0x000000003000069c        0x0 /home/fsw/rep/tasa/lib/bcc-2.2.3-gcc/bin/../lib/gcc/sparc-gaisler-elf/10.2.0/../../../../sparc-gaisler-elf/lib/leon3/libc_nano.a(lib_a-wsetup.o)
 .data          0x000000003000069c        0x4 /home/fsw/rep/tasa/lib/bcc-2.2.3-gcc/bin/../lib/gcc/sparc-gaisler-elf/10.2.0/../../../../sparc-gaisler-elf/lib/leon3/libc_nano.a(lib_a-__atexit.o)
                0x000000003000069c                __atexit_dummy
 .data          0x00000000300006a0        0x0 /home/fsw/rep/tasa/lib/bcc-2.2.3-gcc/bin/../lib/gcc/sparc-gaisler-elf/10.2.0/../../../../sparc-gaisler-elf/lib/leon3/libc_nano.a(lib_a-__call_atexit.o)
 .data          0x00000000300006a0        0x0 /home/fsw/rep/tasa/lib/bcc-2.2.3-gcc/bin/../lib/gcc/sparc-gaisler-elf/10.2.0/../../../../sparc-gaisler-elf/lib/leon3/libc_nano.a(lib_a-dtoa.o)
 .data          0x00000000300006a0        0x0 /home/fsw/rep/tasa/lib/bcc-2.2.3-gcc/bin/../lib/gcc/sparc-gaisler-elf/10.2.0/../../../../sparc-gaisler-elf/lib/leon3/libc_nano.a(lib_a-fflush.o)
 .data          0x00000000300006a0        0x0 /home/fsw/rep/tasa/lib/bcc-2.2.3-gcc/bin/../lib/gcc/sparc-gaisler-elf/10.2.0/../../../../sparc-gaisler-elf/lib/leon3/libc_nano.a(lib_a-findfp.o)
 .data          0x00000000300006a0        0x0 /home/fsw/rep/tasa/lib/bcc-2.2.3-gcc/bin/../lib/gcc/sparc-gaisler-elf/10.2.0/../../../../sparc-gaisler-elf/lib/leon3/libc_nano.a(lib_a-fwalk.o)
 .data          0x00000000300006a0        0x0 /home/fsw/rep/tasa/lib/bcc-2.2.3-gcc/bin/../lib/gcc/sparc-gaisler-elf/10.2.0/../../../../sparc-gaisler-elf/lib/leon3/libc_nano.a(lib_a-localeconv.o)
 .data          0x00000000300006a0        0x0 /home/fsw/rep/tasa/lib/bcc-2.2.3-gcc/bin/../lib/gcc/sparc-gaisler-elf/10.2.0/../../../../sparc-gaisler-elf/lib/leon3/libc_nano.a(lib_a-makebuf.o)
 .data          0x00000000300006a0        0x0 /home/fsw/rep/tasa/lib/bcc-2.2.3-gcc/bin/../lib/gcc/sparc-gaisler-elf/10.2.0/../../../../sparc-gaisler-elf/lib/leon3/libc_nano.a(lib_a-malloc.o)
 .data          0x00000000300006a0        0x0 /home/fsw/rep/tasa/lib/bcc-2.2.3-gcc/bin/../lib/gcc/sparc-gaisler-elf/10.2.0/../../../../sparc-gaisler-elf/lib/leon3/libc_nano.a(lib_a-memchr.o)
 .data          0x00000000300006a0        0x0 /home/fsw/rep/tasa/lib/bcc-2.2.3-gcc/bin/../lib/gcc/sparc-gaisler-elf/10.2.0/../../../../sparc-gaisler-elf/lib/leon3/libc_nano.a(lib_a-memcpy.o)
 .data          0x00000000300006a0        0x0 /home/fsw/rep/tasa/lib/bcc-2.2.3-gcc/bin/../lib/gcc/sparc-gaisler-elf/10.2.0/../../../../sparc-gaisler-elf/lib/leon3/libc_nano.a(lib_a-memset.o)
 .data          0x00000000300006a0        0x0 /home/fsw/rep/tasa/lib/bcc-2.2.3-gcc/bin/../lib/gcc/sparc-gaisler-elf/10.2.0/../../../../sparc-gaisler-elf/lib/leon3/libc_nano.a(lib_a-mprec.o)
 .data          0x00000000300006a0        0x0 /home/fsw/rep/tasa/lib/bcc-2.2.3-gcc/bin/../lib/gcc/sparc-gaisler-elf/10.2.0/../../../../sparc-gaisler-elf/lib/leon3/libc_nano.a(lib_a-nano-callocr.o)
 .data          0x00000000300006a0        0x0 /home/fsw/rep/tasa/lib/bcc-2.2.3-gcc/bin/../lib/gcc/sparc-gaisler-elf/10.2.0/../../../../sparc-gaisler-elf/lib/leon3/libc_nano.a(lib_a-nano-freer.o)
 .data          0x00000000300006a0        0x0 /home/fsw/rep/tasa/lib/bcc-2.2.3-gcc/bin/../lib/gcc/sparc-gaisler-elf/10.2.0/../../../../sparc-gaisler-elf/lib/leon3/libc_nano.a(lib_a-nano-mallocr.o)
 .data          0x00000000300006a0        0x0 /home/fsw/rep/tasa/lib/bcc-2.2.3-gcc/bin/../lib/gcc/sparc-gaisler-elf/10.2.0/../../../../sparc-gaisler-elf/lib/leon3/libc_nano.a(lib_a-nano-vfprintf.o)
 .data          0x00000000300006a0        0x0 /home/fsw/rep/tasa/lib/bcc-2.2.3-gcc/bin/../lib/gcc/sparc-gaisler-elf/10.2.0/../../../../sparc-gaisler-elf/lib/leon3/libc_nano.a(lib_a-putc.o)
 .data          0x00000000300006a0        0x0 /home/fsw/rep/tasa/lib/bcc-2.2.3-gcc/bin/../lib/gcc/sparc-gaisler-elf/10.2.0/../../../../sparc-gaisler-elf/lib/leon3/libc_nano.a(lib_a-sbrkr.o)
 .data          0x00000000300006a0        0x0 /home/fsw/rep/tasa/lib/bcc-2.2.3-gcc/bin/../lib/gcc/sparc-gaisler-elf/10.2.0/../../../../sparc-gaisler-elf/lib/leon3/libc_nano.a(lib_a-stdio.o)
 .data          0x00000000300006a0        0x0 /home/fsw/rep/tasa/lib/bcc-2.2.3-gcc/bin/../lib/gcc/sparc-gaisler-elf/10.2.0/../../../../sparc-gaisler-elf/lib/leon3/libc_nano.a(lib_a-writer.o)
 .data          0x00000000300006a0        0x0 /home/fsw/rep/tasa/lib/bcc-2.2.3-gcc/bin/../lib/gcc/sparc-gaisler-elf/10.2.0/../../../../sparc-gaisler-elf/lib/leon3/libc_nano.a(lib_a-closer.o)
 .data          0x00000000300006a0        0x0 /home/fsw/rep/tasa/lib/bcc-2.2.3-gcc/bin/../lib/gcc/sparc-gaisler-elf/10.2.0/../../../../sparc-gaisler-elf/lib/leon3/libc_nano.a(lib_a-fstatr.o)
 .data          0x00000000300006a0        0x0 /home/fsw/rep/tasa/lib/bcc-2.2.3-gcc/bin/../lib/gcc/sparc-gaisler-elf/10.2.0/../../../../sparc-gaisler-elf/lib/leon3/libc_nano.a(lib_a-fvwrite.o)
 .data          0x00000000300006a0        0x0 /home/fsw/rep/tasa/lib/bcc-2.2.3-gcc/bin/../lib/gcc/sparc-gaisler-elf/10.2.0/../../../../sparc-gaisler-elf/lib/leon3/libc_nano.a(lib_a-isattyr.o)
 .data          0x00000000300006a0      0x16c /home/fsw/rep/tasa/lib/bcc-2.2.3-gcc/bin/../lib/gcc/sparc-gaisler-elf/10.2.0/../../../../sparc-gaisler-elf/lib/leon3/libc_nano.a(lib_a-locale.o)
                0x00000000300006a0                __global_locale
 .data          0x000000003000080c        0x0 /home/fsw/rep/tasa/lib/bcc-2.2.3-gcc/bin/../lib/gcc/sparc-gaisler-elf/10.2.0/../../../../sparc-gaisler-elf/lib/leon3/libc_nano.a(lib_a-lseekr.o)
 .data          0x000000003000080c        0x0 /home/fsw/rep/tasa/lib/bcc-2.2.3-gcc/bin/../lib/gcc/sparc-gaisler-elf/10.2.0/../../../../sparc-gaisler-elf/lib/leon3/libc_nano.a(lib_a-mbtowc_r.o)
 .data          0x000000003000080c        0x0 /home/fsw/rep/tasa/lib/bcc-2.2.3-gcc/bin/../lib/gcc/sparc-gaisler-elf/10.2.0/../../../../sparc-gaisler-elf/lib/leon3/libc_nano.a(lib_a-memmove.o)
 .data          0x000000003000080c        0x0 /home/fsw/rep/tasa/lib/bcc-2.2.3-gcc/bin/../lib/gcc/sparc-gaisler-elf/10.2.0/../../../../sparc-gaisler-elf/lib/leon3/libc_nano.a(lib_a-mlock.o)
 .data          0x000000003000080c        0x0 /home/fsw/rep/tasa/lib/bcc-2.2.3-gcc/bin/../lib/gcc/sparc-gaisler-elf/10.2.0/../../../../sparc-gaisler-elf/lib/leon3/libc_nano.a(lib_a-nano-reallocr.o)
 .data          0x000000003000080c        0x0 /home/fsw/rep/tasa/lib/bcc-2.2.3-gcc/bin/../lib/gcc/sparc-gaisler-elf/10.2.0/../../../../sparc-gaisler-elf/lib/leon3/libc_nano.a(lib_a-readr.o)
 .data          0x000000003000080c        0x0 /home/fsw/rep/tasa/lib/bcc-2.2.3-gcc/bin/../lib/gcc/sparc-gaisler-elf/10.2.0/../../../../sparc-gaisler-elf/lib/leon3/libc_nano.a(lib_a-reent.o)
 .data          0x000000003000080c        0x0 /home/fsw/rep/tasa/lib/bcc-2.2.3-gcc/bin/../lib/gcc/sparc-gaisler-elf/10.2.0/../../../../sparc-gaisler-elf/lib/leon3/libc_nano.a(lib_a-strcmp.o)
 .data          0x000000003000080c        0x0 /home/fsw/rep/tasa/lib/bcc-2.2.3-gcc/bin/../lib/gcc/sparc-gaisler-elf/10.2.0/../../../../sparc-gaisler-elf/lib/leon3/libc_nano.a(lib_a-wctomb_r.o)
 .data          0x000000003000080c        0x0 /home/fsw/rep/tasa/lib/bcc-2.2.3-gcc/bin/../lib/gcc/sparc-gaisler-elf/10.2.0/../../../../sparc-gaisler-elf/lib/leon3/libc_nano.a(lib_a-ctype_.o)
 .data          0x000000003000080c        0x0 /home/fsw/rep/tasa/lib/bcc-2.2.3-gcc/bin/../lib/gcc/sparc-gaisler-elf/10.2.0/../../../../sparc-gaisler-elf/lib/leon3/libc_nano.a(lib_a-nano-msizer.o)
 .data          0x000000003000080c        0x0 /home/fsw/rep/tasa/lib/bcc-2.2.3-gcc/bin/../sparc-gaisler-elf/bsp/gr716/leon3/libbcc.a(_exit.S.o)
 .data          0x000000003000080c        0x0 /home/fsw/rep/tasa/lib/bcc-2.2.3-gcc/bin/../sparc-gaisler-elf/bsp/gr716/leon3/libbcc.a(read.c.o)
 .data          0x000000003000080c        0x0 /home/fsw/rep/tasa/lib/bcc-2.2.3-gcc/bin/../sparc-gaisler-elf/bsp/gr716/leon3/libbcc.a(sbrk.c.o)
 .data          0x000000003000080c        0x0 /home/fsw/rep/tasa/lib/bcc-2.2.3-gcc/bin/../sparc-gaisler-elf/bsp/gr716/leon3/libbcc.a(heap.c.o)
 .data          0x000000003000080c        0x0 /home/fsw/rep/tasa/lib/bcc-2.2.3-gcc/bin/../sparc-gaisler-elf/bsp/gr716/leon3/libbcc.a(write.c.o)
 .data          0x000000003000080c        0x0 /home/fsw/rep/tasa/lib/bcc-2.2.3-gcc/bin/../sparc-gaisler-elf/bsp/gr716/leon3/libbcc.a(stubs.S.o)
 .data          0x000000003000080c        0x0 /home/fsw/rep/tasa/lib/bcc-2.2.3-gcc/bin/../sparc-gaisler-elf/bsp/gr716/leon3/libbcc.a(con_apbuart.c.o)
 .data          0x000000003000080c        0x0 /home/fsw/rep/tasa/lib/bcc-2.2.3-gcc/bin/../lib/gcc/sparc-gaisler-elf/10.2.0/leon3/crtend.o
 .data          0x000000003000080c        0x0 /home/fsw/rep/tasa/lib/bcc-2.2.3-gcc/bin/../lib/gcc/sparc-gaisler-elf/10.2.0/leon3/crtn.o
                0x0000000030000810                . = ALIGN (0x8)
 *fill*         0x000000003000080c        0x4 
                0x0000000030000810                __data_end = .
                0x00000000300005f0                __data_start_lma = LOADADDR (.data)
                0x0000000000000220                __data_size = SIZEOF (.data)

.iplt           0x0000000030000810        0x0
 .iplt          0x0000000030000810        0x0 /home/fsw/rep/tasa/lib/bcc-2.2.3-gcc/bin/../sparc-gaisler-elf/bsp/gr716/leon3/trap_table_mvt.S.o

.tm_clone_table
                0x0000000030000810        0x0
 .tm_clone_table
                0x0000000030000810        0x0 /home/fsw/rep/tasa/lib/bcc-2.2.3-gcc/bin/../lib/gcc/sparc-gaisler-elf/10.2.0/leon3/crtbegin.o
 .tm_clone_table
                0x0000000030000810        0x0 /home/fsw/rep/tasa/lib/bcc-2.2.3-gcc/bin/../lib/gcc/sparc-gaisler-elf/10.2.0/leon3/crtend.o

.bss            0x0000000030000810      0x178
                0x0000000030000810                . = ALIGN (0x8)
                0x0000000030000810                __bss_start = .
 *(.bss .bss.*)
 .bss           0x0000000030000810        0x0 /home/fsw/rep/tasa/lib/bcc-2.2.3-gcc/bin/../sparc-gaisler-elf/bsp/gr716/leon3/trap_table_mvt.S.o
 .bss           0x0000000030000810        0x4 /home/fsw/rep/tasa/lib/bcc-2.2.3-gcc/bin/../sparc-gaisler-elf/bsp/gr716/leon3/crt0.S.o
                0x0000000030000810                __bcc_sp_at_entry
 .bss           0x0000000030000814        0x0 /home/fsw/rep/tasa/lib/bcc-2.2.3-gcc/bin/../lib/gcc/sparc-gaisler-elf/10.2.0/leon3/crti.o
 .bss           0x0000000030000814       0x20 /home/fsw/rep/tasa/lib/bcc-2.2.3-gcc/bin/../lib/gcc/sparc-gaisler-elf/10.2.0/leon3/crtbegin.o
 .bss           0x0000000030000834        0x0 /tmp/cct7UO0M.o
 .bss           0x0000000030000834        0x0 /home/fsw/rep/tasa/lib/bcc-2.2.3-gcc/bin/../sparc-gaisler-elf/bsp/gr716/leon3/libbcc.a(reset_trap_mvt.S.o)
 .bss           0x0000000030000834        0x0 /home/fsw/rep/tasa/lib/bcc-2.2.3-gcc/bin/../sparc-gaisler-elf/bsp/gr716/leon3/libbcc.a(window_trap.S.o)
 .bss           0x0000000030000834        0x0 /home/fsw/rep/tasa/lib/bcc-2.2.3-gcc/bin/../sparc-gaisler-elf/bsp/gr716/leon3/libbcc.a(interrupt_trap.S.o)
 *fill*         0x0000000030000834        0x4 
 .bss           0x0000000030000838       0x14 /home/fsw/rep/tasa/lib/bcc-2.2.3-gcc/bin/../sparc-gaisler-elf/bsp/gr716/leon3/libbcc.a(flush_windows_trap.S.o)
 .bss           0x000000003000084c        0x0 /home/fsw/rep/tasa/lib/bcc-2.2.3-gcc/bin/../sparc-gaisler-elf/bsp/gr716/leon3/libbcc.a(sw_trap_set_pil.S.o)
 .bss           0x000000003000084c       0x80 /home/fsw/rep/tasa/lib/bcc-2.2.3-gcc/bin/../sparc-gaisler-elf/bsp/gr716/leon3/libbcc.a(isr.c.o)
                0x000000003000084c                __bcc_isr_list
 .bss           0x00000000300008cc        0x0 /home/fsw/rep/tasa/lib/bcc-2.2.3-gcc/bin/../sparc-gaisler-elf/bsp/gr716/leon3/libbcc.a(int_nest.c.o)
 .bss           0x00000000300008cc        0x0 /home/fsw/rep/tasa/lib/bcc-2.2.3-gcc/bin/../sparc-gaisler-elf/bsp/gr716/leon3/libbcc.a(init.S.o)
 .bss           0x00000000300008cc        0x0 /home/fsw/rep/tasa/lib/bcc-2.2.3-gcc/bin/../sparc-gaisler-elf/bsp/gr716/leon3/libbcc.a(leon_info.S.o)
 .bss           0x00000000300008cc        0x0 /home/fsw/rep/tasa/lib/bcc-2.2.3-gcc/bin/../sparc-gaisler-elf/bsp/gr716/leon3/libbcc.a(dwzero.S.o)
 .bss           0x00000000300008cc        0x0 /home/fsw/rep/tasa/lib/bcc-2.2.3-gcc/bin/../sparc-gaisler-elf/bsp/gr716/leon3/libbcc.a(copy_data.c.o)
 .bss           0x00000000300008cc        0x8 /home/fsw/rep/tasa/lib/bcc-2.2.3-gcc/bin/../sparc-gaisler-elf/bsp/gr716/leon3/libbcc.a(argv.c.o)
                0x00000000300008d0                __bcc_argc
 .bss           0x00000000300008d4        0x0 /home/fsw/rep/tasa/lib/bcc-2.2.3-gcc/bin/../sparc-gaisler-elf/bsp/gr716/leon3/libbcc.a(int_irqmp_get_source.c.o)
 .bss           0x00000000300008d4        0x0 /home/fsw/rep/tasa/lib/bcc-2.2.3-gcc/bin/../sparc-gaisler-elf/bsp/gr716/leon3/libbcc.a(int_irqmp_mp.c.o)
 .bss           0x00000000300008d4        0x0 /home/fsw/rep/tasa/lib/bcc-2.2.3-gcc/bin/../sparc-gaisler-elf/bsp/gr716/leon3/libbcc.a(int_irqmp_init.c.o)
 .bss           0x00000000300008d4        0x0 /home/fsw/rep/tasa/lib/bcc-2.2.3-gcc/bin/../sparc-gaisler-elf/bsp/gr716/leon3/libbcc.a(bsp_timer_init.c.o)
 .bss           0x00000000300008d4        0x0 /home/fsw/rep/tasa/lib/bcc-2.2.3-gcc/bin/../sparc-gaisler-elf/bsp/gr716/leon3/libbcc.a(bsp_con_init.c.o)
 .bss           0x00000000300008d4        0x0 /home/fsw/rep/tasa/lib/bcc-2.2.3-gcc/bin/../sparc-gaisler-elf/bsp/gr716/leon3/libbcc.a(int_irqmp_handle.c.o)
 .bss           0x00000000300008d4        0x0 /home/fsw/rep/tasa/lib/bcc-2.2.3-gcc/bin/../sparc-gaisler-elf/bsp/gr716/leon3/libbcc.a(con_handle.c.o)
 .bss           0x00000000300008d4        0x0 /home/fsw/rep/tasa/lib/bcc-2.2.3-gcc/bin/../sparc-gaisler-elf/bsp/gr716/leon3/libbcc.a(timer_handle.c.o)
 .bss           0x00000000300008d4        0x0 /home/fsw/rep/tasa/lib/bcc-2.2.3-gcc/bin/../sparc-gaisler-elf/bsp/gr716/leon3/libbcc.a(bsp_sysfreq.c.o)
 .bss           0x00000000300008d4        0x0 /home/fsw/rep/tasa/lib/bcc-2.2.3-gcc/bin/../lib/gcc/sparc-gaisler-elf/10.2.0/../../../../sparc-gaisler-elf/lib/leon3/libc_nano.a(lib_a-atexit.o)
 .bss           0x00000000300008d4        0x0 /home/fsw/rep/tasa/lib/bcc-2.2.3-gcc/bin/../lib/gcc/sparc-gaisler-elf/10.2.0/../../../../sparc-gaisler-elf/lib/leon3/libc_nano.a(lib_a-exit.o)
 .bss           0x00000000300008d4        0x0 /home/fsw/rep/tasa/lib/bcc-2.2.3-gcc/bin/../lib/gcc/sparc-gaisler-elf/10.2.0/../../../../sparc-gaisler-elf/lib/leon3/libc_nano.a(lib_a-impure.o)
 .bss           0x00000000300008d4        0x0 /home/fsw/rep/tasa/lib/bcc-2.2.3-gcc/bin/../lib/gcc/sparc-gaisler-elf/10.2.0/../../../../sparc-gaisler-elf/lib/leon3/libc_nano.a(lib_a-nano-vfprintf_float.o)
 .bss           0x00000000300008d4        0x0 /home/fsw/rep/tasa/lib/bcc-2.2.3-gcc/bin/../lib/gcc/sparc-gaisler-elf/10.2.0/../../../../sparc-gaisler-elf/lib/leon3/libc_nano.a(lib_a-nano-vfprintf_i.o)
 .bss           0x00000000300008d4        0x0 /home/fsw/rep/tasa/lib/bcc-2.2.3-gcc/bin/../lib/gcc/sparc-gaisler-elf/10.2.0/../../../../sparc-gaisler-elf/lib/leon3/libc_nano.a(lib_a-printf.o)
 .bss           0x00000000300008d4        0x0 /home/fsw/rep/tasa/lib/bcc-2.2.3-gcc/bin/../lib/gcc/sparc-gaisler-elf/10.2.0/../../../../sparc-gaisler-elf/lib/leon3/libc_nano.a(lib_a-putchar.o)
 .bss           0x00000000300008d4        0x0 /home/fsw/rep/tasa/lib/bcc-2.2.3-gcc/bin/../lib/gcc/sparc-gaisler-elf/10.2.0/../../../../sparc-gaisler-elf/lib/leon3/libc_nano.a(lib_a-puts.o)
 .bss           0x00000000300008d4        0x0 /home/fsw/rep/tasa/lib/bcc-2.2.3-gcc/bin/../lib/gcc/sparc-gaisler-elf/10.2.0/../../../../sparc-gaisler-elf/lib/leon3/libc_nano.a(lib_a-strlen.o)
 .bss           0x00000000300008d4        0x0 /home/fsw/rep/tasa/lib/bcc-2.2.3-gcc/bin/../lib/gcc/sparc-gaisler-elf/10.2.0/../../../../sparc-gaisler-elf/lib/leon3/libc_nano.a(lib_a-wbuf.o)
 .bss           0x00000000300008d4        0x0 /home/fsw/rep/tasa/lib/bcc-2.2.3-gcc/bin/../lib/gcc/sparc-gaisler-elf/10.2.0/../../../../sparc-gaisler-elf/lib/leon3/libc_nano.a(lib_a-wsetup.o)
 .bss           0x00000000300008d4       0x8c /home/fsw/rep/tasa/lib/bcc-2.2.3-gcc/bin/../lib/gcc/sparc-gaisler-elf/10.2.0/../../../../sparc-gaisler-elf/lib/leon3/libc_nano.a(lib_a-__atexit.o)
 .bss           0x0000000030000960        0x4 /home/fsw/rep/tasa/lib/bcc-2.2.3-gcc/bin/../lib/gcc/sparc-gaisler-elf/10.2.0/../../../../sparc-gaisler-elf/lib/leon3/libc_nano.a(lib_a-__call_atexit.o)
                0x0000000030000960                _global_atexit
 .bss           0x0000000030000964        0x0 /home/fsw/rep/tasa/lib/bcc-2.2.3-gcc/bin/../lib/gcc/sparc-gaisler-elf/10.2.0/../../../../sparc-gaisler-elf/lib/leon3/libc_nano.a(lib_a-dtoa.o)
 .bss           0x0000000030000964        0x0 /home/fsw/rep/tasa/lib/bcc-2.2.3-gcc/bin/../lib/gcc/sparc-gaisler-elf/10.2.0/../../../../sparc-gaisler-elf/lib/leon3/libc_nano.a(lib_a-fflush.o)
 .bss           0x0000000030000964        0x0 /home/fsw/rep/tasa/lib/bcc-2.2.3-gcc/bin/../lib/gcc/sparc-gaisler-elf/10.2.0/../../../../sparc-gaisler-elf/lib/leon3/libc_nano.a(lib_a-findfp.o)
 .bss           0x0000000030000964        0x0 /home/fsw/rep/tasa/lib/bcc-2.2.3-gcc/bin/../lib/gcc/sparc-gaisler-elf/10.2.0/../../../../sparc-gaisler-elf/lib/leon3/libc_nano.a(lib_a-fwalk.o)
 .bss           0x0000000030000964        0x0 /home/fsw/rep/tasa/lib/bcc-2.2.3-gcc/bin/../lib/gcc/sparc-gaisler-elf/10.2.0/../../../../sparc-gaisler-elf/lib/leon3/libc_nano.a(lib_a-localeconv.o)
 .bss           0x0000000030000964        0x0 /home/fsw/rep/tasa/lib/bcc-2.2.3-gcc/bin/../lib/gcc/sparc-gaisler-elf/10.2.0/../../../../sparc-gaisler-elf/lib/leon3/libc_nano.a(lib_a-makebuf.o)
 .bss           0x0000000030000964        0x0 /home/fsw/rep/tasa/lib/bcc-2.2.3-gcc/bin/../lib/gcc/sparc-gaisler-elf/10.2.0/../../../../sparc-gaisler-elf/lib/leon3/libc_nano.a(lib_a-malloc.o)
 .bss           0x0000000030000964        0x0 /home/fsw/rep/tasa/lib/bcc-2.2.3-gcc/bin/../lib/gcc/sparc-gaisler-elf/10.2.0/../../../../sparc-gaisler-elf/lib/leon3/libc_nano.a(lib_a-memchr.o)
 .bss           0x0000000030000964        0x0 /home/fsw/rep/tasa/lib/bcc-2.2.3-gcc/bin/../lib/gcc/sparc-gaisler-elf/10.2.0/../../../../sparc-gaisler-elf/lib/leon3/libc_nano.a(lib_a-memcpy.o)
 .bss           0x0000000030000964        0x0 /home/fsw/rep/tasa/lib/bcc-2.2.3-gcc/bin/../lib/gcc/sparc-gaisler-elf/10.2.0/../../../../sparc-gaisler-elf/lib/leon3/libc_nano.a(lib_a-memset.o)
 .bss           0x0000000030000964        0x0 /home/fsw/rep/tasa/lib/bcc-2.2.3-gcc/bin/../lib/gcc/sparc-gaisler-elf/10.2.0/../../../../sparc-gaisler-elf/lib/leon3/libc_nano.a(lib_a-mprec.o)
 .bss           0x0000000030000964        0x0 /home/fsw/rep/tasa/lib/bcc-2.2.3-gcc/bin/../lib/gcc/sparc-gaisler-elf/10.2.0/../../../../sparc-gaisler-elf/lib/leon3/libc_nano.a(lib_a-nano-callocr.o)
 .bss           0x0000000030000964        0x0 /home/fsw/rep/tasa/lib/bcc-2.2.3-gcc/bin/../lib/gcc/sparc-gaisler-elf/10.2.0/../../../../sparc-gaisler-elf/lib/leon3/libc_nano.a(lib_a-nano-freer.o)
 .bss           0x0000000030000964        0x8 /home/fsw/rep/tasa/lib/bcc-2.2.3-gcc/bin/../lib/gcc/sparc-gaisler-elf/10.2.0/../../../../sparc-gaisler-elf/lib/leon3/libc_nano.a(lib_a-nano-mallocr.o)
                0x0000000030000964                __malloc_sbrk_start
                0x0000000030000968                __malloc_free_list
 .bss           0x000000003000096c        0x0 /home/fsw/rep/tasa/lib/bcc-2.2.3-gcc/bin/../lib/gcc/sparc-gaisler-elf/10.2.0/../../../../sparc-gaisler-elf/lib/leon3/libc_nano.a(lib_a-nano-vfprintf.o)
 .bss           0x000000003000096c        0x0 /home/fsw/rep/tasa/lib/bcc-2.2.3-gcc/bin/../lib/gcc/sparc-gaisler-elf/10.2.0/../../../../sparc-gaisler-elf/lib/leon3/libc_nano.a(lib_a-putc.o)
 .bss           0x000000003000096c        0x0 /home/fsw/rep/tasa/lib/bcc-2.2.3-gcc/bin/../lib/gcc/sparc-gaisler-elf/10.2.0/../../../../sparc-gaisler-elf/lib/leon3/libc_nano.a(lib_a-sbrkr.o)
 .bss           0x000000003000096c        0x0 /home/fsw/rep/tasa/lib/bcc-2.2.3-gcc/bin/../lib/gcc/sparc-gaisler-elf/10.2.0/../../../../sparc-gaisler-elf/lib/leon3/libc_nano.a(lib_a-stdio.o)
 .bss           0x000000003000096c        0x0 /home/fsw/rep/tasa/lib/bcc-2.2.3-gcc/bin/../lib/gcc/sparc-gaisler-elf/10.2.0/../../../../sparc-gaisler-elf/lib/leon3/libc_nano.a(lib_a-writer.o)
 .bss           0x000000003000096c        0x0 /home/fsw/rep/tasa/lib/bcc-2.2.3-gcc/bin/../lib/gcc/sparc-gaisler-elf/10.2.0/../../../../sparc-gaisler-elf/lib/leon3/libc_nano.a(lib_a-closer.o)
 .bss           0x000000003000096c        0x0 /home/fsw/rep/tasa/lib/bcc-2.2.3-gcc/bin/../lib/gcc/sparc-gaisler-elf/10.2.0/../../../../sparc-gaisler-elf/lib/leon3/libc_nano.a(lib_a-fstatr.o)
 .bss           0x000000003000096c        0x0 /home/fsw/rep/tasa/lib/bcc-2.2.3-gcc/bin/../lib/gcc/sparc-gaisler-elf/10.2.0/../../../../sparc-gaisler-elf/lib/leon3/libc_nano.a(lib_a-fvwrite.o)
 .bss           0x000000003000096c        0x0 /home/fsw/rep/tasa/lib/bcc-2.2.3-gcc/bin/../lib/gcc/sparc-gaisler-elf/10.2.0/../../../../sparc-gaisler-elf/lib/leon3/libc_nano.a(lib_a-isattyr.o)
 .bss           0x000000003000096c        0x4 /home/fsw/rep/tasa/lib/bcc-2.2.3-gcc/bin/../lib/gcc/sparc-gaisler-elf/10.2.0/../../../../sparc-gaisler-elf/lib/leon3/libc_nano.a(lib_a-locale.o)
                0x000000003000096c                _PathLocale
 .bss           0x0000000030000970        0x0 /home/fsw/rep/tasa/lib/bcc-2.2.3-gcc/bin/../lib/gcc/sparc-gaisler-elf/10.2.0/../../../../sparc-gaisler-elf/lib/leon3/libc_nano.a(lib_a-lseekr.o)
 .bss           0x0000000030000970        0x0 /home/fsw/rep/tasa/lib/bcc-2.2.3-gcc/bin/../lib/gcc/sparc-gaisler-elf/10.2.0/../../../../sparc-gaisler-elf/lib/leon3/libc_nano.a(lib_a-mbtowc_r.o)
 .bss           0x0000000030000970        0x0 /home/fsw/rep/tasa/lib/bcc-2.2.3-gcc/bin/../lib/gcc/sparc-gaisler-elf/10.2.0/../../../../sparc-gaisler-elf/lib/leon3/libc_nano.a(lib_a-memmove.o)
 .bss           0x0000000030000970        0x0 /home/fsw/rep/tasa/lib/bcc-2.2.3-gcc/bin/../lib/gcc/sparc-gaisler-elf/10.2.0/../../../../sparc-gaisler-elf/lib/leon3/libc_nano.a(lib_a-mlock.o)
 .bss           0x0000000030000970        0x0 /home/fsw/rep/tasa/lib/bcc-2.2.3-gcc/bin/../lib/gcc/sparc-gaisler-elf/10.2.0/../../../../sparc-gaisler-elf/lib/leon3/libc_nano.a(lib_a-nano-reallocr.o)
 .bss           0x0000000030000970        0x0 /home/fsw/rep/tasa/lib/bcc-2.2.3-gcc/bin/../lib/gcc/sparc-gaisler-elf/10.2.0/../../../../sparc-gaisler-elf/lib/leon3/libc_nano.a(lib_a-readr.o)
 .bss           0x0000000030000970        0x4 /home/fsw/rep/tasa/lib/bcc-2.2.3-gcc/bin/../lib/gcc/sparc-gaisler-elf/10.2.0/../../../../sparc-gaisler-elf/lib/leon3/libc_nano.a(lib_a-reent.o)
                0x0000000030000970                errno
 .bss           0x0000000030000974        0x0 /home/fsw/rep/tasa/lib/bcc-2.2.3-gcc/bin/../lib/gcc/sparc-gaisler-elf/10.2.0/../../../../sparc-gaisler-elf/lib/leon3/libc_nano.a(lib_a-strcmp.o)
 .bss           0x0000000030000974        0x0 /home/fsw/rep/tasa/lib/bcc-2.2.3-gcc/bin/../lib/gcc/sparc-gaisler-elf/10.2.0/../../../../sparc-gaisler-elf/lib/leon3/libc_nano.a(lib_a-wctomb_r.o)
 .bss           0x0000000030000974        0x0 /home/fsw/rep/tasa/lib/bcc-2.2.3-gcc/bin/../lib/gcc/sparc-gaisler-elf/10.2.0/../../../../sparc-gaisler-elf/lib/leon3/libc_nano.a(lib_a-ctype_.o)
 .bss           0x0000000030000974        0x0 /home/fsw/rep/tasa/lib/bcc-2.2.3-gcc/bin/../lib/gcc/sparc-gaisler-elf/10.2.0/../../../../sparc-gaisler-elf/lib/leon3/libc_nano.a(lib_a-nano-msizer.o)
 .bss           0x0000000030000974        0x0 /home/fsw/rep/tasa/lib/bcc-2.2.3-gcc/bin/../sparc-gaisler-elf/bsp/gr716/leon3/libbcc.a(_exit.S.o)
 .bss           0x0000000030000974        0x0 /home/fsw/rep/tasa/lib/bcc-2.2.3-gcc/bin/../sparc-gaisler-elf/bsp/gr716/leon3/libbcc.a(read.c.o)
 .bss           0x0000000030000974        0x4 /home/fsw/rep/tasa/lib/bcc-2.2.3-gcc/bin/../sparc-gaisler-elf/bsp/gr716/leon3/libbcc.a(sbrk.c.o)
 .bss           0x0000000030000978        0x8 /home/fsw/rep/tasa/lib/bcc-2.2.3-gcc/bin/../sparc-gaisler-elf/bsp/gr716/leon3/libbcc.a(heap.c.o)
                0x0000000030000978                __bcc_heap_max
                0x000000003000097c                __bcc_heap_min
 .bss           0x0000000030000980        0x0 /home/fsw/rep/tasa/lib/bcc-2.2.3-gcc/bin/../sparc-gaisler-elf/bsp/gr716/leon3/libbcc.a(write.c.o)
 .bss           0x0000000030000980        0x0 /home/fsw/rep/tasa/lib/bcc-2.2.3-gcc/bin/../sparc-gaisler-elf/bsp/gr716/leon3/libbcc.a(stubs.S.o)
 .bss           0x0000000030000980        0x4 /home/fsw/rep/tasa/lib/bcc-2.2.3-gcc/bin/../sparc-gaisler-elf/bsp/gr716/leon3/libbcc.a(con_apbuart.c.o)
 .bss           0x0000000030000984        0x0 /home/fsw/rep/tasa/lib/bcc-2.2.3-gcc/bin/../lib/gcc/sparc-gaisler-elf/10.2.0/leon3/crtend.o
 .bss           0x0000000030000984        0x0 /home/fsw/rep/tasa/lib/bcc-2.2.3-gcc/bin/../lib/gcc/sparc-gaisler-elf/10.2.0/leon3/crtn.o
 *(COMMON)
                0x0000000030000988                . = ALIGN (0x8)
 *fill*         0x0000000030000984        0x4 
                0x0000000030000988                __bss_end = .
                0x0000000030000988                __heap_min = .
                0x0000000030000988                . = ALIGN (0x8)

.jcr
 *(.jcr)

.stab
 *(.stab)

.stabstr
 *(.stabstr)

.debug
 *(.debug)

.line
 *(.line)

.debug_srcinfo
 *(.debug_srcinfo)

.debug_sfnames
 *(.debug_sfnames)

.debug_aranges  0x0000000000000000      0x990
 *(.debug_aranges)
 .debug_aranges
                0x0000000000000000       0x20 /home/fsw/rep/tasa/lib/bcc-2.2.3-gcc/bin/../sparc-gaisler-elf/bsp/gr716/leon3/trap_table_mvt.S.o
 .debug_aranges
                0x0000000000000020       0x20 /home/fsw/rep/tasa/lib/bcc-2.2.3-gcc/bin/../sparc-gaisler-elf/bsp/gr716/leon3/crt0.S.o
 .debug_aranges
                0x0000000000000040       0x20 /tmp/cct7UO0M.o
 .debug_aranges
                0x0000000000000060       0x20 /home/fsw/rep/tasa/lib/bcc-2.2.3-gcc/bin/../sparc-gaisler-elf/bsp/gr716/leon3/libbcc.a(reset_trap_mvt.S.o)
 .debug_aranges
                0x0000000000000080       0x20 /home/fsw/rep/tasa/lib/bcc-2.2.3-gcc/bin/../sparc-gaisler-elf/bsp/gr716/leon3/libbcc.a(window_trap.S.o)
 .debug_aranges
                0x00000000000000a0       0x20 /home/fsw/rep/tasa/lib/bcc-2.2.3-gcc/bin/../sparc-gaisler-elf/bsp/gr716/leon3/libbcc.a(interrupt_trap.S.o)
 .debug_aranges
                0x00000000000000c0       0x20 /home/fsw/rep/tasa/lib/bcc-2.2.3-gcc/bin/../sparc-gaisler-elf/bsp/gr716/leon3/libbcc.a(flush_windows_trap.S.o)
 .debug_aranges
                0x00000000000000e0       0x20 /home/fsw/rep/tasa/lib/bcc-2.2.3-gcc/bin/../sparc-gaisler-elf/bsp/gr716/leon3/libbcc.a(sw_trap_set_pil.S.o)
 .debug_aranges
                0x0000000000000100       0x18 /home/fsw/rep/tasa/lib/bcc-2.2.3-gcc/bin/../sparc-gaisler-elf/bsp/gr716/leon3/libbcc.a(isr.c.o)
 .debug_aranges
                0x0000000000000118       0x18 /home/fsw/rep/tasa/lib/bcc-2.2.3-gcc/bin/../sparc-gaisler-elf/bsp/gr716/leon3/libbcc.a(int_nest.c.o)
 .debug_aranges
                0x0000000000000130       0x20 /home/fsw/rep/tasa/lib/bcc-2.2.3-gcc/bin/../sparc-gaisler-elf/bsp/gr716/leon3/libbcc.a(init.S.o)
 .debug_aranges
                0x0000000000000150       0x20 /home/fsw/rep/tasa/lib/bcc-2.2.3-gcc/bin/../sparc-gaisler-elf/bsp/gr716/leon3/libbcc.a(leon_info.S.o)
 .debug_aranges
                0x0000000000000170       0x20 /home/fsw/rep/tasa/lib/bcc-2.2.3-gcc/bin/../sparc-gaisler-elf/bsp/gr716/leon3/libbcc.a(dwzero.S.o)
 .debug_aranges
                0x0000000000000190       0x20 /home/fsw/rep/tasa/lib/bcc-2.2.3-gcc/bin/../sparc-gaisler-elf/bsp/gr716/leon3/libbcc.a(copy_data.c.o)
 .debug_aranges
                0x00000000000001b0       0x18 /home/fsw/rep/tasa/lib/bcc-2.2.3-gcc/bin/../sparc-gaisler-elf/bsp/gr716/leon3/libbcc.a(argv.c.o)
 .debug_aranges
                0x00000000000001c8       0x20 /home/fsw/rep/tasa/lib/bcc-2.2.3-gcc/bin/../sparc-gaisler-elf/bsp/gr716/leon3/libbcc.a(int_irqmp_get_source.c.o)
 .debug_aranges
                0x00000000000001e8       0x20 /home/fsw/rep/tasa/lib/bcc-2.2.3-gcc/bin/../sparc-gaisler-elf/bsp/gr716/leon3/libbcc.a(int_irqmp_mp.c.o)
 .debug_aranges
                0x0000000000000208       0x20 /home/fsw/rep/tasa/lib/bcc-2.2.3-gcc/bin/../sparc-gaisler-elf/bsp/gr716/leon3/libbcc.a(int_irqmp_init.c.o)
 .debug_aranges
                0x0000000000000228       0x20 /home/fsw/rep/tasa/lib/bcc-2.2.3-gcc/bin/../sparc-gaisler-elf/bsp/gr716/leon3/libbcc.a(bsp_timer_init.c.o)
 .debug_aranges
                0x0000000000000248       0x20 /home/fsw/rep/tasa/lib/bcc-2.2.3-gcc/bin/../sparc-gaisler-elf/bsp/gr716/leon3/libbcc.a(bsp_con_init.c.o)
 .debug_aranges
                0x0000000000000268       0x18 /home/fsw/rep/tasa/lib/bcc-2.2.3-gcc/bin/../sparc-gaisler-elf/bsp/gr716/leon3/libbcc.a(int_irqmp_handle.c.o)
 .debug_aranges
                0x0000000000000280       0x18 /home/fsw/rep/tasa/lib/bcc-2.2.3-gcc/bin/../sparc-gaisler-elf/bsp/gr716/leon3/libbcc.a(con_handle.c.o)
 .debug_aranges
                0x0000000000000298       0x18 /home/fsw/rep/tasa/lib/bcc-2.2.3-gcc/bin/../sparc-gaisler-elf/bsp/gr716/leon3/libbcc.a(timer_handle.c.o)
 .debug_aranges
                0x00000000000002b0       0x18 /home/fsw/rep/tasa/lib/bcc-2.2.3-gcc/bin/../sparc-gaisler-elf/bsp/gr716/leon3/libbcc.a(bsp_sysfreq.c.o)
 .debug_aranges
                0x00000000000002c8       0x20 /home/fsw/rep/tasa/lib/bcc-2.2.3-gcc/bin/../lib/gcc/sparc-gaisler-elf/10.2.0/../../../../sparc-gaisler-elf/lib/leon3/libc_nano.a(lib_a-atexit.o)
 .debug_aranges
                0x00000000000002e8       0x20 /home/fsw/rep/tasa/lib/bcc-2.2.3-gcc/bin/../lib/gcc/sparc-gaisler-elf/10.2.0/../../../../sparc-gaisler-elf/lib/leon3/libc_nano.a(lib_a-exit.o)
 .debug_aranges
                0x0000000000000308       0x18 /home/fsw/rep/tasa/lib/bcc-2.2.3-gcc/bin/../lib/gcc/sparc-gaisler-elf/10.2.0/../../../../sparc-gaisler-elf/lib/leon3/libc_nano.a(lib_a-impure.o)
 .debug_aranges
                0x0000000000000320       0x20 /home/fsw/rep/tasa/lib/bcc-2.2.3-gcc/bin/../lib/gcc/sparc-gaisler-elf/10.2.0/../../../../sparc-gaisler-elf/lib/leon3/libc_nano.a(lib_a-nano-vfprintf_float.o)
 .debug_aranges
                0x0000000000000340       0x20 /home/fsw/rep/tasa/lib/bcc-2.2.3-gcc/bin/../lib/gcc/sparc-gaisler-elf/10.2.0/../../../../sparc-gaisler-elf/lib/leon3/libc_nano.a(lib_a-nano-vfprintf_i.o)
 .debug_aranges
                0x0000000000000360       0x20 /home/fsw/rep/tasa/lib/bcc-2.2.3-gcc/bin/../lib/gcc/sparc-gaisler-elf/10.2.0/../../../../sparc-gaisler-elf/lib/leon3/libc_nano.a(lib_a-printf.o)
 .debug_aranges
                0x0000000000000380       0x20 /home/fsw/rep/tasa/lib/bcc-2.2.3-gcc/bin/../lib/gcc/sparc-gaisler-elf/10.2.0/../../../../sparc-gaisler-elf/lib/leon3/libc_nano.a(lib_a-putchar.o)
 .debug_aranges
                0x00000000000003a0       0x20 /home/fsw/rep/tasa/lib/bcc-2.2.3-gcc/bin/../lib/gcc/sparc-gaisler-elf/10.2.0/../../../../sparc-gaisler-elf/lib/leon3/libc_nano.a(lib_a-puts.o)
 .debug_aranges
                0x00000000000003c0       0x20 /home/fsw/rep/tasa/lib/bcc-2.2.3-gcc/bin/../lib/gcc/sparc-gaisler-elf/10.2.0/../../../../sparc-gaisler-elf/lib/leon3/libc_nano.a(lib_a-strlen.o)
 .debug_aranges
                0x00000000000003e0       0x20 /home/fsw/rep/tasa/lib/bcc-2.2.3-gcc/bin/../lib/gcc/sparc-gaisler-elf/10.2.0/../../../../sparc-gaisler-elf/lib/leon3/libc_nano.a(lib_a-wbuf.o)
 .debug_aranges
                0x0000000000000400       0x20 /home/fsw/rep/tasa/lib/bcc-2.2.3-gcc/bin/../lib/gcc/sparc-gaisler-elf/10.2.0/../../../../sparc-gaisler-elf/lib/leon3/libc_nano.a(lib_a-wsetup.o)
 .debug_aranges
                0x0000000000000420       0x20 /home/fsw/rep/tasa/lib/bcc-2.2.3-gcc/bin/../lib/gcc/sparc-gaisler-elf/10.2.0/../../../../sparc-gaisler-elf/lib/leon3/libc_nano.a(lib_a-__atexit.o)
 .debug_aranges
                0x0000000000000440       0x20 /home/fsw/rep/tasa/lib/bcc-2.2.3-gcc/bin/../lib/gcc/sparc-gaisler-elf/10.2.0/../../../../sparc-gaisler-elf/lib/leon3/libc_nano.a(lib_a-__call_atexit.o)
 .debug_aranges
                0x0000000000000460       0x20 /home/fsw/rep/tasa/lib/bcc-2.2.3-gcc/bin/../lib/gcc/sparc-gaisler-elf/10.2.0/../../../../sparc-gaisler-elf/lib/leon3/libc_nano.a(lib_a-dtoa.o)
 .debug_aranges
                0x0000000000000480       0x20 /home/fsw/rep/tasa/lib/bcc-2.2.3-gcc/bin/../lib/gcc/sparc-gaisler-elf/10.2.0/../../../../sparc-gaisler-elf/lib/leon3/libc_nano.a(lib_a-fflush.o)
 .debug_aranges
                0x00000000000004a0       0x20 /home/fsw/rep/tasa/lib/bcc-2.2.3-gcc/bin/../lib/gcc/sparc-gaisler-elf/10.2.0/../../../../sparc-gaisler-elf/lib/leon3/libc_nano.a(lib_a-findfp.o)
 .debug_aranges
                0x00000000000004c0       0x20 /home/fsw/rep/tasa/lib/bcc-2.2.3-gcc/bin/../lib/gcc/sparc-gaisler-elf/10.2.0/../../../../sparc-gaisler-elf/lib/leon3/libc_nano.a(lib_a-fwalk.o)
 .debug_aranges
                0x00000000000004e0       0x20 /home/fsw/rep/tasa/lib/bcc-2.2.3-gcc/bin/../lib/gcc/sparc-gaisler-elf/10.2.0/../../../../sparc-gaisler-elf/lib/leon3/libc_nano.a(lib_a-localeconv.o)
 .debug_aranges
                0x0000000000000500       0x20 /home/fsw/rep/tasa/lib/bcc-2.2.3-gcc/bin/../lib/gcc/sparc-gaisler-elf/10.2.0/../../../../sparc-gaisler-elf/lib/leon3/libc_nano.a(lib_a-makebuf.o)
 .debug_aranges
                0x0000000000000520       0x20 /home/fsw/rep/tasa/lib/bcc-2.2.3-gcc/bin/../lib/gcc/sparc-gaisler-elf/10.2.0/../../../../sparc-gaisler-elf/lib/leon3/libc_nano.a(lib_a-malloc.o)
 .debug_aranges
                0x0000000000000540       0x20 /home/fsw/rep/tasa/lib/bcc-2.2.3-gcc/bin/../lib/gcc/sparc-gaisler-elf/10.2.0/../../../../sparc-gaisler-elf/lib/leon3/libc_nano.a(lib_a-memchr.o)
 .debug_aranges
                0x0000000000000560       0x20 /home/fsw/rep/tasa/lib/bcc-2.2.3-gcc/bin/../lib/gcc/sparc-gaisler-elf/10.2.0/../../../../sparc-gaisler-elf/lib/leon3/libc_nano.a(lib_a-memcpy.o)
 .debug_aranges
                0x0000000000000580       0x20 /home/fsw/rep/tasa/lib/bcc-2.2.3-gcc/bin/../lib/gcc/sparc-gaisler-elf/10.2.0/../../../../sparc-gaisler-elf/lib/leon3/libc_nano.a(lib_a-memset.o)
 .debug_aranges
                0x00000000000005a0       0x20 /home/fsw/rep/tasa/lib/bcc-2.2.3-gcc/bin/../lib/gcc/sparc-gaisler-elf/10.2.0/../../../../sparc-gaisler-elf/lib/leon3/libc_nano.a(lib_a-mprec.o)
 .debug_aranges
                0x00000000000005c0       0x20 /home/fsw/rep/tasa/lib/bcc-2.2.3-gcc/bin/../lib/gcc/sparc-gaisler-elf/10.2.0/../../../../sparc-gaisler-elf/lib/leon3/libc_nano.a(lib_a-nano-callocr.o)
 .debug_aranges
                0x00000000000005e0       0x20 /home/fsw/rep/tasa/lib/bcc-2.2.3-gcc/bin/../lib/gcc/sparc-gaisler-elf/10.2.0/../../../../sparc-gaisler-elf/lib/leon3/libc_nano.a(lib_a-nano-freer.o)
 .debug_aranges
                0x0000000000000600       0x20 /home/fsw/rep/tasa/lib/bcc-2.2.3-gcc/bin/../lib/gcc/sparc-gaisler-elf/10.2.0/../../../../sparc-gaisler-elf/lib/leon3/libc_nano.a(lib_a-nano-mallocr.o)
 .debug_aranges
                0x0000000000000620       0x20 /home/fsw/rep/tasa/lib/bcc-2.2.3-gcc/bin/../lib/gcc/sparc-gaisler-elf/10.2.0/../../../../sparc-gaisler-elf/lib/leon3/libc_nano.a(lib_a-nano-vfprintf.o)
 .debug_aranges
                0x0000000000000640       0x20 /home/fsw/rep/tasa/lib/bcc-2.2.3-gcc/bin/../lib/gcc/sparc-gaisler-elf/10.2.0/../../../../sparc-gaisler-elf/lib/leon3/libc_nano.a(lib_a-putc.o)
 .debug_aranges
                0x0000000000000660       0x20 /home/fsw/rep/tasa/lib/bcc-2.2.3-gcc/bin/../lib/gcc/sparc-gaisler-elf/10.2.0/../../../../sparc-gaisler-elf/lib/leon3/libc_nano.a(lib_a-sbrkr.o)
 .debug_aranges
                0x0000000000000680       0x20 /home/fsw/rep/tasa/lib/bcc-2.2.3-gcc/bin/../lib/gcc/sparc-gaisler-elf/10.2.0/../../../../sparc-gaisler-elf/lib/leon3/libc_nano.a(lib_a-stdio.o)
 .debug_aranges
                0x00000000000006a0       0x20 /home/fsw/rep/tasa/lib/bcc-2.2.3-gcc/bin/../lib/gcc/sparc-gaisler-elf/10.2.0/../../../../sparc-gaisler-elf/lib/leon3/libc_nano.a(lib_a-writer.o)
 .debug_aranges
                0x00000000000006c0       0x20 /home/fsw/rep/tasa/lib/bcc-2.2.3-gcc/bin/../lib/gcc/sparc-gaisler-elf/10.2.0/../../../../sparc-gaisler-elf/lib/leon3/libc_nano.a(lib_a-closer.o)
 .debug_aranges
                0x00000000000006e0       0x20 /home/fsw/rep/tasa/lib/bcc-2.2.3-gcc/bin/../lib/gcc/sparc-gaisler-elf/10.2.0/../../../../sparc-gaisler-elf/lib/leon3/libc_nano.a(lib_a-fstatr.o)
 .debug_aranges
                0x0000000000000700       0x20 /home/fsw/rep/tasa/lib/bcc-2.2.3-gcc/bin/../lib/gcc/sparc-gaisler-elf/10.2.0/../../../../sparc-gaisler-elf/lib/leon3/libc_nano.a(lib_a-fvwrite.o)
 .debug_aranges
                0x0000000000000720       0x20 /home/fsw/rep/tasa/lib/bcc-2.2.3-gcc/bin/../lib/gcc/sparc-gaisler-elf/10.2.0/../../../../sparc-gaisler-elf/lib/leon3/libc_nano.a(lib_a-isattyr.o)
 .debug_aranges
                0x0000000000000740       0x20 /home/fsw/rep/tasa/lib/bcc-2.2.3-gcc/bin/../lib/gcc/sparc-gaisler-elf/10.2.0/../../../../sparc-gaisler-elf/lib/leon3/libc_nano.a(lib_a-locale.o)
 .debug_aranges
                0x0000000000000760       0x20 /home/fsw/rep/tasa/lib/bcc-2.2.3-gcc/bin/../lib/gcc/sparc-gaisler-elf/10.2.0/../../../../sparc-gaisler-elf/lib/leon3/libc_nano.a(lib_a-lseekr.o)
 .debug_aranges
                0x0000000000000780       0x20 /home/fsw/rep/tasa/lib/bcc-2.2.3-gcc/bin/../lib/gcc/sparc-gaisler-elf/10.2.0/../../../../sparc-gaisler-elf/lib/leon3/libc_nano.a(lib_a-mbtowc_r.o)
 .debug_aranges
                0x00000000000007a0       0x20 /home/fsw/rep/tasa/lib/bcc-2.2.3-gcc/bin/../lib/gcc/sparc-gaisler-elf/10.2.0/../../../../sparc-gaisler-elf/lib/leon3/libc_nano.a(lib_a-memmove.o)
 .debug_aranges
                0x00000000000007c0       0x20 /home/fsw/rep/tasa/lib/bcc-2.2.3-gcc/bin/../lib/gcc/sparc-gaisler-elf/10.2.0/../../../../sparc-gaisler-elf/lib/leon3/libc_nano.a(lib_a-mlock.o)
 .debug_aranges
                0x00000000000007e0       0x20 /home/fsw/rep/tasa/lib/bcc-2.2.3-gcc/bin/../lib/gcc/sparc-gaisler-elf/10.2.0/../../../../sparc-gaisler-elf/lib/leon3/libc_nano.a(lib_a-nano-reallocr.o)
 .debug_aranges
                0x0000000000000800       0x20 /home/fsw/rep/tasa/lib/bcc-2.2.3-gcc/bin/../lib/gcc/sparc-gaisler-elf/10.2.0/../../../../sparc-gaisler-elf/lib/leon3/libc_nano.a(lib_a-readr.o)
 .debug_aranges
                0x0000000000000820       0x20 /home/fsw/rep/tasa/lib/bcc-2.2.3-gcc/bin/../lib/gcc/sparc-gaisler-elf/10.2.0/../../../../sparc-gaisler-elf/lib/leon3/libc_nano.a(lib_a-reent.o)
 .debug_aranges
                0x0000000000000840       0x20 /home/fsw/rep/tasa/lib/bcc-2.2.3-gcc/bin/../lib/gcc/sparc-gaisler-elf/10.2.0/../../../../sparc-gaisler-elf/lib/leon3/libc_nano.a(lib_a-strcmp.o)
 .debug_aranges
                0x0000000000000860       0x20 /home/fsw/rep/tasa/lib/bcc-2.2.3-gcc/bin/../lib/gcc/sparc-gaisler-elf/10.2.0/../../../../sparc-gaisler-elf/lib/leon3/libc_nano.a(lib_a-wctomb_r.o)
 .debug_aranges
                0x0000000000000880       0x18 /home/fsw/rep/tasa/lib/bcc-2.2.3-gcc/bin/../lib/gcc/sparc-gaisler-elf/10.2.0/../../../../sparc-gaisler-elf/lib/leon3/libc_nano.a(lib_a-ctype_.o)
 .debug_aranges
                0x0000000000000898       0x20 /home/fsw/rep/tasa/lib/bcc-2.2.3-gcc/bin/../lib/gcc/sparc-gaisler-elf/10.2.0/../../../../sparc-gaisler-elf/lib/leon3/libc_nano.a(lib_a-nano-msizer.o)
 .debug_aranges
                0x00000000000008b8       0x20 /home/fsw/rep/tasa/lib/bcc-2.2.3-gcc/bin/../sparc-gaisler-elf/bsp/gr716/leon3/libbcc.a(_exit.S.o)
 .debug_aranges
                0x00000000000008d8       0x20 /home/fsw/rep/tasa/lib/bcc-2.2.3-gcc/bin/../sparc-gaisler-elf/bsp/gr716/leon3/libbcc.a(read.c.o)
 .debug_aranges
                0x00000000000008f8       0x20 /home/fsw/rep/tasa/lib/bcc-2.2.3-gcc/bin/../sparc-gaisler-elf/bsp/gr716/leon3/libbcc.a(sbrk.c.o)
 .debug_aranges
                0x0000000000000918       0x18 /home/fsw/rep/tasa/lib/bcc-2.2.3-gcc/bin/../sparc-gaisler-elf/bsp/gr716/leon3/libbcc.a(heap.c.o)
 .debug_aranges
                0x0000000000000930       0x20 /home/fsw/rep/tasa/lib/bcc-2.2.3-gcc/bin/../sparc-gaisler-elf/bsp/gr716/leon3/libbcc.a(write.c.o)
 .debug_aranges
                0x0000000000000950       0x20 /home/fsw/rep/tasa/lib/bcc-2.2.3-gcc/bin/../sparc-gaisler-elf/bsp/gr716/leon3/libbcc.a(stubs.S.o)
 .debug_aranges
                0x0000000000000970       0x20 /home/fsw/rep/tasa/lib/bcc-2.2.3-gcc/bin/../sparc-gaisler-elf/bsp/gr716/leon3/libbcc.a(con_apbuart.c.o)

.debug_pubnames
 *(.debug_pubnames)

.debug_info     0x0000000000000000    0x1c473
 *(.debug_info)
 .debug_info    0x0000000000000000       0x26 /home/fsw/rep/tasa/lib/bcc-2.2.3-gcc/bin/../sparc-gaisler-elf/bsp/gr716/leon3/trap_table_mvt.S.o
 .debug_info    0x0000000000000026       0x26 /home/fsw/rep/tasa/lib/bcc-2.2.3-gcc/bin/../sparc-gaisler-elf/bsp/gr716/leon3/crt0.S.o
 .debug_info    0x000000000000004c      0x368 /tmp/cct7UO0M.o
 .debug_info    0x00000000000003b4       0x26 /home/fsw/rep/tasa/lib/bcc-2.2.3-gcc/bin/../sparc-gaisler-elf/bsp/gr716/leon3/libbcc.a(reset_trap_mvt.S.o)
 .debug_info    0x00000000000003da       0x26 /home/fsw/rep/tasa/lib/bcc-2.2.3-gcc/bin/../sparc-gaisler-elf/bsp/gr716/leon3/libbcc.a(window_trap.S.o)
 .debug_info    0x0000000000000400       0x26 /home/fsw/rep/tasa/lib/bcc-2.2.3-gcc/bin/../sparc-gaisler-elf/bsp/gr716/leon3/libbcc.a(interrupt_trap.S.o)
 .debug_info    0x0000000000000426       0x26 /home/fsw/rep/tasa/lib/bcc-2.2.3-gcc/bin/../sparc-gaisler-elf/bsp/gr716/leon3/libbcc.a(flush_windows_trap.S.o)
 .debug_info    0x000000000000044c       0x26 /home/fsw/rep/tasa/lib/bcc-2.2.3-gcc/bin/../sparc-gaisler-elf/bsp/gr716/leon3/libbcc.a(sw_trap_set_pil.S.o)
 .debug_info    0x0000000000000472       0xf5 /home/fsw/rep/tasa/lib/bcc-2.2.3-gcc/bin/../sparc-gaisler-elf/bsp/gr716/leon3/libbcc.a(isr.c.o)
 .debug_info    0x0000000000000567       0xcd /home/fsw/rep/tasa/lib/bcc-2.2.3-gcc/bin/../sparc-gaisler-elf/bsp/gr716/leon3/libbcc.a(int_nest.c.o)
 .debug_info    0x0000000000000634       0x26 /home/fsw/rep/tasa/lib/bcc-2.2.3-gcc/bin/../sparc-gaisler-elf/bsp/gr716/leon3/libbcc.a(init.S.o)
 .debug_info    0x000000000000065a       0x26 /home/fsw/rep/tasa/lib/bcc-2.2.3-gcc/bin/../sparc-gaisler-elf/bsp/gr716/leon3/libbcc.a(leon_info.S.o)
 .debug_info    0x0000000000000680       0x26 /home/fsw/rep/tasa/lib/bcc-2.2.3-gcc/bin/../sparc-gaisler-elf/bsp/gr716/leon3/libbcc.a(dwzero.S.o)
 .debug_info    0x00000000000006a6       0xe8 /home/fsw/rep/tasa/lib/bcc-2.2.3-gcc/bin/../sparc-gaisler-elf/bsp/gr716/leon3/libbcc.a(copy_data.c.o)
 .debug_info    0x000000000000078e       0xd9 /home/fsw/rep/tasa/lib/bcc-2.2.3-gcc/bin/../sparc-gaisler-elf/bsp/gr716/leon3/libbcc.a(argv.c.o)
 .debug_info    0x0000000000000867      0x2db /home/fsw/rep/tasa/lib/bcc-2.2.3-gcc/bin/../sparc-gaisler-elf/bsp/gr716/leon3/libbcc.a(int_irqmp_get_source.c.o)
 .debug_info    0x0000000000000b42      0x3a6 /home/fsw/rep/tasa/lib/bcc-2.2.3-gcc/bin/../sparc-gaisler-elf/bsp/gr716/leon3/libbcc.a(int_irqmp_mp.c.o)
 .debug_info    0x0000000000000ee8      0x390 /home/fsw/rep/tasa/lib/bcc-2.2.3-gcc/bin/../sparc-gaisler-elf/bsp/gr716/leon3/libbcc.a(int_irqmp_init.c.o)
 .debug_info    0x0000000000001278      0x1d7 /home/fsw/rep/tasa/lib/bcc-2.2.3-gcc/bin/../sparc-gaisler-elf/bsp/gr716/leon3/libbcc.a(bsp_timer_init.c.o)
 .debug_info    0x000000000000144f      0x1a0 /home/fsw/rep/tasa/lib/bcc-2.2.3-gcc/bin/../sparc-gaisler-elf/bsp/gr716/leon3/libbcc.a(bsp_con_init.c.o)
 .debug_info    0x00000000000015ef       0xeb /home/fsw/rep/tasa/lib/bcc-2.2.3-gcc/bin/../sparc-gaisler-elf/bsp/gr716/leon3/libbcc.a(int_irqmp_handle.c.o)
 .debug_info    0x00000000000016da       0x9d /home/fsw/rep/tasa/lib/bcc-2.2.3-gcc/bin/../sparc-gaisler-elf/bsp/gr716/leon3/libbcc.a(con_handle.c.o)
 .debug_info    0x0000000000001777       0xb7 /home/fsw/rep/tasa/lib/bcc-2.2.3-gcc/bin/../sparc-gaisler-elf/bsp/gr716/leon3/libbcc.a(timer_handle.c.o)
 .debug_info    0x000000000000182e       0x3c /home/fsw/rep/tasa/lib/bcc-2.2.3-gcc/bin/../sparc-gaisler-elf/bsp/gr716/leon3/libbcc.a(bsp_sysfreq.c.o)
 .debug_info    0x000000000000186a      0x102 /home/fsw/rep/tasa/lib/bcc-2.2.3-gcc/bin/../lib/gcc/sparc-gaisler-elf/10.2.0/../../../../sparc-gaisler-elf/lib/leon3/libc_nano.a(lib_a-atexit.o)
 .debug_info    0x000000000000196c      0x7f5 /home/fsw/rep/tasa/lib/bcc-2.2.3-gcc/bin/../lib/gcc/sparc-gaisler-elf/10.2.0/../../../../sparc-gaisler-elf/lib/leon3/libc_nano.a(lib_a-exit.o)
 .debug_info    0x0000000000002161      0x83e /home/fsw/rep/tasa/lib/bcc-2.2.3-gcc/bin/../lib/gcc/sparc-gaisler-elf/10.2.0/../../../../sparc-gaisler-elf/lib/leon3/libc_nano.a(lib_a-impure.o)
 .debug_info    0x000000000000299f     0x12e3 /home/fsw/rep/tasa/lib/bcc-2.2.3-gcc/bin/../lib/gcc/sparc-gaisler-elf/10.2.0/../../../../sparc-gaisler-elf/lib/leon3/libc_nano.a(lib_a-nano-vfprintf_float.o)
 .debug_info    0x0000000000003c82      0xe6c /home/fsw/rep/tasa/lib/bcc-2.2.3-gcc/bin/../lib/gcc/sparc-gaisler-elf/10.2.0/../../../../sparc-gaisler-elf/lib/leon3/libc_nano.a(lib_a-nano-vfprintf_i.o)
 .debug_info    0x0000000000004aee      0x8d8 /home/fsw/rep/tasa/lib/bcc-2.2.3-gcc/bin/../lib/gcc/sparc-gaisler-elf/10.2.0/../../../../sparc-gaisler-elf/lib/leon3/libc_nano.a(lib_a-printf.o)
 .debug_info    0x00000000000053c6      0x85d /home/fsw/rep/tasa/lib/bcc-2.2.3-gcc/bin/../lib/gcc/sparc-gaisler-elf/10.2.0/../../../../sparc-gaisler-elf/lib/leon3/libc_nano.a(lib_a-putchar.o)
 .debug_info    0x0000000000005c23      0xa48 /home/fsw/rep/tasa/lib/bcc-2.2.3-gcc/bin/../lib/gcc/sparc-gaisler-elf/10.2.0/../../../../sparc-gaisler-elf/lib/leon3/libc_nano.a(lib_a-puts.o)
 .debug_info    0x000000000000666b       0xd0 /home/fsw/rep/tasa/lib/bcc-2.2.3-gcc/bin/../lib/gcc/sparc-gaisler-elf/10.2.0/../../../../sparc-gaisler-elf/lib/leon3/libc_nano.a(lib_a-strlen.o)
 .debug_info    0x000000000000673b      0x976 /home/fsw/rep/tasa/lib/bcc-2.2.3-gcc/bin/../lib/gcc/sparc-gaisler-elf/10.2.0/../../../../sparc-gaisler-elf/lib/leon3/libc_nano.a(lib_a-wbuf.o)
 .debug_info    0x00000000000070b1      0x8dd /home/fsw/rep/tasa/lib/bcc-2.2.3-gcc/bin/../lib/gcc/sparc-gaisler-elf/10.2.0/../../../../sparc-gaisler-elf/lib/leon3/libc_nano.a(lib_a-wsetup.o)
 .debug_info    0x000000000000798e      0x27d /home/fsw/rep/tasa/lib/bcc-2.2.3-gcc/bin/../lib/gcc/sparc-gaisler-elf/10.2.0/../../../../sparc-gaisler-elf/lib/leon3/libc_nano.a(lib_a-__atexit.o)
 .debug_info    0x0000000000007c0b      0x27d /home/fsw/rep/tasa/lib/bcc-2.2.3-gcc/bin/../lib/gcc/sparc-gaisler-elf/10.2.0/../../../../sparc-gaisler-elf/lib/leon3/libc_nano.a(lib_a-__call_atexit.o)
 .debug_info    0x0000000000007e88     0x14e8 /home/fsw/rep/tasa/lib/bcc-2.2.3-gcc/bin/../lib/gcc/sparc-gaisler-elf/10.2.0/../../../../sparc-gaisler-elf/lib/leon3/libc_nano.a(lib_a-dtoa.o)
 .debug_info    0x0000000000009370      0xa70 /home/fsw/rep/tasa/lib/bcc-2.2.3-gcc/bin/../lib/gcc/sparc-gaisler-elf/10.2.0/../../../../sparc-gaisler-elf/lib/leon3/libc_nano.a(lib_a-fflush.o)
 .debug_info    0x0000000000009de0      0xc98 /home/fsw/rep/tasa/lib/bcc-2.2.3-gcc/bin/../lib/gcc/sparc-gaisler-elf/10.2.0/../../../../sparc-gaisler-elf/lib/leon3/libc_nano.a(lib_a-findfp.o)
 .debug_info    0x000000000000aa78      0x8db /home/fsw/rep/tasa/lib/bcc-2.2.3-gcc/bin/../lib/gcc/sparc-gaisler-elf/10.2.0/../../../../sparc-gaisler-elf/lib/leon3/libc_nano.a(lib_a-fwalk.o)
 .debug_info    0x000000000000b353      0xb4f /home/fsw/rep/tasa/lib/bcc-2.2.3-gcc/bin/../lib/gcc/sparc-gaisler-elf/10.2.0/../../../../sparc-gaisler-elf/lib/leon3/libc_nano.a(lib_a-localeconv.o)
 .debug_info    0x000000000000bea2      0xb7a /home/fsw/rep/tasa/lib/bcc-2.2.3-gcc/bin/../lib/gcc/sparc-gaisler-elf/10.2.0/../../../../sparc-gaisler-elf/lib/leon3/libc_nano.a(lib_a-makebuf.o)
 .debug_info    0x000000000000ca1c      0x817 /home/fsw/rep/tasa/lib/bcc-2.2.3-gcc/bin/../lib/gcc/sparc-gaisler-elf/10.2.0/../../../../sparc-gaisler-elf/lib/leon3/libc_nano.a(lib_a-malloc.o)
 .debug_info    0x000000000000d233      0x115 /home/fsw/rep/tasa/lib/bcc-2.2.3-gcc/bin/../lib/gcc/sparc-gaisler-elf/10.2.0/../../../../sparc-gaisler-elf/lib/leon3/libc_nano.a(lib_a-memchr.o)
 .debug_info    0x000000000000d348      0x126 /home/fsw/rep/tasa/lib/bcc-2.2.3-gcc/bin/../lib/gcc/sparc-gaisler-elf/10.2.0/../../../../sparc-gaisler-elf/lib/leon3/libc_nano.a(lib_a-memcpy.o)
 .debug_info    0x000000000000d46e       0xe1 /home/fsw/rep/tasa/lib/bcc-2.2.3-gcc/bin/../lib/gcc/sparc-gaisler-elf/10.2.0/../../../../sparc-gaisler-elf/lib/leon3/libc_nano.a(lib_a-memset.o)
 .debug_info    0x000000000000d54f     0x1b70 /home/fsw/rep/tasa/lib/bcc-2.2.3-gcc/bin/../lib/gcc/sparc-gaisler-elf/10.2.0/../../../../sparc-gaisler-elf/lib/leon3/libc_nano.a(lib_a-mprec.o)
 .debug_info    0x000000000000f0bf      0x82f /home/fsw/rep/tasa/lib/bcc-2.2.3-gcc/bin/../lib/gcc/sparc-gaisler-elf/10.2.0/../../../../sparc-gaisler-elf/lib/leon3/libc_nano.a(lib_a-nano-callocr.o)
 .debug_info    0x000000000000f8ee      0x952 /home/fsw/rep/tasa/lib/bcc-2.2.3-gcc/bin/../lib/gcc/sparc-gaisler-elf/10.2.0/../../../../sparc-gaisler-elf/lib/leon3/libc_nano.a(lib_a-nano-freer.o)
 .debug_info    0x0000000000010240      0xa25 /home/fsw/rep/tasa/lib/bcc-2.2.3-gcc/bin/../lib/gcc/sparc-gaisler-elf/10.2.0/../../../../sparc-gaisler-elf/lib/leon3/libc_nano.a(lib_a-nano-mallocr.o)
 .debug_info    0x0000000000010c65     0x10e6 /home/fsw/rep/tasa/lib/bcc-2.2.3-gcc/bin/../lib/gcc/sparc-gaisler-elf/10.2.0/../../../../sparc-gaisler-elf/lib/leon3/libc_nano.a(lib_a-nano-vfprintf.o)
 .debug_info    0x0000000000011d4b      0x99c /home/fsw/rep/tasa/lib/bcc-2.2.3-gcc/bin/../lib/gcc/sparc-gaisler-elf/10.2.0/../../../../sparc-gaisler-elf/lib/leon3/libc_nano.a(lib_a-putc.o)
 .debug_info    0x00000000000126e7      0x801 /home/fsw/rep/tasa/lib/bcc-2.2.3-gcc/bin/../lib/gcc/sparc-gaisler-elf/10.2.0/../../../../sparc-gaisler-elf/lib/leon3/libc_nano.a(lib_a-sbrkr.o)
 .debug_info    0x0000000000012ee8      0xa81 /home/fsw/rep/tasa/lib/bcc-2.2.3-gcc/bin/../lib/gcc/sparc-gaisler-elf/10.2.0/../../../../sparc-gaisler-elf/lib/leon3/libc_nano.a(lib_a-stdio.o)
 .debug_info    0x0000000000013969      0x831 /home/fsw/rep/tasa/lib/bcc-2.2.3-gcc/bin/../lib/gcc/sparc-gaisler-elf/10.2.0/../../../../sparc-gaisler-elf/lib/leon3/libc_nano.a(lib_a-writer.o)
 .debug_info    0x000000000001419a      0x7de /home/fsw/rep/tasa/lib/bcc-2.2.3-gcc/bin/../lib/gcc/sparc-gaisler-elf/10.2.0/../../../../sparc-gaisler-elf/lib/leon3/libc_nano.a(lib_a-closer.o)
 .debug_info    0x0000000000014978      0x9dd /home/fsw/rep/tasa/lib/bcc-2.2.3-gcc/bin/../lib/gcc/sparc-gaisler-elf/10.2.0/../../../../sparc-gaisler-elf/lib/leon3/libc_nano.a(lib_a-fstatr.o)
 .debug_info    0x0000000000015355      0xb19 /home/fsw/rep/tasa/lib/bcc-2.2.3-gcc/bin/../lib/gcc/sparc-gaisler-elf/10.2.0/../../../../sparc-gaisler-elf/lib/leon3/libc_nano.a(lib_a-fvwrite.o)
 .debug_info    0x0000000000015e6e      0x7de /home/fsw/rep/tasa/lib/bcc-2.2.3-gcc/bin/../lib/gcc/sparc-gaisler-elf/10.2.0/../../../../sparc-gaisler-elf/lib/leon3/libc_nano.a(lib_a-isattyr.o)
 .debug_info    0x000000000001664c      0xc56 /home/fsw/rep/tasa/lib/bcc-2.2.3-gcc/bin/../lib/gcc/sparc-gaisler-elf/10.2.0/../../../../sparc-gaisler-elf/lib/leon3/libc_nano.a(lib_a-locale.o)
 .debug_info    0x00000000000172a2      0x812 /home/fsw/rep/tasa/lib/bcc-2.2.3-gcc/bin/../lib/gcc/sparc-gaisler-elf/10.2.0/../../../../sparc-gaisler-elf/lib/leon3/libc_nano.a(lib_a-lseekr.o)
 .debug_info    0x0000000000017ab4      0xb54 /home/fsw/rep/tasa/lib/bcc-2.2.3-gcc/bin/../lib/gcc/sparc-gaisler-elf/10.2.0/../../../../sparc-gaisler-elf/lib/leon3/libc_nano.a(lib_a-mbtowc_r.o)
 .debug_info    0x0000000000018608      0x10f /home/fsw/rep/tasa/lib/bcc-2.2.3-gcc/bin/../lib/gcc/sparc-gaisler-elf/10.2.0/../../../../sparc-gaisler-elf/lib/leon3/libc_nano.a(lib_a-memmove.o)
 .debug_info    0x0000000000018717      0x7aa /home/fsw/rep/tasa/lib/bcc-2.2.3-gcc/bin/../lib/gcc/sparc-gaisler-elf/10.2.0/../../../../sparc-gaisler-elf/lib/leon3/libc_nano.a(lib_a-mlock.o)
 .debug_info    0x0000000000018ec1      0x8ec /home/fsw/rep/tasa/lib/bcc-2.2.3-gcc/bin/../lib/gcc/sparc-gaisler-elf/10.2.0/../../../../sparc-gaisler-elf/lib/leon3/libc_nano.a(lib_a-nano-reallocr.o)
 .debug_info    0x00000000000197ad      0x82a /home/fsw/rep/tasa/lib/bcc-2.2.3-gcc/bin/../lib/gcc/sparc-gaisler-elf/10.2.0/../../../../sparc-gaisler-elf/lib/leon3/libc_nano.a(lib_a-readr.o)
 .debug_info    0x0000000000019fd7      0x954 /home/fsw/rep/tasa/lib/bcc-2.2.3-gcc/bin/../lib/gcc/sparc-gaisler-elf/10.2.0/../../../../sparc-gaisler-elf/lib/leon3/libc_nano.a(lib_a-reent.o)
 .debug_info    0x000000000001a92b       0xc2 /home/fsw/rep/tasa/lib/bcc-2.2.3-gcc/bin/../lib/gcc/sparc-gaisler-elf/10.2.0/../../../../sparc-gaisler-elf/lib/leon3/libc_nano.a(lib_a-strcmp.o)
 .debug_info    0x000000000001a9ed      0xb13 /home/fsw/rep/tasa/lib/bcc-2.2.3-gcc/bin/../lib/gcc/sparc-gaisler-elf/10.2.0/../../../../sparc-gaisler-elf/lib/leon3/libc_nano.a(lib_a-wctomb_r.o)
 .debug_info    0x000000000001b500       0xec /home/fsw/rep/tasa/lib/bcc-2.2.3-gcc/bin/../lib/gcc/sparc-gaisler-elf/10.2.0/../../../../sparc-gaisler-elf/lib/leon3/libc_nano.a(lib_a-ctype_.o)
 .debug_info    0x000000000001b5ec      0x81c /home/fsw/rep/tasa/lib/bcc-2.2.3-gcc/bin/../lib/gcc/sparc-gaisler-elf/10.2.0/../../../../sparc-gaisler-elf/lib/leon3/libc_nano.a(lib_a-nano-msizer.o)
 .debug_info    0x000000000001be08       0x26 /home/fsw/rep/tasa/lib/bcc-2.2.3-gcc/bin/../sparc-gaisler-elf/bsp/gr716/leon3/libbcc.a(_exit.S.o)
 .debug_info    0x000000000001be2e      0x12f /home/fsw/rep/tasa/lib/bcc-2.2.3-gcc/bin/../sparc-gaisler-elf/bsp/gr716/leon3/libbcc.a(read.c.o)
 .debug_info    0x000000000001bf5d      0x138 /home/fsw/rep/tasa/lib/bcc-2.2.3-gcc/bin/../sparc-gaisler-elf/bsp/gr716/leon3/libbcc.a(sbrk.c.o)
 .debug_info    0x000000000001c095       0xbd /home/fsw/rep/tasa/lib/bcc-2.2.3-gcc/bin/../sparc-gaisler-elf/bsp/gr716/leon3/libbcc.a(heap.c.o)
 .debug_info    0x000000000001c152      0x154 /home/fsw/rep/tasa/lib/bcc-2.2.3-gcc/bin/../sparc-gaisler-elf/bsp/gr716/leon3/libbcc.a(write.c.o)
 .debug_info    0x000000000001c2a6       0x26 /home/fsw/rep/tasa/lib/bcc-2.2.3-gcc/bin/../sparc-gaisler-elf/bsp/gr716/leon3/libbcc.a(stubs.S.o)
 .debug_info    0x000000000001c2cc      0x1a7 /home/fsw/rep/tasa/lib/bcc-2.2.3-gcc/bin/../sparc-gaisler-elf/bsp/gr716/leon3/libbcc.a(con_apbuart.c.o)

.debug_abbrev   0x0000000000000000     0x67b4
 *(.debug_abbrev)
 .debug_abbrev  0x0000000000000000       0x14 /home/fsw/rep/tasa/lib/bcc-2.2.3-gcc/bin/../sparc-gaisler-elf/bsp/gr716/leon3/trap_table_mvt.S.o
 .debug_abbrev  0x0000000000000014       0x14 /home/fsw/rep/tasa/lib/bcc-2.2.3-gcc/bin/../sparc-gaisler-elf/bsp/gr716/leon3/crt0.S.o
 .debug_abbrev  0x0000000000000028       0xe8 /tmp/cct7UO0M.o
 .debug_abbrev  0x0000000000000110       0x14 /home/fsw/rep/tasa/lib/bcc-2.2.3-gcc/bin/../sparc-gaisler-elf/bsp/gr716/leon3/libbcc.a(reset_trap_mvt.S.o)
 .debug_abbrev  0x0000000000000124       0x14 /home/fsw/rep/tasa/lib/bcc-2.2.3-gcc/bin/../sparc-gaisler-elf/bsp/gr716/leon3/libbcc.a(window_trap.S.o)
 .debug_abbrev  0x0000000000000138       0x14 /home/fsw/rep/tasa/lib/bcc-2.2.3-gcc/bin/../sparc-gaisler-elf/bsp/gr716/leon3/libbcc.a(interrupt_trap.S.o)
 .debug_abbrev  0x000000000000014c       0x14 /home/fsw/rep/tasa/lib/bcc-2.2.3-gcc/bin/../sparc-gaisler-elf/bsp/gr716/leon3/libbcc.a(flush_windows_trap.S.o)
 .debug_abbrev  0x0000000000000160       0x14 /home/fsw/rep/tasa/lib/bcc-2.2.3-gcc/bin/../sparc-gaisler-elf/bsp/gr716/leon3/libbcc.a(sw_trap_set_pil.S.o)
 .debug_abbrev  0x0000000000000174       0xad /home/fsw/rep/tasa/lib/bcc-2.2.3-gcc/bin/../sparc-gaisler-elf/bsp/gr716/leon3/libbcc.a(isr.c.o)
 .debug_abbrev  0x0000000000000221       0x85 /home/fsw/rep/tasa/lib/bcc-2.2.3-gcc/bin/../sparc-gaisler-elf/bsp/gr716/leon3/libbcc.a(int_nest.c.o)
 .debug_abbrev  0x00000000000002a6       0x14 /home/fsw/rep/tasa/lib/bcc-2.2.3-gcc/bin/../sparc-gaisler-elf/bsp/gr716/leon3/libbcc.a(init.S.o)
 .debug_abbrev  0x00000000000002ba       0x14 /home/fsw/rep/tasa/lib/bcc-2.2.3-gcc/bin/../sparc-gaisler-elf/bsp/gr716/leon3/libbcc.a(leon_info.S.o)
 .debug_abbrev  0x00000000000002ce       0x14 /home/fsw/rep/tasa/lib/bcc-2.2.3-gcc/bin/../sparc-gaisler-elf/bsp/gr716/leon3/libbcc.a(dwzero.S.o)
 .debug_abbrev  0x00000000000002e2       0x87 /home/fsw/rep/tasa/lib/bcc-2.2.3-gcc/bin/../sparc-gaisler-elf/bsp/gr716/leon3/libbcc.a(copy_data.c.o)
 .debug_abbrev  0x0000000000000369       0x70 /home/fsw/rep/tasa/lib/bcc-2.2.3-gcc/bin/../sparc-gaisler-elf/bsp/gr716/leon3/libbcc.a(argv.c.o)
 .debug_abbrev  0x00000000000003d9      0x132 /home/fsw/rep/tasa/lib/bcc-2.2.3-gcc/bin/../sparc-gaisler-elf/bsp/gr716/leon3/libbcc.a(int_irqmp_get_source.c.o)
 .debug_abbrev  0x000000000000050b      0x16d /home/fsw/rep/tasa/lib/bcc-2.2.3-gcc/bin/../sparc-gaisler-elf/bsp/gr716/leon3/libbcc.a(int_irqmp_mp.c.o)
 .debug_abbrev  0x0000000000000678      0x130 /home/fsw/rep/tasa/lib/bcc-2.2.3-gcc/bin/../sparc-gaisler-elf/bsp/gr716/leon3/libbcc.a(int_irqmp_init.c.o)
 .debug_abbrev  0x00000000000007a8       0xf6 /home/fsw/rep/tasa/lib/bcc-2.2.3-gcc/bin/../sparc-gaisler-elf/bsp/gr716/leon3/libbcc.a(bsp_timer_init.c.o)
 .debug_abbrev  0x000000000000089e       0xf8 /home/fsw/rep/tasa/lib/bcc-2.2.3-gcc/bin/../sparc-gaisler-elf/bsp/gr716/leon3/libbcc.a(bsp_con_init.c.o)
 .debug_abbrev  0x0000000000000996       0x57 /home/fsw/rep/tasa/lib/bcc-2.2.3-gcc/bin/../sparc-gaisler-elf/bsp/gr716/leon3/libbcc.a(int_irqmp_handle.c.o)
 .debug_abbrev  0x00000000000009ed       0x57 /home/fsw/rep/tasa/lib/bcc-2.2.3-gcc/bin/../sparc-gaisler-elf/bsp/gr716/leon3/libbcc.a(con_handle.c.o)
 .debug_abbrev  0x0000000000000a44       0x57 /home/fsw/rep/tasa/lib/bcc-2.2.3-gcc/bin/../sparc-gaisler-elf/bsp/gr716/leon3/libbcc.a(timer_handle.c.o)
 .debug_abbrev  0x0000000000000a9b       0x35 /home/fsw/rep/tasa/lib/bcc-2.2.3-gcc/bin/../sparc-gaisler-elf/bsp/gr716/leon3/libbcc.a(bsp_sysfreq.c.o)
 .debug_abbrev  0x0000000000000ad0       0xb7 /home/fsw/rep/tasa/lib/bcc-2.2.3-gcc/bin/../lib/gcc/sparc-gaisler-elf/10.2.0/../../../../sparc-gaisler-elf/lib/leon3/libc_nano.a(lib_a-atexit.o)
 .debug_abbrev  0x0000000000000b87      0x1ba /home/fsw/rep/tasa/lib/bcc-2.2.3-gcc/bin/../lib/gcc/sparc-gaisler-elf/10.2.0/../../../../sparc-gaisler-elf/lib/leon3/libc_nano.a(lib_a-exit.o)
 .debug_abbrev  0x0000000000000d41      0x151 /home/fsw/rep/tasa/lib/bcc-2.2.3-gcc/bin/../lib/gcc/sparc-gaisler-elf/10.2.0/../../../../sparc-gaisler-elf/lib/leon3/libc_nano.a(lib_a-impure.o)
 .debug_abbrev  0x0000000000000e92      0x2cd /home/fsw/rep/tasa/lib/bcc-2.2.3-gcc/bin/../lib/gcc/sparc-gaisler-elf/10.2.0/../../../../sparc-gaisler-elf/lib/leon3/libc_nano.a(lib_a-nano-vfprintf_float.o)
 .debug_abbrev  0x000000000000115f      0x248 /home/fsw/rep/tasa/lib/bcc-2.2.3-gcc/bin/../lib/gcc/sparc-gaisler-elf/10.2.0/../../../../sparc-gaisler-elf/lib/leon3/libc_nano.a(lib_a-nano-vfprintf_i.o)
 .debug_abbrev  0x00000000000013a7      0x20f /home/fsw/rep/tasa/lib/bcc-2.2.3-gcc/bin/../lib/gcc/sparc-gaisler-elf/10.2.0/../../../../sparc-gaisler-elf/lib/leon3/libc_nano.a(lib_a-printf.o)
 .debug_abbrev  0x00000000000015b6      0x1ec /home/fsw/rep/tasa/lib/bcc-2.2.3-gcc/bin/../lib/gcc/sparc-gaisler-elf/10.2.0/../../../../sparc-gaisler-elf/lib/leon3/libc_nano.a(lib_a-putchar.o)
 .debug_abbrev  0x00000000000017a2      0x278 /home/fsw/rep/tasa/lib/bcc-2.2.3-gcc/bin/../lib/gcc/sparc-gaisler-elf/10.2.0/../../../../sparc-gaisler-elf/lib/leon3/libc_nano.a(lib_a-puts.o)
 .debug_abbrev  0x0000000000001a1a       0x8d /home/fsw/rep/tasa/lib/bcc-2.2.3-gcc/bin/../lib/gcc/sparc-gaisler-elf/10.2.0/../../../../sparc-gaisler-elf/lib/leon3/libc_nano.a(lib_a-strlen.o)
 .debug_abbrev  0x0000000000001aa7      0x20f /home/fsw/rep/tasa/lib/bcc-2.2.3-gcc/bin/../lib/gcc/sparc-gaisler-elf/10.2.0/../../../../sparc-gaisler-elf/lib/leon3/libc_nano.a(lib_a-wbuf.o)
 .debug_abbrev  0x0000000000001cb6      0x1d4 /home/fsw/rep/tasa/lib/bcc-2.2.3-gcc/bin/../lib/gcc/sparc-gaisler-elf/10.2.0/../../../../sparc-gaisler-elf/lib/leon3/libc_nano.a(lib_a-wsetup.o)
 .debug_abbrev  0x0000000000001e8a      0x1ca /home/fsw/rep/tasa/lib/bcc-2.2.3-gcc/bin/../lib/gcc/sparc-gaisler-elf/10.2.0/../../../../sparc-gaisler-elf/lib/leon3/libc_nano.a(lib_a-__atexit.o)
 .debug_abbrev  0x0000000000002054      0x195 /home/fsw/rep/tasa/lib/bcc-2.2.3-gcc/bin/../lib/gcc/sparc-gaisler-elf/10.2.0/../../../../sparc-gaisler-elf/lib/leon3/libc_nano.a(lib_a-__call_atexit.o)
 .debug_abbrev  0x00000000000021e9      0x2d4 /home/fsw/rep/tasa/lib/bcc-2.2.3-gcc/bin/../lib/gcc/sparc-gaisler-elf/10.2.0/../../../../sparc-gaisler-elf/lib/leon3/libc_nano.a(lib_a-dtoa.o)
 .debug_abbrev  0x00000000000024bd      0x26f /home/fsw/rep/tasa/lib/bcc-2.2.3-gcc/bin/../lib/gcc/sparc-gaisler-elf/10.2.0/../../../../sparc-gaisler-elf/lib/leon3/libc_nano.a(lib_a-fflush.o)
 .debug_abbrev  0x000000000000272c      0x2e9 /home/fsw/rep/tasa/lib/bcc-2.2.3-gcc/bin/../lib/gcc/sparc-gaisler-elf/10.2.0/../../../../sparc-gaisler-elf/lib/leon3/libc_nano.a(lib_a-findfp.o)
 .debug_abbrev  0x0000000000002a15      0x197 /home/fsw/rep/tasa/lib/bcc-2.2.3-gcc/bin/../lib/gcc/sparc-gaisler-elf/10.2.0/../../../../sparc-gaisler-elf/lib/leon3/libc_nano.a(lib_a-fwalk.o)
 .debug_abbrev  0x0000000000002bac      0x248 /home/fsw/rep/tasa/lib/bcc-2.2.3-gcc/bin/../lib/gcc/sparc-gaisler-elf/10.2.0/../../../../sparc-gaisler-elf/lib/leon3/libc_nano.a(lib_a-localeconv.o)
 .debug_abbrev  0x0000000000002df4      0x289 /home/fsw/rep/tasa/lib/bcc-2.2.3-gcc/bin/../lib/gcc/sparc-gaisler-elf/10.2.0/../../../../sparc-gaisler-elf/lib/leon3/libc_nano.a(lib_a-makebuf.o)
 .debug_abbrev  0x000000000000307d      0x1b6 /home/fsw/rep/tasa/lib/bcc-2.2.3-gcc/bin/../lib/gcc/sparc-gaisler-elf/10.2.0/../../../../sparc-gaisler-elf/lib/leon3/libc_nano.a(lib_a-malloc.o)
 .debug_abbrev  0x0000000000003233       0xaf /home/fsw/rep/tasa/lib/bcc-2.2.3-gcc/bin/../lib/gcc/sparc-gaisler-elf/10.2.0/../../../../sparc-gaisler-elf/lib/leon3/libc_nano.a(lib_a-memchr.o)
 .debug_abbrev  0x00000000000032e2       0xc0 /home/fsw/rep/tasa/lib/bcc-2.2.3-gcc/bin/../lib/gcc/sparc-gaisler-elf/10.2.0/../../../../sparc-gaisler-elf/lib/leon3/libc_nano.a(lib_a-memcpy.o)
 .debug_abbrev  0x00000000000033a2       0x9e /home/fsw/rep/tasa/lib/bcc-2.2.3-gcc/bin/../lib/gcc/sparc-gaisler-elf/10.2.0/../../../../sparc-gaisler-elf/lib/leon3/libc_nano.a(lib_a-memset.o)
 .debug_abbrev  0x0000000000003440      0x31f /home/fsw/rep/tasa/lib/bcc-2.2.3-gcc/bin/../lib/gcc/sparc-gaisler-elf/10.2.0/../../../../sparc-gaisler-elf/lib/leon3/libc_nano.a(lib_a-mprec.o)
 .debug_abbrev  0x000000000000375f      0x1b6 /home/fsw/rep/tasa/lib/bcc-2.2.3-gcc/bin/../lib/gcc/sparc-gaisler-elf/10.2.0/../../../../sparc-gaisler-elf/lib/leon3/libc_nano.a(lib_a-nano-callocr.o)
 .debug_abbrev  0x0000000000003915      0x268 /home/fsw/rep/tasa/lib/bcc-2.2.3-gcc/bin/../lib/gcc/sparc-gaisler-elf/10.2.0/../../../../sparc-gaisler-elf/lib/leon3/libc_nano.a(lib_a-nano-freer.o)
 .debug_abbrev  0x0000000000003b7d      0x2c4 /home/fsw/rep/tasa/lib/bcc-2.2.3-gcc/bin/../lib/gcc/sparc-gaisler-elf/10.2.0/../../../../sparc-gaisler-elf/lib/leon3/libc_nano.a(lib_a-nano-mallocr.o)
 .debug_abbrev  0x0000000000003e41      0x2e4 /home/fsw/rep/tasa/lib/bcc-2.2.3-gcc/bin/../lib/gcc/sparc-gaisler-elf/10.2.0/../../../../sparc-gaisler-elf/lib/leon3/libc_nano.a(lib_a-nano-vfprintf.o)
 .debug_abbrev  0x0000000000004125      0x263 /home/fsw/rep/tasa/lib/bcc-2.2.3-gcc/bin/../lib/gcc/sparc-gaisler-elf/10.2.0/../../../../sparc-gaisler-elf/lib/leon3/libc_nano.a(lib_a-putc.o)
 .debug_abbrev  0x0000000000004388      0x1d6 /home/fsw/rep/tasa/lib/bcc-2.2.3-gcc/bin/../lib/gcc/sparc-gaisler-elf/10.2.0/../../../../sparc-gaisler-elf/lib/leon3/libc_nano.a(lib_a-sbrkr.o)
 .debug_abbrev  0x000000000000455e      0x209 /home/fsw/rep/tasa/lib/bcc-2.2.3-gcc/bin/../lib/gcc/sparc-gaisler-elf/10.2.0/../../../../sparc-gaisler-elf/lib/leon3/libc_nano.a(lib_a-stdio.o)
 .debug_abbrev  0x0000000000004767      0x1b0 /home/fsw/rep/tasa/lib/bcc-2.2.3-gcc/bin/../lib/gcc/sparc-gaisler-elf/10.2.0/../../../../sparc-gaisler-elf/lib/leon3/libc_nano.a(lib_a-writer.o)
 .debug_abbrev  0x0000000000004917      0x1ab /home/fsw/rep/tasa/lib/bcc-2.2.3-gcc/bin/../lib/gcc/sparc-gaisler-elf/10.2.0/../../../../sparc-gaisler-elf/lib/leon3/libc_nano.a(lib_a-closer.o)
 .debug_abbrev  0x0000000000004ac2      0x1bf /home/fsw/rep/tasa/lib/bcc-2.2.3-gcc/bin/../lib/gcc/sparc-gaisler-elf/10.2.0/../../../../sparc-gaisler-elf/lib/leon3/libc_nano.a(lib_a-fstatr.o)
 .debug_abbrev  0x0000000000004c81      0x1f4 /home/fsw/rep/tasa/lib/bcc-2.2.3-gcc/bin/../lib/gcc/sparc-gaisler-elf/10.2.0/../../../../sparc-gaisler-elf/lib/leon3/libc_nano.a(lib_a-fvwrite.o)
 .debug_abbrev  0x0000000000004e75      0x1ab /home/fsw/rep/tasa/lib/bcc-2.2.3-gcc/bin/../lib/gcc/sparc-gaisler-elf/10.2.0/../../../../sparc-gaisler-elf/lib/leon3/libc_nano.a(lib_a-isattyr.o)
 .debug_abbrev  0x0000000000005020      0x2b0 /home/fsw/rep/tasa/lib/bcc-2.2.3-gcc/bin/../lib/gcc/sparc-gaisler-elf/10.2.0/../../../../sparc-gaisler-elf/lib/leon3/libc_nano.a(lib_a-locale.o)
 .debug_abbrev  0x00000000000052d0      0x1bf /home/fsw/rep/tasa/lib/bcc-2.2.3-gcc/bin/../lib/gcc/sparc-gaisler-elf/10.2.0/../../../../sparc-gaisler-elf/lib/leon3/libc_nano.a(lib_a-lseekr.o)
 .debug_abbrev  0x000000000000548f      0x24a /home/fsw/rep/tasa/lib/bcc-2.2.3-gcc/bin/../lib/gcc/sparc-gaisler-elf/10.2.0/../../../../sparc-gaisler-elf/lib/leon3/libc_nano.a(lib_a-mbtowc_r.o)
 .debug_abbrev  0x00000000000056d9       0xaa /home/fsw/rep/tasa/lib/bcc-2.2.3-gcc/bin/../lib/gcc/sparc-gaisler-elf/10.2.0/../../../../sparc-gaisler-elf/lib/leon3/libc_nano.a(lib_a-memmove.o)
 .debug_abbrev  0x0000000000005783      0x174 /home/fsw/rep/tasa/lib/bcc-2.2.3-gcc/bin/../lib/gcc/sparc-gaisler-elf/10.2.0/../../../../sparc-gaisler-elf/lib/leon3/libc_nano.a(lib_a-mlock.o)
 .debug_abbrev  0x00000000000058f7      0x1e0 /home/fsw/rep/tasa/lib/bcc-2.2.3-gcc/bin/../lib/gcc/sparc-gaisler-elf/10.2.0/../../../../sparc-gaisler-elf/lib/leon3/libc_nano.a(lib_a-nano-reallocr.o)
 .debug_abbrev  0x0000000000005ad7      0x1ab /home/fsw/rep/tasa/lib/bcc-2.2.3-gcc/bin/../lib/gcc/sparc-gaisler-elf/10.2.0/../../../../sparc-gaisler-elf/lib/leon3/libc_nano.a(lib_a-readr.o)
 .debug_abbrev  0x0000000000005c82      0x238 /home/fsw/rep/tasa/lib/bcc-2.2.3-gcc/bin/../lib/gcc/sparc-gaisler-elf/10.2.0/../../../../sparc-gaisler-elf/lib/leon3/libc_nano.a(lib_a-reent.o)
 .debug_abbrev  0x0000000000005eba       0x6a /home/fsw/rep/tasa/lib/bcc-2.2.3-gcc/bin/../lib/gcc/sparc-gaisler-elf/10.2.0/../../../../sparc-gaisler-elf/lib/leon3/libc_nano.a(lib_a-strcmp.o)
 .debug_abbrev  0x0000000000005f24      0x232 /home/fsw/rep/tasa/lib/bcc-2.2.3-gcc/bin/../lib/gcc/sparc-gaisler-elf/10.2.0/../../../../sparc-gaisler-elf/lib/leon3/libc_nano.a(lib_a-wctomb_r.o)
 .debug_abbrev  0x0000000000006156       0x73 /home/fsw/rep/tasa/lib/bcc-2.2.3-gcc/bin/../lib/gcc/sparc-gaisler-elf/10.2.0/../../../../sparc-gaisler-elf/lib/leon3/libc_nano.a(lib_a-ctype_.o)
 .debug_abbrev  0x00000000000061c9      0x191 /home/fsw/rep/tasa/lib/bcc-2.2.3-gcc/bin/../lib/gcc/sparc-gaisler-elf/10.2.0/../../../../sparc-gaisler-elf/lib/leon3/libc_nano.a(lib_a-nano-msizer.o)
 .debug_abbrev  0x000000000000635a       0x14 /home/fsw/rep/tasa/lib/bcc-2.2.3-gcc/bin/../sparc-gaisler-elf/bsp/gr716/leon3/libbcc.a(_exit.S.o)
 .debug_abbrev  0x000000000000636e       0xc8 /home/fsw/rep/tasa/lib/bcc-2.2.3-gcc/bin/../sparc-gaisler-elf/bsp/gr716/leon3/libbcc.a(read.c.o)
 .debug_abbrev  0x0000000000006436       0xc9 /home/fsw/rep/tasa/lib/bcc-2.2.3-gcc/bin/../sparc-gaisler-elf/bsp/gr716/leon3/libbcc.a(sbrk.c.o)
 .debug_abbrev  0x00000000000064ff       0x60 /home/fsw/rep/tasa/lib/bcc-2.2.3-gcc/bin/../sparc-gaisler-elf/bsp/gr716/leon3/libbcc.a(heap.c.o)
 .debug_abbrev  0x000000000000655f      0x102 /home/fsw/rep/tasa/lib/bcc-2.2.3-gcc/bin/../sparc-gaisler-elf/bsp/gr716/leon3/libbcc.a(write.c.o)
 .debug_abbrev  0x0000000000006661       0x14 /home/fsw/rep/tasa/lib/bcc-2.2.3-gcc/bin/../sparc-gaisler-elf/bsp/gr716/leon3/libbcc.a(stubs.S.o)
 .debug_abbrev  0x0000000000006675      0x13f /home/fsw/rep/tasa/lib/bcc-2.2.3-gcc/bin/../sparc-gaisler-elf/bsp/gr716/leon3/libbcc.a(con_apbuart.c.o)

.debug_line     0x0000000000000000     0xca76
 *(.debug_line)
 .debug_line    0x0000000000000000       0xda /home/fsw/rep/tasa/lib/bcc-2.2.3-gcc/bin/../sparc-gaisler-elf/bsp/gr716/leon3/trap_table_mvt.S.o
 .debug_line    0x00000000000000da       0x88 /home/fsw/rep/tasa/lib/bcc-2.2.3-gcc/bin/../sparc-gaisler-elf/bsp/gr716/leon3/crt0.S.o
 .debug_line    0x0000000000000162      0x195 /tmp/cct7UO0M.o
 .debug_line    0x00000000000002f7       0x8c /home/fsw/rep/tasa/lib/bcc-2.2.3-gcc/bin/../sparc-gaisler-elf/bsp/gr716/leon3/libbcc.a(reset_trap_mvt.S.o)
 .debug_line    0x0000000000000383       0x90 /home/fsw/rep/tasa/lib/bcc-2.2.3-gcc/bin/../sparc-gaisler-elf/bsp/gr716/leon3/libbcc.a(window_trap.S.o)
 .debug_line    0x0000000000000413       0xd3 /home/fsw/rep/tasa/lib/bcc-2.2.3-gcc/bin/../sparc-gaisler-elf/bsp/gr716/leon3/libbcc.a(interrupt_trap.S.o)
 .debug_line    0x00000000000004e6       0x8d /home/fsw/rep/tasa/lib/bcc-2.2.3-gcc/bin/../sparc-gaisler-elf/bsp/gr716/leon3/libbcc.a(flush_windows_trap.S.o)
 .debug_line    0x0000000000000573       0x75 /home/fsw/rep/tasa/lib/bcc-2.2.3-gcc/bin/../sparc-gaisler-elf/bsp/gr716/leon3/libbcc.a(sw_trap_set_pil.S.o)
 .debug_line    0x00000000000005e8       0x93 /home/fsw/rep/tasa/lib/bcc-2.2.3-gcc/bin/../sparc-gaisler-elf/bsp/gr716/leon3/libbcc.a(isr.c.o)
 .debug_line    0x000000000000067b      0x1c2 /home/fsw/rep/tasa/lib/bcc-2.2.3-gcc/bin/../sparc-gaisler-elf/bsp/gr716/leon3/libbcc.a(int_nest.c.o)
 .debug_line    0x000000000000083d       0x5c /home/fsw/rep/tasa/lib/bcc-2.2.3-gcc/bin/../sparc-gaisler-elf/bsp/gr716/leon3/libbcc.a(init.S.o)
 .debug_line    0x0000000000000899       0x84 /home/fsw/rep/tasa/lib/bcc-2.2.3-gcc/bin/../sparc-gaisler-elf/bsp/gr716/leon3/libbcc.a(leon_info.S.o)
 .debug_line    0x000000000000091d       0x67 /home/fsw/rep/tasa/lib/bcc-2.2.3-gcc/bin/../sparc-gaisler-elf/bsp/gr716/leon3/libbcc.a(dwzero.S.o)
 .debug_line    0x0000000000000984      0x1de /home/fsw/rep/tasa/lib/bcc-2.2.3-gcc/bin/../sparc-gaisler-elf/bsp/gr716/leon3/libbcc.a(copy_data.c.o)
 .debug_line    0x0000000000000b62       0x8c /home/fsw/rep/tasa/lib/bcc-2.2.3-gcc/bin/../sparc-gaisler-elf/bsp/gr716/leon3/libbcc.a(argv.c.o)
 .debug_line    0x0000000000000bee      0x2a6 /home/fsw/rep/tasa/lib/bcc-2.2.3-gcc/bin/../sparc-gaisler-elf/bsp/gr716/leon3/libbcc.a(int_irqmp_get_source.c.o)
 .debug_line    0x0000000000000e94      0x314 /home/fsw/rep/tasa/lib/bcc-2.2.3-gcc/bin/../sparc-gaisler-elf/bsp/gr716/leon3/libbcc.a(int_irqmp_mp.c.o)
 .debug_line    0x00000000000011a8      0x265 /home/fsw/rep/tasa/lib/bcc-2.2.3-gcc/bin/../sparc-gaisler-elf/bsp/gr716/leon3/libbcc.a(int_irqmp_init.c.o)
 .debug_line    0x000000000000140d      0x2b3 /home/fsw/rep/tasa/lib/bcc-2.2.3-gcc/bin/../sparc-gaisler-elf/bsp/gr716/leon3/libbcc.a(bsp_timer_init.c.o)
 .debug_line    0x00000000000016c0      0x2bf /home/fsw/rep/tasa/lib/bcc-2.2.3-gcc/bin/../sparc-gaisler-elf/bsp/gr716/leon3/libbcc.a(bsp_con_init.c.o)
 .debug_line    0x000000000000197f      0x201 /home/fsw/rep/tasa/lib/bcc-2.2.3-gcc/bin/../sparc-gaisler-elf/bsp/gr716/leon3/libbcc.a(int_irqmp_handle.c.o)
 .debug_line    0x0000000000001b80      0x1f9 /home/fsw/rep/tasa/lib/bcc-2.2.3-gcc/bin/../sparc-gaisler-elf/bsp/gr716/leon3/libbcc.a(con_handle.c.o)
 .debug_line    0x0000000000001d79      0x1f9 /home/fsw/rep/tasa/lib/bcc-2.2.3-gcc/bin/../sparc-gaisler-elf/bsp/gr716/leon3/libbcc.a(timer_handle.c.o)
 .debug_line    0x0000000000001f72       0x56 /home/fsw/rep/tasa/lib/bcc-2.2.3-gcc/bin/../sparc-gaisler-elf/bsp/gr716/leon3/libbcc.a(bsp_sysfreq.c.o)
 .debug_line    0x0000000000001fc8       0xd1 /home/fsw/rep/tasa/lib/bcc-2.2.3-gcc/bin/../lib/gcc/sparc-gaisler-elf/10.2.0/../../../../sparc-gaisler-elf/lib/leon3/libc_nano.a(lib_a-atexit.o)
 .debug_line    0x0000000000002099      0x1f7 /home/fsw/rep/tasa/lib/bcc-2.2.3-gcc/bin/../lib/gcc/sparc-gaisler-elf/10.2.0/../../../../sparc-gaisler-elf/lib/leon3/libc_nano.a(lib_a-exit.o)
 .debug_line    0x0000000000002290      0x16e /home/fsw/rep/tasa/lib/bcc-2.2.3-gcc/bin/../lib/gcc/sparc-gaisler-elf/10.2.0/../../../../sparc-gaisler-elf/lib/leon3/libc_nano.a(lib_a-impure.o)
 .debug_line    0x00000000000023fe      0x919 /home/fsw/rep/tasa/lib/bcc-2.2.3-gcc/bin/../lib/gcc/sparc-gaisler-elf/10.2.0/../../../../sparc-gaisler-elf/lib/leon3/libc_nano.a(lib_a-nano-vfprintf_float.o)
 .debug_line    0x0000000000002d17      0x648 /home/fsw/rep/tasa/lib/bcc-2.2.3-gcc/bin/../lib/gcc/sparc-gaisler-elf/10.2.0/../../../../sparc-gaisler-elf/lib/leon3/libc_nano.a(lib_a-nano-vfprintf_i.o)
 .debug_line    0x000000000000335f      0x2a7 /home/fsw/rep/tasa/lib/bcc-2.2.3-gcc/bin/../lib/gcc/sparc-gaisler-elf/10.2.0/../../../../sparc-gaisler-elf/lib/leon3/libc_nano.a(lib_a-printf.o)
 .debug_line    0x0000000000003606      0x233 /home/fsw/rep/tasa/lib/bcc-2.2.3-gcc/bin/../lib/gcc/sparc-gaisler-elf/10.2.0/../../../../sparc-gaisler-elf/lib/leon3/libc_nano.a(lib_a-putchar.o)
 .debug_line    0x0000000000003839      0x335 /home/fsw/rep/tasa/lib/bcc-2.2.3-gcc/bin/../lib/gcc/sparc-gaisler-elf/10.2.0/../../../../sparc-gaisler-elf/lib/leon3/libc_nano.a(lib_a-puts.o)
 .debug_line    0x0000000000003b6e      0x188 /home/fsw/rep/tasa/lib/bcc-2.2.3-gcc/bin/../lib/gcc/sparc-gaisler-elf/10.2.0/../../../../sparc-gaisler-elf/lib/leon3/libc_nano.a(lib_a-strlen.o)
 .debug_line    0x0000000000003cf6      0x2d5 /home/fsw/rep/tasa/lib/bcc-2.2.3-gcc/bin/../lib/gcc/sparc-gaisler-elf/10.2.0/../../../../sparc-gaisler-elf/lib/leon3/libc_nano.a(lib_a-wbuf.o)
 .debug_line    0x0000000000003fcb      0x325 /home/fsw/rep/tasa/lib/bcc-2.2.3-gcc/bin/../lib/gcc/sparc-gaisler-elf/10.2.0/../../../../sparc-gaisler-elf/lib/leon3/libc_nano.a(lib_a-wsetup.o)
 .debug_line    0x00000000000042f0      0x207 /home/fsw/rep/tasa/lib/bcc-2.2.3-gcc/bin/../lib/gcc/sparc-gaisler-elf/10.2.0/../../../../sparc-gaisler-elf/lib/leon3/libc_nano.a(lib_a-__atexit.o)
 .debug_line    0x00000000000044f7      0x268 /home/fsw/rep/tasa/lib/bcc-2.2.3-gcc/bin/../lib/gcc/sparc-gaisler-elf/10.2.0/../../../../sparc-gaisler-elf/lib/leon3/libc_nano.a(lib_a-__call_atexit.o)
 .debug_line    0x000000000000475f     0x1115 /home/fsw/rep/tasa/lib/bcc-2.2.3-gcc/bin/../lib/gcc/sparc-gaisler-elf/10.2.0/../../../../sparc-gaisler-elf/lib/leon3/libc_nano.a(lib_a-dtoa.o)
 .debug_line    0x0000000000005874      0x413 /home/fsw/rep/tasa/lib/bcc-2.2.3-gcc/bin/../lib/gcc/sparc-gaisler-elf/10.2.0/../../../../sparc-gaisler-elf/lib/leon3/libc_nano.a(lib_a-fflush.o)
 .debug_line    0x0000000000005c87      0x441 /home/fsw/rep/tasa/lib/bcc-2.2.3-gcc/bin/../lib/gcc/sparc-gaisler-elf/10.2.0/../../../../sparc-gaisler-elf/lib/leon3/libc_nano.a(lib_a-findfp.o)
 .debug_line    0x00000000000060c8      0x2df /home/fsw/rep/tasa/lib/bcc-2.2.3-gcc/bin/../lib/gcc/sparc-gaisler-elf/10.2.0/../../../../sparc-gaisler-elf/lib/leon3/libc_nano.a(lib_a-fwalk.o)
 .debug_line    0x00000000000063a7      0x271 /home/fsw/rep/tasa/lib/bcc-2.2.3-gcc/bin/../lib/gcc/sparc-gaisler-elf/10.2.0/../../../../sparc-gaisler-elf/lib/leon3/libc_nano.a(lib_a-localeconv.o)
 .debug_line    0x0000000000006618      0x305 /home/fsw/rep/tasa/lib/bcc-2.2.3-gcc/bin/../lib/gcc/sparc-gaisler-elf/10.2.0/../../../../sparc-gaisler-elf/lib/leon3/libc_nano.a(lib_a-makebuf.o)
 .debug_line    0x000000000000691d      0x1da /home/fsw/rep/tasa/lib/bcc-2.2.3-gcc/bin/../lib/gcc/sparc-gaisler-elf/10.2.0/../../../../sparc-gaisler-elf/lib/leon3/libc_nano.a(lib_a-malloc.o)
 .debug_line    0x0000000000006af7      0x19b /home/fsw/rep/tasa/lib/bcc-2.2.3-gcc/bin/../lib/gcc/sparc-gaisler-elf/10.2.0/../../../../sparc-gaisler-elf/lib/leon3/libc_nano.a(lib_a-memchr.o)
 .debug_line    0x0000000000006c92      0x194 /home/fsw/rep/tasa/lib/bcc-2.2.3-gcc/bin/../lib/gcc/sparc-gaisler-elf/10.2.0/../../../../sparc-gaisler-elf/lib/leon3/libc_nano.a(lib_a-memcpy.o)
 .debug_line    0x0000000000006e26      0x18d /home/fsw/rep/tasa/lib/bcc-2.2.3-gcc/bin/../lib/gcc/sparc-gaisler-elf/10.2.0/../../../../sparc-gaisler-elf/lib/leon3/libc_nano.a(lib_a-memset.o)
 .debug_line    0x0000000000006fb3     0x124d /home/fsw/rep/tasa/lib/bcc-2.2.3-gcc/bin/../lib/gcc/sparc-gaisler-elf/10.2.0/../../../../sparc-gaisler-elf/lib/leon3/libc_nano.a(lib_a-mprec.o)
 .debug_line    0x0000000000008200      0x1f0 /home/fsw/rep/tasa/lib/bcc-2.2.3-gcc/bin/../lib/gcc/sparc-gaisler-elf/10.2.0/../../../../sparc-gaisler-elf/lib/leon3/libc_nano.a(lib_a-nano-callocr.o)
 .debug_line    0x00000000000083f0      0x2c3 /home/fsw/rep/tasa/lib/bcc-2.2.3-gcc/bin/../lib/gcc/sparc-gaisler-elf/10.2.0/../../../../sparc-gaisler-elf/lib/leon3/libc_nano.a(lib_a-nano-freer.o)
 .debug_line    0x00000000000086b3      0x318 /home/fsw/rep/tasa/lib/bcc-2.2.3-gcc/bin/../lib/gcc/sparc-gaisler-elf/10.2.0/../../../../sparc-gaisler-elf/lib/leon3/libc_nano.a(lib_a-nano-mallocr.o)
 .debug_line    0x00000000000089cb      0x6c8 /home/fsw/rep/tasa/lib/bcc-2.2.3-gcc/bin/../lib/gcc/sparc-gaisler-elf/10.2.0/../../../../sparc-gaisler-elf/lib/leon3/libc_nano.a(lib_a-nano-vfprintf.o)
 .debug_line    0x0000000000009093      0x287 /home/fsw/rep/tasa/lib/bcc-2.2.3-gcc/bin/../lib/gcc/sparc-gaisler-elf/10.2.0/../../../../sparc-gaisler-elf/lib/leon3/libc_nano.a(lib_a-putc.o)
 .debug_line    0x000000000000931a      0x1f1 /home/fsw/rep/tasa/lib/bcc-2.2.3-gcc/bin/../lib/gcc/sparc-gaisler-elf/10.2.0/../../../../sparc-gaisler-elf/lib/leon3/libc_nano.a(lib_a-sbrkr.o)
 .debug_line    0x000000000000950b      0x27f /home/fsw/rep/tasa/lib/bcc-2.2.3-gcc/bin/../lib/gcc/sparc-gaisler-elf/10.2.0/../../../../sparc-gaisler-elf/lib/leon3/libc_nano.a(lib_a-stdio.o)
 .debug_line    0x000000000000978a      0x200 /home/fsw/rep/tasa/lib/bcc-2.2.3-gcc/bin/../lib/gcc/sparc-gaisler-elf/10.2.0/../../../../sparc-gaisler-elf/lib/leon3/libc_nano.a(lib_a-writer.o)
 .debug_line    0x000000000000998a      0x1fd /home/fsw/rep/tasa/lib/bcc-2.2.3-gcc/bin/../lib/gcc/sparc-gaisler-elf/10.2.0/../../../../sparc-gaisler-elf/lib/leon3/libc_nano.a(lib_a-closer.o)
 .debug_line    0x0000000000009b87      0x217 /home/fsw/rep/tasa/lib/bcc-2.2.3-gcc/bin/../lib/gcc/sparc-gaisler-elf/10.2.0/../../../../sparc-gaisler-elf/lib/leon3/libc_nano.a(lib_a-fstatr.o)
 .debug_line    0x0000000000009d9e      0x5b1 /home/fsw/rep/tasa/lib/bcc-2.2.3-gcc/bin/../lib/gcc/sparc-gaisler-elf/10.2.0/../../../../sparc-gaisler-elf/lib/leon3/libc_nano.a(lib_a-fvwrite.o)
 .debug_line    0x000000000000a34f      0x1fe /home/fsw/rep/tasa/lib/bcc-2.2.3-gcc/bin/../lib/gcc/sparc-gaisler-elf/10.2.0/../../../../sparc-gaisler-elf/lib/leon3/libc_nano.a(lib_a-isattyr.o)
 .debug_line    0x000000000000a54d      0x2f1 /home/fsw/rep/tasa/lib/bcc-2.2.3-gcc/bin/../lib/gcc/sparc-gaisler-elf/10.2.0/../../../../sparc-gaisler-elf/lib/leon3/libc_nano.a(lib_a-locale.o)
 .debug_line    0x000000000000a83e      0x200 /home/fsw/rep/tasa/lib/bcc-2.2.3-gcc/bin/../lib/gcc/sparc-gaisler-elf/10.2.0/../../../../sparc-gaisler-elf/lib/leon3/libc_nano.a(lib_a-lseekr.o)
 .debug_line    0x000000000000aa3e      0x297 /home/fsw/rep/tasa/lib/bcc-2.2.3-gcc/bin/../lib/gcc/sparc-gaisler-elf/10.2.0/../../../../sparc-gaisler-elf/lib/leon3/libc_nano.a(lib_a-mbtowc_r.o)
 .debug_line    0x000000000000acd5      0x1b2 /home/fsw/rep/tasa/lib/bcc-2.2.3-gcc/bin/../lib/gcc/sparc-gaisler-elf/10.2.0/../../../../sparc-gaisler-elf/lib/leon3/libc_nano.a(lib_a-memmove.o)
 .debug_line    0x000000000000ae87      0x180 /home/fsw/rep/tasa/lib/bcc-2.2.3-gcc/bin/../lib/gcc/sparc-gaisler-elf/10.2.0/../../../../sparc-gaisler-elf/lib/leon3/libc_nano.a(lib_a-mlock.o)
 .debug_line    0x000000000000b007      0x21b /home/fsw/rep/tasa/lib/bcc-2.2.3-gcc/bin/../lib/gcc/sparc-gaisler-elf/10.2.0/../../../../sparc-gaisler-elf/lib/leon3/libc_nano.a(lib_a-nano-reallocr.o)
 .debug_line    0x000000000000b222      0x1ff /home/fsw/rep/tasa/lib/bcc-2.2.3-gcc/bin/../lib/gcc/sparc-gaisler-elf/10.2.0/../../../../sparc-gaisler-elf/lib/leon3/libc_nano.a(lib_a-readr.o)
 .debug_line    0x000000000000b421      0x2e4 /home/fsw/rep/tasa/lib/bcc-2.2.3-gcc/bin/../lib/gcc/sparc-gaisler-elf/10.2.0/../../../../sparc-gaisler-elf/lib/leon3/libc_nano.a(lib_a-reent.o)
 .debug_line    0x000000000000b705       0xe9 /home/fsw/rep/tasa/lib/bcc-2.2.3-gcc/bin/../lib/gcc/sparc-gaisler-elf/10.2.0/../../../../sparc-gaisler-elf/lib/leon3/libc_nano.a(lib_a-strcmp.o)
 .debug_line    0x000000000000b7ee      0x289 /home/fsw/rep/tasa/lib/bcc-2.2.3-gcc/bin/../lib/gcc/sparc-gaisler-elf/10.2.0/../../../../sparc-gaisler-elf/lib/leon3/libc_nano.a(lib_a-wctomb_r.o)
 .debug_line    0x000000000000ba77       0xb6 /home/fsw/rep/tasa/lib/bcc-2.2.3-gcc/bin/../lib/gcc/sparc-gaisler-elf/10.2.0/../../../../sparc-gaisler-elf/lib/leon3/libc_nano.a(lib_a-ctype_.o)
 .debug_line    0x000000000000bb2d      0x1a4 /home/fsw/rep/tasa/lib/bcc-2.2.3-gcc/bin/../lib/gcc/sparc-gaisler-elf/10.2.0/../../../../sparc-gaisler-elf/lib/leon3/libc_nano.a(lib_a-nano-msizer.o)
 .debug_line    0x000000000000bcd1       0x5f /home/fsw/rep/tasa/lib/bcc-2.2.3-gcc/bin/../sparc-gaisler-elf/bsp/gr716/leon3/libbcc.a(_exit.S.o)
 .debug_line    0x000000000000bd30      0x23e /home/fsw/rep/tasa/lib/bcc-2.2.3-gcc/bin/../sparc-gaisler-elf/bsp/gr716/leon3/libbcc.a(read.c.o)
 .debug_line    0x000000000000bf6e      0x321 /home/fsw/rep/tasa/lib/bcc-2.2.3-gcc/bin/../sparc-gaisler-elf/bsp/gr716/leon3/libbcc.a(sbrk.c.o)
 .debug_line    0x000000000000c28f      0x1eb /home/fsw/rep/tasa/lib/bcc-2.2.3-gcc/bin/../sparc-gaisler-elf/bsp/gr716/leon3/libbcc.a(heap.c.o)
 .debug_line    0x000000000000c47a      0x26f /home/fsw/rep/tasa/lib/bcc-2.2.3-gcc/bin/../sparc-gaisler-elf/bsp/gr716/leon3/libbcc.a(write.c.o)
 .debug_line    0x000000000000c6e9       0x68 /home/fsw/rep/tasa/lib/bcc-2.2.3-gcc/bin/../sparc-gaisler-elf/bsp/gr716/leon3/libbcc.a(stubs.S.o)
 .debug_line    0x000000000000c751      0x325 /home/fsw/rep/tasa/lib/bcc-2.2.3-gcc/bin/../sparc-gaisler-elf/bsp/gr716/leon3/libbcc.a(con_apbuart.c.o)

.debug_frame    0x0000000000000000      0xcd4
 *(.debug_frame)
 .debug_frame   0x0000000000000000       0x28 /tmp/cct7UO0M.o
 .debug_frame   0x0000000000000028       0x20 /home/fsw/rep/tasa/lib/bcc-2.2.3-gcc/bin/../sparc-gaisler-elf/bsp/gr716/leon3/libbcc.a(copy_data.c.o)
 .debug_frame   0x0000000000000048       0x20 /home/fsw/rep/tasa/lib/bcc-2.2.3-gcc/bin/../sparc-gaisler-elf/bsp/gr716/leon3/libbcc.a(int_irqmp_get_source.c.o)
 .debug_frame   0x0000000000000068       0x40 /home/fsw/rep/tasa/lib/bcc-2.2.3-gcc/bin/../sparc-gaisler-elf/bsp/gr716/leon3/libbcc.a(int_irqmp_mp.c.o)
 .debug_frame   0x00000000000000a8       0x20 /home/fsw/rep/tasa/lib/bcc-2.2.3-gcc/bin/../sparc-gaisler-elf/bsp/gr716/leon3/libbcc.a(int_irqmp_init.c.o)
 .debug_frame   0x00000000000000c8       0x20 /home/fsw/rep/tasa/lib/bcc-2.2.3-gcc/bin/../sparc-gaisler-elf/bsp/gr716/leon3/libbcc.a(bsp_timer_init.c.o)
 .debug_frame   0x00000000000000e8       0x20 /home/fsw/rep/tasa/lib/bcc-2.2.3-gcc/bin/../sparc-gaisler-elf/bsp/gr716/leon3/libbcc.a(bsp_con_init.c.o)
 .debug_frame   0x0000000000000108       0x20 /home/fsw/rep/tasa/lib/bcc-2.2.3-gcc/bin/../lib/gcc/sparc-gaisler-elf/10.2.0/../../../../sparc-gaisler-elf/lib/leon3/libc_nano.a(lib_a-atexit.o)
 .debug_frame   0x0000000000000128       0x28 /home/fsw/rep/tasa/lib/bcc-2.2.3-gcc/bin/../lib/gcc/sparc-gaisler-elf/10.2.0/../../../../sparc-gaisler-elf/lib/leon3/libc_nano.a(lib_a-exit.o)
 .debug_frame   0x0000000000000150       0x54 /home/fsw/rep/tasa/lib/bcc-2.2.3-gcc/bin/../lib/gcc/sparc-gaisler-elf/10.2.0/../../../../sparc-gaisler-elf/lib/leon3/libc_nano.a(lib_a-nano-vfprintf_float.o)
 .debug_frame   0x00000000000001a4       0x40 /home/fsw/rep/tasa/lib/bcc-2.2.3-gcc/bin/../lib/gcc/sparc-gaisler-elf/10.2.0/../../../../sparc-gaisler-elf/lib/leon3/libc_nano.a(lib_a-nano-vfprintf_i.o)
 .debug_frame   0x00000000000001e4       0x40 /home/fsw/rep/tasa/lib/bcc-2.2.3-gcc/bin/../lib/gcc/sparc-gaisler-elf/10.2.0/../../../../sparc-gaisler-elf/lib/leon3/libc_nano.a(lib_a-printf.o)
 .debug_frame   0x0000000000000224       0x40 /home/fsw/rep/tasa/lib/bcc-2.2.3-gcc/bin/../lib/gcc/sparc-gaisler-elf/10.2.0/../../../../sparc-gaisler-elf/lib/leon3/libc_nano.a(lib_a-putchar.o)
 .debug_frame   0x0000000000000264       0x38 /home/fsw/rep/tasa/lib/bcc-2.2.3-gcc/bin/../lib/gcc/sparc-gaisler-elf/10.2.0/../../../../sparc-gaisler-elf/lib/leon3/libc_nano.a(lib_a-puts.o)
 .debug_frame   0x000000000000029c       0x20 /home/fsw/rep/tasa/lib/bcc-2.2.3-gcc/bin/../lib/gcc/sparc-gaisler-elf/10.2.0/../../../../sparc-gaisler-elf/lib/leon3/libc_nano.a(lib_a-strlen.o)
 .debug_frame   0x00000000000002bc       0x38 /home/fsw/rep/tasa/lib/bcc-2.2.3-gcc/bin/../lib/gcc/sparc-gaisler-elf/10.2.0/../../../../sparc-gaisler-elf/lib/leon3/libc_nano.a(lib_a-wbuf.o)
 .debug_frame   0x00000000000002f4       0x28 /home/fsw/rep/tasa/lib/bcc-2.2.3-gcc/bin/../lib/gcc/sparc-gaisler-elf/10.2.0/../../../../sparc-gaisler-elf/lib/leon3/libc_nano.a(lib_a-wsetup.o)
 .debug_frame   0x000000000000031c       0x28 /home/fsw/rep/tasa/lib/bcc-2.2.3-gcc/bin/../lib/gcc/sparc-gaisler-elf/10.2.0/../../../../sparc-gaisler-elf/lib/leon3/libc_nano.a(lib_a-__atexit.o)
 .debug_frame   0x0000000000000344       0x28 /home/fsw/rep/tasa/lib/bcc-2.2.3-gcc/bin/../lib/gcc/sparc-gaisler-elf/10.2.0/../../../../sparc-gaisler-elf/lib/leon3/libc_nano.a(lib_a-__call_atexit.o)
 .debug_frame   0x000000000000036c       0x40 /home/fsw/rep/tasa/lib/bcc-2.2.3-gcc/bin/../lib/gcc/sparc-gaisler-elf/10.2.0/../../../../sparc-gaisler-elf/lib/leon3/libc_nano.a(lib_a-dtoa.o)
 .debug_frame   0x00000000000003ac       0x50 /home/fsw/rep/tasa/lib/bcc-2.2.3-gcc/bin/../lib/gcc/sparc-gaisler-elf/10.2.0/../../../../sparc-gaisler-elf/lib/leon3/libc_nano.a(lib_a-fflush.o)
 .debug_frame   0x00000000000003fc       0x90 /home/fsw/rep/tasa/lib/bcc-2.2.3-gcc/bin/../lib/gcc/sparc-gaisler-elf/10.2.0/../../../../sparc-gaisler-elf/lib/leon3/libc_nano.a(lib_a-findfp.o)
 .debug_frame   0x000000000000048c       0x40 /home/fsw/rep/tasa/lib/bcc-2.2.3-gcc/bin/../lib/gcc/sparc-gaisler-elf/10.2.0/../../../../sparc-gaisler-elf/lib/leon3/libc_nano.a(lib_a-fwalk.o)
 .debug_frame   0x00000000000004cc       0x40 /home/fsw/rep/tasa/lib/bcc-2.2.3-gcc/bin/../lib/gcc/sparc-gaisler-elf/10.2.0/../../../../sparc-gaisler-elf/lib/leon3/libc_nano.a(lib_a-localeconv.o)
 .debug_frame   0x000000000000050c       0x40 /home/fsw/rep/tasa/lib/bcc-2.2.3-gcc/bin/../lib/gcc/sparc-gaisler-elf/10.2.0/../../../../sparc-gaisler-elf/lib/leon3/libc_nano.a(lib_a-makebuf.o)
 .debug_frame   0x000000000000054c       0x30 /home/fsw/rep/tasa/lib/bcc-2.2.3-gcc/bin/../lib/gcc/sparc-gaisler-elf/10.2.0/../../../../sparc-gaisler-elf/lib/leon3/libc_nano.a(lib_a-malloc.o)
 .debug_frame   0x000000000000057c       0x20 /home/fsw/rep/tasa/lib/bcc-2.2.3-gcc/bin/../lib/gcc/sparc-gaisler-elf/10.2.0/../../../../sparc-gaisler-elf/lib/leon3/libc_nano.a(lib_a-memchr.o)
 .debug_frame   0x000000000000059c       0x20 /home/fsw/rep/tasa/lib/bcc-2.2.3-gcc/bin/../lib/gcc/sparc-gaisler-elf/10.2.0/../../../../sparc-gaisler-elf/lib/leon3/libc_nano.a(lib_a-memcpy.o)
 .debug_frame   0x00000000000005bc       0x20 /home/fsw/rep/tasa/lib/bcc-2.2.3-gcc/bin/../lib/gcc/sparc-gaisler-elf/10.2.0/../../../../sparc-gaisler-elf/lib/leon3/libc_nano.a(lib_a-memset.o)
 .debug_frame   0x00000000000005dc      0x1a4 /home/fsw/rep/tasa/lib/bcc-2.2.3-gcc/bin/../lib/gcc/sparc-gaisler-elf/10.2.0/../../../../sparc-gaisler-elf/lib/leon3/libc_nano.a(lib_a-mprec.o)
 .debug_frame   0x0000000000000780       0x28 /home/fsw/rep/tasa/lib/bcc-2.2.3-gcc/bin/../lib/gcc/sparc-gaisler-elf/10.2.0/../../../../sparc-gaisler-elf/lib/leon3/libc_nano.a(lib_a-nano-callocr.o)
 .debug_frame   0x00000000000007a8       0x28 /home/fsw/rep/tasa/lib/bcc-2.2.3-gcc/bin/../lib/gcc/sparc-gaisler-elf/10.2.0/../../../../sparc-gaisler-elf/lib/leon3/libc_nano.a(lib_a-nano-freer.o)
 .debug_frame   0x00000000000007d0       0x28 /home/fsw/rep/tasa/lib/bcc-2.2.3-gcc/bin/../lib/gcc/sparc-gaisler-elf/10.2.0/../../../../sparc-gaisler-elf/lib/leon3/libc_nano.a(lib_a-nano-mallocr.o)
 .debug_frame   0x00000000000007f8       0x78 /home/fsw/rep/tasa/lib/bcc-2.2.3-gcc/bin/../lib/gcc/sparc-gaisler-elf/10.2.0/../../../../sparc-gaisler-elf/lib/leon3/libc_nano.a(lib_a-nano-vfprintf.o)
 .debug_frame   0x0000000000000870       0x38 /home/fsw/rep/tasa/lib/bcc-2.2.3-gcc/bin/../lib/gcc/sparc-gaisler-elf/10.2.0/../../../../sparc-gaisler-elf/lib/leon3/libc_nano.a(lib_a-putc.o)
 .debug_frame   0x00000000000008a8       0x28 /home/fsw/rep/tasa/lib/bcc-2.2.3-gcc/bin/../lib/gcc/sparc-gaisler-elf/10.2.0/../../../../sparc-gaisler-elf/lib/leon3/libc_nano.a(lib_a-sbrkr.o)
 .debug_frame   0x00000000000008d0       0x78 /home/fsw/rep/tasa/lib/bcc-2.2.3-gcc/bin/../lib/gcc/sparc-gaisler-elf/10.2.0/../../../../sparc-gaisler-elf/lib/leon3/libc_nano.a(lib_a-stdio.o)
 .debug_frame   0x0000000000000948       0x28 /home/fsw/rep/tasa/lib/bcc-2.2.3-gcc/bin/../lib/gcc/sparc-gaisler-elf/10.2.0/../../../../sparc-gaisler-elf/lib/leon3/libc_nano.a(lib_a-writer.o)
 .debug_frame   0x0000000000000970       0x28 /home/fsw/rep/tasa/lib/bcc-2.2.3-gcc/bin/../lib/gcc/sparc-gaisler-elf/10.2.0/../../../../sparc-gaisler-elf/lib/leon3/libc_nano.a(lib_a-closer.o)
 .debug_frame   0x0000000000000998       0x28 /home/fsw/rep/tasa/lib/bcc-2.2.3-gcc/bin/../lib/gcc/sparc-gaisler-elf/10.2.0/../../../../sparc-gaisler-elf/lib/leon3/libc_nano.a(lib_a-fstatr.o)
 .debug_frame   0x00000000000009c0       0x28 /home/fsw/rep/tasa/lib/bcc-2.2.3-gcc/bin/../lib/gcc/sparc-gaisler-elf/10.2.0/../../../../sparc-gaisler-elf/lib/leon3/libc_nano.a(lib_a-fvwrite.o)
 .debug_frame   0x00000000000009e8       0x28 /home/fsw/rep/tasa/lib/bcc-2.2.3-gcc/bin/../lib/gcc/sparc-gaisler-elf/10.2.0/../../../../sparc-gaisler-elf/lib/leon3/libc_nano.a(lib_a-isattyr.o)
 .debug_frame   0x0000000000000a10       0x68 /home/fsw/rep/tasa/lib/bcc-2.2.3-gcc/bin/../lib/gcc/sparc-gaisler-elf/10.2.0/../../../../sparc-gaisler-elf/lib/leon3/libc_nano.a(lib_a-locale.o)
 .debug_frame   0x0000000000000a78       0x28 /home/fsw/rep/tasa/lib/bcc-2.2.3-gcc/bin/../lib/gcc/sparc-gaisler-elf/10.2.0/../../../../sparc-gaisler-elf/lib/leon3/libc_nano.a(lib_a-lseekr.o)
 .debug_frame   0x0000000000000aa0       0x3c /home/fsw/rep/tasa/lib/bcc-2.2.3-gcc/bin/../lib/gcc/sparc-gaisler-elf/10.2.0/../../../../sparc-gaisler-elf/lib/leon3/libc_nano.a(lib_a-mbtowc_r.o)
 .debug_frame   0x0000000000000adc       0x20 /home/fsw/rep/tasa/lib/bcc-2.2.3-gcc/bin/../lib/gcc/sparc-gaisler-elf/10.2.0/../../../../sparc-gaisler-elf/lib/leon3/libc_nano.a(lib_a-memmove.o)
 .debug_frame   0x0000000000000afc       0x30 /home/fsw/rep/tasa/lib/bcc-2.2.3-gcc/bin/../lib/gcc/sparc-gaisler-elf/10.2.0/../../../../sparc-gaisler-elf/lib/leon3/libc_nano.a(lib_a-mlock.o)
 .debug_frame   0x0000000000000b2c       0x28 /home/fsw/rep/tasa/lib/bcc-2.2.3-gcc/bin/../lib/gcc/sparc-gaisler-elf/10.2.0/../../../../sparc-gaisler-elf/lib/leon3/libc_nano.a(lib_a-nano-reallocr.o)
 .debug_frame   0x0000000000000b54       0x28 /home/fsw/rep/tasa/lib/bcc-2.2.3-gcc/bin/../lib/gcc/sparc-gaisler-elf/10.2.0/../../../../sparc-gaisler-elf/lib/leon3/libc_nano.a(lib_a-readr.o)
 .debug_frame   0x0000000000000b7c       0x40 /home/fsw/rep/tasa/lib/bcc-2.2.3-gcc/bin/../lib/gcc/sparc-gaisler-elf/10.2.0/../../../../sparc-gaisler-elf/lib/leon3/libc_nano.a(lib_a-reent.o)
 .debug_frame   0x0000000000000bbc       0x20 /home/fsw/rep/tasa/lib/bcc-2.2.3-gcc/bin/../lib/gcc/sparc-gaisler-elf/10.2.0/../../../../sparc-gaisler-elf/lib/leon3/libc_nano.a(lib_a-strcmp.o)
 .debug_frame   0x0000000000000bdc       0x38 /home/fsw/rep/tasa/lib/bcc-2.2.3-gcc/bin/../lib/gcc/sparc-gaisler-elf/10.2.0/../../../../sparc-gaisler-elf/lib/leon3/libc_nano.a(lib_a-wctomb_r.o)
 .debug_frame   0x0000000000000c14       0x20 /home/fsw/rep/tasa/lib/bcc-2.2.3-gcc/bin/../lib/gcc/sparc-gaisler-elf/10.2.0/../../../../sparc-gaisler-elf/lib/leon3/libc_nano.a(lib_a-nano-msizer.o)
 .debug_frame   0x0000000000000c34       0x28 /home/fsw/rep/tasa/lib/bcc-2.2.3-gcc/bin/../sparc-gaisler-elf/bsp/gr716/leon3/libbcc.a(read.c.o)
 .debug_frame   0x0000000000000c5c       0x20 /home/fsw/rep/tasa/lib/bcc-2.2.3-gcc/bin/../sparc-gaisler-elf/bsp/gr716/leon3/libbcc.a(sbrk.c.o)
 .debug_frame   0x0000000000000c7c       0x28 /home/fsw/rep/tasa/lib/bcc-2.2.3-gcc/bin/../sparc-gaisler-elf/bsp/gr716/leon3/libbcc.a(write.c.o)
 .debug_frame   0x0000000000000ca4       0x30 /home/fsw/rep/tasa/lib/bcc-2.2.3-gcc/bin/../sparc-gaisler-elf/bsp/gr716/leon3/libbcc.a(con_apbuart.c.o)

.debug_str      0x0000000000000000     0x2ba5
 *(.debug_str)
 .debug_str     0x0000000000000000       0xb3 /home/fsw/rep/tasa/lib/bcc-2.2.3-gcc/bin/../sparc-gaisler-elf/bsp/gr716/leon3/trap_table_mvt.S.o
 .debug_str     0x00000000000000b3       0x2c /home/fsw/rep/tasa/lib/bcc-2.2.3-gcc/bin/../sparc-gaisler-elf/bsp/gr716/leon3/crt0.S.o
                                         0xa4 (size before relaxing)
 .debug_str     0x00000000000000df      0x113 /tmp/cct7UO0M.o
                                        0x16b (size before relaxing)
 .debug_str     0x00000000000001f2       0x3b /home/fsw/rep/tasa/lib/bcc-2.2.3-gcc/bin/../sparc-gaisler-elf/bsp/gr716/leon3/libbcc.a(reset_trap_mvt.S.o)
                                         0xb3 (size before relaxing)
 .debug_str     0x000000000000022d       0x38 /home/fsw/rep/tasa/lib/bcc-2.2.3-gcc/bin/../sparc-gaisler-elf/bsp/gr716/leon3/libbcc.a(window_trap.S.o)
                                         0xb0 (size before relaxing)
 .debug_str     0x0000000000000265       0x3b /home/fsw/rep/tasa/lib/bcc-2.2.3-gcc/bin/../sparc-gaisler-elf/bsp/gr716/leon3/libbcc.a(interrupt_trap.S.o)
                                         0xb3 (size before relaxing)
 .debug_str     0x00000000000002a0       0x3f /home/fsw/rep/tasa/lib/bcc-2.2.3-gcc/bin/../sparc-gaisler-elf/bsp/gr716/leon3/libbcc.a(flush_windows_trap.S.o)
                                         0xb7 (size before relaxing)
 .debug_str     0x00000000000002df       0x3c /home/fsw/rep/tasa/lib/bcc-2.2.3-gcc/bin/../sparc-gaisler-elf/bsp/gr716/leon3/libbcc.a(sw_trap_set_pil.S.o)
                                         0xb4 (size before relaxing)
 .debug_str     0x000000000000031b       0x91 /home/fsw/rep/tasa/lib/bcc-2.2.3-gcc/bin/../sparc-gaisler-elf/bsp/gr716/leon3/libbcc.a(isr.c.o)
                                        0x18d (size before relaxing)
 .debug_str     0x00000000000003ac       0x77 /home/fsw/rep/tasa/lib/bcc-2.2.3-gcc/bin/../sparc-gaisler-elf/bsp/gr716/leon3/libbcc.a(int_nest.c.o)
                                        0x1a7 (size before relaxing)
 .debug_str     0x0000000000000423       0x2c /home/fsw/rep/tasa/lib/bcc-2.2.3-gcc/bin/../sparc-gaisler-elf/bsp/gr716/leon3/libbcc.a(init.S.o)
                                         0xa4 (size before relaxing)
 .debug_str     0x000000000000044f       0x31 /home/fsw/rep/tasa/lib/bcc-2.2.3-gcc/bin/../sparc-gaisler-elf/bsp/gr716/leon3/libbcc.a(leon_info.S.o)
                                         0xa9 (size before relaxing)
 .debug_str     0x0000000000000480       0x2e /home/fsw/rep/tasa/lib/bcc-2.2.3-gcc/bin/../sparc-gaisler-elf/bsp/gr716/leon3/libbcc.a(dwzero.S.o)
                                         0xa6 (size before relaxing)
 .debug_str     0x00000000000004ae       0x75 /home/fsw/rep/tasa/lib/bcc-2.2.3-gcc/bin/../sparc-gaisler-elf/bsp/gr716/leon3/libbcc.a(copy_data.c.o)
                                        0x1a6 (size before relaxing)
 .debug_str     0x0000000000000523       0x4e /home/fsw/rep/tasa/lib/bcc-2.2.3-gcc/bin/../sparc-gaisler-elf/bsp/gr716/leon3/libbcc.a(argv.c.o)
                                        0x17b (size before relaxing)
 .debug_str     0x0000000000000571      0x17b /home/fsw/rep/tasa/lib/bcc-2.2.3-gcc/bin/../sparc-gaisler-elf/bsp/gr716/leon3/libbcc.a(int_irqmp_get_source.c.o)
                                        0x2c8 (size before relaxing)
 .debug_str     0x00000000000006ec       0x93 /home/fsw/rep/tasa/lib/bcc-2.2.3-gcc/bin/../sparc-gaisler-elf/bsp/gr716/leon3/libbcc.a(int_irqmp_mp.c.o)
                                        0x305 (size before relaxing)
 .debug_str     0x000000000000077f       0x8b /home/fsw/rep/tasa/lib/bcc-2.2.3-gcc/bin/../sparc-gaisler-elf/bsp/gr716/leon3/libbcc.a(int_irqmp_init.c.o)
                                        0x30a (size before relaxing)
 .debug_str     0x000000000000080a       0xc8 /home/fsw/rep/tasa/lib/bcc-2.2.3-gcc/bin/../sparc-gaisler-elf/bsp/gr716/leon3/libbcc.a(bsp_timer_init.c.o)
                                        0x244 (size before relaxing)
 .debug_str     0x00000000000008d2       0x8d /home/fsw/rep/tasa/lib/bcc-2.2.3-gcc/bin/../sparc-gaisler-elf/bsp/gr716/leon3/libbcc.a(bsp_con_init.c.o)
                                        0x214 (size before relaxing)
 .debug_str     0x000000000000095f       0x6a /home/fsw/rep/tasa/lib/bcc-2.2.3-gcc/bin/../sparc-gaisler-elf/bsp/gr716/leon3/libbcc.a(int_irqmp_handle.c.o)
                                        0x1d1 (size before relaxing)
 .debug_str     0x00000000000009c9       0x3a /home/fsw/rep/tasa/lib/bcc-2.2.3-gcc/bin/../sparc-gaisler-elf/bsp/gr716/leon3/libbcc.a(con_handle.c.o)
                                        0x18c (size before relaxing)
 .debug_str     0x0000000000000a03       0x50 /home/fsw/rep/tasa/lib/bcc-2.2.3-gcc/bin/../sparc-gaisler-elf/bsp/gr716/leon3/libbcc.a(timer_handle.c.o)
                                        0x1a4 (size before relaxing)
 .debug_str     0x0000000000000a53       0x36 /home/fsw/rep/tasa/lib/bcc-2.2.3-gcc/bin/../sparc-gaisler-elf/bsp/gr716/leon3/libbcc.a(bsp_sysfreq.c.o)
                                         0xf5 (size before relaxing)
 .debug_str     0x0000000000000a89      0x173 /home/fsw/rep/tasa/lib/bcc-2.2.3-gcc/bin/../lib/gcc/sparc-gaisler-elf/10.2.0/../../../../sparc-gaisler-elf/lib/leon3/libc_nano.a(lib_a-atexit.o)
                                        0x203 (size before relaxing)
 .debug_str     0x0000000000000bfc      0x339 /home/fsw/rep/tasa/lib/bcc-2.2.3-gcc/bin/../lib/gcc/sparc-gaisler-elf/10.2.0/../../../../sparc-gaisler-elf/lib/leon3/libc_nano.a(lib_a-exit.o)
                                        0x521 (size before relaxing)
 .debug_str     0x0000000000000f35      0x131 /home/fsw/rep/tasa/lib/bcc-2.2.3-gcc/bin/../lib/gcc/sparc-gaisler-elf/10.2.0/../../../../sparc-gaisler-elf/lib/leon3/libc_nano.a(lib_a-impure.o)
                                        0x557 (size before relaxing)
 .debug_str     0x0000000000001066      0x3ab /home/fsw/rep/tasa/lib/bcc-2.2.3-gcc/bin/../lib/gcc/sparc-gaisler-elf/10.2.0/../../../../sparc-gaisler-elf/lib/leon3/libc_nano.a(lib_a-nano-vfprintf_float.o)
                                        0x891 (size before relaxing)
 .debug_str     0x0000000000001411       0x92 /home/fsw/rep/tasa/lib/bcc-2.2.3-gcc/bin/../lib/gcc/sparc-gaisler-elf/10.2.0/../../../../sparc-gaisler-elf/lib/leon3/libc_nano.a(lib_a-nano-vfprintf_i.o)
                                        0x7f6 (size before relaxing)
 .debug_str     0x00000000000014a3       0x61 /home/fsw/rep/tasa/lib/bcc-2.2.3-gcc/bin/../lib/gcc/sparc-gaisler-elf/10.2.0/../../../../sparc-gaisler-elf/lib/leon3/libc_nano.a(lib_a-printf.o)
                                        0x547 (size before relaxing)
 .debug_str     0x0000000000001504       0x57 /home/fsw/rep/tasa/lib/bcc-2.2.3-gcc/bin/../lib/gcc/sparc-gaisler-elf/10.2.0/../../../../sparc-gaisler-elf/lib/leon3/libc_nano.a(lib_a-putchar.o)
                                        0x523 (size before relaxing)
 .debug_str     0x000000000000155b       0x79 /home/fsw/rep/tasa/lib/bcc-2.2.3-gcc/bin/../lib/gcc/sparc-gaisler-elf/10.2.0/../../../../sparc-gaisler-elf/lib/leon3/libc_nano.a(lib_a-puts.o)
                                        0x58c (size before relaxing)
 .debug_str     0x00000000000015d4       0xe8 /home/fsw/rep/tasa/lib/bcc-2.2.3-gcc/bin/../lib/gcc/sparc-gaisler-elf/10.2.0/../../../../sparc-gaisler-elf/lib/leon3/libc_nano.a(lib_a-strlen.o)
                                        0x1cc (size before relaxing)
 .debug_str     0x00000000000016bc       0x53 /home/fsw/rep/tasa/lib/bcc-2.2.3-gcc/bin/../lib/gcc/sparc-gaisler-elf/10.2.0/../../../../sparc-gaisler-elf/lib/leon3/libc_nano.a(lib_a-wbuf.o)
                                        0x57b (size before relaxing)
 .debug_str     0x000000000000170f       0x58 /home/fsw/rep/tasa/lib/bcc-2.2.3-gcc/bin/../lib/gcc/sparc-gaisler-elf/10.2.0/../../../../sparc-gaisler-elf/lib/leon3/libc_nano.a(lib_a-wsetup.o)
                                        0x576 (size before relaxing)
 .debug_str     0x0000000000001767       0xcb /home/fsw/rep/tasa/lib/bcc-2.2.3-gcc/bin/../lib/gcc/sparc-gaisler-elf/10.2.0/../../../../sparc-gaisler-elf/lib/leon3/libc_nano.a(lib_a-__atexit.o)
                                        0x2b1 (size before relaxing)
 .debug_str     0x0000000000001832       0x67 /home/fsw/rep/tasa/lib/bcc-2.2.3-gcc/bin/../lib/gcc/sparc-gaisler-elf/10.2.0/../../../../sparc-gaisler-elf/lib/leon3/libc_nano.a(lib_a-__call_atexit.o)
                                        0x26f (size before relaxing)
 .debug_str     0x0000000000001899      0x160 /home/fsw/rep/tasa/lib/bcc-2.2.3-gcc/bin/../lib/gcc/sparc-gaisler-elf/10.2.0/../../../../sparc-gaisler-elf/lib/leon3/libc_nano.a(lib_a-dtoa.o)
                                        0x83c (size before relaxing)
 .debug_str     0x00000000000019f9       0x73 /home/fsw/rep/tasa/lib/bcc-2.2.3-gcc/bin/../lib/gcc/sparc-gaisler-elf/10.2.0/../../../../sparc-gaisler-elf/lib/leon3/libc_nano.a(lib_a-fflush.o)
                                        0x5b7 (size before relaxing)
 .debug_str     0x0000000000001a6c      0x10f /home/fsw/rep/tasa/lib/bcc-2.2.3-gcc/bin/../lib/gcc/sparc-gaisler-elf/10.2.0/../../../../sparc-gaisler-elf/lib/leon3/libc_nano.a(lib_a-findfp.o)
                                        0x64d (size before relaxing)
 .debug_str     0x0000000000001b7b       0x58 /home/fsw/rep/tasa/lib/bcc-2.2.3-gcc/bin/../lib/gcc/sparc-gaisler-elf/10.2.0/../../../../sparc-gaisler-elf/lib/leon3/libc_nano.a(lib_a-fwalk.o)
                                        0x51d (size before relaxing)
 .debug_str     0x0000000000001bd3      0x14e /home/fsw/rep/tasa/lib/bcc-2.2.3-gcc/bin/../lib/gcc/sparc-gaisler-elf/10.2.0/../../../../sparc-gaisler-elf/lib/leon3/libc_nano.a(lib_a-localeconv.o)
                                        0x759 (size before relaxing)
 .debug_str     0x0000000000001d21      0x16a /home/fsw/rep/tasa/lib/bcc-2.2.3-gcc/bin/../lib/gcc/sparc-gaisler-elf/10.2.0/../../../../sparc-gaisler-elf/lib/leon3/libc_nano.a(lib_a-makebuf.o)
                                        0x687 (size before relaxing)
 .debug_str     0x0000000000001e8b       0x50 /home/fsw/rep/tasa/lib/bcc-2.2.3-gcc/bin/../lib/gcc/sparc-gaisler-elf/10.2.0/../../../../sparc-gaisler-elf/lib/leon3/libc_nano.a(lib_a-malloc.o)
                                        0x52c (size before relaxing)
 .debug_str     0x0000000000001edb       0x4d /home/fsw/rep/tasa/lib/bcc-2.2.3-gcc/bin/../lib/gcc/sparc-gaisler-elf/10.2.0/../../../../sparc-gaisler-elf/lib/leon3/libc_nano.a(lib_a-memchr.o)
                                        0x1d6 (size before relaxing)
 .debug_str     0x0000000000001f28       0x58 /home/fsw/rep/tasa/lib/bcc-2.2.3-gcc/bin/../lib/gcc/sparc-gaisler-elf/10.2.0/../../../../sparc-gaisler-elf/lib/leon3/libc_nano.a(lib_a-memcpy.o)
                                        0x1da (size before relaxing)
 .debug_str     0x0000000000001f80       0x44 /home/fsw/rep/tasa/lib/bcc-2.2.3-gcc/bin/../lib/gcc/sparc-gaisler-elf/10.2.0/../../../../sparc-gaisler-elf/lib/leon3/libc_nano.a(lib_a-memset.o)
                                        0x1c6 (size before relaxing)
 .debug_str     0x0000000000001fc4       0xae /home/fsw/rep/tasa/lib/bcc-2.2.3-gcc/bin/../lib/gcc/sparc-gaisler-elf/10.2.0/../../../../sparc-gaisler-elf/lib/leon3/libc_nano.a(lib_a-mprec.o)
                                        0x7f6 (size before relaxing)
 .debug_str     0x0000000000002072       0x67 /home/fsw/rep/tasa/lib/bcc-2.2.3-gcc/bin/../lib/gcc/sparc-gaisler-elf/10.2.0/../../../../sparc-gaisler-elf/lib/leon3/libc_nano.a(lib_a-nano-callocr.o)
                                        0x534 (size before relaxing)
 .debug_str     0x00000000000020d9       0x62 /home/fsw/rep/tasa/lib/bcc-2.2.3-gcc/bin/../lib/gcc/sparc-gaisler-elf/10.2.0/../../../../sparc-gaisler-elf/lib/leon3/libc_nano.a(lib_a-nano-freer.o)
                                        0x58e (size before relaxing)
 .debug_str     0x000000000000213b       0x46 /home/fsw/rep/tasa/lib/bcc-2.2.3-gcc/bin/../lib/gcc/sparc-gaisler-elf/10.2.0/../../../../sparc-gaisler-elf/lib/leon3/libc_nano.a(lib_a-nano-mallocr.o)
                                        0x5b9 (size before relaxing)
 .debug_str     0x0000000000002181       0xdb /home/fsw/rep/tasa/lib/bcc-2.2.3-gcc/bin/../lib/gcc/sparc-gaisler-elf/10.2.0/../../../../sparc-gaisler-elf/lib/leon3/libc_nano.a(lib_a-nano-vfprintf.o)
                                        0x8d3 (size before relaxing)
 .debug_str     0x000000000000225c       0x46 /home/fsw/rep/tasa/lib/bcc-2.2.3-gcc/bin/../lib/gcc/sparc-gaisler-elf/10.2.0/../../../../sparc-gaisler-elf/lib/leon3/libc_nano.a(lib_a-putc.o)
                                        0x580 (size before relaxing)
 .debug_str     0x00000000000022a2       0x56 /home/fsw/rep/tasa/lib/bcc-2.2.3-gcc/bin/../lib/gcc/sparc-gaisler-elf/10.2.0/../../../../sparc-gaisler-elf/lib/leon3/libc_nano.a(lib_a-sbrkr.o)
                                        0x50e (size before relaxing)
 .debug_str     0x00000000000022f8       0xa2 /home/fsw/rep/tasa/lib/bcc-2.2.3-gcc/bin/../lib/gcc/sparc-gaisler-elf/10.2.0/../../../../sparc-gaisler-elf/lib/leon3/libc_nano.a(lib_a-stdio.o)
                                        0x56c (size before relaxing)
 .debug_str     0x000000000000239a       0x43 /home/fsw/rep/tasa/lib/bcc-2.2.3-gcc/bin/../lib/gcc/sparc-gaisler-elf/10.2.0/../../../../sparc-gaisler-elf/lib/leon3/libc_nano.a(lib_a-writer.o)
                                        0x512 (size before relaxing)
 .debug_str     0x00000000000023dd       0x43 /home/fsw/rep/tasa/lib/bcc-2.2.3-gcc/bin/../lib/gcc/sparc-gaisler-elf/10.2.0/../../../../sparc-gaisler-elf/lib/leon3/libc_nano.a(lib_a-closer.o)
                                        0x502 (size before relaxing)
 .debug_str     0x0000000000002420       0x49 /home/fsw/rep/tasa/lib/bcc-2.2.3-gcc/bin/../lib/gcc/sparc-gaisler-elf/10.2.0/../../../../sparc-gaisler-elf/lib/leon3/libc_nano.a(lib_a-fstatr.o)
                                        0x63b (size before relaxing)
 .debug_str     0x0000000000002469       0x75 /home/fsw/rep/tasa/lib/bcc-2.2.3-gcc/bin/../lib/gcc/sparc-gaisler-elf/10.2.0/../../../../sparc-gaisler-elf/lib/leon3/libc_nano.a(lib_a-fvwrite.o)
                                        0x5aa (size before relaxing)
 .debug_str     0x00000000000024de       0x4b /home/fsw/rep/tasa/lib/bcc-2.2.3-gcc/bin/../lib/gcc/sparc-gaisler-elf/10.2.0/../../../../sparc-gaisler-elf/lib/leon3/libc_nano.a(lib_a-isattyr.o)
                                        0x505 (size before relaxing)
 .debug_str     0x0000000000002529       0xbc /home/fsw/rep/tasa/lib/bcc-2.2.3-gcc/bin/../lib/gcc/sparc-gaisler-elf/10.2.0/../../../../sparc-gaisler-elf/lib/leon3/libc_nano.a(lib_a-locale.o)
                                        0x791 (size before relaxing)
 .debug_str     0x00000000000025e5       0x49 /home/fsw/rep/tasa/lib/bcc-2.2.3-gcc/bin/../lib/gcc/sparc-gaisler-elf/10.2.0/../../../../sparc-gaisler-elf/lib/leon3/libc_nano.a(lib_a-lseekr.o)
                                        0x509 (size before relaxing)
 .debug_str     0x000000000000262e       0x5f /home/fsw/rep/tasa/lib/bcc-2.2.3-gcc/bin/../lib/gcc/sparc-gaisler-elf/10.2.0/../../../../sparc-gaisler-elf/lib/leon3/libc_nano.a(lib_a-mbtowc_r.o)
                                        0x747 (size before relaxing)
 .debug_str     0x000000000000268d       0x4e /home/fsw/rep/tasa/lib/bcc-2.2.3-gcc/bin/../lib/gcc/sparc-gaisler-elf/10.2.0/../../../../sparc-gaisler-elf/lib/leon3/libc_nano.a(lib_a-memmove.o)
                                        0x1e1 (size before relaxing)
 .debug_str     0x00000000000026db       0x43 /home/fsw/rep/tasa/lib/bcc-2.2.3-gcc/bin/../lib/gcc/sparc-gaisler-elf/10.2.0/../../../../sparc-gaisler-elf/lib/leon3/libc_nano.a(lib_a-mlock.o)
                                        0x50c (size before relaxing)
 .debug_str     0x000000000000271e       0x23 /home/fsw/rep/tasa/lib/bcc-2.2.3-gcc/bin/../lib/gcc/sparc-gaisler-elf/10.2.0/../../../../sparc-gaisler-elf/lib/leon3/libc_nano.a(lib_a-nano-reallocr.o)
                                        0x578 (size before relaxing)
 .debug_str     0x0000000000002741       0x42 /home/fsw/rep/tasa/lib/bcc-2.2.3-gcc/bin/../lib/gcc/sparc-gaisler-elf/10.2.0/../../../../sparc-gaisler-elf/lib/leon3/libc_nano.a(lib_a-readr.o)
                                        0x50f (size before relaxing)
 .debug_str     0x0000000000002783       0x6e /home/fsw/rep/tasa/lib/bcc-2.2.3-gcc/bin/../lib/gcc/sparc-gaisler-elf/10.2.0/../../../../sparc-gaisler-elf/lib/leon3/libc_nano.a(lib_a-reent.o)
                                        0x537 (size before relaxing)
 .debug_str     0x00000000000027f1       0x44 /home/fsw/rep/tasa/lib/bcc-2.2.3-gcc/bin/../lib/gcc/sparc-gaisler-elf/10.2.0/../../../../sparc-gaisler-elf/lib/leon3/libc_nano.a(lib_a-strcmp.o)
                                        0x1bf (size before relaxing)
 .debug_str     0x0000000000002835       0x66 /home/fsw/rep/tasa/lib/bcc-2.2.3-gcc/bin/../lib/gcc/sparc-gaisler-elf/10.2.0/../../../../sparc-gaisler-elf/lib/leon3/libc_nano.a(lib_a-wctomb_r.o)
                                        0x740 (size before relaxing)
 .debug_str     0x000000000000289b       0xee /home/fsw/rep/tasa/lib/bcc-2.2.3-gcc/bin/../lib/gcc/sparc-gaisler-elf/10.2.0/../../../../sparc-gaisler-elf/lib/leon3/libc_nano.a(lib_a-ctype_.o)
                                        0x1c7 (size before relaxing)
 .debug_str     0x0000000000002989        0xf /home/fsw/rep/tasa/lib/bcc-2.2.3-gcc/bin/../lib/gcc/sparc-gaisler-elf/10.2.0/../../../../sparc-gaisler-elf/lib/leon3/libc_nano.a(lib_a-nano-msizer.o)
                                        0x556 (size before relaxing)
 .debug_str     0x0000000000002998       0x2d /home/fsw/rep/tasa/lib/bcc-2.2.3-gcc/bin/../sparc-gaisler-elf/bsp/gr716/leon3/libbcc.a(_exit.S.o)
                                         0xa5 (size before relaxing)
 .debug_str     0x00000000000029c5       0x3d /home/fsw/rep/tasa/lib/bcc-2.2.3-gcc/bin/../sparc-gaisler-elf/bsp/gr716/leon3/libbcc.a(read.c.o)
                                        0x17c (size before relaxing)
 .debug_str     0x0000000000002a02       0x9d /home/fsw/rep/tasa/lib/bcc-2.2.3-gcc/bin/../sparc-gaisler-elf/bsp/gr716/leon3/libbcc.a(sbrk.c.o)
                                        0x1f0 (size before relaxing)
 .debug_str     0x0000000000002a9f       0x2c /home/fsw/rep/tasa/lib/bcc-2.2.3-gcc/bin/../sparc-gaisler-elf/bsp/gr716/leon3/libbcc.a(heap.c.o)
                                        0x189 (size before relaxing)
 .debug_str     0x0000000000002acb       0x3f /home/fsw/rep/tasa/lib/bcc-2.2.3-gcc/bin/../sparc-gaisler-elf/bsp/gr716/leon3/libbcc.a(write.c.o)
                                        0x17f (size before relaxing)
 .debug_str     0x0000000000002b0a       0x33 /home/fsw/rep/tasa/lib/bcc-2.2.3-gcc/bin/../sparc-gaisler-elf/bsp/gr716/leon3/libbcc.a(stubs.S.o)
                                         0xab (size before relaxing)
 .debug_str     0x0000000000002b3d       0x68 /home/fsw/rep/tasa/lib/bcc-2.2.3-gcc/bin/../sparc-gaisler-elf/bsp/gr716/leon3/libbcc.a(con_apbuart.c.o)
                                        0x20d (size before relaxing)

.debug_loc      0x0000000000000000     0x7d62
 *(.debug_loc)
 .debug_loc     0x0000000000000000       0x44 /tmp/cct7UO0M.o
 .debug_loc     0x0000000000000044       0x58 /home/fsw/rep/tasa/lib/bcc-2.2.3-gcc/bin/../sparc-gaisler-elf/bsp/gr716/leon3/libbcc.a(int_irqmp_get_source.c.o)
 .debug_loc     0x000000000000009c       0xd2 /home/fsw/rep/tasa/lib/bcc-2.2.3-gcc/bin/../sparc-gaisler-elf/bsp/gr716/leon3/libbcc.a(int_irqmp_mp.c.o)
 .debug_loc     0x000000000000016e       0x4f /home/fsw/rep/tasa/lib/bcc-2.2.3-gcc/bin/../sparc-gaisler-elf/bsp/gr716/leon3/libbcc.a(bsp_timer_init.c.o)
 .debug_loc     0x00000000000001bd       0x78 /home/fsw/rep/tasa/lib/bcc-2.2.3-gcc/bin/../sparc-gaisler-elf/bsp/gr716/leon3/libbcc.a(bsp_con_init.c.o)
 .debug_loc     0x0000000000000235       0x22 /home/fsw/rep/tasa/lib/bcc-2.2.3-gcc/bin/../lib/gcc/sparc-gaisler-elf/10.2.0/../../../../sparc-gaisler-elf/lib/leon3/libc_nano.a(lib_a-atexit.o)
 .debug_loc     0x0000000000000257       0x22 /home/fsw/rep/tasa/lib/bcc-2.2.3-gcc/bin/../lib/gcc/sparc-gaisler-elf/10.2.0/../../../../sparc-gaisler-elf/lib/leon3/libc_nano.a(lib_a-exit.o)
 .debug_loc     0x0000000000000279      0x7bb /home/fsw/rep/tasa/lib/bcc-2.2.3-gcc/bin/../lib/gcc/sparc-gaisler-elf/10.2.0/../../../../sparc-gaisler-elf/lib/leon3/libc_nano.a(lib_a-nano-vfprintf_float.o)
 .debug_loc     0x0000000000000a34      0x4d5 /home/fsw/rep/tasa/lib/bcc-2.2.3-gcc/bin/../lib/gcc/sparc-gaisler-elf/10.2.0/../../../../sparc-gaisler-elf/lib/leon3/libc_nano.a(lib_a-nano-vfprintf_i.o)
 .debug_loc     0x0000000000000f09       0xc5 /home/fsw/rep/tasa/lib/bcc-2.2.3-gcc/bin/../lib/gcc/sparc-gaisler-elf/10.2.0/../../../../sparc-gaisler-elf/lib/leon3/libc_nano.a(lib_a-printf.o)
 .debug_loc     0x0000000000000fce       0x88 /home/fsw/rep/tasa/lib/bcc-2.2.3-gcc/bin/../lib/gcc/sparc-gaisler-elf/10.2.0/../../../../sparc-gaisler-elf/lib/leon3/libc_nano.a(lib_a-putchar.o)
 .debug_loc     0x0000000000001056      0x254 /home/fsw/rep/tasa/lib/bcc-2.2.3-gcc/bin/../lib/gcc/sparc-gaisler-elf/10.2.0/../../../../sparc-gaisler-elf/lib/leon3/libc_nano.a(lib_a-puts.o)
 .debug_loc     0x00000000000012aa       0x47 /home/fsw/rep/tasa/lib/bcc-2.2.3-gcc/bin/../lib/gcc/sparc-gaisler-elf/10.2.0/../../../../sparc-gaisler-elf/lib/leon3/libc_nano.a(lib_a-strlen.o)
 .debug_loc     0x00000000000012f1      0x130 /home/fsw/rep/tasa/lib/bcc-2.2.3-gcc/bin/../lib/gcc/sparc-gaisler-elf/10.2.0/../../../../sparc-gaisler-elf/lib/leon3/libc_nano.a(lib_a-wbuf.o)
 .debug_loc     0x0000000000001421       0x93 /home/fsw/rep/tasa/lib/bcc-2.2.3-gcc/bin/../lib/gcc/sparc-gaisler-elf/10.2.0/../../../../sparc-gaisler-elf/lib/leon3/libc_nano.a(lib_a-wsetup.o)
 .debug_loc     0x00000000000014b4      0x133 /home/fsw/rep/tasa/lib/bcc-2.2.3-gcc/bin/../lib/gcc/sparc-gaisler-elf/10.2.0/../../../../sparc-gaisler-elf/lib/leon3/libc_nano.a(lib_a-__atexit.o)
 .debug_loc     0x00000000000015e7      0x16b /home/fsw/rep/tasa/lib/bcc-2.2.3-gcc/bin/../lib/gcc/sparc-gaisler-elf/10.2.0/../../../../sparc-gaisler-elf/lib/leon3/libc_nano.a(lib_a-__call_atexit.o)
 .debug_loc     0x0000000000001752     0x1bda /home/fsw/rep/tasa/lib/bcc-2.2.3-gcc/bin/../lib/gcc/sparc-gaisler-elf/10.2.0/../../../../sparc-gaisler-elf/lib/leon3/libc_nano.a(lib_a-dtoa.o)
 .debug_loc     0x000000000000332c      0x234 /home/fsw/rep/tasa/lib/bcc-2.2.3-gcc/bin/../lib/gcc/sparc-gaisler-elf/10.2.0/../../../../sparc-gaisler-elf/lib/leon3/libc_nano.a(lib_a-fflush.o)
 .debug_loc     0x0000000000003560      0x1d9 /home/fsw/rep/tasa/lib/bcc-2.2.3-gcc/bin/../lib/gcc/sparc-gaisler-elf/10.2.0/../../../../sparc-gaisler-elf/lib/leon3/libc_nano.a(lib_a-findfp.o)
 .debug_loc     0x0000000000003739      0x1b1 /home/fsw/rep/tasa/lib/bcc-2.2.3-gcc/bin/../lib/gcc/sparc-gaisler-elf/10.2.0/../../../../sparc-gaisler-elf/lib/leon3/libc_nano.a(lib_a-fwalk.o)
 .debug_loc     0x00000000000038ea       0xc9 /home/fsw/rep/tasa/lib/bcc-2.2.3-gcc/bin/../lib/gcc/sparc-gaisler-elf/10.2.0/../../../../sparc-gaisler-elf/lib/leon3/libc_nano.a(lib_a-localeconv.o)
 .debug_loc     0x00000000000039b3      0x187 /home/fsw/rep/tasa/lib/bcc-2.2.3-gcc/bin/../lib/gcc/sparc-gaisler-elf/10.2.0/../../../../sparc-gaisler-elf/lib/leon3/libc_nano.a(lib_a-makebuf.o)
 .debug_loc     0x0000000000003b3a       0x44 /home/fsw/rep/tasa/lib/bcc-2.2.3-gcc/bin/../lib/gcc/sparc-gaisler-elf/10.2.0/../../../../sparc-gaisler-elf/lib/leon3/libc_nano.a(lib_a-malloc.o)
 .debug_loc     0x0000000000003b7e       0xd5 /home/fsw/rep/tasa/lib/bcc-2.2.3-gcc/bin/../lib/gcc/sparc-gaisler-elf/10.2.0/../../../../sparc-gaisler-elf/lib/leon3/libc_nano.a(lib_a-memchr.o)
 .debug_loc     0x0000000000003c53       0xfb /home/fsw/rep/tasa/lib/bcc-2.2.3-gcc/bin/../lib/gcc/sparc-gaisler-elf/10.2.0/../../../../sparc-gaisler-elf/lib/leon3/libc_nano.a(lib_a-memcpy.o)
 .debug_loc     0x0000000000003d4e       0x85 /home/fsw/rep/tasa/lib/bcc-2.2.3-gcc/bin/../lib/gcc/sparc-gaisler-elf/10.2.0/../../../../sparc-gaisler-elf/lib/leon3/libc_nano.a(lib_a-memset.o)
 .debug_loc     0x0000000000003dd3     0x1ef5 /home/fsw/rep/tasa/lib/bcc-2.2.3-gcc/bin/../lib/gcc/sparc-gaisler-elf/10.2.0/../../../../sparc-gaisler-elf/lib/leon3/libc_nano.a(lib_a-mprec.o)
 .debug_loc     0x0000000000005cc8       0x76 /home/fsw/rep/tasa/lib/bcc-2.2.3-gcc/bin/../lib/gcc/sparc-gaisler-elf/10.2.0/../../../../sparc-gaisler-elf/lib/leon3/libc_nano.a(lib_a-nano-callocr.o)
 .debug_loc     0x0000000000005d3e       0xfe /home/fsw/rep/tasa/lib/bcc-2.2.3-gcc/bin/../lib/gcc/sparc-gaisler-elf/10.2.0/../../../../sparc-gaisler-elf/lib/leon3/libc_nano.a(lib_a-nano-freer.o)
 .debug_loc     0x0000000000005e3c      0x270 /home/fsw/rep/tasa/lib/bcc-2.2.3-gcc/bin/../lib/gcc/sparc-gaisler-elf/10.2.0/../../../../sparc-gaisler-elf/lib/leon3/libc_nano.a(lib_a-nano-mallocr.o)
 .debug_loc     0x00000000000060ac      0x62e /home/fsw/rep/tasa/lib/bcc-2.2.3-gcc/bin/../lib/gcc/sparc-gaisler-elf/10.2.0/../../../../sparc-gaisler-elf/lib/leon3/libc_nano.a(lib_a-nano-vfprintf.o)
 .debug_loc     0x00000000000066da      0x155 /home/fsw/rep/tasa/lib/bcc-2.2.3-gcc/bin/../lib/gcc/sparc-gaisler-elf/10.2.0/../../../../sparc-gaisler-elf/lib/leon3/libc_nano.a(lib_a-putc.o)
 .debug_loc     0x000000000000682f       0x69 /home/fsw/rep/tasa/lib/bcc-2.2.3-gcc/bin/../lib/gcc/sparc-gaisler-elf/10.2.0/../../../../sparc-gaisler-elf/lib/leon3/libc_nano.a(lib_a-sbrkr.o)
 .debug_loc     0x0000000000006898      0x29b /home/fsw/rep/tasa/lib/bcc-2.2.3-gcc/bin/../lib/gcc/sparc-gaisler-elf/10.2.0/../../../../sparc-gaisler-elf/lib/leon3/libc_nano.a(lib_a-stdio.o)
 .debug_loc     0x0000000000006b33       0xad /home/fsw/rep/tasa/lib/bcc-2.2.3-gcc/bin/../lib/gcc/sparc-gaisler-elf/10.2.0/../../../../sparc-gaisler-elf/lib/leon3/libc_nano.a(lib_a-writer.o)
 .debug_loc     0x0000000000006be0       0x69 /home/fsw/rep/tasa/lib/bcc-2.2.3-gcc/bin/../lib/gcc/sparc-gaisler-elf/10.2.0/../../../../sparc-gaisler-elf/lib/leon3/libc_nano.a(lib_a-closer.o)
 .debug_loc     0x0000000000006c49       0x8b /home/fsw/rep/tasa/lib/bcc-2.2.3-gcc/bin/../lib/gcc/sparc-gaisler-elf/10.2.0/../../../../sparc-gaisler-elf/lib/leon3/libc_nano.a(lib_a-fstatr.o)
 .debug_loc     0x0000000000006cd4      0x499 /home/fsw/rep/tasa/lib/bcc-2.2.3-gcc/bin/../lib/gcc/sparc-gaisler-elf/10.2.0/../../../../sparc-gaisler-elf/lib/leon3/libc_nano.a(lib_a-fvwrite.o)
 .debug_loc     0x000000000000716d       0x69 /home/fsw/rep/tasa/lib/bcc-2.2.3-gcc/bin/../lib/gcc/sparc-gaisler-elf/10.2.0/../../../../sparc-gaisler-elf/lib/leon3/libc_nano.a(lib_a-isattyr.o)
 .debug_loc     0x00000000000071d6      0x121 /home/fsw/rep/tasa/lib/bcc-2.2.3-gcc/bin/../lib/gcc/sparc-gaisler-elf/10.2.0/../../../../sparc-gaisler-elf/lib/leon3/libc_nano.a(lib_a-locale.o)
 .debug_loc     0x00000000000072f7       0xad /home/fsw/rep/tasa/lib/bcc-2.2.3-gcc/bin/../lib/gcc/sparc-gaisler-elf/10.2.0/../../../../sparc-gaisler-elf/lib/leon3/libc_nano.a(lib_a-lseekr.o)
 .debug_loc     0x00000000000073a4      0x116 /home/fsw/rep/tasa/lib/bcc-2.2.3-gcc/bin/../lib/gcc/sparc-gaisler-elf/10.2.0/../../../../sparc-gaisler-elf/lib/leon3/libc_nano.a(lib_a-mbtowc_r.o)
 .debug_loc     0x00000000000074ba      0x1ab /home/fsw/rep/tasa/lib/bcc-2.2.3-gcc/bin/../lib/gcc/sparc-gaisler-elf/10.2.0/../../../../sparc-gaisler-elf/lib/leon3/libc_nano.a(lib_a-memmove.o)
 .debug_loc     0x0000000000007665       0xfb /home/fsw/rep/tasa/lib/bcc-2.2.3-gcc/bin/../lib/gcc/sparc-gaisler-elf/10.2.0/../../../../sparc-gaisler-elf/lib/leon3/libc_nano.a(lib_a-nano-reallocr.o)
 .debug_loc     0x0000000000007760       0xad /home/fsw/rep/tasa/lib/bcc-2.2.3-gcc/bin/../lib/gcc/sparc-gaisler-elf/10.2.0/../../../../sparc-gaisler-elf/lib/leon3/libc_nano.a(lib_a-readr.o)
 .debug_loc     0x000000000000780d       0xaa /home/fsw/rep/tasa/lib/bcc-2.2.3-gcc/bin/../lib/gcc/sparc-gaisler-elf/10.2.0/../../../../sparc-gaisler-elf/lib/leon3/libc_nano.a(lib_a-reent.o)
 .debug_loc     0x00000000000078b7       0x76 /home/fsw/rep/tasa/lib/bcc-2.2.3-gcc/bin/../lib/gcc/sparc-gaisler-elf/10.2.0/../../../../sparc-gaisler-elf/lib/leon3/libc_nano.a(lib_a-strcmp.o)
 .debug_loc     0x000000000000792d       0xdf /home/fsw/rep/tasa/lib/bcc-2.2.3-gcc/bin/../lib/gcc/sparc-gaisler-elf/10.2.0/../../../../sparc-gaisler-elf/lib/leon3/libc_nano.a(lib_a-wctomb_r.o)
 .debug_loc     0x0000000000007a0c       0x71 /home/fsw/rep/tasa/lib/bcc-2.2.3-gcc/bin/../lib/gcc/sparc-gaisler-elf/10.2.0/../../../../sparc-gaisler-elf/lib/leon3/libc_nano.a(lib_a-nano-msizer.o)
 .debug_loc     0x0000000000007a7d      0x106 /home/fsw/rep/tasa/lib/bcc-2.2.3-gcc/bin/../sparc-gaisler-elf/bsp/gr716/leon3/libbcc.a(read.c.o)
 .debug_loc     0x0000000000007b83       0x5c /home/fsw/rep/tasa/lib/bcc-2.2.3-gcc/bin/../sparc-gaisler-elf/bsp/gr716/leon3/libbcc.a(sbrk.c.o)
 .debug_loc     0x0000000000007bdf       0xdc /home/fsw/rep/tasa/lib/bcc-2.2.3-gcc/bin/../sparc-gaisler-elf/bsp/gr716/leon3/libbcc.a(write.c.o)
 .debug_loc     0x0000000000007cbb       0xa7 /home/fsw/rep/tasa/lib/bcc-2.2.3-gcc/bin/../sparc-gaisler-elf/bsp/gr716/leon3/libbcc.a(con_apbuart.c.o)

.comment        0x0000000000000000       0x19
 .comment       0x0000000000000000       0x19 /home/fsw/rep/tasa/lib/bcc-2.2.3-gcc/bin/../lib/gcc/sparc-gaisler-elf/10.2.0/leon3/crtbegin.o
                                         0x1a (size before relaxing)
 .comment       0x0000000000000019       0x1a /tmp/cct7UO0M.o
 .comment       0x0000000000000019       0x1a /home/fsw/rep/tasa/lib/bcc-2.2.3-gcc/bin/../sparc-gaisler-elf/bsp/gr716/leon3/libbcc.a(isr.c.o)
 .comment       0x0000000000000019       0x1a /home/fsw/rep/tasa/lib/bcc-2.2.3-gcc/bin/../sparc-gaisler-elf/bsp/gr716/leon3/libbcc.a(int_nest.c.o)
 .comment       0x0000000000000019       0x1a /home/fsw/rep/tasa/lib/bcc-2.2.3-gcc/bin/../sparc-gaisler-elf/bsp/gr716/leon3/libbcc.a(copy_data.c.o)
 .comment       0x0000000000000019       0x1a /home/fsw/rep/tasa/lib/bcc-2.2.3-gcc/bin/../sparc-gaisler-elf/bsp/gr716/leon3/libbcc.a(argv.c.o)
 .comment       0x0000000000000019       0x1a /home/fsw/rep/tasa/lib/bcc-2.2.3-gcc/bin/../sparc-gaisler-elf/bsp/gr716/leon3/libbcc.a(int_irqmp_get_source.c.o)
 .comment       0x0000000000000019       0x1a /home/fsw/rep/tasa/lib/bcc-2.2.3-gcc/bin/../sparc-gaisler-elf/bsp/gr716/leon3/libbcc.a(int_irqmp_mp.c.o)
 .comment       0x0000000000000019       0x1a /home/fsw/rep/tasa/lib/bcc-2.2.3-gcc/bin/../sparc-gaisler-elf/bsp/gr716/leon3/libbcc.a(int_irqmp_init.c.o)
 .comment       0x0000000000000019       0x1a /home/fsw/rep/tasa/lib/bcc-2.2.3-gcc/bin/../sparc-gaisler-elf/bsp/gr716/leon3/libbcc.a(bsp_timer_init.c.o)
 .comment       0x0000000000000019       0x1a /home/fsw/rep/tasa/lib/bcc-2.2.3-gcc/bin/../sparc-gaisler-elf/bsp/gr716/leon3/libbcc.a(bsp_con_init.c.o)
 .comment       0x0000000000000019       0x1a /home/fsw/rep/tasa/lib/bcc-2.2.3-gcc/bin/../sparc-gaisler-elf/bsp/gr716/leon3/libbcc.a(int_irqmp_handle.c.o)
 .comment       0x0000000000000019       0x1a /home/fsw/rep/tasa/lib/bcc-2.2.3-gcc/bin/../sparc-gaisler-elf/bsp/gr716/leon3/libbcc.a(con_handle.c.o)
 .comment       0x0000000000000019       0x1a /home/fsw/rep/tasa/lib/bcc-2.2.3-gcc/bin/../sparc-gaisler-elf/bsp/gr716/leon3/libbcc.a(timer_handle.c.o)
 .comment       0x0000000000000019       0x1a /home/fsw/rep/tasa/lib/bcc-2.2.3-gcc/bin/../sparc-gaisler-elf/bsp/gr716/leon3/libbcc.a(bsp_sysfreq.c.o)
 .comment       0x0000000000000019       0x1a /home/fsw/rep/tasa/lib/bcc-2.2.3-gcc/bin/../lib/gcc/sparc-gaisler-elf/10.2.0/../../../../sparc-gaisler-elf/lib/leon3/libc_nano.a(lib_a-atexit.o)
 .comment       0x0000000000000019       0x1a /home/fsw/rep/tasa/lib/bcc-2.2.3-gcc/bin/../lib/gcc/sparc-gaisler-elf/10.2.0/../../../../sparc-gaisler-elf/lib/leon3/libc_nano.a(lib_a-exit.o)
 .comment       0x0000000000000019       0x1a /home/fsw/rep/tasa/lib/bcc-2.2.3-gcc/bin/../lib/gcc/sparc-gaisler-elf/10.2.0/../../../../sparc-gaisler-elf/lib/leon3/libc_nano.a(lib_a-impure.o)
 .comment       0x0000000000000019       0x1a /home/fsw/rep/tasa/lib/bcc-2.2.3-gcc/bin/../lib/gcc/sparc-gaisler-elf/10.2.0/../../../../sparc-gaisler-elf/lib/leon3/libc_nano.a(lib_a-nano-vfprintf_float.o)
 .comment       0x0000000000000019       0x1a /home/fsw/rep/tasa/lib/bcc-2.2.3-gcc/bin/../lib/gcc/sparc-gaisler-elf/10.2.0/../../../../sparc-gaisler-elf/lib/leon3/libc_nano.a(lib_a-nano-vfprintf_i.o)
 .comment       0x0000000000000019       0x1a /home/fsw/rep/tasa/lib/bcc-2.2.3-gcc/bin/../lib/gcc/sparc-gaisler-elf/10.2.0/../../../../sparc-gaisler-elf/lib/leon3/libc_nano.a(lib_a-printf.o)
 .comment       0x0000000000000019       0x1a /home/fsw/rep/tasa/lib/bcc-2.2.3-gcc/bin/../lib/gcc/sparc-gaisler-elf/10.2.0/../../../../sparc-gaisler-elf/lib/leon3/libc_nano.a(lib_a-putchar.o)
 .comment       0x0000000000000019       0x1a /home/fsw/rep/tasa/lib/bcc-2.2.3-gcc/bin/../lib/gcc/sparc-gaisler-elf/10.2.0/../../../../sparc-gaisler-elf/lib/leon3/libc_nano.a(lib_a-puts.o)
 .comment       0x0000000000000019       0x1a /home/fsw/rep/tasa/lib/bcc-2.2.3-gcc/bin/../lib/gcc/sparc-gaisler-elf/10.2.0/../../../../sparc-gaisler-elf/lib/leon3/libc_nano.a(lib_a-strlen.o)
 .comment       0x0000000000000019       0x1a /home/fsw/rep/tasa/lib/bcc-2.2.3-gcc/bin/../lib/gcc/sparc-gaisler-elf/10.2.0/../../../../sparc-gaisler-elf/lib/leon3/libc_nano.a(lib_a-wbuf.o)
 .comment       0x0000000000000019       0x1a /home/fsw/rep/tasa/lib/bcc-2.2.3-gcc/bin/../lib/gcc/sparc-gaisler-elf/10.2.0/../../../../sparc-gaisler-elf/lib/leon3/libc_nano.a(lib_a-wsetup.o)
 .comment       0x0000000000000019       0x1a /home/fsw/rep/tasa/lib/bcc-2.2.3-gcc/bin/../lib/gcc/sparc-gaisler-elf/10.2.0/../../../../sparc-gaisler-elf/lib/leon3/libc_nano.a(lib_a-__atexit.o)
 .comment       0x0000000000000019       0x1a /home/fsw/rep/tasa/lib/bcc-2.2.3-gcc/bin/../lib/gcc/sparc-gaisler-elf/10.2.0/../../../../sparc-gaisler-elf/lib/leon3/libc_nano.a(lib_a-__call_atexit.o)
 .comment       0x0000000000000019       0x1a /home/fsw/rep/tasa/lib/bcc-2.2.3-gcc/bin/../lib/gcc/sparc-gaisler-elf/10.2.0/../../../../sparc-gaisler-elf/lib/leon3/libc_nano.a(lib_a-dtoa.o)
 .comment       0x0000000000000019       0x1a /home/fsw/rep/tasa/lib/bcc-2.2.3-gcc/bin/../lib/gcc/sparc-gaisler-elf/10.2.0/../../../../sparc-gaisler-elf/lib/leon3/libc_nano.a(lib_a-fflush.o)
 .comment       0x0000000000000019       0x1a /home/fsw/rep/tasa/lib/bcc-2.2.3-gcc/bin/../lib/gcc/sparc-gaisler-elf/10.2.0/../../../../sparc-gaisler-elf/lib/leon3/libc_nano.a(lib_a-findfp.o)
 .comment       0x0000000000000019       0x1a /home/fsw/rep/tasa/lib/bcc-2.2.3-gcc/bin/../lib/gcc/sparc-gaisler-elf/10.2.0/../../../../sparc-gaisler-elf/lib/leon3/libc_nano.a(lib_a-fwalk.o)
 .comment       0x0000000000000019       0x1a /home/fsw/rep/tasa/lib/bcc-2.2.3-gcc/bin/../lib/gcc/sparc-gaisler-elf/10.2.0/../../../../sparc-gaisler-elf/lib/leon3/libc_nano.a(lib_a-localeconv.o)
 .comment       0x0000000000000019       0x1a /home/fsw/rep/tasa/lib/bcc-2.2.3-gcc/bin/../lib/gcc/sparc-gaisler-elf/10.2.0/../../../../sparc-gaisler-elf/lib/leon3/libc_nano.a(lib_a-makebuf.o)
 .comment       0x0000000000000019       0x1a /home/fsw/rep/tasa/lib/bcc-2.2.3-gcc/bin/../lib/gcc/sparc-gaisler-elf/10.2.0/../../../../sparc-gaisler-elf/lib/leon3/libc_nano.a(lib_a-malloc.o)
 .comment       0x0000000000000019       0x1a /home/fsw/rep/tasa/lib/bcc-2.2.3-gcc/bin/../lib/gcc/sparc-gaisler-elf/10.2.0/../../../../sparc-gaisler-elf/lib/leon3/libc_nano.a(lib_a-memchr.o)
 .comment       0x0000000000000019       0x1a /home/fsw/rep/tasa/lib/bcc-2.2.3-gcc/bin/../lib/gcc/sparc-gaisler-elf/10.2.0/../../../../sparc-gaisler-elf/lib/leon3/libc_nano.a(lib_a-memcpy.o)
 .comment       0x0000000000000019       0x1a /home/fsw/rep/tasa/lib/bcc-2.2.3-gcc/bin/../lib/gcc/sparc-gaisler-elf/10.2.0/../../../../sparc-gaisler-elf/lib/leon3/libc_nano.a(lib_a-memset.o)
 .comment       0x0000000000000019       0x1a /home/fsw/rep/tasa/lib/bcc-2.2.3-gcc/bin/../lib/gcc/sparc-gaisler-elf/10.2.0/../../../../sparc-gaisler-elf/lib/leon3/libc_nano.a(lib_a-mprec.o)
 .comment       0x0000000000000019       0x1a /home/fsw/rep/tasa/lib/bcc-2.2.3-gcc/bin/../lib/gcc/sparc-gaisler-elf/10.2.0/../../../../sparc-gaisler-elf/lib/leon3/libc_nano.a(lib_a-nano-callocr.o)
 .comment       0x0000000000000019       0x1a /home/fsw/rep/tasa/lib/bcc-2.2.3-gcc/bin/../lib/gcc/sparc-gaisler-elf/10.2.0/../../../../sparc-gaisler-elf/lib/leon3/libc_nano.a(lib_a-nano-freer.o)
 .comment       0x0000000000000019       0x1a /home/fsw/rep/tasa/lib/bcc-2.2.3-gcc/bin/../lib/gcc/sparc-gaisler-elf/10.2.0/../../../../sparc-gaisler-elf/lib/leon3/libc_nano.a(lib_a-nano-mallocr.o)
 .comment       0x0000000000000019       0x1a /home/fsw/rep/tasa/lib/bcc-2.2.3-gcc/bin/../lib/gcc/sparc-gaisler-elf/10.2.0/../../../../sparc-gaisler-elf/lib/leon3/libc_nano.a(lib_a-nano-vfprintf.o)
 .comment       0x0000000000000019       0x1a /home/fsw/rep/tasa/lib/bcc-2.2.3-gcc/bin/../lib/gcc/sparc-gaisler-elf/10.2.0/../../../../sparc-gaisler-elf/lib/leon3/libc_nano.a(lib_a-putc.o)
 .comment       0x0000000000000019       0x1a /home/fsw/rep/tasa/lib/bcc-2.2.3-gcc/bin/../lib/gcc/sparc-gaisler-elf/10.2.0/../../../../sparc-gaisler-elf/lib/leon3/libc_nano.a(lib_a-sbrkr.o)
 .comment       0x0000000000000019       0x1a /home/fsw/rep/tasa/lib/bcc-2.2.3-gcc/bin/../lib/gcc/sparc-gaisler-elf/10.2.0/../../../../sparc-gaisler-elf/lib/leon3/libc_nano.a(lib_a-stdio.o)
 .comment       0x0000000000000019       0x1a /home/fsw/rep/tasa/lib/bcc-2.2.3-gcc/bin/../lib/gcc/sparc-gaisler-elf/10.2.0/../../../../sparc-gaisler-elf/lib/leon3/libc_nano.a(lib_a-writer.o)
 .comment       0x0000000000000019       0x1a /home/fsw/rep/tasa/lib/bcc-2.2.3-gcc/bin/../lib/gcc/sparc-gaisler-elf/10.2.0/../../../../sparc-gaisler-elf/lib/leon3/libc_nano.a(lib_a-closer.o)
 .comment       0x0000000000000019       0x1a /home/fsw/rep/tasa/lib/bcc-2.2.3-gcc/bin/../lib/gcc/sparc-gaisler-elf/10.2.0/../../../../sparc-gaisler-elf/lib/leon3/libc_nano.a(lib_a-fstatr.o)
 .comment       0x0000000000000019       0x1a /home/fsw/rep/tasa/lib/bcc-2.2.3-gcc/bin/../lib/gcc/sparc-gaisler-elf/10.2.0/../../../../sparc-gaisler-elf/lib/leon3/libc_nano.a(lib_a-fvwrite.o)
 .comment       0x0000000000000019       0x1a /home/fsw/rep/tasa/lib/bcc-2.2.3-gcc/bin/../lib/gcc/sparc-gaisler-elf/10.2.0/../../../../sparc-gaisler-elf/lib/leon3/libc_nano.a(lib_a-isattyr.o)
 .comment       0x0000000000000019       0x1a /home/fsw/rep/tasa/lib/bcc-2.2.3-gcc/bin/../lib/gcc/sparc-gaisler-elf/10.2.0/../../../../sparc-gaisler-elf/lib/leon3/libc_nano.a(lib_a-locale.o)
 .comment       0x0000000000000019       0x1a /home/fsw/rep/tasa/lib/bcc-2.2.3-gcc/bin/../lib/gcc/sparc-gaisler-elf/10.2.0/../../../../sparc-gaisler-elf/lib/leon3/libc_nano.a(lib_a-lseekr.o)
 .comment       0x0000000000000019       0x1a /home/fsw/rep/tasa/lib/bcc-2.2.3-gcc/bin/../lib/gcc/sparc-gaisler-elf/10.2.0/../../../../sparc-gaisler-elf/lib/leon3/libc_nano.a(lib_a-mbtowc_r.o)
 .comment       0x0000000000000019       0x1a /home/fsw/rep/tasa/lib/bcc-2.2.3-gcc/bin/../lib/gcc/sparc-gaisler-elf/10.2.0/../../../../sparc-gaisler-elf/lib/leon3/libc_nano.a(lib_a-memmove.o)
 .comment       0x0000000000000019       0x1a /home/fsw/rep/tasa/lib/bcc-2.2.3-gcc/bin/../lib/gcc/sparc-gaisler-elf/10.2.0/../../../../sparc-gaisler-elf/lib/leon3/libc_nano.a(lib_a-mlock.o)
 .comment       0x0000000000000019       0x1a /home/fsw/rep/tasa/lib/bcc-2.2.3-gcc/bin/../lib/gcc/sparc-gaisler-elf/10.2.0/../../../../sparc-gaisler-elf/lib/leon3/libc_nano.a(lib_a-nano-reallocr.o)
 .comment       0x0000000000000019       0x1a /home/fsw/rep/tasa/lib/bcc-2.2.3-gcc/bin/../lib/gcc/sparc-gaisler-elf/10.2.0/../../../../sparc-gaisler-elf/lib/leon3/libc_nano.a(lib_a-readr.o)
 .comment       0x0000000000000019       0x1a /home/fsw/rep/tasa/lib/bcc-2.2.3-gcc/bin/../lib/gcc/sparc-gaisler-elf/10.2.0/../../../../sparc-gaisler-elf/lib/leon3/libc_nano.a(lib_a-reent.o)
 .comment       0x0000000000000019       0x1a /home/fsw/rep/tasa/lib/bcc-2.2.3-gcc/bin/../lib/gcc/sparc-gaisler-elf/10.2.0/../../../../sparc-gaisler-elf/lib/leon3/libc_nano.a(lib_a-strcmp.o)
 .comment       0x0000000000000019       0x1a /home/fsw/rep/tasa/lib/bcc-2.2.3-gcc/bin/../lib/gcc/sparc-gaisler-elf/10.2.0/../../../../sparc-gaisler-elf/lib/leon3/libc_nano.a(lib_a-wctomb_r.o)
 .comment       0x0000000000000019       0x1a /home/fsw/rep/tasa/lib/bcc-2.2.3-gcc/bin/../lib/gcc/sparc-gaisler-elf/10.2.0/../../../../sparc-gaisler-elf/lib/leon3/libc_nano.a(lib_a-ctype_.o)
 .comment       0x0000000000000019       0x1a /home/fsw/rep/tasa/lib/bcc-2.2.3-gcc/bin/../lib/gcc/sparc-gaisler-elf/10.2.0/../../../../sparc-gaisler-elf/lib/leon3/libc_nano.a(lib_a-nano-msizer.o)
 .comment       0x0000000000000019       0x1a /home/fsw/rep/tasa/lib/bcc-2.2.3-gcc/bin/../sparc-gaisler-elf/bsp/gr716/leon3/libbcc.a(read.c.o)
 .comment       0x0000000000000019       0x1a /home/fsw/rep/tasa/lib/bcc-2.2.3-gcc/bin/../sparc-gaisler-elf/bsp/gr716/leon3/libbcc.a(sbrk.c.o)
 .comment       0x0000000000000019       0x1a /home/fsw/rep/tasa/lib/bcc-2.2.3-gcc/bin/../sparc-gaisler-elf/bsp/gr716/leon3/libbcc.a(heap.c.o)
 .comment       0x0000000000000019       0x1a /home/fsw/rep/tasa/lib/bcc-2.2.3-gcc/bin/../sparc-gaisler-elf/bsp/gr716/leon3/libbcc.a(write.c.o)
 .comment       0x0000000000000019       0x1a /home/fsw/rep/tasa/lib/bcc-2.2.3-gcc/bin/../sparc-gaisler-elf/bsp/gr716/leon3/libbcc.a(con_apbuart.c.o)
 .comment       0x0000000000000019       0x1a /home/fsw/rep/tasa/lib/bcc-2.2.3-gcc/bin/../lib/gcc/sparc-gaisler-elf/10.2.0/leon3/crtend.o

.gnu.attributes
                0x0000000000000000       0x10
 .gnu.attributes
                0x0000000000000000       0x10 /home/fsw/rep/tasa/lib/bcc-2.2.3-gcc/bin/../sparc-gaisler-elf/bsp/gr716/leon3/libbcc.a(bsp_timer_init.c.o)
 .gnu.attributes
                0x0000000000000010       0x10 /home/fsw/rep/tasa/lib/bcc-2.2.3-gcc/bin/../sparc-gaisler-elf/bsp/gr716/leon3/libbcc.a(bsp_con_init.c.o)
 .gnu.attributes
                0x0000000000000020       0x10 /home/fsw/rep/tasa/lib/bcc-2.2.3-gcc/bin/../lib/gcc/sparc-gaisler-elf/10.2.0/../../../../sparc-gaisler-elf/lib/leon3/libc_nano.a(lib_a-nano-vfprintf_float.o)
 .gnu.attributes
                0x0000000000000030       0x10 /home/fsw/rep/tasa/lib/bcc-2.2.3-gcc/bin/../lib/gcc/sparc-gaisler-elf/10.2.0/../../../../sparc-gaisler-elf/lib/leon3/libc_nano.a(lib_a-nano-vfprintf_i.o)
 .gnu.attributes
                0x0000000000000040       0x10 /home/fsw/rep/tasa/lib/bcc-2.2.3-gcc/bin/../lib/gcc/sparc-gaisler-elf/10.2.0/../../../../sparc-gaisler-elf/lib/leon3/libc_nano.a(lib_a-dtoa.o)
 .gnu.attributes
                0x0000000000000050       0x10 /home/fsw/rep/tasa/lib/bcc-2.2.3-gcc/bin/../lib/gcc/sparc-gaisler-elf/10.2.0/../../../../sparc-gaisler-elf/lib/leon3/libc_nano.a(lib_a-findfp.o)
 .gnu.attributes
                0x0000000000000060       0x10 /home/fsw/rep/tasa/lib/bcc-2.2.3-gcc/bin/../lib/gcc/sparc-gaisler-elf/10.2.0/../../../../sparc-gaisler-elf/lib/leon3/libc_nano.a(lib_a-mprec.o)
 .gnu.attributes
                0x0000000000000070       0x10 /home/fsw/rep/tasa/lib/bcc-2.2.3-gcc/bin/../lib/gcc/sparc-gaisler-elf/10.2.0/../../../../sparc-gaisler-elf/lib/leon3/libc_nano.a(lib_a-nano-callocr.o)
 .gnu.attributes
                0x0000000000000080       0x10 /home/fsw/rep/tasa/lib/bcc-2.2.3-gcc/bin/../lib/gcc/sparc-gaisler-elf/10.2.0/../../../../sparc-gaisler-elf/lib/leon3/libc_nano.a(lib_a-fvwrite.o)

.debug_macinfo
 *(.debug_macinfo)

.debug_weaknames
 *(.debug_weaknames)

.debug_funcnames
 *(.debug_funcnames)

.debug_typenames
 *(.debug_typenames)

.debug_varnames
 *(.debug_varnames)
LOAD /home/fsw/rep/tasa/lib/bcc-2.2.3-gcc/bin/../lib/gcc/sparc-gaisler-elf/10.2.0/leon3/libgcc.a
START GROUP
LOAD /home/fsw/rep/tasa/lib/bcc-2.2.3-gcc/bin/../sparc-gaisler-elf/bsp/gr716/leon3/libbcc.a
LOAD /home/fsw/rep/tasa/lib/bcc-2.2.3-gcc/bin/../lib/gcc/sparc-gaisler-elf/10.2.0/leon3/libatomic.a
LOAD /home/fsw/rep/tasa/lib/bcc-2.2.3-gcc/bin/../lib/gcc/sparc-gaisler-elf/10.2.0/../../../../sparc-gaisler-elf/lib/leon3/libc_nano.a
END GROUP
LOAD /home/fsw/rep/tasa/lib/bcc-2.2.3-gcc/bin/../lib/gcc/sparc-gaisler-elf/10.2.0/leon3/libgcc.a
LOAD /home/fsw/rep/tasa/lib/bcc-2.2.3-gcc/bin/../lib/gcc/sparc-gaisler-elf/10.2.0/leon3/crtend.o
LOAD /home/fsw/rep/tasa/lib/bcc-2.2.3-gcc/bin/../lib/gcc/sparc-gaisler-elf/10.2.0/leon3/crtn.o
OUTPUT(bin/gr716/leon3/bcc_amp0.elf elf32-sparc)

.debug_ranges   0x0000000000000000      0x3c8
 .debug_ranges  0x0000000000000000       0x10 /tmp/cct7UO0M.o
 .debug_ranges  0x0000000000000010       0xc8 /home/fsw/rep/tasa/lib/bcc-2.2.3-gcc/bin/../lib/gcc/sparc-gaisler-elf/10.2.0/../../../../sparc-gaisler-elf/lib/leon3/libc_nano.a(lib_a-nano-vfprintf_float.o)
 .debug_ranges  0x00000000000000d8       0x78 /home/fsw/rep/tasa/lib/bcc-2.2.3-gcc/bin/../lib/gcc/sparc-gaisler-elf/10.2.0/../../../../sparc-gaisler-elf/lib/leon3/libc_nano.a(lib_a-nano-vfprintf_i.o)
 .debug_ranges  0x0000000000000150       0x58 /home/fsw/rep/tasa/lib/bcc-2.2.3-gcc/bin/../lib/gcc/sparc-gaisler-elf/10.2.0/../../../../sparc-gaisler-elf/lib/leon3/libc_nano.a(lib_a-puts.o)
 .debug_ranges  0x00000000000001a8       0x18 /home/fsw/rep/tasa/lib/bcc-2.2.3-gcc/bin/../lib/gcc/sparc-gaisler-elf/10.2.0/../../../../sparc-gaisler-elf/lib/leon3/libc_nano.a(lib_a-wbuf.o)
 .debug_ranges  0x00000000000001c0       0x18 /home/fsw/rep/tasa/lib/bcc-2.2.3-gcc/bin/../lib/gcc/sparc-gaisler-elf/10.2.0/../../../../sparc-gaisler-elf/lib/leon3/libc_nano.a(lib_a-wsetup.o)
 .debug_ranges  0x00000000000001d8       0x38 /home/fsw/rep/tasa/lib/bcc-2.2.3-gcc/bin/../lib/gcc/sparc-gaisler-elf/10.2.0/../../../../sparc-gaisler-elf/lib/leon3/libc_nano.a(lib_a-__call_atexit.o)
 .debug_ranges  0x0000000000000210       0x58 /home/fsw/rep/tasa/lib/bcc-2.2.3-gcc/bin/../lib/gcc/sparc-gaisler-elf/10.2.0/../../../../sparc-gaisler-elf/lib/leon3/libc_nano.a(lib_a-fflush.o)
 .debug_ranges  0x0000000000000268       0x10 /home/fsw/rep/tasa/lib/bcc-2.2.3-gcc/bin/../lib/gcc/sparc-gaisler-elf/10.2.0/../../../../sparc-gaisler-elf/lib/leon3/libc_nano.a(lib_a-localeconv.o)
 .debug_ranges  0x0000000000000278       0x18 /home/fsw/rep/tasa/lib/bcc-2.2.3-gcc/bin/../lib/gcc/sparc-gaisler-elf/10.2.0/../../../../sparc-gaisler-elf/lib/leon3/libc_nano.a(lib_a-makebuf.o)
 .debug_ranges  0x0000000000000290       0x58 /home/fsw/rep/tasa/lib/bcc-2.2.3-gcc/bin/../lib/gcc/sparc-gaisler-elf/10.2.0/../../../../sparc-gaisler-elf/lib/leon3/libc_nano.a(lib_a-nano-mallocr.o)
 .debug_ranges  0x00000000000002e8       0x28 /home/fsw/rep/tasa/lib/bcc-2.2.3-gcc/bin/../lib/gcc/sparc-gaisler-elf/10.2.0/../../../../sparc-gaisler-elf/lib/leon3/libc_nano.a(lib_a-nano-vfprintf.o)
 .debug_ranges  0x0000000000000310       0x30 /home/fsw/rep/tasa/lib/bcc-2.2.3-gcc/bin/../lib/gcc/sparc-gaisler-elf/10.2.0/../../../../sparc-gaisler-elf/lib/leon3/libc_nano.a(lib_a-putc.o)
 .debug_ranges  0x0000000000000340       0x20 /home/fsw/rep/tasa/lib/bcc-2.2.3-gcc/bin/../lib/gcc/sparc-gaisler-elf/10.2.0/../../../../sparc-gaisler-elf/lib/leon3/libc_nano.a(lib_a-fvwrite.o)
 .debug_ranges  0x0000000000000360       0x38 /home/fsw/rep/tasa/lib/bcc-2.2.3-gcc/bin/../lib/gcc/sparc-gaisler-elf/10.2.0/../../../../sparc-gaisler-elf/lib/leon3/libc_nano.a(lib_a-reent.o)
 .debug_ranges  0x0000000000000398       0x18 /home/fsw/rep/tasa/lib/bcc-2.2.3-gcc/bin/../sparc-gaisler-elf/bsp/gr716/leon3/libbcc.a(read.c.o)
 .debug_ranges  0x00000000000003b0       0x18 /home/fsw/rep/tasa/lib/bcc-2.2.3-gcc/bin/../sparc-gaisler-elf/bsp/gr716/leon3/libbcc.a(write.c.o)
