Archive member included to satisfy reference by file (symbol)

/home/fsw/rep/tasa/lib/bcc-2.2.3-gcc/bin/../sparc-gaisler-elf/bsp/leon3/leon3v7/soft/libbcc.a(reset_trap_mvt.S.o)
                              /home/fsw/rep/tasa/lib/bcc-2.2.3-gcc/bin/../sparc-gaisler-elf/bsp/leon3/leon3v7/soft/trap_table_mvt.S.o (__bcc_trap_reset_mvt)
/home/fsw/rep/tasa/lib/bcc-2.2.3-gcc/bin/../sparc-gaisler-elf/bsp/leon3/leon3v7/soft/libbcc.a(window_trap.S.o)
                              /home/fsw/rep/tasa/lib/bcc-2.2.3-gcc/bin/../sparc-gaisler-elf/bsp/leon3/leon3v7/soft/trap_table_mvt.S.o (__bcc_trap_window_overflow)
/home/fsw/rep/tasa/lib/bcc-2.2.3-gcc/bin/../sparc-gaisler-elf/bsp/leon3/leon3v7/soft/libbcc.a(interrupt_trap.S.o)
                              /home/fsw/rep/tasa/lib/bcc-2.2.3-gcc/bin/../sparc-gaisler-elf/bsp/leon3/leon3v7/soft/trap_table_mvt.S.o (__bcc_trap_interrupt)
/home/fsw/rep/tasa/lib/bcc-2.2.3-gcc/bin/../sparc-gaisler-elf/bsp/leon3/leon3v7/soft/libbcc.a(flush_windows_trap.S.o)
                              /home/fsw/rep/tasa/lib/bcc-2.2.3-gcc/bin/../sparc-gaisler-elf/bsp/leon3/leon3v7/soft/trap_table_mvt.S.o (__bcc_trap_flush_windows)
/home/fsw/rep/tasa/lib/bcc-2.2.3-gcc/bin/../sparc-gaisler-elf/bsp/leon3/leon3v7/soft/libbcc.a(sw_trap_set_pil.S.o)
                              /home/fsw/rep/tasa/lib/bcc-2.2.3-gcc/bin/../sparc-gaisler-elf/bsp/leon3/leon3v7/soft/trap_table_mvt.S.o (__bcc_trap_sw_set_pil)
/home/fsw/rep/tasa/lib/bcc-2.2.3-gcc/bin/../sparc-gaisler-elf/bsp/leon3/leon3v7/soft/libbcc.a(isr.c.o)
                              /home/fsw/rep/tasa/lib/bcc-2.2.3-gcc/bin/../sparc-gaisler-elf/bsp/leon3/leon3v7/soft/libbcc.a(interrupt_trap.S.o) (__bcc_isr_list)
/home/fsw/rep/tasa/lib/bcc-2.2.3-gcc/bin/../sparc-gaisler-elf/bsp/leon3/leon3v7/soft/libbcc.a(int_nest.c.o)
                              /home/fsw/rep/tasa/lib/bcc-2.2.3-gcc/bin/../sparc-gaisler-elf/bsp/leon3/leon3v7/soft/libbcc.a(interrupt_trap.S.o) (__bcc_int_nest)
/home/fsw/rep/tasa/lib/bcc-2.2.3-gcc/bin/../sparc-gaisler-elf/bsp/leon3/leon3v7/soft/libbcc.a(init.S.o)
                              /home/fsw/rep/tasa/lib/bcc-2.2.3-gcc/bin/../sparc-gaisler-elf/bsp/leon3/leon3v7/soft/libbcc.a(reset_trap_mvt.S.o) (__bcc_init40)
/home/fsw/rep/tasa/lib/bcc-2.2.3-gcc/bin/../sparc-gaisler-elf/bsp/leon3/leon3v7/soft/libbcc.a(leon_info.S.o)
                              /home/fsw/rep/tasa/lib/bcc-2.2.3-gcc/bin/../sparc-gaisler-elf/bsp/leon3/leon3v7/soft/crt0.S.o (__bcc_get_leon_info)
/home/fsw/rep/tasa/lib/bcc-2.2.3-gcc/bin/../sparc-gaisler-elf/bsp/leon3/leon3v7/soft/libbcc.a(dwzero.S.o)
                              /home/fsw/rep/tasa/lib/bcc-2.2.3-gcc/bin/../sparc-gaisler-elf/bsp/leon3/leon3v7/soft/crt0.S.o (bcc_dwzero)
/home/fsw/rep/tasa/lib/bcc-2.2.3-gcc/bin/../sparc-gaisler-elf/bsp/leon3/leon3v7/soft/libbcc.a(copy_data.c.o)
                              /home/fsw/rep/tasa/lib/bcc-2.2.3-gcc/bin/../sparc-gaisler-elf/bsp/leon3/leon3v7/soft/crt0.S.o (__bcc_copy_data)
/home/fsw/rep/tasa/lib/bcc-2.2.3-gcc/bin/../sparc-gaisler-elf/bsp/leon3/leon3v7/soft/libbcc.a(argv.c.o)
                              /home/fsw/rep/tasa/lib/bcc-2.2.3-gcc/bin/../sparc-gaisler-elf/bsp/leon3/leon3v7/soft/crt0.S.o (__bcc_argvp)
/home/fsw/rep/tasa/lib/bcc-2.2.3-gcc/bin/../sparc-gaisler-elf/bsp/leon3/leon3v7/soft/libbcc.a(int_irqmp_get_source.c.o)
                              /home/fsw/rep/tasa/lib/bcc-2.2.3-gcc/bin/../sparc-gaisler-elf/bsp/leon3/leon3v7/soft/libbcc.a(interrupt_trap.S.o) (__bcc_int_get_source)
/home/fsw/rep/tasa/lib/bcc-2.2.3-gcc/bin/../sparc-gaisler-elf/bsp/leon3/leon3v7/soft/libbcc.a(int_irqmp_mp.c.o)
                              /tmp/ccK7ILCi.o (bcc_get_cpu_count)
/home/fsw/rep/tasa/lib/bcc-2.2.3-gcc/bin/../sparc-gaisler-elf/bsp/leon3/leon3v7/soft/libbcc.a(int_irqmp_init.c.o)
                              /home/fsw/rep/tasa/lib/bcc-2.2.3-gcc/bin/../sparc-gaisler-elf/bsp/leon3/leon3v7/soft/crt0.S.o (__bcc_int_init)
/home/fsw/rep/tasa/lib/bcc-2.2.3-gcc/bin/../sparc-gaisler-elf/bsp/leon3/leon3v7/soft/libbcc.a(con_apbuart_init.c.o)
                              /home/fsw/rep/tasa/lib/bcc-2.2.3-gcc/bin/../sparc-gaisler-elf/bsp/leon3/leon3v7/soft/crt0.S.o (__bcc_con_init)
/home/fsw/rep/tasa/lib/bcc-2.2.3-gcc/bin/../sparc-gaisler-elf/bsp/leon3/leon3v7/soft/libbcc.a(timer_gptimer_init.c.o)
                              /home/fsw/rep/tasa/lib/bcc-2.2.3-gcc/bin/../sparc-gaisler-elf/bsp/leon3/leon3v7/soft/crt0.S.o (__bcc_timer_init)
/home/fsw/rep/tasa/lib/bcc-2.2.3-gcc/bin/../sparc-gaisler-elf/bsp/leon3/leon3v7/soft/libbcc.a(ambapp.c.o)
                              /home/fsw/rep/tasa/lib/bcc-2.2.3-gcc/bin/../sparc-gaisler-elf/bsp/leon3/leon3v7/soft/libbcc.a(int_irqmp_init.c.o) (ambapp_visit)
/home/fsw/rep/tasa/lib/bcc-2.2.3-gcc/bin/../sparc-gaisler-elf/bsp/leon3/leon3v7/soft/libbcc.a(ambapp_findfirst_fn.c.o)
                              /home/fsw/rep/tasa/lib/bcc-2.2.3-gcc/bin/../sparc-gaisler-elf/bsp/leon3/leon3v7/soft/libbcc.a(int_irqmp_init.c.o) (ambapp_findfirst_fn)
/home/fsw/rep/tasa/lib/bcc-2.2.3-gcc/bin/../sparc-gaisler-elf/bsp/leon3/leon3v7/soft/libbcc.a(int_irqmp_handle.c.o)
                              /home/fsw/rep/tasa/lib/bcc-2.2.3-gcc/bin/../sparc-gaisler-elf/bsp/leon3/leon3v7/soft/libbcc.a(int_irqmp_init.c.o) (__bcc_int_irqmp_nts)
/home/fsw/rep/tasa/lib/bcc-2.2.3-gcc/bin/../sparc-gaisler-elf/bsp/leon3/leon3v7/soft/libbcc.a(con_handle.c.o)
                              /home/fsw/rep/tasa/lib/bcc-2.2.3-gcc/bin/../sparc-gaisler-elf/bsp/leon3/leon3v7/soft/libbcc.a(con_apbuart_init.c.o) (__bcc_con_handle)
/home/fsw/rep/tasa/lib/bcc-2.2.3-gcc/bin/../sparc-gaisler-elf/bsp/leon3/leon3v7/soft/libbcc.a(timer_handle.c.o)
                              /home/fsw/rep/tasa/lib/bcc-2.2.3-gcc/bin/../sparc-gaisler-elf/bsp/leon3/leon3v7/soft/libbcc.a(timer_gptimer_init.c.o) (__bcc_timer_interrupt)
/home/fsw/rep/tasa/lib/bcc-2.2.3-gcc/bin/../lib/gcc/sparc-gaisler-elf/10.2.0/../../../../sparc-gaisler-elf/lib/leon3v7/soft/libc.a(lib_a-atexit.o)
                              /home/fsw/rep/tasa/lib/bcc-2.2.3-gcc/bin/../sparc-gaisler-elf/bsp/leon3/leon3v7/soft/crt0.S.o (atexit)
/home/fsw/rep/tasa/lib/bcc-2.2.3-gcc/bin/../lib/gcc/sparc-gaisler-elf/10.2.0/../../../../sparc-gaisler-elf/lib/leon3v7/soft/libc.a(lib_a-exit.o)
                              /home/fsw/rep/tasa/lib/bcc-2.2.3-gcc/bin/../sparc-gaisler-elf/bsp/leon3/leon3v7/soft/crt0.S.o (exit)
/home/fsw/rep/tasa/lib/bcc-2.2.3-gcc/bin/../lib/gcc/sparc-gaisler-elf/10.2.0/../../../../sparc-gaisler-elf/lib/leon3v7/soft/libc.a(lib_a-impure.o)
                              /home/fsw/rep/tasa/lib/bcc-2.2.3-gcc/bin/../lib/gcc/sparc-gaisler-elf/10.2.0/../../../../sparc-gaisler-elf/lib/leon3v7/soft/libc.a(lib_a-exit.o) (_global_impure_ptr)
/home/fsw/rep/tasa/lib/bcc-2.2.3-gcc/bin/../lib/gcc/sparc-gaisler-elf/10.2.0/../../../../sparc-gaisler-elf/lib/leon3v7/soft/libc.a(lib_a-memcpy.o)
                              /home/fsw/rep/tasa/lib/bcc-2.2.3-gcc/bin/../sparc-gaisler-elf/bsp/leon3/leon3v7/soft/libbcc.a(ambapp_findfirst_fn.c.o) (memcpy)
/home/fsw/rep/tasa/lib/bcc-2.2.3-gcc/bin/../lib/gcc/sparc-gaisler-elf/10.2.0/../../../../sparc-gaisler-elf/lib/leon3v7/soft/libc.a(lib_a-printf.o)
                              /tmp/ccK7ILCi.o (printf)
/home/fsw/rep/tasa/lib/bcc-2.2.3-gcc/bin/../lib/gcc/sparc-gaisler-elf/10.2.0/../../../../sparc-gaisler-elf/lib/leon3v7/soft/libc.a(lib_a-putchar.o)
                              /tmp/ccK7ILCi.o (putchar)
/home/fsw/rep/tasa/lib/bcc-2.2.3-gcc/bin/../lib/gcc/sparc-gaisler-elf/10.2.0/../../../../sparc-gaisler-elf/lib/leon3v7/soft/libc.a(lib_a-puts.o)
                              /tmp/ccK7ILCi.o (puts)
/home/fsw/rep/tasa/lib/bcc-2.2.3-gcc/bin/../lib/gcc/sparc-gaisler-elf/10.2.0/../../../../sparc-gaisler-elf/lib/leon3v7/soft/libc.a(lib_a-strlen.o)
                              /home/fsw/rep/tasa/lib/bcc-2.2.3-gcc/bin/../lib/gcc/sparc-gaisler-elf/10.2.0/../../../../sparc-gaisler-elf/lib/leon3v7/soft/libc.a(lib_a-puts.o) (strlen)
/home/fsw/rep/tasa/lib/bcc-2.2.3-gcc/bin/../lib/gcc/sparc-gaisler-elf/10.2.0/../../../../sparc-gaisler-elf/lib/leon3v7/soft/libc.a(lib_a-vfprintf.o)
                              /home/fsw/rep/tasa/lib/bcc-2.2.3-gcc/bin/../lib/gcc/sparc-gaisler-elf/10.2.0/../../../../sparc-gaisler-elf/lib/leon3v7/soft/libc.a(lib_a-printf.o) (_vfprintf_r)
/home/fsw/rep/tasa/lib/bcc-2.2.3-gcc/bin/../lib/gcc/sparc-gaisler-elf/10.2.0/../../../../sparc-gaisler-elf/lib/leon3v7/soft/libc.a(lib_a-wsetup.o)
                              /home/fsw/rep/tasa/lib/bcc-2.2.3-gcc/bin/../lib/gcc/sparc-gaisler-elf/10.2.0/../../../../sparc-gaisler-elf/lib/leon3v7/soft/libc.a(lib_a-vfprintf.o) (__swsetup_r)
/home/fsw/rep/tasa/lib/bcc-2.2.3-gcc/bin/../lib/gcc/sparc-gaisler-elf/10.2.0/../../../../sparc-gaisler-elf/lib/leon3v7/soft/libc.a(lib_a-__atexit.o)
                              /home/fsw/rep/tasa/lib/bcc-2.2.3-gcc/bin/../lib/gcc/sparc-gaisler-elf/10.2.0/../../../../sparc-gaisler-elf/lib/leon3v7/soft/libc.a(lib_a-atexit.o) (__register_exitproc)
/home/fsw/rep/tasa/lib/bcc-2.2.3-gcc/bin/../lib/gcc/sparc-gaisler-elf/10.2.0/../../../../sparc-gaisler-elf/lib/leon3v7/soft/libc.a(lib_a-__call_atexit.o)
                              /home/fsw/rep/tasa/lib/bcc-2.2.3-gcc/bin/../lib/gcc/sparc-gaisler-elf/10.2.0/../../../../sparc-gaisler-elf/lib/leon3v7/soft/libc.a(lib_a-exit.o) (__call_exitprocs)
/home/fsw/rep/tasa/lib/bcc-2.2.3-gcc/bin/../lib/gcc/sparc-gaisler-elf/10.2.0/../../../../sparc-gaisler-elf/lib/leon3v7/soft/libc.a(lib_a-dtoa.o)
                              /home/fsw/rep/tasa/lib/bcc-2.2.3-gcc/bin/../lib/gcc/sparc-gaisler-elf/10.2.0/../../../../sparc-gaisler-elf/lib/leon3v7/soft/libc.a(lib_a-vfprintf.o) (_dtoa_r)
/home/fsw/rep/tasa/lib/bcc-2.2.3-gcc/bin/../lib/gcc/sparc-gaisler-elf/10.2.0/../../../../sparc-gaisler-elf/lib/leon3v7/soft/libc.a(lib_a-fflush.o)
                              /home/fsw/rep/tasa/lib/bcc-2.2.3-gcc/bin/../lib/gcc/sparc-gaisler-elf/10.2.0/../../../../sparc-gaisler-elf/lib/leon3v7/soft/libc.a(lib_a-vfprintf.o) (_fflush_r)
/home/fsw/rep/tasa/lib/bcc-2.2.3-gcc/bin/../lib/gcc/sparc-gaisler-elf/10.2.0/../../../../sparc-gaisler-elf/lib/leon3v7/soft/libc.a(lib_a-findfp.o)
                              /home/fsw/rep/tasa/lib/bcc-2.2.3-gcc/bin/../lib/gcc/sparc-gaisler-elf/10.2.0/../../../../sparc-gaisler-elf/lib/leon3v7/soft/libc.a(lib_a-printf.o) (__sinit)
/home/fsw/rep/tasa/lib/bcc-2.2.3-gcc/bin/../lib/gcc/sparc-gaisler-elf/10.2.0/../../../../sparc-gaisler-elf/lib/leon3v7/soft/libc.a(lib_a-freer.o)
                              /home/fsw/rep/tasa/lib/bcc-2.2.3-gcc/bin/../lib/gcc/sparc-gaisler-elf/10.2.0/../../../../sparc-gaisler-elf/lib/leon3v7/soft/libc.a(lib_a-vfprintf.o) (_free_r)
/home/fsw/rep/tasa/lib/bcc-2.2.3-gcc/bin/../lib/gcc/sparc-gaisler-elf/10.2.0/../../../../sparc-gaisler-elf/lib/leon3v7/soft/libc.a(lib_a-fvwrite.o)
                              /home/fsw/rep/tasa/lib/bcc-2.2.3-gcc/bin/../lib/gcc/sparc-gaisler-elf/10.2.0/../../../../sparc-gaisler-elf/lib/leon3v7/soft/libc.a(lib_a-puts.o) (__sfvwrite_r)
/home/fsw/rep/tasa/lib/bcc-2.2.3-gcc/bin/../lib/gcc/sparc-gaisler-elf/10.2.0/../../../../sparc-gaisler-elf/lib/leon3v7/soft/libc.a(lib_a-fwalk.o)
                              /home/fsw/rep/tasa/lib/bcc-2.2.3-gcc/bin/../lib/gcc/sparc-gaisler-elf/10.2.0/../../../../sparc-gaisler-elf/lib/leon3v7/soft/libc.a(lib_a-fflush.o) (_fwalk_reent)
/home/fsw/rep/tasa/lib/bcc-2.2.3-gcc/bin/../lib/gcc/sparc-gaisler-elf/10.2.0/../../../../sparc-gaisler-elf/lib/leon3v7/soft/libc.a(lib_a-localeconv.o)
                              /home/fsw/rep/tasa/lib/bcc-2.2.3-gcc/bin/../lib/gcc/sparc-gaisler-elf/10.2.0/../../../../sparc-gaisler-elf/lib/leon3v7/soft/libc.a(lib_a-vfprintf.o) (_localeconv_r)
/home/fsw/rep/tasa/lib/bcc-2.2.3-gcc/bin/../lib/gcc/sparc-gaisler-elf/10.2.0/../../../../sparc-gaisler-elf/lib/leon3v7/soft/libc.a(lib_a-makebuf.o)
                              /home/fsw/rep/tasa/lib/bcc-2.2.3-gcc/bin/../lib/gcc/sparc-gaisler-elf/10.2.0/../../../../sparc-gaisler-elf/lib/leon3v7/soft/libc.a(lib_a-wsetup.o) (__smakebuf_r)
/home/fsw/rep/tasa/lib/bcc-2.2.3-gcc/bin/../lib/gcc/sparc-gaisler-elf/10.2.0/../../../../sparc-gaisler-elf/lib/leon3v7/soft/libc.a(lib_a-malloc.o)
                              /home/fsw/rep/tasa/lib/bcc-2.2.3-gcc/bin/../lib/gcc/sparc-gaisler-elf/10.2.0/../../../../sparc-gaisler-elf/lib/leon3v7/soft/libc.a(lib_a-dtoa.o) (malloc)
/home/fsw/rep/tasa/lib/bcc-2.2.3-gcc/bin/../lib/gcc/sparc-gaisler-elf/10.2.0/../../../../sparc-gaisler-elf/lib/leon3v7/soft/libc.a(lib_a-mallocr.o)
                              /home/fsw/rep/tasa/lib/bcc-2.2.3-gcc/bin/../lib/gcc/sparc-gaisler-elf/10.2.0/../../../../sparc-gaisler-elf/lib/leon3v7/soft/libc.a(lib_a-vfprintf.o) (_malloc_r)
/home/fsw/rep/tasa/lib/bcc-2.2.3-gcc/bin/../lib/gcc/sparc-gaisler-elf/10.2.0/../../../../sparc-gaisler-elf/lib/leon3v7/soft/libc.a(lib_a-memchr.o)
                              /home/fsw/rep/tasa/lib/bcc-2.2.3-gcc/bin/../lib/gcc/sparc-gaisler-elf/10.2.0/../../../../sparc-gaisler-elf/lib/leon3v7/soft/libc.a(lib_a-vfprintf.o) (memchr)
/home/fsw/rep/tasa/lib/bcc-2.2.3-gcc/bin/../lib/gcc/sparc-gaisler-elf/10.2.0/../../../../sparc-gaisler-elf/lib/leon3v7/soft/libc.a(lib_a-memmove.o)
                              /home/fsw/rep/tasa/lib/bcc-2.2.3-gcc/bin/../lib/gcc/sparc-gaisler-elf/10.2.0/../../../../sparc-gaisler-elf/lib/leon3v7/soft/libc.a(lib_a-fvwrite.o) (memmove)
/home/fsw/rep/tasa/lib/bcc-2.2.3-gcc/bin/../lib/gcc/sparc-gaisler-elf/10.2.0/../../../../sparc-gaisler-elf/lib/leon3v7/soft/libc.a(lib_a-memset.o)
                              /home/fsw/rep/tasa/lib/bcc-2.2.3-gcc/bin/../lib/gcc/sparc-gaisler-elf/10.2.0/../../../../sparc-gaisler-elf/lib/leon3v7/soft/libc.a(lib_a-findfp.o) (memset)
/home/fsw/rep/tasa/lib/bcc-2.2.3-gcc/bin/../lib/gcc/sparc-gaisler-elf/10.2.0/../../../../sparc-gaisler-elf/lib/leon3v7/soft/libc.a(lib_a-mlock.o)
                              /home/fsw/rep/tasa/lib/bcc-2.2.3-gcc/bin/../lib/gcc/sparc-gaisler-elf/10.2.0/../../../../sparc-gaisler-elf/lib/leon3v7/soft/libc.a(lib_a-freer.o) (__malloc_lock)
/home/fsw/rep/tasa/lib/bcc-2.2.3-gcc/bin/../lib/gcc/sparc-gaisler-elf/10.2.0/../../../../sparc-gaisler-elf/lib/leon3v7/soft/libc.a(lib_a-mprec.o)
                              /home/fsw/rep/tasa/lib/bcc-2.2.3-gcc/bin/../lib/gcc/sparc-gaisler-elf/10.2.0/../../../../sparc-gaisler-elf/lib/leon3v7/soft/libc.a(lib_a-dtoa.o) (_Balloc)
/home/fsw/rep/tasa/lib/bcc-2.2.3-gcc/bin/../lib/gcc/sparc-gaisler-elf/10.2.0/../../../../sparc-gaisler-elf/lib/leon3v7/soft/libc.a(lib_a-putc.o)
                              /home/fsw/rep/tasa/lib/bcc-2.2.3-gcc/bin/../lib/gcc/sparc-gaisler-elf/10.2.0/../../../../sparc-gaisler-elf/lib/leon3v7/soft/libc.a(lib_a-putchar.o) (_putc_r)
/home/fsw/rep/tasa/lib/bcc-2.2.3-gcc/bin/../lib/gcc/sparc-gaisler-elf/10.2.0/../../../../sparc-gaisler-elf/lib/leon3v7/soft/libc.a(lib_a-reallocr.o)
                              /home/fsw/rep/tasa/lib/bcc-2.2.3-gcc/bin/../lib/gcc/sparc-gaisler-elf/10.2.0/../../../../sparc-gaisler-elf/lib/leon3v7/soft/libc.a(lib_a-fvwrite.o) (_realloc_r)
/home/fsw/rep/tasa/lib/bcc-2.2.3-gcc/bin/../lib/gcc/sparc-gaisler-elf/10.2.0/../../../../sparc-gaisler-elf/lib/leon3v7/soft/libc.a(lib_a-s_frexp.o)
                              /home/fsw/rep/tasa/lib/bcc-2.2.3-gcc/bin/../lib/gcc/sparc-gaisler-elf/10.2.0/../../../../sparc-gaisler-elf/lib/leon3v7/soft/libc.a(lib_a-vfprintf.o) (frexp)
/home/fsw/rep/tasa/lib/bcc-2.2.3-gcc/bin/../lib/gcc/sparc-gaisler-elf/10.2.0/../../../../sparc-gaisler-elf/lib/leon3v7/soft/libc.a(lib_a-sbrkr.o)
                              /home/fsw/rep/tasa/lib/bcc-2.2.3-gcc/bin/../lib/gcc/sparc-gaisler-elf/10.2.0/../../../../sparc-gaisler-elf/lib/leon3v7/soft/libc.a(lib_a-freer.o) (_sbrk_r)
/home/fsw/rep/tasa/lib/bcc-2.2.3-gcc/bin/../lib/gcc/sparc-gaisler-elf/10.2.0/../../../../sparc-gaisler-elf/lib/leon3v7/soft/libc.a(lib_a-stdio.o)
                              /home/fsw/rep/tasa/lib/bcc-2.2.3-gcc/bin/../lib/gcc/sparc-gaisler-elf/10.2.0/../../../../sparc-gaisler-elf/lib/leon3v7/soft/libc.a(lib_a-findfp.o) (__sread)
/home/fsw/rep/tasa/lib/bcc-2.2.3-gcc/bin/../lib/gcc/sparc-gaisler-elf/10.2.0/../../../../sparc-gaisler-elf/lib/leon3v7/soft/libc.a(lib_a-strncpy.o)
                              /home/fsw/rep/tasa/lib/bcc-2.2.3-gcc/bin/../lib/gcc/sparc-gaisler-elf/10.2.0/../../../../sparc-gaisler-elf/lib/leon3v7/soft/libc.a(lib_a-vfprintf.o) (strncpy)
/home/fsw/rep/tasa/lib/bcc-2.2.3-gcc/bin/../lib/gcc/sparc-gaisler-elf/10.2.0/../../../../sparc-gaisler-elf/lib/leon3v7/soft/libc.a(lib_a-vfiprintf.o)
                              /home/fsw/rep/tasa/lib/bcc-2.2.3-gcc/bin/../lib/gcc/sparc-gaisler-elf/10.2.0/../../../../sparc-gaisler-elf/lib/leon3v7/soft/libc.a(lib_a-vfprintf.o) (__sprint_r)
/home/fsw/rep/tasa/lib/bcc-2.2.3-gcc/bin/../lib/gcc/sparc-gaisler-elf/10.2.0/../../../../sparc-gaisler-elf/lib/leon3v7/soft/libc.a(lib_a-wbuf.o)
                              /home/fsw/rep/tasa/lib/bcc-2.2.3-gcc/bin/../lib/gcc/sparc-gaisler-elf/10.2.0/../../../../sparc-gaisler-elf/lib/leon3v7/soft/libc.a(lib_a-putc.o) (__swbuf_r)
/home/fsw/rep/tasa/lib/bcc-2.2.3-gcc/bin/../lib/gcc/sparc-gaisler-elf/10.2.0/../../../../sparc-gaisler-elf/lib/leon3v7/soft/libc.a(lib_a-writer.o)
                              /home/fsw/rep/tasa/lib/bcc-2.2.3-gcc/bin/../lib/gcc/sparc-gaisler-elf/10.2.0/../../../../sparc-gaisler-elf/lib/leon3v7/soft/libc.a(lib_a-stdio.o) (_write_r)
/home/fsw/rep/tasa/lib/bcc-2.2.3-gcc/bin/../lib/gcc/sparc-gaisler-elf/10.2.0/../../../../sparc-gaisler-elf/lib/leon3v7/soft/libc.a(lib_a-callocr.o)
                              /home/fsw/rep/tasa/lib/bcc-2.2.3-gcc/bin/../lib/gcc/sparc-gaisler-elf/10.2.0/../../../../sparc-gaisler-elf/lib/leon3v7/soft/libc.a(lib_a-mprec.o) (_calloc_r)
/home/fsw/rep/tasa/lib/bcc-2.2.3-gcc/bin/../lib/gcc/sparc-gaisler-elf/10.2.0/../../../../sparc-gaisler-elf/lib/leon3v7/soft/libc.a(lib_a-closer.o)
                              /home/fsw/rep/tasa/lib/bcc-2.2.3-gcc/bin/../lib/gcc/sparc-gaisler-elf/10.2.0/../../../../sparc-gaisler-elf/lib/leon3v7/soft/libc.a(lib_a-stdio.o) (_close_r)
/home/fsw/rep/tasa/lib/bcc-2.2.3-gcc/bin/../lib/gcc/sparc-gaisler-elf/10.2.0/../../../../sparc-gaisler-elf/lib/leon3v7/soft/libc.a(lib_a-fclose.o)
                              /home/fsw/rep/tasa/lib/bcc-2.2.3-gcc/bin/../lib/gcc/sparc-gaisler-elf/10.2.0/../../../../sparc-gaisler-elf/lib/leon3v7/soft/libc.a(lib_a-findfp.o) (_fclose_r)
/home/fsw/rep/tasa/lib/bcc-2.2.3-gcc/bin/../lib/gcc/sparc-gaisler-elf/10.2.0/../../../../sparc-gaisler-elf/lib/leon3v7/soft/libc.a(lib_a-fputwc.o)
                              /home/fsw/rep/tasa/lib/bcc-2.2.3-gcc/bin/../lib/gcc/sparc-gaisler-elf/10.2.0/../../../../sparc-gaisler-elf/lib/leon3v7/soft/libc.a(lib_a-vfiprintf.o) (_fputwc_r)
/home/fsw/rep/tasa/lib/bcc-2.2.3-gcc/bin/../lib/gcc/sparc-gaisler-elf/10.2.0/../../../../sparc-gaisler-elf/lib/leon3v7/soft/libc.a(lib_a-fstatr.o)
                              /home/fsw/rep/tasa/lib/bcc-2.2.3-gcc/bin/../lib/gcc/sparc-gaisler-elf/10.2.0/../../../../sparc-gaisler-elf/lib/leon3v7/soft/libc.a(lib_a-makebuf.o) (_fstat_r)
/home/fsw/rep/tasa/lib/bcc-2.2.3-gcc/bin/../lib/gcc/sparc-gaisler-elf/10.2.0/../../../../sparc-gaisler-elf/lib/leon3v7/soft/libc.a(lib_a-isattyr.o)
                              /home/fsw/rep/tasa/lib/bcc-2.2.3-gcc/bin/../lib/gcc/sparc-gaisler-elf/10.2.0/../../../../sparc-gaisler-elf/lib/leon3v7/soft/libc.a(lib_a-makebuf.o) (_isatty_r)
/home/fsw/rep/tasa/lib/bcc-2.2.3-gcc/bin/../lib/gcc/sparc-gaisler-elf/10.2.0/../../../../sparc-gaisler-elf/lib/leon3v7/soft/libc.a(lib_a-locale.o)
                              /home/fsw/rep/tasa/lib/bcc-2.2.3-gcc/bin/../lib/gcc/sparc-gaisler-elf/10.2.0/../../../../sparc-gaisler-elf/lib/leon3v7/soft/libc.a(lib_a-fputwc.o) (__locale_mb_cur_max)
/home/fsw/rep/tasa/lib/bcc-2.2.3-gcc/bin/../lib/gcc/sparc-gaisler-elf/10.2.0/../../../../sparc-gaisler-elf/lib/leon3v7/soft/libc.a(lib_a-lseekr.o)
                              /home/fsw/rep/tasa/lib/bcc-2.2.3-gcc/bin/../lib/gcc/sparc-gaisler-elf/10.2.0/../../../../sparc-gaisler-elf/lib/leon3v7/soft/libc.a(lib_a-stdio.o) (_lseek_r)
/home/fsw/rep/tasa/lib/bcc-2.2.3-gcc/bin/../lib/gcc/sparc-gaisler-elf/10.2.0/../../../../sparc-gaisler-elf/lib/leon3v7/soft/libc.a(lib_a-mbtowc_r.o)
                              /home/fsw/rep/tasa/lib/bcc-2.2.3-gcc/bin/../lib/gcc/sparc-gaisler-elf/10.2.0/../../../../sparc-gaisler-elf/lib/leon3v7/soft/libc.a(lib_a-locale.o) (__ascii_mbtowc)
/home/fsw/rep/tasa/lib/bcc-2.2.3-gcc/bin/../lib/gcc/sparc-gaisler-elf/10.2.0/../../../../sparc-gaisler-elf/lib/leon3v7/soft/libc.a(lib_a-readr.o)
                              /home/fsw/rep/tasa/lib/bcc-2.2.3-gcc/bin/../lib/gcc/sparc-gaisler-elf/10.2.0/../../../../sparc-gaisler-elf/lib/leon3v7/soft/libc.a(lib_a-stdio.o) (_read_r)
/home/fsw/rep/tasa/lib/bcc-2.2.3-gcc/bin/../lib/gcc/sparc-gaisler-elf/10.2.0/../../../../sparc-gaisler-elf/lib/leon3v7/soft/libc.a(lib_a-reent.o)
                              /home/fsw/rep/tasa/lib/bcc-2.2.3-gcc/bin/../lib/gcc/sparc-gaisler-elf/10.2.0/../../../../sparc-gaisler-elf/lib/leon3v7/soft/libc.a(lib_a-sbrkr.o) (errno)
/home/fsw/rep/tasa/lib/bcc-2.2.3-gcc/bin/../lib/gcc/sparc-gaisler-elf/10.2.0/../../../../sparc-gaisler-elf/lib/leon3v7/soft/libc.a(lib_a-strcmp.o)
                              /home/fsw/rep/tasa/lib/bcc-2.2.3-gcc/bin/../lib/gcc/sparc-gaisler-elf/10.2.0/../../../../sparc-gaisler-elf/lib/leon3v7/soft/libc.a(lib_a-locale.o) (strcmp)
/home/fsw/rep/tasa/lib/bcc-2.2.3-gcc/bin/../lib/gcc/sparc-gaisler-elf/10.2.0/../../../../sparc-gaisler-elf/lib/leon3v7/soft/libc.a(lib_a-wcrtomb.o)
                              /home/fsw/rep/tasa/lib/bcc-2.2.3-gcc/bin/../lib/gcc/sparc-gaisler-elf/10.2.0/../../../../sparc-gaisler-elf/lib/leon3v7/soft/libc.a(lib_a-fputwc.o) (_wcrtomb_r)
/home/fsw/rep/tasa/lib/bcc-2.2.3-gcc/bin/../lib/gcc/sparc-gaisler-elf/10.2.0/../../../../sparc-gaisler-elf/lib/leon3v7/soft/libc.a(lib_a-wctomb_r.o)
                              /home/fsw/rep/tasa/lib/bcc-2.2.3-gcc/bin/../lib/gcc/sparc-gaisler-elf/10.2.0/../../../../sparc-gaisler-elf/lib/leon3v7/soft/libc.a(lib_a-locale.o) (__ascii_wctomb)
/home/fsw/rep/tasa/lib/bcc-2.2.3-gcc/bin/../lib/gcc/sparc-gaisler-elf/10.2.0/../../../../sparc-gaisler-elf/lib/leon3v7/soft/libc.a(lib_a-ctype_.o)
                              /home/fsw/rep/tasa/lib/bcc-2.2.3-gcc/bin/../lib/gcc/sparc-gaisler-elf/10.2.0/../../../../sparc-gaisler-elf/lib/leon3v7/soft/libc.a(lib_a-locale.o) (_ctype_b)
/home/fsw/rep/tasa/lib/bcc-2.2.3-gcc/bin/../sparc-gaisler-elf/bsp/leon3/leon3v7/soft/libbcc.a(_exit.S.o)
                              /home/fsw/rep/tasa/lib/bcc-2.2.3-gcc/bin/../lib/gcc/sparc-gaisler-elf/10.2.0/../../../../sparc-gaisler-elf/lib/leon3v7/soft/libc.a(lib_a-exit.o) (_exit)
/home/fsw/rep/tasa/lib/bcc-2.2.3-gcc/bin/../sparc-gaisler-elf/bsp/leon3/leon3v7/soft/libbcc.a(read.c.o)
                              /home/fsw/rep/tasa/lib/bcc-2.2.3-gcc/bin/../lib/gcc/sparc-gaisler-elf/10.2.0/../../../../sparc-gaisler-elf/lib/leon3v7/soft/libc.a(lib_a-readr.o) (read)
/home/fsw/rep/tasa/lib/bcc-2.2.3-gcc/bin/../sparc-gaisler-elf/bsp/leon3/leon3v7/soft/libbcc.a(sbrk.c.o)
                              /home/fsw/rep/tasa/lib/bcc-2.2.3-gcc/bin/../lib/gcc/sparc-gaisler-elf/10.2.0/../../../../sparc-gaisler-elf/lib/leon3v7/soft/libc.a(lib_a-sbrkr.o) (sbrk)
/home/fsw/rep/tasa/lib/bcc-2.2.3-gcc/bin/../sparc-gaisler-elf/bsp/leon3/leon3v7/soft/libbcc.a(heap.c.o)
                              /home/fsw/rep/tasa/lib/bcc-2.2.3-gcc/bin/../sparc-gaisler-elf/bsp/leon3/leon3v7/soft/libbcc.a(sbrk.c.o) (__bcc_heap_max)
/home/fsw/rep/tasa/lib/bcc-2.2.3-gcc/bin/../sparc-gaisler-elf/bsp/leon3/leon3v7/soft/libbcc.a(write.c.o)
                              /home/fsw/rep/tasa/lib/bcc-2.2.3-gcc/bin/../lib/gcc/sparc-gaisler-elf/10.2.0/../../../../sparc-gaisler-elf/lib/leon3v7/soft/libc.a(lib_a-writer.o) (write)
/home/fsw/rep/tasa/lib/bcc-2.2.3-gcc/bin/../sparc-gaisler-elf/bsp/leon3/leon3v7/soft/libbcc.a(stubs.S.o)
                              /home/fsw/rep/tasa/lib/bcc-2.2.3-gcc/bin/../lib/gcc/sparc-gaisler-elf/10.2.0/../../../../sparc-gaisler-elf/lib/leon3v7/soft/libc.a(lib_a-closer.o) (close)
/home/fsw/rep/tasa/lib/bcc-2.2.3-gcc/bin/../sparc-gaisler-elf/bsp/leon3/leon3v7/soft/libbcc.a(con_apbuart.c.o)
                              /home/fsw/rep/tasa/lib/bcc-2.2.3-gcc/bin/../sparc-gaisler-elf/bsp/leon3/leon3v7/soft/libbcc.a(write.c.o) (__bcc_con_outbyte)
/home/fsw/rep/tasa/lib/bcc-2.2.3-gcc/bin/../lib/gcc/sparc-gaisler-elf/10.2.0/leon3v7/soft/libgcc.a(_mulsi3.o)
                              /home/fsw/rep/tasa/lib/bcc-2.2.3-gcc/bin/../lib/gcc/sparc-gaisler-elf/10.2.0/../../../../sparc-gaisler-elf/lib/leon3v7/soft/libc.a(lib_a-vfprintf.o) (.umul)
/home/fsw/rep/tasa/lib/bcc-2.2.3-gcc/bin/../lib/gcc/sparc-gaisler-elf/10.2.0/leon3v7/soft/libgcc.a(_divsi3.o)
                              /home/fsw/rep/tasa/lib/bcc-2.2.3-gcc/bin/../lib/gcc/sparc-gaisler-elf/10.2.0/../../../../sparc-gaisler-elf/lib/leon3v7/soft/libc.a(lib_a-dtoa.o) (.udiv)
/home/fsw/rep/tasa/lib/bcc-2.2.3-gcc/bin/../lib/gcc/sparc-gaisler-elf/10.2.0/leon3v7/soft/libgcc.a(_modsi3.o)
                              /home/fsw/rep/tasa/lib/bcc-2.2.3-gcc/bin/../lib/gcc/sparc-gaisler-elf/10.2.0/../../../../sparc-gaisler-elf/lib/leon3v7/soft/libc.a(lib_a-vfprintf.o) (.rem)
/home/fsw/rep/tasa/lib/bcc-2.2.3-gcc/bin/../lib/gcc/sparc-gaisler-elf/10.2.0/leon3v7/soft/libgcc.a(_udivdi3.o)
                              /home/fsw/rep/tasa/lib/bcc-2.2.3-gcc/bin/../lib/gcc/sparc-gaisler-elf/10.2.0/../../../../sparc-gaisler-elf/lib/leon3v7/soft/libc.a(lib_a-vfprintf.o) (__udivdi3)
/home/fsw/rep/tasa/lib/bcc-2.2.3-gcc/bin/../lib/gcc/sparc-gaisler-elf/10.2.0/leon3v7/soft/libgcc.a(_umoddi3.o)
                              /home/fsw/rep/tasa/lib/bcc-2.2.3-gcc/bin/../lib/gcc/sparc-gaisler-elf/10.2.0/../../../../sparc-gaisler-elf/lib/leon3v7/soft/libc.a(lib_a-vfprintf.o) (__umoddi3)
/home/fsw/rep/tasa/lib/bcc-2.2.3-gcc/bin/../lib/gcc/sparc-gaisler-elf/10.2.0/leon3v7/soft/libgcc.a(_addsub_df.o)
                              /home/fsw/rep/tasa/lib/bcc-2.2.3-gcc/bin/../lib/gcc/sparc-gaisler-elf/10.2.0/../../../../sparc-gaisler-elf/lib/leon3v7/soft/libc.a(lib_a-dtoa.o) (__adddf3)
/home/fsw/rep/tasa/lib/bcc-2.2.3-gcc/bin/../lib/gcc/sparc-gaisler-elf/10.2.0/leon3v7/soft/libgcc.a(_mul_df.o)
                              /home/fsw/rep/tasa/lib/bcc-2.2.3-gcc/bin/../lib/gcc/sparc-gaisler-elf/10.2.0/../../../../sparc-gaisler-elf/lib/leon3v7/soft/libc.a(lib_a-vfprintf.o) (__muldf3)
/home/fsw/rep/tasa/lib/bcc-2.2.3-gcc/bin/../lib/gcc/sparc-gaisler-elf/10.2.0/leon3v7/soft/libgcc.a(_div_df.o)
                              /home/fsw/rep/tasa/lib/bcc-2.2.3-gcc/bin/../lib/gcc/sparc-gaisler-elf/10.2.0/../../../../sparc-gaisler-elf/lib/leon3v7/soft/libc.a(lib_a-dtoa.o) (__divdf3)
/home/fsw/rep/tasa/lib/bcc-2.2.3-gcc/bin/../lib/gcc/sparc-gaisler-elf/10.2.0/leon3v7/soft/libgcc.a(_eq_df.o)
                              /home/fsw/rep/tasa/lib/bcc-2.2.3-gcc/bin/../lib/gcc/sparc-gaisler-elf/10.2.0/../../../../sparc-gaisler-elf/lib/leon3v7/soft/libc.a(lib_a-vfprintf.o) (__eqdf2)
/home/fsw/rep/tasa/lib/bcc-2.2.3-gcc/bin/../lib/gcc/sparc-gaisler-elf/10.2.0/leon3v7/soft/libgcc.a(_ne_df.o)
                              /home/fsw/rep/tasa/lib/bcc-2.2.3-gcc/bin/../lib/gcc/sparc-gaisler-elf/10.2.0/../../../../sparc-gaisler-elf/lib/leon3v7/soft/libc.a(lib_a-vfprintf.o) (__nedf2)
/home/fsw/rep/tasa/lib/bcc-2.2.3-gcc/bin/../lib/gcc/sparc-gaisler-elf/10.2.0/leon3v7/soft/libgcc.a(_gt_df.o)
                              /home/fsw/rep/tasa/lib/bcc-2.2.3-gcc/bin/../lib/gcc/sparc-gaisler-elf/10.2.0/../../../../sparc-gaisler-elf/lib/leon3v7/soft/libc.a(lib_a-vfprintf.o) (__gtdf2)
/home/fsw/rep/tasa/lib/bcc-2.2.3-gcc/bin/../lib/gcc/sparc-gaisler-elf/10.2.0/leon3v7/soft/libgcc.a(_lt_df.o)
                              /home/fsw/rep/tasa/lib/bcc-2.2.3-gcc/bin/../lib/gcc/sparc-gaisler-elf/10.2.0/../../../../sparc-gaisler-elf/lib/leon3v7/soft/libc.a(lib_a-vfprintf.o) (__ltdf2)
/home/fsw/rep/tasa/lib/bcc-2.2.3-gcc/bin/../lib/gcc/sparc-gaisler-elf/10.2.0/leon3v7/soft/libgcc.a(_le_df.o)
                              /home/fsw/rep/tasa/lib/bcc-2.2.3-gcc/bin/../lib/gcc/sparc-gaisler-elf/10.2.0/../../../../sparc-gaisler-elf/lib/leon3v7/soft/libc.a(lib_a-vfprintf.o) (__ledf2)
/home/fsw/rep/tasa/lib/bcc-2.2.3-gcc/bin/../lib/gcc/sparc-gaisler-elf/10.2.0/leon3v7/soft/libgcc.a(_unord_df.o)
                              /home/fsw/rep/tasa/lib/bcc-2.2.3-gcc/bin/../lib/gcc/sparc-gaisler-elf/10.2.0/../../../../sparc-gaisler-elf/lib/leon3v7/soft/libc.a(lib_a-vfprintf.o) (__unorddf2)
/home/fsw/rep/tasa/lib/bcc-2.2.3-gcc/bin/../lib/gcc/sparc-gaisler-elf/10.2.0/leon3v7/soft/libgcc.a(_si_to_df.o)
                              /home/fsw/rep/tasa/lib/bcc-2.2.3-gcc/bin/../lib/gcc/sparc-gaisler-elf/10.2.0/../../../../sparc-gaisler-elf/lib/leon3v7/soft/libc.a(lib_a-vfprintf.o) (__floatsidf)
/home/fsw/rep/tasa/lib/bcc-2.2.3-gcc/bin/../lib/gcc/sparc-gaisler-elf/10.2.0/leon3v7/soft/libgcc.a(_df_to_si.o)
                              /home/fsw/rep/tasa/lib/bcc-2.2.3-gcc/bin/../lib/gcc/sparc-gaisler-elf/10.2.0/../../../../sparc-gaisler-elf/lib/leon3v7/soft/libc.a(lib_a-vfprintf.o) (__fixdfsi)
/home/fsw/rep/tasa/lib/bcc-2.2.3-gcc/bin/../lib/gcc/sparc-gaisler-elf/10.2.0/leon3v7/soft/libgcc.a(_thenan_df.o)
                              /home/fsw/rep/tasa/lib/bcc-2.2.3-gcc/bin/../lib/gcc/sparc-gaisler-elf/10.2.0/leon3v7/soft/libgcc.a(_addsub_df.o) (__thenan_df)
/home/fsw/rep/tasa/lib/bcc-2.2.3-gcc/bin/../lib/gcc/sparc-gaisler-elf/10.2.0/leon3v7/soft/libgcc.a(_usi_to_df.o)
                              /home/fsw/rep/tasa/lib/bcc-2.2.3-gcc/bin/../lib/gcc/sparc-gaisler-elf/10.2.0/../../../../sparc-gaisler-elf/lib/leon3v7/soft/libc.a(lib_a-dtoa.o) (__floatunsidf)
/home/fsw/rep/tasa/lib/bcc-2.2.3-gcc/bin/../lib/gcc/sparc-gaisler-elf/10.2.0/leon3v7/soft/libgcc.a(_muldi3.o)
                              /home/fsw/rep/tasa/lib/bcc-2.2.3-gcc/bin/../lib/gcc/sparc-gaisler-elf/10.2.0/leon3v7/soft/libgcc.a(_mul_df.o) (__muldi3)
/home/fsw/rep/tasa/lib/bcc-2.2.3-gcc/bin/../lib/gcc/sparc-gaisler-elf/10.2.0/leon3v7/soft/libgcc.a(_clz.o)
                              /home/fsw/rep/tasa/lib/bcc-2.2.3-gcc/bin/../lib/gcc/sparc-gaisler-elf/10.2.0/leon3v7/soft/libgcc.a(_udivdi3.o) (__clz_tab)
/home/fsw/rep/tasa/lib/bcc-2.2.3-gcc/bin/../lib/gcc/sparc-gaisler-elf/10.2.0/leon3v7/soft/libgcc.a(_clzsi2.o)
                              /home/fsw/rep/tasa/lib/bcc-2.2.3-gcc/bin/../lib/gcc/sparc-gaisler-elf/10.2.0/leon3v7/soft/libgcc.a(_si_to_df.o) (__clzsi2)
/home/fsw/rep/tasa/lib/bcc-2.2.3-gcc/bin/../lib/gcc/sparc-gaisler-elf/10.2.0/leon3v7/soft/libgcc.a(_pack_df.o)
                              /home/fsw/rep/tasa/lib/bcc-2.2.3-gcc/bin/../lib/gcc/sparc-gaisler-elf/10.2.0/leon3v7/soft/libgcc.a(_addsub_df.o) (__pack_d)
/home/fsw/rep/tasa/lib/bcc-2.2.3-gcc/bin/../lib/gcc/sparc-gaisler-elf/10.2.0/leon3v7/soft/libgcc.a(_unpack_df.o)
                              /home/fsw/rep/tasa/lib/bcc-2.2.3-gcc/bin/../lib/gcc/sparc-gaisler-elf/10.2.0/leon3v7/soft/libgcc.a(_addsub_df.o) (__unpack_d)
/home/fsw/rep/tasa/lib/bcc-2.2.3-gcc/bin/../lib/gcc/sparc-gaisler-elf/10.2.0/leon3v7/soft/libgcc.a(_fpcmp_parts_df.o)
                              /home/fsw/rep/tasa/lib/bcc-2.2.3-gcc/bin/../lib/gcc/sparc-gaisler-elf/10.2.0/leon3v7/soft/libgcc.a(_eq_df.o) (__fpcmp_parts_d)

Memory Configuration

Name             Origin             Length             Attributes
rom              0x0000000000000000 0x0000000020000000
ram              0x0000000040000000 0x0000000040000000
*default*        0x0000000000000000 0xffffffffffffffff

Linker script and memory map

LOAD /home/fsw/rep/tasa/lib/bcc-2.2.3-gcc/bin/../sparc-gaisler-elf/bsp/leon3/leon3v7/soft/trap_table_mvt.S.o
LOAD /home/fsw/rep/tasa/lib/bcc-2.2.3-gcc/bin/../sparc-gaisler-elf/bsp/leon3/leon3v7/soft/crt0.S.o
LOAD /home/fsw/rep/tasa/lib/bcc-2.2.3-gcc/bin/../lib/gcc/sparc-gaisler-elf/10.2.0/leon3v7/soft/crti.o
LOAD /home/fsw/rep/tasa/lib/bcc-2.2.3-gcc/bin/../lib/gcc/sparc-gaisler-elf/10.2.0/leon3v7/soft/crtbegin.o
LOAD /tmp/ccK7ILCi.o
                0x0000000000000000                PROVIDE (__bcc_cfg_skip_clear_bss = 0x0)

.text           0x0000000040000000    0x10e40
 CREATE_OBJECT_SYMBOLS
                0x0000000040000000                __text_start = .
                0x0000000040000000                . = ALIGN (0x1000)
 *(.text.traptable)
 .text.traptable
                0x0000000040000000     0x1000 /home/fsw/rep/tasa/lib/bcc-2.2.3-gcc/bin/../sparc-gaisler-elf/bsp/leon3/leon3v7/soft/trap_table_mvt.S.o
                0x0000000040000000                __bcc_trap_table
                0x0000000040000000                __bcc_entry_point
 *(.text .text.*)
 .text          0x0000000040001000        0x0 /home/fsw/rep/tasa/lib/bcc-2.2.3-gcc/bin/../sparc-gaisler-elf/bsp/leon3/leon3v7/soft/trap_table_mvt.S.o
 .text          0x0000000040001000       0xc8 /home/fsw/rep/tasa/lib/bcc-2.2.3-gcc/bin/../sparc-gaisler-elf/bsp/leon3/leon3v7/soft/crt0.S.o
                0x0000000040001000                __bcc_crt0
 .text          0x00000000400010c8        0x0 /home/fsw/rep/tasa/lib/bcc-2.2.3-gcc/bin/../lib/gcc/sparc-gaisler-elf/10.2.0/leon3v7/soft/crti.o
 .text          0x00000000400010c8      0x180 /home/fsw/rep/tasa/lib/bcc-2.2.3-gcc/bin/../lib/gcc/sparc-gaisler-elf/10.2.0/leon3v7/soft/crtbegin.o
 .text          0x0000000040001248        0x0 /tmp/ccK7ILCi.o
 .text.startup  0x0000000040001248      0x14c /tmp/ccK7ILCi.o
                0x0000000040001248                main
 .text          0x0000000040001394       0x90 /home/fsw/rep/tasa/lib/bcc-2.2.3-gcc/bin/../sparc-gaisler-elf/bsp/leon3/leon3v7/soft/libbcc.a(reset_trap_mvt.S.o)
                0x0000000040001394                __bcc_trap_reset_mvt
 .text          0x0000000040001424       0xb0 /home/fsw/rep/tasa/lib/bcc-2.2.3-gcc/bin/../sparc-gaisler-elf/bsp/leon3/leon3v7/soft/libbcc.a(window_trap.S.o)
                0x0000000040001424                __bcc_trap_window_overflow
                0x0000000040001474                __bcc_trap_window_underflow
 .text          0x00000000400014d4      0x1b0 /home/fsw/rep/tasa/lib/bcc-2.2.3-gcc/bin/../sparc-gaisler-elf/bsp/leon3/leon3v7/soft/libbcc.a(interrupt_trap.S.o)
                0x00000000400014d4                __bcc_trap_interrupt_svt
                0x00000000400014d8                __bcc_trap_interrupt
 .text          0x0000000040001684       0x88 /home/fsw/rep/tasa/lib/bcc-2.2.3-gcc/bin/../sparc-gaisler-elf/bsp/leon3/leon3v7/soft/libbcc.a(flush_windows_trap.S.o)
                0x0000000040001684                __bcc_trap_flush_windows
 .text          0x000000004000170c       0x2c /home/fsw/rep/tasa/lib/bcc-2.2.3-gcc/bin/../sparc-gaisler-elf/bsp/leon3/leon3v7/soft/libbcc.a(sw_trap_set_pil.S.o)
                0x000000004000170c                __bcc_trap_sw_set_pil
 .text          0x0000000040001738        0x0 /home/fsw/rep/tasa/lib/bcc-2.2.3-gcc/bin/../sparc-gaisler-elf/bsp/leon3/leon3v7/soft/libbcc.a(isr.c.o)
 .text          0x0000000040001738        0x0 /home/fsw/rep/tasa/lib/bcc-2.2.3-gcc/bin/../sparc-gaisler-elf/bsp/leon3/leon3v7/soft/libbcc.a(int_nest.c.o)
 .text          0x0000000040001738        0x8 /home/fsw/rep/tasa/lib/bcc-2.2.3-gcc/bin/../sparc-gaisler-elf/bsp/leon3/leon3v7/soft/libbcc.a(init.S.o)
                0x0000000040001738                __bcc_init50
                0x0000000040001738                __bcc_init40
                0x0000000040001738                __bcc_init70
                0x0000000040001738                __bcc_init60
 .text          0x0000000040001740       0x98 /home/fsw/rep/tasa/lib/bcc-2.2.3-gcc/bin/../sparc-gaisler-elf/bsp/leon3/leon3v7/soft/libbcc.a(leon_info.S.o)
                0x0000000040001740                __bcc_get_leon_info
                0x00000000400017c8                bcc_get_cpuid
 .text          0x00000000400017d8       0x2c /home/fsw/rep/tasa/lib/bcc-2.2.3-gcc/bin/../sparc-gaisler-elf/bsp/leon3/leon3v7/soft/libbcc.a(dwzero.S.o)
                0x00000000400017d8                bcc_dwzero
 .text          0x0000000040001804       0x5c /home/fsw/rep/tasa/lib/bcc-2.2.3-gcc/bin/../sparc-gaisler-elf/bsp/leon3/leon3v7/soft/libbcc.a(copy_data.c.o)
                0x0000000040001804                __bcc_copy_data
 .text          0x0000000040001860        0x0 /home/fsw/rep/tasa/lib/bcc-2.2.3-gcc/bin/../sparc-gaisler-elf/bsp/leon3/leon3v7/soft/libbcc.a(argv.c.o)
 .text          0x0000000040001860       0x48 /home/fsw/rep/tasa/lib/bcc-2.2.3-gcc/bin/../sparc-gaisler-elf/bsp/leon3/leon3v7/soft/libbcc.a(int_irqmp_get_source.c.o)
                0x0000000040001860                __bcc_int_get_source
 .text          0x00000000400018a8       0x9c /home/fsw/rep/tasa/lib/bcc-2.2.3-gcc/bin/../sparc-gaisler-elf/bsp/leon3/leon3v7/soft/libbcc.a(int_irqmp_mp.c.o)
                0x00000000400018a8                bcc_send_interrupt
                0x00000000400018e4                bcc_get_cpu_count
                0x0000000040001910                bcc_start_processor
 .text          0x0000000040001944      0x1b4 /home/fsw/rep/tasa/lib/bcc-2.2.3-gcc/bin/../sparc-gaisler-elf/bsp/leon3/leon3v7/soft/libbcc.a(int_irqmp_init.c.o)
                0x0000000040001944                __bcc_int_init
 .text          0x0000000040001af8       0x50 /home/fsw/rep/tasa/lib/bcc-2.2.3-gcc/bin/../sparc-gaisler-elf/bsp/leon3/leon3v7/soft/libbcc.a(con_apbuart_init.c.o)
                0x0000000040001af8                __bcc_con_init
 .text          0x0000000040001b48       0x6c /home/fsw/rep/tasa/lib/bcc-2.2.3-gcc/bin/../sparc-gaisler-elf/bsp/leon3/leon3v7/soft/libbcc.a(timer_gptimer_init.c.o)
                0x0000000040001b48                __bcc_timer_init
 .text          0x0000000040001bb4      0x724 /home/fsw/rep/tasa/lib/bcc-2.2.3-gcc/bin/../sparc-gaisler-elf/bsp/leon3/leon3v7/soft/libbcc.a(ambapp.c.o)
                0x0000000040001bb4                ambapp_get_ahbinfo
                0x0000000040002220                ambapp_get_apbinfo
                0x00000000400022a4                ambapp_visit
 .text          0x00000000400022d8       0x74 /home/fsw/rep/tasa/lib/bcc-2.2.3-gcc/bin/../sparc-gaisler-elf/bsp/leon3/leon3v7/soft/libbcc.a(ambapp_findfirst_fn.c.o)
                0x00000000400022d8                ambapp_findfirst_fn
 .text          0x000000004000234c        0x0 /home/fsw/rep/tasa/lib/bcc-2.2.3-gcc/bin/../sparc-gaisler-elf/bsp/leon3/leon3v7/soft/libbcc.a(int_irqmp_handle.c.o)
 .text          0x000000004000234c        0x0 /home/fsw/rep/tasa/lib/bcc-2.2.3-gcc/bin/../sparc-gaisler-elf/bsp/leon3/leon3v7/soft/libbcc.a(con_handle.c.o)
 .text          0x000000004000234c        0x0 /home/fsw/rep/tasa/lib/bcc-2.2.3-gcc/bin/../sparc-gaisler-elf/bsp/leon3/leon3v7/soft/libbcc.a(timer_handle.c.o)
 .text          0x000000004000234c       0x1c /home/fsw/rep/tasa/lib/bcc-2.2.3-gcc/bin/../lib/gcc/sparc-gaisler-elf/10.2.0/../../../../sparc-gaisler-elf/lib/leon3v7/soft/libc.a(lib_a-atexit.o)
                0x000000004000234c                atexit
 .text          0x0000000040002368       0x3c /home/fsw/rep/tasa/lib/bcc-2.2.3-gcc/bin/../lib/gcc/sparc-gaisler-elf/10.2.0/../../../../sparc-gaisler-elf/lib/leon3v7/soft/libc.a(lib_a-exit.o)
                0x0000000040002368                exit
 .text          0x00000000400023a4        0x0 /home/fsw/rep/tasa/lib/bcc-2.2.3-gcc/bin/../lib/gcc/sparc-gaisler-elf/10.2.0/../../../../sparc-gaisler-elf/lib/leon3v7/soft/libc.a(lib_a-impure.o)
 .text          0x00000000400023a4      0x1ac /home/fsw/rep/tasa/lib/bcc-2.2.3-gcc/bin/../lib/gcc/sparc-gaisler-elf/10.2.0/../../../../sparc-gaisler-elf/lib/leon3v7/soft/libc.a(lib_a-memcpy.o)
                0x00000000400023a4                memcpy
 .text          0x0000000040002550       0xf4 /home/fsw/rep/tasa/lib/bcc-2.2.3-gcc/bin/../lib/gcc/sparc-gaisler-elf/10.2.0/../../../../sparc-gaisler-elf/lib/leon3v7/soft/libc.a(lib_a-printf.o)
                0x0000000040002550                _printf_r
                0x00000000400025c4                printf
 .text          0x0000000040002644       0x88 /home/fsw/rep/tasa/lib/bcc-2.2.3-gcc/bin/../lib/gcc/sparc-gaisler-elf/10.2.0/../../../../sparc-gaisler-elf/lib/leon3v7/soft/libc.a(lib_a-putchar.o)
                0x0000000040002644                _putchar_r
                0x0000000040002684                putchar
 .text          0x00000000400026cc      0x250 /home/fsw/rep/tasa/lib/bcc-2.2.3-gcc/bin/../lib/gcc/sparc-gaisler-elf/10.2.0/../../../../sparc-gaisler-elf/lib/leon3v7/soft/libc.a(lib_a-puts.o)
                0x00000000400026cc                _puts_r
                0x00000000400027f0                puts
 .text          0x000000004000291c       0xa8 /home/fsw/rep/tasa/lib/bcc-2.2.3-gcc/bin/../lib/gcc/sparc-gaisler-elf/10.2.0/../../../../sparc-gaisler-elf/lib/leon3v7/soft/libc.a(lib_a-strlen.o)
                0x000000004000291c                strlen
 .text          0x00000000400029c4     0x2e28 /home/fsw/rep/tasa/lib/bcc-2.2.3-gcc/bin/../lib/gcc/sparc-gaisler-elf/10.2.0/../../../../sparc-gaisler-elf/lib/leon3v7/soft/libc.a(lib_a-vfprintf.o)
                0x0000000040002b30                _vfprintf_r
                0x000000004000571c                vfprintf
 .text          0x00000000400057ec      0x1c4 /home/fsw/rep/tasa/lib/bcc-2.2.3-gcc/bin/../lib/gcc/sparc-gaisler-elf/10.2.0/../../../../sparc-gaisler-elf/lib/leon3v7/soft/libc.a(lib_a-wsetup.o)
                0x00000000400057ec                __swsetup_r
 .text          0x00000000400059b0      0x158 /home/fsw/rep/tasa/lib/bcc-2.2.3-gcc/bin/../lib/gcc/sparc-gaisler-elf/10.2.0/../../../../sparc-gaisler-elf/lib/leon3v7/soft/libc.a(lib_a-__atexit.o)
                0x00000000400059b0                __register_exitproc
 .text          0x0000000040005b08      0x2b8 /home/fsw/rep/tasa/lib/bcc-2.2.3-gcc/bin/../lib/gcc/sparc-gaisler-elf/10.2.0/../../../../sparc-gaisler-elf/lib/leon3v7/soft/libc.a(lib_a-__call_atexit.o)
                0x0000000040005b08                __call_exitprocs
 .text          0x0000000040005dc0     0x18d0 /home/fsw/rep/tasa/lib/bcc-2.2.3-gcc/bin/../lib/gcc/sparc-gaisler-elf/10.2.0/../../../../sparc-gaisler-elf/lib/leon3v7/soft/libc.a(lib_a-dtoa.o)
                0x0000000040005fc8                _dtoa_r
 .text          0x0000000040007690      0x3e0 /home/fsw/rep/tasa/lib/bcc-2.2.3-gcc/bin/../lib/gcc/sparc-gaisler-elf/10.2.0/../../../../sparc-gaisler-elf/lib/leon3v7/soft/libc.a(lib_a-fflush.o)
                0x0000000040007690                __sflush_r
                0x00000000400078f0                _fflush_r
                0x0000000040007990                fflush
 .text          0x0000000040007a70      0x338 /home/fsw/rep/tasa/lib/bcc-2.2.3-gcc/bin/../lib/gcc/sparc-gaisler-elf/10.2.0/../../../../sparc-gaisler-elf/lib/leon3v7/soft/libc.a(lib_a-findfp.o)
                0x0000000040007a70                _cleanup_r
                0x0000000040007a84                __sfmoreglue
                0x0000000040007ad8                __sfp
                0x0000000040007d68                _cleanup
                0x0000000040007d84                __sinit
 .text          0x0000000040007da8      0x3fc /home/fsw/rep/tasa/lib/bcc-2.2.3-gcc/bin/../lib/gcc/sparc-gaisler-elf/10.2.0/../../../../sparc-gaisler-elf/lib/leon3v7/soft/libc.a(lib_a-freer.o)
                0x0000000040007da8                _malloc_trim_r
                0x0000000040007e98                _free_r
 .text          0x00000000400081a4      0x4f0 /home/fsw/rep/tasa/lib/bcc-2.2.3-gcc/bin/../lib/gcc/sparc-gaisler-elf/10.2.0/../../../../sparc-gaisler-elf/lib/leon3v7/soft/libc.a(lib_a-fvwrite.o)
                0x00000000400081a4                __sfvwrite_r
 .text          0x0000000040008694       0xe0 /home/fsw/rep/tasa/lib/bcc-2.2.3-gcc/bin/../lib/gcc/sparc-gaisler-elf/10.2.0/../../../../sparc-gaisler-elf/lib/leon3v7/soft/libc.a(lib_a-fwalk.o)
                0x0000000040008694                _fwalk
                0x0000000040008704                _fwalk_reent
 .text          0x0000000040008774       0x60 /home/fsw/rep/tasa/lib/bcc-2.2.3-gcc/bin/../lib/gcc/sparc-gaisler-elf/10.2.0/../../../../sparc-gaisler-elf/lib/leon3v7/soft/libc.a(lib_a-localeconv.o)
                0x0000000040008774                __localeconv_l
                0x000000004000877c                _localeconv_r
                0x00000000400087a8                localeconv
 .text          0x00000000400087d4      0x1e8 /home/fsw/rep/tasa/lib/bcc-2.2.3-gcc/bin/../lib/gcc/sparc-gaisler-elf/10.2.0/../../../../sparc-gaisler-elf/lib/leon3v7/soft/libc.a(lib_a-makebuf.o)
                0x00000000400087d4                __smakebuf_r
                0x0000000040008938                __swhatbuf_r
 .text          0x00000000400089bc       0x30 /home/fsw/rep/tasa/lib/bcc-2.2.3-gcc/bin/../lib/gcc/sparc-gaisler-elf/10.2.0/../../../../sparc-gaisler-elf/lib/leon3v7/soft/libc.a(lib_a-malloc.o)
                0x00000000400089bc                malloc
                0x00000000400089d4                free
 .text          0x00000000400089ec      0x7d8 /home/fsw/rep/tasa/lib/bcc-2.2.3-gcc/bin/../lib/gcc/sparc-gaisler-elf/10.2.0/../../../../sparc-gaisler-elf/lib/leon3v7/soft/libc.a(lib_a-mallocr.o)
                0x00000000400089ec                _malloc_r
 .text          0x00000000400091c4       0xf8 /home/fsw/rep/tasa/lib/bcc-2.2.3-gcc/bin/../lib/gcc/sparc-gaisler-elf/10.2.0/../../../../sparc-gaisler-elf/lib/leon3v7/soft/libc.a(lib_a-memchr.o)
                0x00000000400091c4                memchr
 .text          0x00000000400092bc      0x1f8 /home/fsw/rep/tasa/lib/bcc-2.2.3-gcc/bin/../lib/gcc/sparc-gaisler-elf/10.2.0/../../../../sparc-gaisler-elf/lib/leon3v7/soft/libc.a(lib_a-memmove.o)
                0x00000000400092bc                memmove
 .text          0x00000000400094b4      0x120 /home/fsw/rep/tasa/lib/bcc-2.2.3-gcc/bin/../lib/gcc/sparc-gaisler-elf/10.2.0/../../../../sparc-gaisler-elf/lib/leon3v7/soft/libc.a(lib_a-memset.o)
                0x00000000400094b4                memset
 .text          0x00000000400095d4       0x10 /home/fsw/rep/tasa/lib/bcc-2.2.3-gcc/bin/../lib/gcc/sparc-gaisler-elf/10.2.0/../../../../sparc-gaisler-elf/lib/leon3v7/soft/libc.a(lib_a-mlock.o)
                0x00000000400095d4                __malloc_lock
                0x00000000400095dc                __malloc_unlock
 .text          0x00000000400095e4     0x16e0 /home/fsw/rep/tasa/lib/bcc-2.2.3-gcc/bin/../lib/gcc/sparc-gaisler-elf/10.2.0/../../../../sparc-gaisler-elf/lib/leon3v7/soft/libc.a(lib_a-mprec.o)
                0x00000000400095e4                _Balloc
                0x00000000400096b4                _Bfree
                0x0000000040009714                __multadd
                0x000000004000982c                __s2b
                0x0000000040009904                __hi0bits
                0x0000000040009994                __lo0bits
                0x0000000040009a70                __i2b
                0x0000000040009b50                __multiply
                0x0000000040009dac                __pow5mult
                0x0000000040009f38                __lshift
                0x000000004000a100                __mcmp
                0x000000004000a168                __mdiff
                0x000000004000a388                __ulp
                0x000000004000a3f0                __b2d
                0x000000004000a588                __d2b
                0x000000004000a954                __ratio
                0x000000004000ab5c                _mprec_log10
                0x000000004000abbc                __copybits
                0x000000004000ac40                __any_on
 .text          0x000000004000acc4      0x1c0 /home/fsw/rep/tasa/lib/bcc-2.2.3-gcc/bin/../lib/gcc/sparc-gaisler-elf/10.2.0/../../../../sparc-gaisler-elf/lib/leon3v7/soft/libc.a(lib_a-putc.o)
                0x000000004000acc4                _putc_r
                0x000000004000ad9c                putc
 .text          0x000000004000ae84      0x534 /home/fsw/rep/tasa/lib/bcc-2.2.3-gcc/bin/../lib/gcc/sparc-gaisler-elf/10.2.0/../../../../sparc-gaisler-elf/lib/leon3v7/soft/libc.a(lib_a-reallocr.o)
                0x000000004000ae84                _realloc_r
 .text          0x000000004000b3b8       0x90 /home/fsw/rep/tasa/lib/bcc-2.2.3-gcc/bin/../lib/gcc/sparc-gaisler-elf/10.2.0/../../../../sparc-gaisler-elf/lib/leon3v7/soft/libc.a(lib_a-s_frexp.o)
                0x000000004000b3b8                frexp
 .text          0x000000004000b448       0x40 /home/fsw/rep/tasa/lib/bcc-2.2.3-gcc/bin/../lib/gcc/sparc-gaisler-elf/10.2.0/../../../../sparc-gaisler-elf/lib/leon3v7/soft/libc.a(lib_a-sbrkr.o)
                0x000000004000b448                _sbrk_r
 .text          0x000000004000b488      0x118 /home/fsw/rep/tasa/lib/bcc-2.2.3-gcc/bin/../lib/gcc/sparc-gaisler-elf/10.2.0/../../../../sparc-gaisler-elf/lib/leon3v7/soft/libc.a(lib_a-stdio.o)
                0x000000004000b488                __sread
                0x000000004000b4d4                __seofread
                0x000000004000b4dc                __swrite
                0x000000004000b538                __sseek
                0x000000004000b590                __sclose
 .text          0x000000004000b5a0      0x1ac /home/fsw/rep/tasa/lib/bcc-2.2.3-gcc/bin/../lib/gcc/sparc-gaisler-elf/10.2.0/../../../../sparc-gaisler-elf/lib/leon3v7/soft/libc.a(lib_a-strncpy.o)
                0x000000004000b5a0                strncpy
 .text          0x000000004000b74c     0x1e4c /home/fsw/rep/tasa/lib/bcc-2.2.3-gcc/bin/../lib/gcc/sparc-gaisler-elf/10.2.0/../../../../sparc-gaisler-elf/lib/leon3v7/soft/libc.a(lib_a-vfiprintf.o)
                0x000000004000b8b8                __sprint_r
                0x000000004000b984                _vfiprintf_r
                0x000000004000d4c8                vfiprintf
 .text          0x000000004000d598      0x354 /home/fsw/rep/tasa/lib/bcc-2.2.3-gcc/bin/../lib/gcc/sparc-gaisler-elf/10.2.0/../../../../sparc-gaisler-elf/lib/leon3v7/soft/libc.a(lib_a-wbuf.o)
                0x000000004000d598                __swbuf_r
                0x000000004000d73c                __swbuf
 .text          0x000000004000d8ec       0x48 /home/fsw/rep/tasa/lib/bcc-2.2.3-gcc/bin/../lib/gcc/sparc-gaisler-elf/10.2.0/../../../../sparc-gaisler-elf/lib/leon3v7/soft/libc.a(lib_a-writer.o)
                0x000000004000d8ec                _write_r
 .text          0x000000004000d934       0xa4 /home/fsw/rep/tasa/lib/bcc-2.2.3-gcc/bin/../lib/gcc/sparc-gaisler-elf/10.2.0/../../../../sparc-gaisler-elf/lib/leon3v7/soft/libc.a(lib_a-callocr.o)
                0x000000004000d934                _calloc_r
 .text          0x000000004000d9d8       0x40 /home/fsw/rep/tasa/lib/bcc-2.2.3-gcc/bin/../lib/gcc/sparc-gaisler-elf/10.2.0/../../../../sparc-gaisler-elf/lib/leon3v7/soft/libc.a(lib_a-closer.o)
                0x000000004000d9d8                _close_r
 .text          0x000000004000da18      0x294 /home/fsw/rep/tasa/lib/bcc-2.2.3-gcc/bin/../lib/gcc/sparc-gaisler-elf/10.2.0/../../../../sparc-gaisler-elf/lib/leon3v7/soft/libc.a(lib_a-fclose.o)
                0x000000004000da18                _fclose_r
                0x000000004000db60                fclose
 .text          0x000000004000dcac      0x1d4 /home/fsw/rep/tasa/lib/bcc-2.2.3-gcc/bin/../lib/gcc/sparc-gaisler-elf/10.2.0/../../../../sparc-gaisler-elf/lib/leon3v7/soft/libc.a(lib_a-fputwc.o)
                0x000000004000dcac                __fputwc
                0x000000004000dd94                _fputwc_r
                0x000000004000ddc4                fputwc
 .text          0x000000004000de80       0x44 /home/fsw/rep/tasa/lib/bcc-2.2.3-gcc/bin/../lib/gcc/sparc-gaisler-elf/10.2.0/../../../../sparc-gaisler-elf/lib/leon3v7/soft/libc.a(lib_a-fstatr.o)
                0x000000004000de80                _fstat_r
 .text          0x000000004000dec4       0x40 /home/fsw/rep/tasa/lib/bcc-2.2.3-gcc/bin/../lib/gcc/sparc-gaisler-elf/10.2.0/../../../../sparc-gaisler-elf/lib/leon3v7/soft/libc.a(lib_a-isattyr.o)
                0x000000004000dec4                _isatty_r
 .text          0x000000004000df04      0x148 /home/fsw/rep/tasa/lib/bcc-2.2.3-gcc/bin/../lib/gcc/sparc-gaisler-elf/10.2.0/../../../../sparc-gaisler-elf/lib/leon3v7/soft/libc.a(lib_a-locale.o)
                0x000000004000df04                _setlocale_r
                0x000000004000df78                __locale_mb_cur_max
                0x000000004000dfa4                __locale_ctype_ptr_l
                0x000000004000dfac                __locale_ctype_ptr
                0x000000004000dfd8                setlocale
 .text          0x000000004000e04c       0x48 /home/fsw/rep/tasa/lib/bcc-2.2.3-gcc/bin/../lib/gcc/sparc-gaisler-elf/10.2.0/../../../../sparc-gaisler-elf/lib/leon3v7/soft/libc.a(lib_a-lseekr.o)
                0x000000004000e04c                _lseek_r
 .text          0x000000004000e094       0xb8 /home/fsw/rep/tasa/lib/bcc-2.2.3-gcc/bin/../lib/gcc/sparc-gaisler-elf/10.2.0/../../../../sparc-gaisler-elf/lib/leon3v7/soft/libc.a(lib_a-mbtowc_r.o)
                0x000000004000e094                _mbtowc_r
                0x000000004000e0f8                __ascii_mbtowc
 .text          0x000000004000e14c       0x48 /home/fsw/rep/tasa/lib/bcc-2.2.3-gcc/bin/../lib/gcc/sparc-gaisler-elf/10.2.0/../../../../sparc-gaisler-elf/lib/leon3v7/soft/libc.a(lib_a-readr.o)
                0x000000004000e14c                _read_r
 .text          0x000000004000e194      0x31c /home/fsw/rep/tasa/lib/bcc-2.2.3-gcc/bin/../lib/gcc/sparc-gaisler-elf/10.2.0/../../../../sparc-gaisler-elf/lib/leon3v7/soft/libc.a(lib_a-reent.o)
                0x000000004000e194                cleanup_glue
                0x000000004000e20c                _reclaim_reent
 .text          0x000000004000e4b0       0xc8 /home/fsw/rep/tasa/lib/bcc-2.2.3-gcc/bin/../lib/gcc/sparc-gaisler-elf/10.2.0/../../../../sparc-gaisler-elf/lib/leon3v7/soft/libc.a(lib_a-strcmp.o)
                0x000000004000e4b0                strcmp
 .text          0x000000004000e578      0x144 /home/fsw/rep/tasa/lib/bcc-2.2.3-gcc/bin/../lib/gcc/sparc-gaisler-elf/10.2.0/../../../../sparc-gaisler-elf/lib/leon3v7/soft/libc.a(lib_a-wcrtomb.o)
                0x000000004000e578                _wcrtomb_r
                0x000000004000e61c                wcrtomb
 .text          0x000000004000e6bc       0x9c /home/fsw/rep/tasa/lib/bcc-2.2.3-gcc/bin/../lib/gcc/sparc-gaisler-elf/10.2.0/../../../../sparc-gaisler-elf/lib/leon3v7/soft/libc.a(lib_a-wctomb_r.o)
                0x000000004000e6bc                _wctomb_r
                0x000000004000e718                __ascii_wctomb
 .text          0x000000004000e758        0x0 /home/fsw/rep/tasa/lib/bcc-2.2.3-gcc/bin/../lib/gcc/sparc-gaisler-elf/10.2.0/../../../../sparc-gaisler-elf/lib/leon3v7/soft/libc.a(lib_a-ctype_.o)
 .text          0x000000004000e758       0x10 /home/fsw/rep/tasa/lib/bcc-2.2.3-gcc/bin/../sparc-gaisler-elf/bsp/leon3/leon3v7/soft/libbcc.a(_exit.S.o)
                0x000000004000e758                _exit
 .text          0x000000004000e768       0x4c /home/fsw/rep/tasa/lib/bcc-2.2.3-gcc/bin/../sparc-gaisler-elf/bsp/leon3/leon3v7/soft/libbcc.a(read.c.o)
                0x000000004000e768                read
 .text          0x000000004000e7b4       0xb0 /home/fsw/rep/tasa/lib/bcc-2.2.3-gcc/bin/../sparc-gaisler-elf/bsp/leon3/leon3v7/soft/libbcc.a(sbrk.c.o)
                0x000000004000e7b4                sbrk
 .text          0x000000004000e864        0x0 /home/fsw/rep/tasa/lib/bcc-2.2.3-gcc/bin/../sparc-gaisler-elf/bsp/leon3/leon3v7/soft/libbcc.a(heap.c.o)
 .text          0x000000004000e864       0x64 /home/fsw/rep/tasa/lib/bcc-2.2.3-gcc/bin/../sparc-gaisler-elf/bsp/leon3/leon3v7/soft/libbcc.a(write.c.o)
                0x000000004000e864                write
 .text          0x000000004000e8c8       0x20 /home/fsw/rep/tasa/lib/bcc-2.2.3-gcc/bin/../sparc-gaisler-elf/bsp/leon3/leon3v7/soft/libbcc.a(stubs.S.o)
                0x000000004000e8c8                execve
                0x000000004000e8c8                lseek
                0x000000004000e8c8                fstat
                0x000000004000e8c8                kill
                0x000000004000e8c8                wait
                0x000000004000e8c8                unlink
                0x000000004000e8c8                fork
                0x000000004000e8c8                stat
                0x000000004000e8c8                link
                0x000000004000e8c8                open
                0x000000004000e8c8                close
                0x000000004000e8e0                getpid
                0x000000004000e8e0                isatty
 .text          0x000000004000e8e8       0xc4 /home/fsw/rep/tasa/lib/bcc-2.2.3-gcc/bin/../sparc-gaisler-elf/bsp/leon3/leon3v7/soft/libbcc.a(con_apbuart.c.o)
                0x000000004000e8e8                __bcc_con_outbyte
                0x000000004000e978                __bcc_con_inbyte
 .text          0x000000004000e9ac       0xe8 /home/fsw/rep/tasa/lib/bcc-2.2.3-gcc/bin/../lib/gcc/sparc-gaisler-elf/10.2.0/leon3v7/soft/libgcc.a(_mulsi3.o)
                0x000000004000e9ac                .umul
 .text          0x000000004000ea94      0x2b0 /home/fsw/rep/tasa/lib/bcc-2.2.3-gcc/bin/../lib/gcc/sparc-gaisler-elf/10.2.0/leon3v7/soft/libgcc.a(_divsi3.o)
                0x000000004000ea94                .udiv
                0x000000004000ea9c                .div
 .text          0x000000004000ed44      0x2b0 /home/fsw/rep/tasa/lib/bcc-2.2.3-gcc/bin/../lib/gcc/sparc-gaisler-elf/10.2.0/leon3v7/soft/libgcc.a(_modsi3.o)
                0x000000004000ed44                .urem
                0x000000004000ed4c                .rem
 .text          0x000000004000eff4      0x354 /home/fsw/rep/tasa/lib/bcc-2.2.3-gcc/bin/../lib/gcc/sparc-gaisler-elf/10.2.0/leon3v7/soft/libgcc.a(_udivdi3.o)
                0x000000004000eff4                __udivdi3
 .text          0x000000004000f348      0x370 /home/fsw/rep/tasa/lib/bcc-2.2.3-gcc/bin/../lib/gcc/sparc-gaisler-elf/10.2.0/leon3v7/soft/libgcc.a(_umoddi3.o)
                0x000000004000f348                __umoddi3
 .text          0x000000004000f6b8      0x744 /home/fsw/rep/tasa/lib/bcc-2.2.3-gcc/bin/../lib/gcc/sparc-gaisler-elf/10.2.0/leon3v7/soft/libgcc.a(_addsub_df.o)
                0x000000004000f6b8                __adddf3
                0x000000004000fa5c                __subdf3
 .text          0x000000004000fdfc      0x320 /home/fsw/rep/tasa/lib/bcc-2.2.3-gcc/bin/../lib/gcc/sparc-gaisler-elf/10.2.0/leon3v7/soft/libgcc.a(_mul_df.o)
                0x000000004000fdfc                __muldf3
 .text          0x000000004001011c      0x1fc /home/fsw/rep/tasa/lib/bcc-2.2.3-gcc/bin/../lib/gcc/sparc-gaisler-elf/10.2.0/leon3v7/soft/libgcc.a(_div_df.o)
                0x000000004001011c                __divdf3
 .text          0x0000000040010318       0x58 /home/fsw/rep/tasa/lib/bcc-2.2.3-gcc/bin/../lib/gcc/sparc-gaisler-elf/10.2.0/leon3v7/soft/libgcc.a(_eq_df.o)
                0x0000000040010318                __eqdf2
 .text          0x0000000040010370       0x58 /home/fsw/rep/tasa/lib/bcc-2.2.3-gcc/bin/../lib/gcc/sparc-gaisler-elf/10.2.0/leon3v7/soft/libgcc.a(_ne_df.o)
                0x0000000040010370                __nedf2
 .text          0x00000000400103c8       0x58 /home/fsw/rep/tasa/lib/bcc-2.2.3-gcc/bin/../lib/gcc/sparc-gaisler-elf/10.2.0/leon3v7/soft/libgcc.a(_gt_df.o)
                0x00000000400103c8                __gtdf2
 .text          0x0000000040010420       0x58 /home/fsw/rep/tasa/lib/bcc-2.2.3-gcc/bin/../lib/gcc/sparc-gaisler-elf/10.2.0/leon3v7/soft/libgcc.a(_lt_df.o)
                0x0000000040010420                __ltdf2
 .text          0x0000000040010478       0x58 /home/fsw/rep/tasa/lib/bcc-2.2.3-gcc/bin/../lib/gcc/sparc-gaisler-elf/10.2.0/leon3v7/soft/libgcc.a(_le_df.o)
                0x0000000040010478                __ledf2
 .text          0x00000000400104d0       0x4c /home/fsw/rep/tasa/lib/bcc-2.2.3-gcc/bin/../lib/gcc/sparc-gaisler-elf/10.2.0/leon3v7/soft/libgcc.a(_unord_df.o)
                0x00000000400104d0                __unorddf2
 .text          0x000000004001051c       0xd4 /home/fsw/rep/tasa/lib/bcc-2.2.3-gcc/bin/../lib/gcc/sparc-gaisler-elf/10.2.0/leon3v7/soft/libgcc.a(_si_to_df.o)
                0x000000004001051c                __floatsidf
 .text          0x00000000400105f0       0xc8 /home/fsw/rep/tasa/lib/bcc-2.2.3-gcc/bin/../lib/gcc/sparc-gaisler-elf/10.2.0/leon3v7/soft/libgcc.a(_df_to_si.o)
                0x00000000400105f0                __fixdfsi
 .text          0x00000000400106b8        0x0 /home/fsw/rep/tasa/lib/bcc-2.2.3-gcc/bin/../lib/gcc/sparc-gaisler-elf/10.2.0/leon3v7/soft/libgcc.a(_thenan_df.o)
 .text          0x00000000400106b8       0x78 /home/fsw/rep/tasa/lib/bcc-2.2.3-gcc/bin/../lib/gcc/sparc-gaisler-elf/10.2.0/leon3v7/soft/libgcc.a(_usi_to_df.o)
                0x00000000400106b8                __floatunsidf
 .text          0x0000000040010730       0xc4 /home/fsw/rep/tasa/lib/bcc-2.2.3-gcc/bin/../lib/gcc/sparc-gaisler-elf/10.2.0/leon3v7/soft/libgcc.a(_muldi3.o)
                0x0000000040010730                __muldi3
 .text          0x00000000400107f4        0x0 /home/fsw/rep/tasa/lib/bcc-2.2.3-gcc/bin/../lib/gcc/sparc-gaisler-elf/10.2.0/leon3v7/soft/libgcc.a(_clz.o)
 .text          0x00000000400107f4       0x94 /home/fsw/rep/tasa/lib/bcc-2.2.3-gcc/bin/../lib/gcc/sparc-gaisler-elf/10.2.0/leon3v7/soft/libgcc.a(_clzsi2.o)
                0x00000000400107f4                __clzsi2
 .text          0x0000000040010888      0x244 /home/fsw/rep/tasa/lib/bcc-2.2.3-gcc/bin/../lib/gcc/sparc-gaisler-elf/10.2.0/leon3v7/soft/libgcc.a(_pack_df.o)
                0x0000000040010888                __pack_d
 .text          0x0000000040010acc      0x10c /home/fsw/rep/tasa/lib/bcc-2.2.3-gcc/bin/../lib/gcc/sparc-gaisler-elf/10.2.0/leon3v7/soft/libgcc.a(_unpack_df.o)
                0x0000000040010acc                __unpack_d
 .text          0x0000000040010bd8      0x158 /home/fsw/rep/tasa/lib/bcc-2.2.3-gcc/bin/../lib/gcc/sparc-gaisler-elf/10.2.0/leon3v7/soft/libgcc.a(_fpcmp_parts_df.o)
                0x0000000040010bd8                __fpcmp_parts_d
 .text          0x0000000040010d30       0x48 /home/fsw/rep/tasa/lib/bcc-2.2.3-gcc/bin/../lib/gcc/sparc-gaisler-elf/10.2.0/leon3v7/soft/crtend.o
 .text          0x0000000040010d78        0x0 /home/fsw/rep/tasa/lib/bcc-2.2.3-gcc/bin/../lib/gcc/sparc-gaisler-elf/10.2.0/leon3v7/soft/crtn.o
                0x0000000040010d80                . = ALIGN (0x10)
 *fill*         0x0000000040010d78        0x8 
 *(.eh_frame)
 .eh_frame      0x0000000040010d80        0x0 /home/fsw/rep/tasa/lib/bcc-2.2.3-gcc/bin/../lib/gcc/sparc-gaisler-elf/10.2.0/leon3v7/soft/crtbegin.o
 .eh_frame      0x0000000040010d80       0x2c /home/fsw/rep/tasa/lib/bcc-2.2.3-gcc/bin/../lib/gcc/sparc-gaisler-elf/10.2.0/leon3v7/soft/libgcc.a(_udivdi3.o)
 .eh_frame      0x0000000040010dac       0x2c /home/fsw/rep/tasa/lib/bcc-2.2.3-gcc/bin/../lib/gcc/sparc-gaisler-elf/10.2.0/leon3v7/soft/libgcc.a(_umoddi3.o)
 .eh_frame      0x0000000040010dd8        0x4 /home/fsw/rep/tasa/lib/bcc-2.2.3-gcc/bin/../lib/gcc/sparc-gaisler-elf/10.2.0/leon3v7/soft/crtend.o
                0x0000000040010de0                . = ALIGN (0x10)
 *fill*         0x0000000040010ddc        0x4 
 *(.gnu.linkonce.t*)
                0x0000000040010de0                ___CTOR_LIST__ = .
                0x0000000040010de0        0x4 LONG 0x2 (((___CTOR_END__ - ___CTOR_LIST__) / 0x4) - 0x2)
 *(SORT_BY_NAME(.ctors.*))
 *(.ctors)
 .ctors         0x0000000040010de4        0x4 /home/fsw/rep/tasa/lib/bcc-2.2.3-gcc/bin/../lib/gcc/sparc-gaisler-elf/10.2.0/leon3v7/soft/crtbegin.o
 .ctors         0x0000000040010de8        0x4 /home/fsw/rep/tasa/lib/bcc-2.2.3-gcc/bin/../lib/gcc/sparc-gaisler-elf/10.2.0/leon3v7/soft/crtend.o
                0x0000000040010dec        0x4 LONG 0x0
                0x0000000040010df0                ___CTOR_END__ = .
                0x0000000040010df0                ___DTOR_LIST__ = .
                0x0000000040010df0        0x4 LONG 0x2 (((___DTOR_END__ - ___DTOR_LIST__) / 0x4) - 0x2)
 *(SORT_BY_NAME(.dtors.*))
 *(.dtors)
 .dtors         0x0000000040010df4        0x4 /home/fsw/rep/tasa/lib/bcc-2.2.3-gcc/bin/../lib/gcc/sparc-gaisler-elf/10.2.0/leon3v7/soft/crtbegin.o
 .dtors         0x0000000040010df8        0x4 /home/fsw/rep/tasa/lib/bcc-2.2.3-gcc/bin/../lib/gcc/sparc-gaisler-elf/10.2.0/leon3v7/soft/crtend.o
                0x0000000040010df8                __DTOR_END__
                0x0000000040010dfc        0x4 LONG 0x0
                0x0000000040010e00                ___DTOR_END__ = .
 *(.gnu.linkonce*)
 *(.init)
 .init          0x0000000040010e00        0x4 /home/fsw/rep/tasa/lib/bcc-2.2.3-gcc/bin/../lib/gcc/sparc-gaisler-elf/10.2.0/leon3v7/soft/crti.o
                0x0000000040010e00                _init
 .init          0x0000000040010e04        0x8 /home/fsw/rep/tasa/lib/bcc-2.2.3-gcc/bin/../lib/gcc/sparc-gaisler-elf/10.2.0/leon3v7/soft/crtbegin.o
 .init          0x0000000040010e0c        0x8 /home/fsw/rep/tasa/lib/bcc-2.2.3-gcc/bin/../lib/gcc/sparc-gaisler-elf/10.2.0/leon3v7/soft/crtend.o
 .init          0x0000000040010e14        0xc /home/fsw/rep/tasa/lib/bcc-2.2.3-gcc/bin/../lib/gcc/sparc-gaisler-elf/10.2.0/leon3v7/soft/crtn.o
 *(.fini)
 .fini          0x0000000040010e20        0x4 /home/fsw/rep/tasa/lib/bcc-2.2.3-gcc/bin/../lib/gcc/sparc-gaisler-elf/10.2.0/leon3v7/soft/crti.o
                0x0000000040010e20                _fini
 .fini          0x0000000040010e24        0x8 /home/fsw/rep/tasa/lib/bcc-2.2.3-gcc/bin/../lib/gcc/sparc-gaisler-elf/10.2.0/leon3v7/soft/crtbegin.o
 .fini          0x0000000040010e2c        0xc /home/fsw/rep/tasa/lib/bcc-2.2.3-gcc/bin/../lib/gcc/sparc-gaisler-elf/10.2.0/leon3v7/soft/crtn.o
 *(.lit)
 *(.shdata)
                0x0000000040010e40                . = ALIGN (0x10)
 *fill*         0x0000000040010e38        0x8 
                0x0000000040010e40                __text_end = .

.gcc_except_table
 *(.gcc_except_table.*)

.rodata         0x0000000040010e40      0x750
                0x0000000040010e40                __rodata_start = .
 *(.rodata*)
 .rodata.str1.8
                0x0000000040010e40       0xcf /tmp/ccK7ILCi.o
 *fill*         0x0000000040010f0f        0x1 
 .rodata        0x0000000040010f10        0x5 /tmp/ccK7ILCi.o
 *fill*         0x0000000040010f15        0x3 
 .rodata        0x0000000040010f18        0x4 /home/fsw/rep/tasa/lib/bcc-2.2.3-gcc/bin/../lib/gcc/sparc-gaisler-elf/10.2.0/../../../../sparc-gaisler-elf/lib/leon3v7/soft/libc.a(lib_a-impure.o)
                0x0000000040010f18                _global_impure_ptr
 *fill*         0x0000000040010f1c        0x4 
 .rodata.str1.8
                0x0000000040010f20        0x2 /home/fsw/rep/tasa/lib/bcc-2.2.3-gcc/bin/../lib/gcc/sparc-gaisler-elf/10.2.0/../../../../sparc-gaisler-elf/lib/leon3v7/soft/libc.a(lib_a-puts.o)
 *fill*         0x0000000040010f22        0x6 
 .rodata.str1.8
                0x0000000040010f28       0x5a /home/fsw/rep/tasa/lib/bcc-2.2.3-gcc/bin/../lib/gcc/sparc-gaisler-elf/10.2.0/../../../../sparc-gaisler-elf/lib/leon3v7/soft/libc.a(lib_a-vfprintf.o)
 *fill*         0x0000000040010f82        0x6 
 .rodata.cst8   0x0000000040010f88       0x18 /home/fsw/rep/tasa/lib/bcc-2.2.3-gcc/bin/../lib/gcc/sparc-gaisler-elf/10.2.0/../../../../sparc-gaisler-elf/lib/leon3v7/soft/libc.a(lib_a-vfprintf.o)
 .rodata        0x0000000040010fa0       0x20 /home/fsw/rep/tasa/lib/bcc-2.2.3-gcc/bin/../lib/gcc/sparc-gaisler-elf/10.2.0/../../../../sparc-gaisler-elf/lib/leon3v7/soft/libc.a(lib_a-vfprintf.o)
 .rodata.str1.8
                0x0000000040010fc0       0x14 /home/fsw/rep/tasa/lib/bcc-2.2.3-gcc/bin/../lib/gcc/sparc-gaisler-elf/10.2.0/../../../../sparc-gaisler-elf/lib/leon3v7/soft/libc.a(lib_a-dtoa.o)
                                         0x1a (size before relaxing)
 *fill*         0x0000000040010fd4        0x4 
 .rodata.cst8   0x0000000040010fd8       0x48 /home/fsw/rep/tasa/lib/bcc-2.2.3-gcc/bin/../lib/gcc/sparc-gaisler-elf/10.2.0/../../../../sparc-gaisler-elf/lib/leon3v7/soft/libc.a(lib_a-dtoa.o)
 .rodata        0x0000000040011020       0x60 /home/fsw/rep/tasa/lib/bcc-2.2.3-gcc/bin/../lib/gcc/sparc-gaisler-elf/10.2.0/../../../../sparc-gaisler-elf/lib/leon3v7/soft/libc.a(lib_a-findfp.o)
                0x0000000040011020                __sf_fake_stderr
                0x0000000040011040                __sf_fake_stdout
                0x0000000040011060                __sf_fake_stdin
 .rodata.cst8   0x0000000040011080       0x10 /home/fsw/rep/tasa/lib/bcc-2.2.3-gcc/bin/../lib/gcc/sparc-gaisler-elf/10.2.0/../../../../sparc-gaisler-elf/lib/leon3v7/soft/libc.a(lib_a-mprec.o)
 .rodata        0x0000000040011080      0x128 /home/fsw/rep/tasa/lib/bcc-2.2.3-gcc/bin/../lib/gcc/sparc-gaisler-elf/10.2.0/../../../../sparc-gaisler-elf/lib/leon3v7/soft/libc.a(lib_a-mprec.o)
                0x0000000040011090                __mprec_tinytens
                0x00000000400110b8                __mprec_bigtens
                0x00000000400110e0                __mprec_tens
 .rodata.cst8   0x00000000400111a8        0x8 /home/fsw/rep/tasa/lib/bcc-2.2.3-gcc/bin/../lib/gcc/sparc-gaisler-elf/10.2.0/../../../../sparc-gaisler-elf/lib/leon3v7/soft/libc.a(lib_a-s_frexp.o)
 .rodata.str1.8
                0x00000000400111b0       0x37 /home/fsw/rep/tasa/lib/bcc-2.2.3-gcc/bin/../lib/gcc/sparc-gaisler-elf/10.2.0/../../../../sparc-gaisler-elf/lib/leon3v7/soft/libc.a(lib_a-vfiprintf.o)
 .rodata        0x00000000400111b0       0x20 /home/fsw/rep/tasa/lib/bcc-2.2.3-gcc/bin/../lib/gcc/sparc-gaisler-elf/10.2.0/../../../../sparc-gaisler-elf/lib/leon3v7/soft/libc.a(lib_a-vfiprintf.o)
 .rodata.str1.8
                0x00000000400111d0       0x12 /home/fsw/rep/tasa/lib/bcc-2.2.3-gcc/bin/../lib/gcc/sparc-gaisler-elf/10.2.0/../../../../sparc-gaisler-elf/lib/leon3v7/soft/libc.a(lib_a-locale.o)
                                         0x1a (size before relaxing)
 *fill*         0x00000000400111e2        0x6 
 .rodata        0x00000000400111e8      0x288 /home/fsw/rep/tasa/lib/bcc-2.2.3-gcc/bin/../lib/gcc/sparc-gaisler-elf/10.2.0/../../../../sparc-gaisler-elf/lib/leon3v7/soft/libc.a(lib_a-ctype_.o)
                0x00000000400111e8                _ctype_
                0x00000000400112f0                _ctype_b
 .rodata.cst8   0x0000000040011470        0x8 /home/fsw/rep/tasa/lib/bcc-2.2.3-gcc/bin/../lib/gcc/sparc-gaisler-elf/10.2.0/leon3v7/soft/libgcc.a(_si_to_df.o)
 .rodata        0x0000000040011478       0x18 /home/fsw/rep/tasa/lib/bcc-2.2.3-gcc/bin/../lib/gcc/sparc-gaisler-elf/10.2.0/leon3v7/soft/libgcc.a(_thenan_df.o)
                0x0000000040011478                __thenan_df
 .rodata        0x0000000040011490      0x100 /home/fsw/rep/tasa/lib/bcc-2.2.3-gcc/bin/../lib/gcc/sparc-gaisler-elf/10.2.0/leon3v7/soft/libgcc.a(_clz.o)
                0x0000000040011490                __clz_tab
 *(.gnu.linkonce.r*)
                0x0000000040011590                . = ALIGN (0x10)
                0x0000000040011590                __rodata_end = .

.rela.dyn       0x0000000040011590        0x0
 .rela.iplt     0x0000000040011590        0x0 /home/fsw/rep/tasa/lib/bcc-2.2.3-gcc/bin/../sparc-gaisler-elf/bsp/leon3/leon3v7/soft/trap_table_mvt.S.o
 .rela.text.traptable
                0x0000000040011590        0x0 /home/fsw/rep/tasa/lib/bcc-2.2.3-gcc/bin/../sparc-gaisler-elf/bsp/leon3/leon3v7/soft/trap_table_mvt.S.o
 .rela.text     0x0000000040011590        0x0 /home/fsw/rep/tasa/lib/bcc-2.2.3-gcc/bin/../sparc-gaisler-elf/bsp/leon3/leon3v7/soft/trap_table_mvt.S.o

.ext.data       0x0000000040011590        0x0
                0x0000000040011590                . = ALIGN (0x8)
                0x0000000040011590                __extdata_start = .
 *(.data.ext)
                0x0000000040011590                . = ALIGN (0x8)
                0x0000000040011590                __extdata_end = .
                0x0000000040011590                __extdata_start_lma = LOADADDR (.ext.data)
                0x0000000000000000                __extdata_size = SIZEOF (.ext.data)

.data           0x0000000040011590      0x610
                0x0000000040011590                . = ALIGN (0x8)
                0x0000000040011590                __data_start = .
 *(.data .data.*)
 .data          0x0000000040011590        0x0 /home/fsw/rep/tasa/lib/bcc-2.2.3-gcc/bin/../sparc-gaisler-elf/bsp/leon3/leon3v7/soft/trap_table_mvt.S.o
 .data          0x0000000040011590        0x0 /home/fsw/rep/tasa/lib/bcc-2.2.3-gcc/bin/../sparc-gaisler-elf/bsp/leon3/leon3v7/soft/crt0.S.o
 .data          0x0000000040011590        0x0 /home/fsw/rep/tasa/lib/bcc-2.2.3-gcc/bin/../lib/gcc/sparc-gaisler-elf/10.2.0/leon3v7/soft/crti.o
 .data          0x0000000040011590        0x4 /home/fsw/rep/tasa/lib/bcc-2.2.3-gcc/bin/../lib/gcc/sparc-gaisler-elf/10.2.0/leon3v7/soft/crtbegin.o
                0x0000000040011590                __dso_handle
 .data          0x0000000040011594        0x0 /tmp/ccK7ILCi.o
 .data          0x0000000040011594        0x0 /home/fsw/rep/tasa/lib/bcc-2.2.3-gcc/bin/../sparc-gaisler-elf/bsp/leon3/leon3v7/soft/libbcc.a(reset_trap_mvt.S.o)
 .data          0x0000000040011594        0x0 /home/fsw/rep/tasa/lib/bcc-2.2.3-gcc/bin/../sparc-gaisler-elf/bsp/leon3/leon3v7/soft/libbcc.a(window_trap.S.o)
 .data          0x0000000040011594        0x0 /home/fsw/rep/tasa/lib/bcc-2.2.3-gcc/bin/../sparc-gaisler-elf/bsp/leon3/leon3v7/soft/libbcc.a(interrupt_trap.S.o)
 .data          0x0000000040011594        0x0 /home/fsw/rep/tasa/lib/bcc-2.2.3-gcc/bin/../sparc-gaisler-elf/bsp/leon3/leon3v7/soft/libbcc.a(flush_windows_trap.S.o)
 .data          0x0000000040011594        0x0 /home/fsw/rep/tasa/lib/bcc-2.2.3-gcc/bin/../sparc-gaisler-elf/bsp/leon3/leon3v7/soft/libbcc.a(sw_trap_set_pil.S.o)
 .data          0x0000000040011594        0x0 /home/fsw/rep/tasa/lib/bcc-2.2.3-gcc/bin/../sparc-gaisler-elf/bsp/leon3/leon3v7/soft/libbcc.a(isr.c.o)
 *fill*         0x0000000040011594        0x4 
 .data          0x0000000040011598       0x10 /home/fsw/rep/tasa/lib/bcc-2.2.3-gcc/bin/../sparc-gaisler-elf/bsp/leon3/leon3v7/soft/libbcc.a(int_nest.c.o)
                0x0000000040011598                __bcc_int_nest
 .data          0x00000000400115a8        0x0 /home/fsw/rep/tasa/lib/bcc-2.2.3-gcc/bin/../sparc-gaisler-elf/bsp/leon3/leon3v7/soft/libbcc.a(init.S.o)
 .data          0x00000000400115a8       0x10 /home/fsw/rep/tasa/lib/bcc-2.2.3-gcc/bin/../sparc-gaisler-elf/bsp/leon3/leon3v7/soft/libbcc.a(leon_info.S.o)
                0x00000000400115a8                __bcc_leon_version
                0x00000000400115ac                __bcc_nwindows_min1
                0x00000000400115b0                __bcc_nwindows
                0x00000000400115b4                __bcc_cpuid
 .data          0x00000000400115b8        0x0 /home/fsw/rep/tasa/lib/bcc-2.2.3-gcc/bin/../sparc-gaisler-elf/bsp/leon3/leon3v7/soft/libbcc.a(dwzero.S.o)
 .data          0x00000000400115b8        0x0 /home/fsw/rep/tasa/lib/bcc-2.2.3-gcc/bin/../sparc-gaisler-elf/bsp/leon3/leon3v7/soft/libbcc.a(copy_data.c.o)
 .data          0x00000000400115b8        0x4 /home/fsw/rep/tasa/lib/bcc-2.2.3-gcc/bin/../sparc-gaisler-elf/bsp/leon3/leon3v7/soft/libbcc.a(argv.c.o)
                0x00000000400115b8                __bcc_argvp
 .data          0x00000000400115bc        0x0 /home/fsw/rep/tasa/lib/bcc-2.2.3-gcc/bin/../sparc-gaisler-elf/bsp/leon3/leon3v7/soft/libbcc.a(int_irqmp_get_source.c.o)
 .data          0x00000000400115bc        0x0 /home/fsw/rep/tasa/lib/bcc-2.2.3-gcc/bin/../sparc-gaisler-elf/bsp/leon3/leon3v7/soft/libbcc.a(int_irqmp_mp.c.o)
 .data          0x00000000400115bc        0x0 /home/fsw/rep/tasa/lib/bcc-2.2.3-gcc/bin/../sparc-gaisler-elf/bsp/leon3/leon3v7/soft/libbcc.a(int_irqmp_init.c.o)
 .data          0x00000000400115bc        0x0 /home/fsw/rep/tasa/lib/bcc-2.2.3-gcc/bin/../sparc-gaisler-elf/bsp/leon3/leon3v7/soft/libbcc.a(con_apbuart_init.c.o)
 .data          0x00000000400115bc        0x0 /home/fsw/rep/tasa/lib/bcc-2.2.3-gcc/bin/../sparc-gaisler-elf/bsp/leon3/leon3v7/soft/libbcc.a(timer_gptimer_init.c.o)
 .data          0x00000000400115bc        0x0 /home/fsw/rep/tasa/lib/bcc-2.2.3-gcc/bin/../sparc-gaisler-elf/bsp/leon3/leon3v7/soft/libbcc.a(ambapp.c.o)
 .data          0x00000000400115bc        0x0 /home/fsw/rep/tasa/lib/bcc-2.2.3-gcc/bin/../sparc-gaisler-elf/bsp/leon3/leon3v7/soft/libbcc.a(ambapp_findfirst_fn.c.o)
 .data          0x00000000400115bc        0x0 /home/fsw/rep/tasa/lib/bcc-2.2.3-gcc/bin/../sparc-gaisler-elf/bsp/leon3/leon3v7/soft/libbcc.a(int_irqmp_handle.c.o)
 .data          0x00000000400115bc        0x0 /home/fsw/rep/tasa/lib/bcc-2.2.3-gcc/bin/../sparc-gaisler-elf/bsp/leon3/leon3v7/soft/libbcc.a(con_handle.c.o)
 .data          0x00000000400115bc        0x0 /home/fsw/rep/tasa/lib/bcc-2.2.3-gcc/bin/../sparc-gaisler-elf/bsp/leon3/leon3v7/soft/libbcc.a(timer_handle.c.o)
 .data          0x00000000400115bc        0x0 /home/fsw/rep/tasa/lib/bcc-2.2.3-gcc/bin/../lib/gcc/sparc-gaisler-elf/10.2.0/../../../../sparc-gaisler-elf/lib/leon3v7/soft/libc.a(lib_a-atexit.o)
 .data          0x00000000400115bc        0x0 /home/fsw/rep/tasa/lib/bcc-2.2.3-gcc/bin/../lib/gcc/sparc-gaisler-elf/10.2.0/../../../../sparc-gaisler-elf/lib/leon3v7/soft/libc.a(lib_a-exit.o)
 .data          0x00000000400115bc       0x64 /home/fsw/rep/tasa/lib/bcc-2.2.3-gcc/bin/../lib/gcc/sparc-gaisler-elf/10.2.0/../../../../sparc-gaisler-elf/lib/leon3v7/soft/libc.a(lib_a-impure.o)
                0x00000000400115bc                _impure_ptr
 .data          0x0000000040011620        0x0 /home/fsw/rep/tasa/lib/bcc-2.2.3-gcc/bin/../lib/gcc/sparc-gaisler-elf/10.2.0/../../../../sparc-gaisler-elf/lib/leon3v7/soft/libc.a(lib_a-memcpy.o)
 .data          0x0000000040011620        0x0 /home/fsw/rep/tasa/lib/bcc-2.2.3-gcc/bin/../lib/gcc/sparc-gaisler-elf/10.2.0/../../../../sparc-gaisler-elf/lib/leon3v7/soft/libc.a(lib_a-printf.o)
 .data          0x0000000040011620        0x0 /home/fsw/rep/tasa/lib/bcc-2.2.3-gcc/bin/../lib/gcc/sparc-gaisler-elf/10.2.0/../../../../sparc-gaisler-elf/lib/leon3v7/soft/libc.a(lib_a-putchar.o)
 .data          0x0000000040011620        0x0 /home/fsw/rep/tasa/lib/bcc-2.2.3-gcc/bin/../lib/gcc/sparc-gaisler-elf/10.2.0/../../../../sparc-gaisler-elf/lib/leon3v7/soft/libc.a(lib_a-puts.o)
 .data          0x0000000040011620        0x0 /home/fsw/rep/tasa/lib/bcc-2.2.3-gcc/bin/../lib/gcc/sparc-gaisler-elf/10.2.0/../../../../sparc-gaisler-elf/lib/leon3v7/soft/libc.a(lib_a-strlen.o)
 .data          0x0000000040011620        0x0 /home/fsw/rep/tasa/lib/bcc-2.2.3-gcc/bin/../lib/gcc/sparc-gaisler-elf/10.2.0/../../../../sparc-gaisler-elf/lib/leon3v7/soft/libc.a(lib_a-vfprintf.o)
 .data          0x0000000040011620        0x0 /home/fsw/rep/tasa/lib/bcc-2.2.3-gcc/bin/../lib/gcc/sparc-gaisler-elf/10.2.0/../../../../sparc-gaisler-elf/lib/leon3v7/soft/libc.a(lib_a-wsetup.o)
 .data          0x0000000040011620        0x0 /home/fsw/rep/tasa/lib/bcc-2.2.3-gcc/bin/../lib/gcc/sparc-gaisler-elf/10.2.0/../../../../sparc-gaisler-elf/lib/leon3v7/soft/libc.a(lib_a-__atexit.o)
 .data          0x0000000040011620        0x0 /home/fsw/rep/tasa/lib/bcc-2.2.3-gcc/bin/../lib/gcc/sparc-gaisler-elf/10.2.0/../../../../sparc-gaisler-elf/lib/leon3v7/soft/libc.a(lib_a-__call_atexit.o)
 .data          0x0000000040011620        0x0 /home/fsw/rep/tasa/lib/bcc-2.2.3-gcc/bin/../lib/gcc/sparc-gaisler-elf/10.2.0/../../../../sparc-gaisler-elf/lib/leon3v7/soft/libc.a(lib_a-dtoa.o)
 .data          0x0000000040011620        0x0 /home/fsw/rep/tasa/lib/bcc-2.2.3-gcc/bin/../lib/gcc/sparc-gaisler-elf/10.2.0/../../../../sparc-gaisler-elf/lib/leon3v7/soft/libc.a(lib_a-fflush.o)
 .data          0x0000000040011620        0x0 /home/fsw/rep/tasa/lib/bcc-2.2.3-gcc/bin/../lib/gcc/sparc-gaisler-elf/10.2.0/../../../../sparc-gaisler-elf/lib/leon3v7/soft/libc.a(lib_a-findfp.o)
 .data          0x0000000040011620        0x0 /home/fsw/rep/tasa/lib/bcc-2.2.3-gcc/bin/../lib/gcc/sparc-gaisler-elf/10.2.0/../../../../sparc-gaisler-elf/lib/leon3v7/soft/libc.a(lib_a-freer.o)
 .data          0x0000000040011620        0x0 /home/fsw/rep/tasa/lib/bcc-2.2.3-gcc/bin/../lib/gcc/sparc-gaisler-elf/10.2.0/../../../../sparc-gaisler-elf/lib/leon3v7/soft/libc.a(lib_a-fvwrite.o)
 .data          0x0000000040011620        0x0 /home/fsw/rep/tasa/lib/bcc-2.2.3-gcc/bin/../lib/gcc/sparc-gaisler-elf/10.2.0/../../../../sparc-gaisler-elf/lib/leon3v7/soft/libc.a(lib_a-fwalk.o)
 .data          0x0000000040011620        0x0 /home/fsw/rep/tasa/lib/bcc-2.2.3-gcc/bin/../lib/gcc/sparc-gaisler-elf/10.2.0/../../../../sparc-gaisler-elf/lib/leon3v7/soft/libc.a(lib_a-localeconv.o)
 .data          0x0000000040011620        0x0 /home/fsw/rep/tasa/lib/bcc-2.2.3-gcc/bin/../lib/gcc/sparc-gaisler-elf/10.2.0/../../../../sparc-gaisler-elf/lib/leon3v7/soft/libc.a(lib_a-makebuf.o)
 .data          0x0000000040011620        0x0 /home/fsw/rep/tasa/lib/bcc-2.2.3-gcc/bin/../lib/gcc/sparc-gaisler-elf/10.2.0/../../../../sparc-gaisler-elf/lib/leon3v7/soft/libc.a(lib_a-malloc.o)
 .data          0x0000000040011620      0x410 /home/fsw/rep/tasa/lib/bcc-2.2.3-gcc/bin/../lib/gcc/sparc-gaisler-elf/10.2.0/../../../../sparc-gaisler-elf/lib/leon3v7/soft/libc.a(lib_a-mallocr.o)
                0x0000000040011620                __malloc_sbrk_base
                0x0000000040011624                __malloc_trim_threshold
                0x0000000040011628                __malloc_av_
 .data          0x0000000040011a30        0x0 /home/fsw/rep/tasa/lib/bcc-2.2.3-gcc/bin/../lib/gcc/sparc-gaisler-elf/10.2.0/../../../../sparc-gaisler-elf/lib/leon3v7/soft/libc.a(lib_a-memchr.o)
 .data          0x0000000040011a30        0x0 /home/fsw/rep/tasa/lib/bcc-2.2.3-gcc/bin/../lib/gcc/sparc-gaisler-elf/10.2.0/../../../../sparc-gaisler-elf/lib/leon3v7/soft/libc.a(lib_a-memmove.o)
 .data          0x0000000040011a30        0x0 /home/fsw/rep/tasa/lib/bcc-2.2.3-gcc/bin/../lib/gcc/sparc-gaisler-elf/10.2.0/../../../../sparc-gaisler-elf/lib/leon3v7/soft/libc.a(lib_a-memset.o)
 .data          0x0000000040011a30        0x0 /home/fsw/rep/tasa/lib/bcc-2.2.3-gcc/bin/../lib/gcc/sparc-gaisler-elf/10.2.0/../../../../sparc-gaisler-elf/lib/leon3v7/soft/libc.a(lib_a-mlock.o)
 .data          0x0000000040011a30        0x0 /home/fsw/rep/tasa/lib/bcc-2.2.3-gcc/bin/../lib/gcc/sparc-gaisler-elf/10.2.0/../../../../sparc-gaisler-elf/lib/leon3v7/soft/libc.a(lib_a-mprec.o)
 .data          0x0000000040011a30        0x0 /home/fsw/rep/tasa/lib/bcc-2.2.3-gcc/bin/../lib/gcc/sparc-gaisler-elf/10.2.0/../../../../sparc-gaisler-elf/lib/leon3v7/soft/libc.a(lib_a-putc.o)
 .data          0x0000000040011a30        0x0 /home/fsw/rep/tasa/lib/bcc-2.2.3-gcc/bin/../lib/gcc/sparc-gaisler-elf/10.2.0/../../../../sparc-gaisler-elf/lib/leon3v7/soft/libc.a(lib_a-reallocr.o)
 .data          0x0000000040011a30        0x0 /home/fsw/rep/tasa/lib/bcc-2.2.3-gcc/bin/../lib/gcc/sparc-gaisler-elf/10.2.0/../../../../sparc-gaisler-elf/lib/leon3v7/soft/libc.a(lib_a-s_frexp.o)
 .data          0x0000000040011a30        0x0 /home/fsw/rep/tasa/lib/bcc-2.2.3-gcc/bin/../lib/gcc/sparc-gaisler-elf/10.2.0/../../../../sparc-gaisler-elf/lib/leon3v7/soft/libc.a(lib_a-sbrkr.o)
 .data          0x0000000040011a30        0x0 /home/fsw/rep/tasa/lib/bcc-2.2.3-gcc/bin/../lib/gcc/sparc-gaisler-elf/10.2.0/../../../../sparc-gaisler-elf/lib/leon3v7/soft/libc.a(lib_a-stdio.o)
 .data          0x0000000040011a30        0x0 /home/fsw/rep/tasa/lib/bcc-2.2.3-gcc/bin/../lib/gcc/sparc-gaisler-elf/10.2.0/../../../../sparc-gaisler-elf/lib/leon3v7/soft/libc.a(lib_a-strncpy.o)
 .data          0x0000000040011a30        0x0 /home/fsw/rep/tasa/lib/bcc-2.2.3-gcc/bin/../lib/gcc/sparc-gaisler-elf/10.2.0/../../../../sparc-gaisler-elf/lib/leon3v7/soft/libc.a(lib_a-vfiprintf.o)
 .data          0x0000000040011a30        0x0 /home/fsw/rep/tasa/lib/bcc-2.2.3-gcc/bin/../lib/gcc/sparc-gaisler-elf/10.2.0/../../../../sparc-gaisler-elf/lib/leon3v7/soft/libc.a(lib_a-wbuf.o)
 .data          0x0000000040011a30        0x0 /home/fsw/rep/tasa/lib/bcc-2.2.3-gcc/bin/../lib/gcc/sparc-gaisler-elf/10.2.0/../../../../sparc-gaisler-elf/lib/leon3v7/soft/libc.a(lib_a-writer.o)
 .data          0x0000000040011a30        0x0 /home/fsw/rep/tasa/lib/bcc-2.2.3-gcc/bin/../lib/gcc/sparc-gaisler-elf/10.2.0/../../../../sparc-gaisler-elf/lib/leon3v7/soft/libc.a(lib_a-callocr.o)
 .data          0x0000000040011a30        0x0 /home/fsw/rep/tasa/lib/bcc-2.2.3-gcc/bin/../lib/gcc/sparc-gaisler-elf/10.2.0/../../../../sparc-gaisler-elf/lib/leon3v7/soft/libc.a(lib_a-closer.o)
 .data          0x0000000040011a30        0x0 /home/fsw/rep/tasa/lib/bcc-2.2.3-gcc/bin/../lib/gcc/sparc-gaisler-elf/10.2.0/../../../../sparc-gaisler-elf/lib/leon3v7/soft/libc.a(lib_a-fclose.o)
 .data          0x0000000040011a30        0x0 /home/fsw/rep/tasa/lib/bcc-2.2.3-gcc/bin/../lib/gcc/sparc-gaisler-elf/10.2.0/../../../../sparc-gaisler-elf/lib/leon3v7/soft/libc.a(lib_a-fputwc.o)
 .data          0x0000000040011a30        0x0 /home/fsw/rep/tasa/lib/bcc-2.2.3-gcc/bin/../lib/gcc/sparc-gaisler-elf/10.2.0/../../../../sparc-gaisler-elf/lib/leon3v7/soft/libc.a(lib_a-fstatr.o)
 .data          0x0000000040011a30        0x0 /home/fsw/rep/tasa/lib/bcc-2.2.3-gcc/bin/../lib/gcc/sparc-gaisler-elf/10.2.0/../../../../sparc-gaisler-elf/lib/leon3v7/soft/libc.a(lib_a-isattyr.o)
 .data          0x0000000040011a30      0x16c /home/fsw/rep/tasa/lib/bcc-2.2.3-gcc/bin/../lib/gcc/sparc-gaisler-elf/10.2.0/../../../../sparc-gaisler-elf/lib/leon3v7/soft/libc.a(lib_a-locale.o)
                0x0000000040011a30                __global_locale
 .data          0x0000000040011b9c        0x0 /home/fsw/rep/tasa/lib/bcc-2.2.3-gcc/bin/../lib/gcc/sparc-gaisler-elf/10.2.0/../../../../sparc-gaisler-elf/lib/leon3v7/soft/libc.a(lib_a-lseekr.o)
 .data          0x0000000040011b9c        0x0 /home/fsw/rep/tasa/lib/bcc-2.2.3-gcc/bin/../lib/gcc/sparc-gaisler-elf/10.2.0/../../../../sparc-gaisler-elf/lib/leon3v7/soft/libc.a(lib_a-mbtowc_r.o)
 .data          0x0000000040011b9c        0x0 /home/fsw/rep/tasa/lib/bcc-2.2.3-gcc/bin/../lib/gcc/sparc-gaisler-elf/10.2.0/../../../../sparc-gaisler-elf/lib/leon3v7/soft/libc.a(lib_a-readr.o)
 .data          0x0000000040011b9c        0x0 /home/fsw/rep/tasa/lib/bcc-2.2.3-gcc/bin/../lib/gcc/sparc-gaisler-elf/10.2.0/../../../../sparc-gaisler-elf/lib/leon3v7/soft/libc.a(lib_a-reent.o)
 .data          0x0000000040011b9c        0x0 /home/fsw/rep/tasa/lib/bcc-2.2.3-gcc/bin/../lib/gcc/sparc-gaisler-elf/10.2.0/../../../../sparc-gaisler-elf/lib/leon3v7/soft/libc.a(lib_a-strcmp.o)
 .data          0x0000000040011b9c        0x0 /home/fsw/rep/tasa/lib/bcc-2.2.3-gcc/bin/../lib/gcc/sparc-gaisler-elf/10.2.0/../../../../sparc-gaisler-elf/lib/leon3v7/soft/libc.a(lib_a-wcrtomb.o)
 .data          0x0000000040011b9c        0x0 /home/fsw/rep/tasa/lib/bcc-2.2.3-gcc/bin/../lib/gcc/sparc-gaisler-elf/10.2.0/../../../../sparc-gaisler-elf/lib/leon3v7/soft/libc.a(lib_a-wctomb_r.o)
 .data          0x0000000040011b9c        0x0 /home/fsw/rep/tasa/lib/bcc-2.2.3-gcc/bin/../lib/gcc/sparc-gaisler-elf/10.2.0/../../../../sparc-gaisler-elf/lib/leon3v7/soft/libc.a(lib_a-ctype_.o)
 .data          0x0000000040011b9c        0x0 /home/fsw/rep/tasa/lib/bcc-2.2.3-gcc/bin/../sparc-gaisler-elf/bsp/leon3/leon3v7/soft/libbcc.a(_exit.S.o)
 .data          0x0000000040011b9c        0x0 /home/fsw/rep/tasa/lib/bcc-2.2.3-gcc/bin/../sparc-gaisler-elf/bsp/leon3/leon3v7/soft/libbcc.a(read.c.o)
 .data          0x0000000040011b9c        0x0 /home/fsw/rep/tasa/lib/bcc-2.2.3-gcc/bin/../sparc-gaisler-elf/bsp/leon3/leon3v7/soft/libbcc.a(sbrk.c.o)
 .data          0x0000000040011b9c        0x0 /home/fsw/rep/tasa/lib/bcc-2.2.3-gcc/bin/../sparc-gaisler-elf/bsp/leon3/leon3v7/soft/libbcc.a(heap.c.o)
 .data          0x0000000040011b9c        0x0 /home/fsw/rep/tasa/lib/bcc-2.2.3-gcc/bin/../sparc-gaisler-elf/bsp/leon3/leon3v7/soft/libbcc.a(write.c.o)
 .data          0x0000000040011b9c        0x0 /home/fsw/rep/tasa/lib/bcc-2.2.3-gcc/bin/../sparc-gaisler-elf/bsp/leon3/leon3v7/soft/libbcc.a(stubs.S.o)
 .data          0x0000000040011b9c        0x0 /home/fsw/rep/tasa/lib/bcc-2.2.3-gcc/bin/../sparc-gaisler-elf/bsp/leon3/leon3v7/soft/libbcc.a(con_apbuart.c.o)
 .data          0x0000000040011b9c        0x0 /home/fsw/rep/tasa/lib/bcc-2.2.3-gcc/bin/../lib/gcc/sparc-gaisler-elf/10.2.0/leon3v7/soft/libgcc.a(_mulsi3.o)
 .data          0x0000000040011b9c        0x0 /home/fsw/rep/tasa/lib/bcc-2.2.3-gcc/bin/../lib/gcc/sparc-gaisler-elf/10.2.0/leon3v7/soft/libgcc.a(_divsi3.o)
 .data          0x0000000040011b9c        0x0 /home/fsw/rep/tasa/lib/bcc-2.2.3-gcc/bin/../lib/gcc/sparc-gaisler-elf/10.2.0/leon3v7/soft/libgcc.a(_modsi3.o)
 .data          0x0000000040011b9c        0x0 /home/fsw/rep/tasa/lib/bcc-2.2.3-gcc/bin/../lib/gcc/sparc-gaisler-elf/10.2.0/leon3v7/soft/libgcc.a(_udivdi3.o)
 .data          0x0000000040011b9c        0x0 /home/fsw/rep/tasa/lib/bcc-2.2.3-gcc/bin/../lib/gcc/sparc-gaisler-elf/10.2.0/leon3v7/soft/libgcc.a(_umoddi3.o)
 .data          0x0000000040011b9c        0x0 /home/fsw/rep/tasa/lib/bcc-2.2.3-gcc/bin/../lib/gcc/sparc-gaisler-elf/10.2.0/leon3v7/soft/libgcc.a(_addsub_df.o)
 .data          0x0000000040011b9c        0x0 /home/fsw/rep/tasa/lib/bcc-2.2.3-gcc/bin/../lib/gcc/sparc-gaisler-elf/10.2.0/leon3v7/soft/libgcc.a(_mul_df.o)
 .data          0x0000000040011b9c        0x0 /home/fsw/rep/tasa/lib/bcc-2.2.3-gcc/bin/../lib/gcc/sparc-gaisler-elf/10.2.0/leon3v7/soft/libgcc.a(_div_df.o)
 .data          0x0000000040011b9c        0x0 /home/fsw/rep/tasa/lib/bcc-2.2.3-gcc/bin/../lib/gcc/sparc-gaisler-elf/10.2.0/leon3v7/soft/libgcc.a(_eq_df.o)
 .data          0x0000000040011b9c        0x0 /home/fsw/rep/tasa/lib/bcc-2.2.3-gcc/bin/../lib/gcc/sparc-gaisler-elf/10.2.0/leon3v7/soft/libgcc.a(_ne_df.o)
 .data          0x0000000040011b9c        0x0 /home/fsw/rep/tasa/lib/bcc-2.2.3-gcc/bin/../lib/gcc/sparc-gaisler-elf/10.2.0/leon3v7/soft/libgcc.a(_gt_df.o)
 .data          0x0000000040011b9c        0x0 /home/fsw/rep/tasa/lib/bcc-2.2.3-gcc/bin/../lib/gcc/sparc-gaisler-elf/10.2.0/leon3v7/soft/libgcc.a(_lt_df.o)
 .data          0x0000000040011b9c        0x0 /home/fsw/rep/tasa/lib/bcc-2.2.3-gcc/bin/../lib/gcc/sparc-gaisler-elf/10.2.0/leon3v7/soft/libgcc.a(_le_df.o)
 .data          0x0000000040011b9c        0x0 /home/fsw/rep/tasa/lib/bcc-2.2.3-gcc/bin/../lib/gcc/sparc-gaisler-elf/10.2.0/leon3v7/soft/libgcc.a(_unord_df.o)
 .data          0x0000000040011b9c        0x0 /home/fsw/rep/tasa/lib/bcc-2.2.3-gcc/bin/../lib/gcc/sparc-gaisler-elf/10.2.0/leon3v7/soft/libgcc.a(_si_to_df.o)
 .data          0x0000000040011b9c        0x0 /home/fsw/rep/tasa/lib/bcc-2.2.3-gcc/bin/../lib/gcc/sparc-gaisler-elf/10.2.0/leon3v7/soft/libgcc.a(_df_to_si.o)
 .data          0x0000000040011b9c        0x0 /home/fsw/rep/tasa/lib/bcc-2.2.3-gcc/bin/../lib/gcc/sparc-gaisler-elf/10.2.0/leon3v7/soft/libgcc.a(_thenan_df.o)
 .data          0x0000000040011b9c        0x0 /home/fsw/rep/tasa/lib/bcc-2.2.3-gcc/bin/../lib/gcc/sparc-gaisler-elf/10.2.0/leon3v7/soft/libgcc.a(_usi_to_df.o)
 .data          0x0000000040011b9c        0x0 /home/fsw/rep/tasa/lib/bcc-2.2.3-gcc/bin/../lib/gcc/sparc-gaisler-elf/10.2.0/leon3v7/soft/libgcc.a(_muldi3.o)
 .data          0x0000000040011b9c        0x0 /home/fsw/rep/tasa/lib/bcc-2.2.3-gcc/bin/../lib/gcc/sparc-gaisler-elf/10.2.0/leon3v7/soft/libgcc.a(_clz.o)
 .data          0x0000000040011b9c        0x0 /home/fsw/rep/tasa/lib/bcc-2.2.3-gcc/bin/../lib/gcc/sparc-gaisler-elf/10.2.0/leon3v7/soft/libgcc.a(_clzsi2.o)
 .data          0x0000000040011b9c        0x0 /home/fsw/rep/tasa/lib/bcc-2.2.3-gcc/bin/../lib/gcc/sparc-gaisler-elf/10.2.0/leon3v7/soft/libgcc.a(_pack_df.o)
 .data          0x0000000040011b9c        0x0 /home/fsw/rep/tasa/lib/bcc-2.2.3-gcc/bin/../lib/gcc/sparc-gaisler-elf/10.2.0/leon3v7/soft/libgcc.a(_unpack_df.o)
 .data          0x0000000040011b9c        0x0 /home/fsw/rep/tasa/lib/bcc-2.2.3-gcc/bin/../lib/gcc/sparc-gaisler-elf/10.2.0/leon3v7/soft/libgcc.a(_fpcmp_parts_df.o)
 .data          0x0000000040011b9c        0x0 /home/fsw/rep/tasa/lib/bcc-2.2.3-gcc/bin/../lib/gcc/sparc-gaisler-elf/10.2.0/leon3v7/soft/crtend.o
 .data          0x0000000040011b9c        0x0 /home/fsw/rep/tasa/lib/bcc-2.2.3-gcc/bin/../lib/gcc/sparc-gaisler-elf/10.2.0/leon3v7/soft/crtn.o
                0x0000000040011ba0                . = ALIGN (0x8)
 *fill*         0x0000000040011b9c        0x4 
                0x0000000040011ba0                __data_end = .
                0x0000000040011590                __data_start_lma = LOADADDR (.data)
                0x0000000000000610                __data_size = SIZEOF (.data)

.iplt           0x0000000040011ba0        0x0
 .iplt          0x0000000040011ba0        0x0 /home/fsw/rep/tasa/lib/bcc-2.2.3-gcc/bin/../sparc-gaisler-elf/bsp/leon3/leon3v7/soft/trap_table_mvt.S.o

.tm_clone_table
                0x0000000040011ba0        0x0
 .tm_clone_table
                0x0000000040011ba0        0x0 /home/fsw/rep/tasa/lib/bcc-2.2.3-gcc/bin/../lib/gcc/sparc-gaisler-elf/10.2.0/leon3v7/soft/crtbegin.o
 .tm_clone_table
                0x0000000040011ba0        0x0 /home/fsw/rep/tasa/lib/bcc-2.2.3-gcc/bin/../lib/gcc/sparc-gaisler-elf/10.2.0/leon3v7/soft/crtend.o

.bss            0x0000000040011ba0      0x1c0
                0x0000000040011ba0                . = ALIGN (0x8)
                0x0000000040011ba0                __bss_start = .
 *(.bss .bss.*)
 .bss           0x0000000040011ba0        0x0 /home/fsw/rep/tasa/lib/bcc-2.2.3-gcc/bin/../sparc-gaisler-elf/bsp/leon3/leon3v7/soft/trap_table_mvt.S.o
 .bss           0x0000000040011ba0        0x4 /home/fsw/rep/tasa/lib/bcc-2.2.3-gcc/bin/../sparc-gaisler-elf/bsp/leon3/leon3v7/soft/crt0.S.o
                0x0000000040011ba0                __bcc_sp_at_entry
 .bss           0x0000000040011ba4        0x0 /home/fsw/rep/tasa/lib/bcc-2.2.3-gcc/bin/../lib/gcc/sparc-gaisler-elf/10.2.0/leon3v7/soft/crti.o
 .bss           0x0000000040011ba4       0x20 /home/fsw/rep/tasa/lib/bcc-2.2.3-gcc/bin/../lib/gcc/sparc-gaisler-elf/10.2.0/leon3v7/soft/crtbegin.o
 .bss           0x0000000040011bc4        0x0 /tmp/ccK7ILCi.o
 .bss           0x0000000040011bc4        0x0 /home/fsw/rep/tasa/lib/bcc-2.2.3-gcc/bin/../sparc-gaisler-elf/bsp/leon3/leon3v7/soft/libbcc.a(reset_trap_mvt.S.o)
 .bss           0x0000000040011bc4        0x0 /home/fsw/rep/tasa/lib/bcc-2.2.3-gcc/bin/../sparc-gaisler-elf/bsp/leon3/leon3v7/soft/libbcc.a(window_trap.S.o)
 .bss           0x0000000040011bc4        0x0 /home/fsw/rep/tasa/lib/bcc-2.2.3-gcc/bin/../sparc-gaisler-elf/bsp/leon3/leon3v7/soft/libbcc.a(interrupt_trap.S.o)
 *fill*         0x0000000040011bc4        0x4 
 .bss           0x0000000040011bc8       0x14 /home/fsw/rep/tasa/lib/bcc-2.2.3-gcc/bin/../sparc-gaisler-elf/bsp/leon3/leon3v7/soft/libbcc.a(flush_windows_trap.S.o)
 .bss           0x0000000040011bdc        0x0 /home/fsw/rep/tasa/lib/bcc-2.2.3-gcc/bin/../sparc-gaisler-elf/bsp/leon3/leon3v7/soft/libbcc.a(sw_trap_set_pil.S.o)
 .bss           0x0000000040011bdc       0x80 /home/fsw/rep/tasa/lib/bcc-2.2.3-gcc/bin/../sparc-gaisler-elf/bsp/leon3/leon3v7/soft/libbcc.a(isr.c.o)
                0x0000000040011bdc                __bcc_isr_list
 .bss           0x0000000040011c5c        0x0 /home/fsw/rep/tasa/lib/bcc-2.2.3-gcc/bin/../sparc-gaisler-elf/bsp/leon3/leon3v7/soft/libbcc.a(int_nest.c.o)
 .bss           0x0000000040011c5c        0x0 /home/fsw/rep/tasa/lib/bcc-2.2.3-gcc/bin/../sparc-gaisler-elf/bsp/leon3/leon3v7/soft/libbcc.a(init.S.o)
 .bss           0x0000000040011c5c        0x0 /home/fsw/rep/tasa/lib/bcc-2.2.3-gcc/bin/../sparc-gaisler-elf/bsp/leon3/leon3v7/soft/libbcc.a(leon_info.S.o)
 .bss           0x0000000040011c5c        0x0 /home/fsw/rep/tasa/lib/bcc-2.2.3-gcc/bin/../sparc-gaisler-elf/bsp/leon3/leon3v7/soft/libbcc.a(dwzero.S.o)
 .bss           0x0000000040011c5c        0x0 /home/fsw/rep/tasa/lib/bcc-2.2.3-gcc/bin/../sparc-gaisler-elf/bsp/leon3/leon3v7/soft/libbcc.a(copy_data.c.o)
 .bss           0x0000000040011c5c        0x8 /home/fsw/rep/tasa/lib/bcc-2.2.3-gcc/bin/../sparc-gaisler-elf/bsp/leon3/leon3v7/soft/libbcc.a(argv.c.o)
                0x0000000040011c60                __bcc_argc
 .bss           0x0000000040011c64        0x0 /home/fsw/rep/tasa/lib/bcc-2.2.3-gcc/bin/../sparc-gaisler-elf/bsp/leon3/leon3v7/soft/libbcc.a(int_irqmp_get_source.c.o)
 .bss           0x0000000040011c64        0x0 /home/fsw/rep/tasa/lib/bcc-2.2.3-gcc/bin/../sparc-gaisler-elf/bsp/leon3/leon3v7/soft/libbcc.a(int_irqmp_mp.c.o)
 .bss           0x0000000040011c64        0x0 /home/fsw/rep/tasa/lib/bcc-2.2.3-gcc/bin/../sparc-gaisler-elf/bsp/leon3/leon3v7/soft/libbcc.a(int_irqmp_init.c.o)
 .bss           0x0000000040011c64        0x0 /home/fsw/rep/tasa/lib/bcc-2.2.3-gcc/bin/../sparc-gaisler-elf/bsp/leon3/leon3v7/soft/libbcc.a(con_apbuart_init.c.o)
 .bss           0x0000000040011c64        0x0 /home/fsw/rep/tasa/lib/bcc-2.2.3-gcc/bin/../sparc-gaisler-elf/bsp/leon3/leon3v7/soft/libbcc.a(timer_gptimer_init.c.o)
 .bss           0x0000000040011c64        0x0 /home/fsw/rep/tasa/lib/bcc-2.2.3-gcc/bin/../sparc-gaisler-elf/bsp/leon3/leon3v7/soft/libbcc.a(ambapp.c.o)
 .bss           0x0000000040011c64        0x0 /home/fsw/rep/tasa/lib/bcc-2.2.3-gcc/bin/../sparc-gaisler-elf/bsp/leon3/leon3v7/soft/libbcc.a(ambapp_findfirst_fn.c.o)
 .bss           0x0000000040011c64       0x10 /home/fsw/rep/tasa/lib/bcc-2.2.3-gcc/bin/../sparc-gaisler-elf/bsp/leon3/leon3v7/soft/libbcc.a(int_irqmp_handle.c.o)
                0x0000000040011c64                __bcc_int_irqmp_nts
                0x0000000040011c68                __bcc_int_irqmp_map
                0x0000000040011c6c                __bcc_int_irqmp_eirq
                0x0000000040011c70                __bcc_int_handle
 .bss           0x0000000040011c74        0x4 /home/fsw/rep/tasa/lib/bcc-2.2.3-gcc/bin/../sparc-gaisler-elf/bsp/leon3/leon3v7/soft/libbcc.a(con_handle.c.o)
                0x0000000040011c74                __bcc_con_handle
 .bss           0x0000000040011c78        0x8 /home/fsw/rep/tasa/lib/bcc-2.2.3-gcc/bin/../sparc-gaisler-elf/bsp/leon3/leon3v7/soft/libbcc.a(timer_handle.c.o)
                0x0000000040011c78                __bcc_timer_interrupt
                0x0000000040011c7c                __bcc_timer_handle
 .bss           0x0000000040011c80        0x0 /home/fsw/rep/tasa/lib/bcc-2.2.3-gcc/bin/../lib/gcc/sparc-gaisler-elf/10.2.0/../../../../sparc-gaisler-elf/lib/leon3v7/soft/libc.a(lib_a-atexit.o)
 .bss           0x0000000040011c80        0x0 /home/fsw/rep/tasa/lib/bcc-2.2.3-gcc/bin/../lib/gcc/sparc-gaisler-elf/10.2.0/../../../../sparc-gaisler-elf/lib/leon3v7/soft/libc.a(lib_a-exit.o)
 .bss           0x0000000040011c80        0x0 /home/fsw/rep/tasa/lib/bcc-2.2.3-gcc/bin/../lib/gcc/sparc-gaisler-elf/10.2.0/../../../../sparc-gaisler-elf/lib/leon3v7/soft/libc.a(lib_a-impure.o)
 .bss           0x0000000040011c80        0x0 /home/fsw/rep/tasa/lib/bcc-2.2.3-gcc/bin/../lib/gcc/sparc-gaisler-elf/10.2.0/../../../../sparc-gaisler-elf/lib/leon3v7/soft/libc.a(lib_a-memcpy.o)
 .bss           0x0000000040011c80        0x0 /home/fsw/rep/tasa/lib/bcc-2.2.3-gcc/bin/../lib/gcc/sparc-gaisler-elf/10.2.0/../../../../sparc-gaisler-elf/lib/leon3v7/soft/libc.a(lib_a-printf.o)
 .bss           0x0000000040011c80        0x0 /home/fsw/rep/tasa/lib/bcc-2.2.3-gcc/bin/../lib/gcc/sparc-gaisler-elf/10.2.0/../../../../sparc-gaisler-elf/lib/leon3v7/soft/libc.a(lib_a-putchar.o)
 .bss           0x0000000040011c80        0x0 /home/fsw/rep/tasa/lib/bcc-2.2.3-gcc/bin/../lib/gcc/sparc-gaisler-elf/10.2.0/../../../../sparc-gaisler-elf/lib/leon3v7/soft/libc.a(lib_a-puts.o)
 .bss           0x0000000040011c80        0x0 /home/fsw/rep/tasa/lib/bcc-2.2.3-gcc/bin/../lib/gcc/sparc-gaisler-elf/10.2.0/../../../../sparc-gaisler-elf/lib/leon3v7/soft/libc.a(lib_a-strlen.o)
 .bss           0x0000000040011c80        0x0 /home/fsw/rep/tasa/lib/bcc-2.2.3-gcc/bin/../lib/gcc/sparc-gaisler-elf/10.2.0/../../../../sparc-gaisler-elf/lib/leon3v7/soft/libc.a(lib_a-vfprintf.o)
 .bss           0x0000000040011c80        0x0 /home/fsw/rep/tasa/lib/bcc-2.2.3-gcc/bin/../lib/gcc/sparc-gaisler-elf/10.2.0/../../../../sparc-gaisler-elf/lib/leon3v7/soft/libc.a(lib_a-wsetup.o)
 .bss           0x0000000040011c80       0x8c /home/fsw/rep/tasa/lib/bcc-2.2.3-gcc/bin/../lib/gcc/sparc-gaisler-elf/10.2.0/../../../../sparc-gaisler-elf/lib/leon3v7/soft/libc.a(lib_a-__atexit.o)
 .bss           0x0000000040011d0c        0x4 /home/fsw/rep/tasa/lib/bcc-2.2.3-gcc/bin/../lib/gcc/sparc-gaisler-elf/10.2.0/../../../../sparc-gaisler-elf/lib/leon3v7/soft/libc.a(lib_a-__call_atexit.o)
                0x0000000040011d0c                _global_atexit
 .bss           0x0000000040011d10        0x0 /home/fsw/rep/tasa/lib/bcc-2.2.3-gcc/bin/../lib/gcc/sparc-gaisler-elf/10.2.0/../../../../sparc-gaisler-elf/lib/leon3v7/soft/libc.a(lib_a-dtoa.o)
 .bss           0x0000000040011d10        0x0 /home/fsw/rep/tasa/lib/bcc-2.2.3-gcc/bin/../lib/gcc/sparc-gaisler-elf/10.2.0/../../../../sparc-gaisler-elf/lib/leon3v7/soft/libc.a(lib_a-fflush.o)
 .bss           0x0000000040011d10        0x0 /home/fsw/rep/tasa/lib/bcc-2.2.3-gcc/bin/../lib/gcc/sparc-gaisler-elf/10.2.0/../../../../sparc-gaisler-elf/lib/leon3v7/soft/libc.a(lib_a-findfp.o)
 .bss           0x0000000040011d10        0x0 /home/fsw/rep/tasa/lib/bcc-2.2.3-gcc/bin/../lib/gcc/sparc-gaisler-elf/10.2.0/../../../../sparc-gaisler-elf/lib/leon3v7/soft/libc.a(lib_a-freer.o)
 .bss           0x0000000040011d10        0x0 /home/fsw/rep/tasa/lib/bcc-2.2.3-gcc/bin/../lib/gcc/sparc-gaisler-elf/10.2.0/../../../../sparc-gaisler-elf/lib/leon3v7/soft/libc.a(lib_a-fvwrite.o)
 .bss           0x0000000040011d10        0x0 /home/fsw/rep/tasa/lib/bcc-2.2.3-gcc/bin/../lib/gcc/sparc-gaisler-elf/10.2.0/../../../../sparc-gaisler-elf/lib/leon3v7/soft/libc.a(lib_a-fwalk.o)
 .bss           0x0000000040011d10        0x0 /home/fsw/rep/tasa/lib/bcc-2.2.3-gcc/bin/../lib/gcc/sparc-gaisler-elf/10.2.0/../../../../sparc-gaisler-elf/lib/leon3v7/soft/libc.a(lib_a-localeconv.o)
 .bss           0x0000000040011d10        0x0 /home/fsw/rep/tasa/lib/bcc-2.2.3-gcc/bin/../lib/gcc/sparc-gaisler-elf/10.2.0/../../../../sparc-gaisler-elf/lib/leon3v7/soft/libc.a(lib_a-makebuf.o)
 .bss           0x0000000040011d10        0x0 /home/fsw/rep/tasa/lib/bcc-2.2.3-gcc/bin/../lib/gcc/sparc-gaisler-elf/10.2.0/../../../../sparc-gaisler-elf/lib/leon3v7/soft/libc.a(lib_a-malloc.o)
 .bss           0x0000000040011d10       0x34 /home/fsw/rep/tasa/lib/bcc-2.2.3-gcc/bin/../lib/gcc/sparc-gaisler-elf/10.2.0/../../../../sparc-gaisler-elf/lib/leon3v7/soft/libc.a(lib_a-mallocr.o)
                0x0000000040011d10                __malloc_current_mallinfo
                0x0000000040011d38                __malloc_max_total_mem
                0x0000000040011d3c                __malloc_max_sbrked_mem
                0x0000000040011d40                __malloc_top_pad
 .bss           0x0000000040011d44        0x0 /home/fsw/rep/tasa/lib/bcc-2.2.3-gcc/bin/../lib/gcc/sparc-gaisler-elf/10.2.0/../../../../sparc-gaisler-elf/lib/leon3v7/soft/libc.a(lib_a-memchr.o)
 .bss           0x0000000040011d44        0x0 /home/fsw/rep/tasa/lib/bcc-2.2.3-gcc/bin/../lib/gcc/sparc-gaisler-elf/10.2.0/../../../../sparc-gaisler-elf/lib/leon3v7/soft/libc.a(lib_a-memmove.o)
 .bss           0x0000000040011d44        0x0 /home/fsw/rep/tasa/lib/bcc-2.2.3-gcc/bin/../lib/gcc/sparc-gaisler-elf/10.2.0/../../../../sparc-gaisler-elf/lib/leon3v7/soft/libc.a(lib_a-memset.o)
 .bss           0x0000000040011d44        0x0 /home/fsw/rep/tasa/lib/bcc-2.2.3-gcc/bin/../lib/gcc/sparc-gaisler-elf/10.2.0/../../../../sparc-gaisler-elf/lib/leon3v7/soft/libc.a(lib_a-mlock.o)
 .bss           0x0000000040011d44        0x0 /home/fsw/rep/tasa/lib/bcc-2.2.3-gcc/bin/../lib/gcc/sparc-gaisler-elf/10.2.0/../../../../sparc-gaisler-elf/lib/leon3v7/soft/libc.a(lib_a-mprec.o)
 .bss           0x0000000040011d44        0x0 /home/fsw/rep/tasa/lib/bcc-2.2.3-gcc/bin/../lib/gcc/sparc-gaisler-elf/10.2.0/../../../../sparc-gaisler-elf/lib/leon3v7/soft/libc.a(lib_a-putc.o)
 .bss           0x0000000040011d44        0x0 /home/fsw/rep/tasa/lib/bcc-2.2.3-gcc/bin/../lib/gcc/sparc-gaisler-elf/10.2.0/../../../../sparc-gaisler-elf/lib/leon3v7/soft/libc.a(lib_a-reallocr.o)
 .bss           0x0000000040011d44        0x0 /home/fsw/rep/tasa/lib/bcc-2.2.3-gcc/bin/../lib/gcc/sparc-gaisler-elf/10.2.0/../../../../sparc-gaisler-elf/lib/leon3v7/soft/libc.a(lib_a-s_frexp.o)
 .bss           0x0000000040011d44        0x0 /home/fsw/rep/tasa/lib/bcc-2.2.3-gcc/bin/../lib/gcc/sparc-gaisler-elf/10.2.0/../../../../sparc-gaisler-elf/lib/leon3v7/soft/libc.a(lib_a-sbrkr.o)
 .bss           0x0000000040011d44        0x0 /home/fsw/rep/tasa/lib/bcc-2.2.3-gcc/bin/../lib/gcc/sparc-gaisler-elf/10.2.0/../../../../sparc-gaisler-elf/lib/leon3v7/soft/libc.a(lib_a-stdio.o)
 .bss           0x0000000040011d44        0x0 /home/fsw/rep/tasa/lib/bcc-2.2.3-gcc/bin/../lib/gcc/sparc-gaisler-elf/10.2.0/../../../../sparc-gaisler-elf/lib/leon3v7/soft/libc.a(lib_a-strncpy.o)
 .bss           0x0000000040011d44        0x0 /home/fsw/rep/tasa/lib/bcc-2.2.3-gcc/bin/../lib/gcc/sparc-gaisler-elf/10.2.0/../../../../sparc-gaisler-elf/lib/leon3v7/soft/libc.a(lib_a-vfiprintf.o)
 .bss           0x0000000040011d44        0x0 /home/fsw/rep/tasa/lib/bcc-2.2.3-gcc/bin/../lib/gcc/sparc-gaisler-elf/10.2.0/../../../../sparc-gaisler-elf/lib/leon3v7/soft/libc.a(lib_a-wbuf.o)
 .bss           0x0000000040011d44        0x0 /home/fsw/rep/tasa/lib/bcc-2.2.3-gcc/bin/../lib/gcc/sparc-gaisler-elf/10.2.0/../../../../sparc-gaisler-elf/lib/leon3v7/soft/libc.a(lib_a-writer.o)
 .bss           0x0000000040011d44        0x0 /home/fsw/rep/tasa/lib/bcc-2.2.3-gcc/bin/../lib/gcc/sparc-gaisler-elf/10.2.0/../../../../sparc-gaisler-elf/lib/leon3v7/soft/libc.a(lib_a-callocr.o)
 .bss           0x0000000040011d44        0x0 /home/fsw/rep/tasa/lib/bcc-2.2.3-gcc/bin/../lib/gcc/sparc-gaisler-elf/10.2.0/../../../../sparc-gaisler-elf/lib/leon3v7/soft/libc.a(lib_a-closer.o)
 .bss           0x0000000040011d44        0x0 /home/fsw/rep/tasa/lib/bcc-2.2.3-gcc/bin/../lib/gcc/sparc-gaisler-elf/10.2.0/../../../../sparc-gaisler-elf/lib/leon3v7/soft/libc.a(lib_a-fclose.o)
 .bss           0x0000000040011d44        0x0 /home/fsw/rep/tasa/lib/bcc-2.2.3-gcc/bin/../lib/gcc/sparc-gaisler-elf/10.2.0/../../../../sparc-gaisler-elf/lib/leon3v7/soft/libc.a(lib_a-fputwc.o)
 .bss           0x0000000040011d44        0x0 /home/fsw/rep/tasa/lib/bcc-2.2.3-gcc/bin/../lib/gcc/sparc-gaisler-elf/10.2.0/../../../../sparc-gaisler-elf/lib/leon3v7/soft/libc.a(lib_a-fstatr.o)
 .bss           0x0000000040011d44        0x0 /home/fsw/rep/tasa/lib/bcc-2.2.3-gcc/bin/../lib/gcc/sparc-gaisler-elf/10.2.0/../../../../sparc-gaisler-elf/lib/leon3v7/soft/libc.a(lib_a-isattyr.o)
 .bss           0x0000000040011d44        0x4 /home/fsw/rep/tasa/lib/bcc-2.2.3-gcc/bin/../lib/gcc/sparc-gaisler-elf/10.2.0/../../../../sparc-gaisler-elf/lib/leon3v7/soft/libc.a(lib_a-locale.o)
                0x0000000040011d44                _PathLocale
 .bss           0x0000000040011d48        0x0 /home/fsw/rep/tasa/lib/bcc-2.2.3-gcc/bin/../lib/gcc/sparc-gaisler-elf/10.2.0/../../../../sparc-gaisler-elf/lib/leon3v7/soft/libc.a(lib_a-lseekr.o)
 .bss           0x0000000040011d48        0x0 /home/fsw/rep/tasa/lib/bcc-2.2.3-gcc/bin/../lib/gcc/sparc-gaisler-elf/10.2.0/../../../../sparc-gaisler-elf/lib/leon3v7/soft/libc.a(lib_a-mbtowc_r.o)
 .bss           0x0000000040011d48        0x0 /home/fsw/rep/tasa/lib/bcc-2.2.3-gcc/bin/../lib/gcc/sparc-gaisler-elf/10.2.0/../../../../sparc-gaisler-elf/lib/leon3v7/soft/libc.a(lib_a-readr.o)
 .bss           0x0000000040011d48        0x4 /home/fsw/rep/tasa/lib/bcc-2.2.3-gcc/bin/../lib/gcc/sparc-gaisler-elf/10.2.0/../../../../sparc-gaisler-elf/lib/leon3v7/soft/libc.a(lib_a-reent.o)
                0x0000000040011d48                errno
 .bss           0x0000000040011d4c        0x0 /home/fsw/rep/tasa/lib/bcc-2.2.3-gcc/bin/../lib/gcc/sparc-gaisler-elf/10.2.0/../../../../sparc-gaisler-elf/lib/leon3v7/soft/libc.a(lib_a-strcmp.o)
 .bss           0x0000000040011d4c        0x0 /home/fsw/rep/tasa/lib/bcc-2.2.3-gcc/bin/../lib/gcc/sparc-gaisler-elf/10.2.0/../../../../sparc-gaisler-elf/lib/leon3v7/soft/libc.a(lib_a-wcrtomb.o)
 .bss           0x0000000040011d4c        0x0 /home/fsw/rep/tasa/lib/bcc-2.2.3-gcc/bin/../lib/gcc/sparc-gaisler-elf/10.2.0/../../../../sparc-gaisler-elf/lib/leon3v7/soft/libc.a(lib_a-wctomb_r.o)
 .bss           0x0000000040011d4c        0x0 /home/fsw/rep/tasa/lib/bcc-2.2.3-gcc/bin/../lib/gcc/sparc-gaisler-elf/10.2.0/../../../../sparc-gaisler-elf/lib/leon3v7/soft/libc.a(lib_a-ctype_.o)
 .bss           0x0000000040011d4c        0x0 /home/fsw/rep/tasa/lib/bcc-2.2.3-gcc/bin/../sparc-gaisler-elf/bsp/leon3/leon3v7/soft/libbcc.a(_exit.S.o)
 .bss           0x0000000040011d4c        0x0 /home/fsw/rep/tasa/lib/bcc-2.2.3-gcc/bin/../sparc-gaisler-elf/bsp/leon3/leon3v7/soft/libbcc.a(read.c.o)
 .bss           0x0000000040011d4c        0x4 /home/fsw/rep/tasa/lib/bcc-2.2.3-gcc/bin/../sparc-gaisler-elf/bsp/leon3/leon3v7/soft/libbcc.a(sbrk.c.o)
 .bss           0x0000000040011d50        0x8 /home/fsw/rep/tasa/lib/bcc-2.2.3-gcc/bin/../sparc-gaisler-elf/bsp/leon3/leon3v7/soft/libbcc.a(heap.c.o)
                0x0000000040011d50                __bcc_heap_max
                0x0000000040011d54                __bcc_heap_min
 .bss           0x0000000040011d58        0x0 /home/fsw/rep/tasa/lib/bcc-2.2.3-gcc/bin/../sparc-gaisler-elf/bsp/leon3/leon3v7/soft/libbcc.a(write.c.o)
 .bss           0x0000000040011d58        0x0 /home/fsw/rep/tasa/lib/bcc-2.2.3-gcc/bin/../sparc-gaisler-elf/bsp/leon3/leon3v7/soft/libbcc.a(stubs.S.o)
 .bss           0x0000000040011d58        0x4 /home/fsw/rep/tasa/lib/bcc-2.2.3-gcc/bin/../sparc-gaisler-elf/bsp/leon3/leon3v7/soft/libbcc.a(con_apbuart.c.o)
 .bss           0x0000000040011d5c        0x0 /home/fsw/rep/tasa/lib/bcc-2.2.3-gcc/bin/../lib/gcc/sparc-gaisler-elf/10.2.0/leon3v7/soft/libgcc.a(_mulsi3.o)
 .bss           0x0000000040011d5c        0x0 /home/fsw/rep/tasa/lib/bcc-2.2.3-gcc/bin/../lib/gcc/sparc-gaisler-elf/10.2.0/leon3v7/soft/libgcc.a(_divsi3.o)
 .bss           0x0000000040011d5c        0x0 /home/fsw/rep/tasa/lib/bcc-2.2.3-gcc/bin/../lib/gcc/sparc-gaisler-elf/10.2.0/leon3v7/soft/libgcc.a(_modsi3.o)
 .bss           0x0000000040011d5c        0x0 /home/fsw/rep/tasa/lib/bcc-2.2.3-gcc/bin/../lib/gcc/sparc-gaisler-elf/10.2.0/leon3v7/soft/libgcc.a(_udivdi3.o)
 .bss           0x0000000040011d5c        0x0 /home/fsw/rep/tasa/lib/bcc-2.2.3-gcc/bin/../lib/gcc/sparc-gaisler-elf/10.2.0/leon3v7/soft/libgcc.a(_umoddi3.o)
 .bss           0x0000000040011d5c        0x0 /home/fsw/rep/tasa/lib/bcc-2.2.3-gcc/bin/../lib/gcc/sparc-gaisler-elf/10.2.0/leon3v7/soft/libgcc.a(_addsub_df.o)
 .bss           0x0000000040011d5c        0x0 /home/fsw/rep/tasa/lib/bcc-2.2.3-gcc/bin/../lib/gcc/sparc-gaisler-elf/10.2.0/leon3v7/soft/libgcc.a(_mul_df.o)
 .bss           0x0000000040011d5c        0x0 /home/fsw/rep/tasa/lib/bcc-2.2.3-gcc/bin/../lib/gcc/sparc-gaisler-elf/10.2.0/leon3v7/soft/libgcc.a(_div_df.o)
 .bss           0x0000000040011d5c        0x0 /home/fsw/rep/tasa/lib/bcc-2.2.3-gcc/bin/../lib/gcc/sparc-gaisler-elf/10.2.0/leon3v7/soft/libgcc.a(_eq_df.o)
 .bss           0x0000000040011d5c        0x0 /home/fsw/rep/tasa/lib/bcc-2.2.3-gcc/bin/../lib/gcc/sparc-gaisler-elf/10.2.0/leon3v7/soft/libgcc.a(_ne_df.o)
 .bss           0x0000000040011d5c        0x0 /home/fsw/rep/tasa/lib/bcc-2.2.3-gcc/bin/../lib/gcc/sparc-gaisler-elf/10.2.0/leon3v7/soft/libgcc.a(_gt_df.o)
 .bss           0x0000000040011d5c        0x0 /home/fsw/rep/tasa/lib/bcc-2.2.3-gcc/bin/../lib/gcc/sparc-gaisler-elf/10.2.0/leon3v7/soft/libgcc.a(_lt_df.o)
 .bss           0x0000000040011d5c        0x0 /home/fsw/rep/tasa/lib/bcc-2.2.3-gcc/bin/../lib/gcc/sparc-gaisler-elf/10.2.0/leon3v7/soft/libgcc.a(_le_df.o)
 .bss           0x0000000040011d5c        0x0 /home/fsw/rep/tasa/lib/bcc-2.2.3-gcc/bin/../lib/gcc/sparc-gaisler-elf/10.2.0/leon3v7/soft/libgcc.a(_unord_df.o)
 .bss           0x0000000040011d5c        0x0 /home/fsw/rep/tasa/lib/bcc-2.2.3-gcc/bin/../lib/gcc/sparc-gaisler-elf/10.2.0/leon3v7/soft/libgcc.a(_si_to_df.o)
 .bss           0x0000000040011d5c        0x0 /home/fsw/rep/tasa/lib/bcc-2.2.3-gcc/bin/../lib/gcc/sparc-gaisler-elf/10.2.0/leon3v7/soft/libgcc.a(_df_to_si.o)
 .bss           0x0000000040011d5c        0x0 /home/fsw/rep/tasa/lib/bcc-2.2.3-gcc/bin/../lib/gcc/sparc-gaisler-elf/10.2.0/leon3v7/soft/libgcc.a(_thenan_df.o)
 .bss           0x0000000040011d5c        0x0 /home/fsw/rep/tasa/lib/bcc-2.2.3-gcc/bin/../lib/gcc/sparc-gaisler-elf/10.2.0/leon3v7/soft/libgcc.a(_usi_to_df.o)
 .bss           0x0000000040011d5c        0x0 /home/fsw/rep/tasa/lib/bcc-2.2.3-gcc/bin/../lib/gcc/sparc-gaisler-elf/10.2.0/leon3v7/soft/libgcc.a(_muldi3.o)
 .bss           0x0000000040011d5c        0x0 /home/fsw/rep/tasa/lib/bcc-2.2.3-gcc/bin/../lib/gcc/sparc-gaisler-elf/10.2.0/leon3v7/soft/libgcc.a(_clz.o)
 .bss           0x0000000040011d5c        0x0 /home/fsw/rep/tasa/lib/bcc-2.2.3-gcc/bin/../lib/gcc/sparc-gaisler-elf/10.2.0/leon3v7/soft/libgcc.a(_clzsi2.o)
 .bss           0x0000000040011d5c        0x0 /home/fsw/rep/tasa/lib/bcc-2.2.3-gcc/bin/../lib/gcc/sparc-gaisler-elf/10.2.0/leon3v7/soft/libgcc.a(_pack_df.o)
 .bss           0x0000000040011d5c        0x0 /home/fsw/rep/tasa/lib/bcc-2.2.3-gcc/bin/../lib/gcc/sparc-gaisler-elf/10.2.0/leon3v7/soft/libgcc.a(_unpack_df.o)
 .bss           0x0000000040011d5c        0x0 /home/fsw/rep/tasa/lib/bcc-2.2.3-gcc/bin/../lib/gcc/sparc-gaisler-elf/10.2.0/leon3v7/soft/libgcc.a(_fpcmp_parts_df.o)
 .bss           0x0000000040011d5c        0x0 /home/fsw/rep/tasa/lib/bcc-2.2.3-gcc/bin/../lib/gcc/sparc-gaisler-elf/10.2.0/leon3v7/soft/crtend.o
 .bss           0x0000000040011d5c        0x0 /home/fsw/rep/tasa/lib/bcc-2.2.3-gcc/bin/../lib/gcc/sparc-gaisler-elf/10.2.0/leon3v7/soft/crtn.o
 *(COMMON)
                0x0000000040011d60                . = ALIGN (0x8)
 *fill*         0x0000000040011d5c        0x4 
                0x0000000040011d60                __bss_end = .
                0x0000000040011d60                __heap_min = .
                0x0000000040011d60                . = ALIGN (0x8)

.jcr
 *(.jcr)

.stab
 *(.stab)

.stabstr
 *(.stabstr)

.debug
 *(.debug)

.line
 *(.line)

.debug_srcinfo
 *(.debug_srcinfo)

.debug_sfnames
 *(.debug_sfnames)

.debug_aranges  0x0000000000000000      0xd08
 *(.debug_aranges)
 .debug_aranges
                0x0000000000000000       0x20 /home/fsw/rep/tasa/lib/bcc-2.2.3-gcc/bin/../sparc-gaisler-elf/bsp/leon3/leon3v7/soft/trap_table_mvt.S.o
 .debug_aranges
                0x0000000000000020       0x20 /home/fsw/rep/tasa/lib/bcc-2.2.3-gcc/bin/../sparc-gaisler-elf/bsp/leon3/leon3v7/soft/crt0.S.o
 .debug_aranges
                0x0000000000000040       0x20 /tmp/ccK7ILCi.o
 .debug_aranges
                0x0000000000000060       0x20 /home/fsw/rep/tasa/lib/bcc-2.2.3-gcc/bin/../sparc-gaisler-elf/bsp/leon3/leon3v7/soft/libbcc.a(reset_trap_mvt.S.o)
 .debug_aranges
                0x0000000000000080       0x20 /home/fsw/rep/tasa/lib/bcc-2.2.3-gcc/bin/../sparc-gaisler-elf/bsp/leon3/leon3v7/soft/libbcc.a(window_trap.S.o)
 .debug_aranges
                0x00000000000000a0       0x20 /home/fsw/rep/tasa/lib/bcc-2.2.3-gcc/bin/../sparc-gaisler-elf/bsp/leon3/leon3v7/soft/libbcc.a(interrupt_trap.S.o)
 .debug_aranges
                0x00000000000000c0       0x20 /home/fsw/rep/tasa/lib/bcc-2.2.3-gcc/bin/../sparc-gaisler-elf/bsp/leon3/leon3v7/soft/libbcc.a(flush_windows_trap.S.o)
 .debug_aranges
                0x00000000000000e0       0x20 /home/fsw/rep/tasa/lib/bcc-2.2.3-gcc/bin/../sparc-gaisler-elf/bsp/leon3/leon3v7/soft/libbcc.a(sw_trap_set_pil.S.o)
 .debug_aranges
                0x0000000000000100       0x18 /home/fsw/rep/tasa/lib/bcc-2.2.3-gcc/bin/../sparc-gaisler-elf/bsp/leon3/leon3v7/soft/libbcc.a(isr.c.o)
 .debug_aranges
                0x0000000000000118       0x18 /home/fsw/rep/tasa/lib/bcc-2.2.3-gcc/bin/../sparc-gaisler-elf/bsp/leon3/leon3v7/soft/libbcc.a(int_nest.c.o)
 .debug_aranges
                0x0000000000000130       0x20 /home/fsw/rep/tasa/lib/bcc-2.2.3-gcc/bin/../sparc-gaisler-elf/bsp/leon3/leon3v7/soft/libbcc.a(init.S.o)
 .debug_aranges
                0x0000000000000150       0x20 /home/fsw/rep/tasa/lib/bcc-2.2.3-gcc/bin/../sparc-gaisler-elf/bsp/leon3/leon3v7/soft/libbcc.a(leon_info.S.o)
 .debug_aranges
                0x0000000000000170       0x20 /home/fsw/rep/tasa/lib/bcc-2.2.3-gcc/bin/../sparc-gaisler-elf/bsp/leon3/leon3v7/soft/libbcc.a(dwzero.S.o)
 .debug_aranges
                0x0000000000000190       0x20 /home/fsw/rep/tasa/lib/bcc-2.2.3-gcc/bin/../sparc-gaisler-elf/bsp/leon3/leon3v7/soft/libbcc.a(copy_data.c.o)
 .debug_aranges
                0x00000000000001b0       0x18 /home/fsw/rep/tasa/lib/bcc-2.2.3-gcc/bin/../sparc-gaisler-elf/bsp/leon3/leon3v7/soft/libbcc.a(argv.c.o)
 .debug_aranges
                0x00000000000001c8       0x20 /home/fsw/rep/tasa/lib/bcc-2.2.3-gcc/bin/../sparc-gaisler-elf/bsp/leon3/leon3v7/soft/libbcc.a(int_irqmp_get_source.c.o)
 .debug_aranges
                0x00000000000001e8       0x20 /home/fsw/rep/tasa/lib/bcc-2.2.3-gcc/bin/../sparc-gaisler-elf/bsp/leon3/leon3v7/soft/libbcc.a(int_irqmp_mp.c.o)
 .debug_aranges
                0x0000000000000208       0x20 /home/fsw/rep/tasa/lib/bcc-2.2.3-gcc/bin/../sparc-gaisler-elf/bsp/leon3/leon3v7/soft/libbcc.a(int_irqmp_init.c.o)
 .debug_aranges
                0x0000000000000228       0x20 /home/fsw/rep/tasa/lib/bcc-2.2.3-gcc/bin/../sparc-gaisler-elf/bsp/leon3/leon3v7/soft/libbcc.a(con_apbuart_init.c.o)
 .debug_aranges
                0x0000000000000248       0x20 /home/fsw/rep/tasa/lib/bcc-2.2.3-gcc/bin/../sparc-gaisler-elf/bsp/leon3/leon3v7/soft/libbcc.a(timer_gptimer_init.c.o)
 .debug_aranges
                0x0000000000000268       0x20 /home/fsw/rep/tasa/lib/bcc-2.2.3-gcc/bin/../sparc-gaisler-elf/bsp/leon3/leon3v7/soft/libbcc.a(ambapp.c.o)
 .debug_aranges
                0x0000000000000288       0x20 /home/fsw/rep/tasa/lib/bcc-2.2.3-gcc/bin/../sparc-gaisler-elf/bsp/leon3/leon3v7/soft/libbcc.a(ambapp_findfirst_fn.c.o)
 .debug_aranges
                0x00000000000002a8       0x18 /home/fsw/rep/tasa/lib/bcc-2.2.3-gcc/bin/../sparc-gaisler-elf/bsp/leon3/leon3v7/soft/libbcc.a(int_irqmp_handle.c.o)
 .debug_aranges
                0x00000000000002c0       0x18 /home/fsw/rep/tasa/lib/bcc-2.2.3-gcc/bin/../sparc-gaisler-elf/bsp/leon3/leon3v7/soft/libbcc.a(con_handle.c.o)
 .debug_aranges
                0x00000000000002d8       0x18 /home/fsw/rep/tasa/lib/bcc-2.2.3-gcc/bin/../sparc-gaisler-elf/bsp/leon3/leon3v7/soft/libbcc.a(timer_handle.c.o)
 .debug_aranges
                0x00000000000002f0       0x20 /home/fsw/rep/tasa/lib/bcc-2.2.3-gcc/bin/../lib/gcc/sparc-gaisler-elf/10.2.0/../../../../sparc-gaisler-elf/lib/leon3v7/soft/libc.a(lib_a-atexit.o)
 .debug_aranges
                0x0000000000000310       0x20 /home/fsw/rep/tasa/lib/bcc-2.2.3-gcc/bin/../lib/gcc/sparc-gaisler-elf/10.2.0/../../../../sparc-gaisler-elf/lib/leon3v7/soft/libc.a(lib_a-exit.o)
 .debug_aranges
                0x0000000000000330       0x18 /home/fsw/rep/tasa/lib/bcc-2.2.3-gcc/bin/../lib/gcc/sparc-gaisler-elf/10.2.0/../../../../sparc-gaisler-elf/lib/leon3v7/soft/libc.a(lib_a-impure.o)
 .debug_aranges
                0x0000000000000348       0x20 /home/fsw/rep/tasa/lib/bcc-2.2.3-gcc/bin/../lib/gcc/sparc-gaisler-elf/10.2.0/../../../../sparc-gaisler-elf/lib/leon3v7/soft/libc.a(lib_a-memcpy.o)
 .debug_aranges
                0x0000000000000368       0x20 /home/fsw/rep/tasa/lib/bcc-2.2.3-gcc/bin/../lib/gcc/sparc-gaisler-elf/10.2.0/../../../../sparc-gaisler-elf/lib/leon3v7/soft/libc.a(lib_a-printf.o)
 .debug_aranges
                0x0000000000000388       0x20 /home/fsw/rep/tasa/lib/bcc-2.2.3-gcc/bin/../lib/gcc/sparc-gaisler-elf/10.2.0/../../../../sparc-gaisler-elf/lib/leon3v7/soft/libc.a(lib_a-putchar.o)
 .debug_aranges
                0x00000000000003a8       0x20 /home/fsw/rep/tasa/lib/bcc-2.2.3-gcc/bin/../lib/gcc/sparc-gaisler-elf/10.2.0/../../../../sparc-gaisler-elf/lib/leon3v7/soft/libc.a(lib_a-puts.o)
 .debug_aranges
                0x00000000000003c8       0x20 /home/fsw/rep/tasa/lib/bcc-2.2.3-gcc/bin/../lib/gcc/sparc-gaisler-elf/10.2.0/../../../../sparc-gaisler-elf/lib/leon3v7/soft/libc.a(lib_a-strlen.o)
 .debug_aranges
                0x00000000000003e8       0x20 /home/fsw/rep/tasa/lib/bcc-2.2.3-gcc/bin/../lib/gcc/sparc-gaisler-elf/10.2.0/../../../../sparc-gaisler-elf/lib/leon3v7/soft/libc.a(lib_a-vfprintf.o)
 .debug_aranges
                0x0000000000000408       0x20 /home/fsw/rep/tasa/lib/bcc-2.2.3-gcc/bin/../lib/gcc/sparc-gaisler-elf/10.2.0/../../../../sparc-gaisler-elf/lib/leon3v7/soft/libc.a(lib_a-wsetup.o)
 .debug_aranges
                0x0000000000000428       0x20 /home/fsw/rep/tasa/lib/bcc-2.2.3-gcc/bin/../lib/gcc/sparc-gaisler-elf/10.2.0/../../../../sparc-gaisler-elf/lib/leon3v7/soft/libc.a(lib_a-__atexit.o)
 .debug_aranges
                0x0000000000000448       0x20 /home/fsw/rep/tasa/lib/bcc-2.2.3-gcc/bin/../lib/gcc/sparc-gaisler-elf/10.2.0/../../../../sparc-gaisler-elf/lib/leon3v7/soft/libc.a(lib_a-__call_atexit.o)
 .debug_aranges
                0x0000000000000468       0x20 /home/fsw/rep/tasa/lib/bcc-2.2.3-gcc/bin/../lib/gcc/sparc-gaisler-elf/10.2.0/../../../../sparc-gaisler-elf/lib/leon3v7/soft/libc.a(lib_a-dtoa.o)
 .debug_aranges
                0x0000000000000488       0x20 /home/fsw/rep/tasa/lib/bcc-2.2.3-gcc/bin/../lib/gcc/sparc-gaisler-elf/10.2.0/../../../../sparc-gaisler-elf/lib/leon3v7/soft/libc.a(lib_a-fflush.o)
 .debug_aranges
                0x00000000000004a8       0x20 /home/fsw/rep/tasa/lib/bcc-2.2.3-gcc/bin/../lib/gcc/sparc-gaisler-elf/10.2.0/../../../../sparc-gaisler-elf/lib/leon3v7/soft/libc.a(lib_a-findfp.o)
 .debug_aranges
                0x00000000000004c8       0x20 /home/fsw/rep/tasa/lib/bcc-2.2.3-gcc/bin/../lib/gcc/sparc-gaisler-elf/10.2.0/../../../../sparc-gaisler-elf/lib/leon3v7/soft/libc.a(lib_a-freer.o)
 .debug_aranges
                0x00000000000004e8       0x20 /home/fsw/rep/tasa/lib/bcc-2.2.3-gcc/bin/../lib/gcc/sparc-gaisler-elf/10.2.0/../../../../sparc-gaisler-elf/lib/leon3v7/soft/libc.a(lib_a-fvwrite.o)
 .debug_aranges
                0x0000000000000508       0x20 /home/fsw/rep/tasa/lib/bcc-2.2.3-gcc/bin/../lib/gcc/sparc-gaisler-elf/10.2.0/../../../../sparc-gaisler-elf/lib/leon3v7/soft/libc.a(lib_a-fwalk.o)
 .debug_aranges
                0x0000000000000528       0x20 /home/fsw/rep/tasa/lib/bcc-2.2.3-gcc/bin/../lib/gcc/sparc-gaisler-elf/10.2.0/../../../../sparc-gaisler-elf/lib/leon3v7/soft/libc.a(lib_a-localeconv.o)
 .debug_aranges
                0x0000000000000548       0x20 /home/fsw/rep/tasa/lib/bcc-2.2.3-gcc/bin/../lib/gcc/sparc-gaisler-elf/10.2.0/../../../../sparc-gaisler-elf/lib/leon3v7/soft/libc.a(lib_a-makebuf.o)
 .debug_aranges
                0x0000000000000568       0x20 /home/fsw/rep/tasa/lib/bcc-2.2.3-gcc/bin/../lib/gcc/sparc-gaisler-elf/10.2.0/../../../../sparc-gaisler-elf/lib/leon3v7/soft/libc.a(lib_a-malloc.o)
 .debug_aranges
                0x0000000000000588       0x20 /home/fsw/rep/tasa/lib/bcc-2.2.3-gcc/bin/../lib/gcc/sparc-gaisler-elf/10.2.0/../../../../sparc-gaisler-elf/lib/leon3v7/soft/libc.a(lib_a-mallocr.o)
 .debug_aranges
                0x00000000000005a8       0x20 /home/fsw/rep/tasa/lib/bcc-2.2.3-gcc/bin/../lib/gcc/sparc-gaisler-elf/10.2.0/../../../../sparc-gaisler-elf/lib/leon3v7/soft/libc.a(lib_a-memchr.o)
 .debug_aranges
                0x00000000000005c8       0x20 /home/fsw/rep/tasa/lib/bcc-2.2.3-gcc/bin/../lib/gcc/sparc-gaisler-elf/10.2.0/../../../../sparc-gaisler-elf/lib/leon3v7/soft/libc.a(lib_a-memmove.o)
 .debug_aranges
                0x00000000000005e8       0x20 /home/fsw/rep/tasa/lib/bcc-2.2.3-gcc/bin/../lib/gcc/sparc-gaisler-elf/10.2.0/../../../../sparc-gaisler-elf/lib/leon3v7/soft/libc.a(lib_a-memset.o)
 .debug_aranges
                0x0000000000000608       0x20 /home/fsw/rep/tasa/lib/bcc-2.2.3-gcc/bin/../lib/gcc/sparc-gaisler-elf/10.2.0/../../../../sparc-gaisler-elf/lib/leon3v7/soft/libc.a(lib_a-mlock.o)
 .debug_aranges
                0x0000000000000628       0x20 /home/fsw/rep/tasa/lib/bcc-2.2.3-gcc/bin/../lib/gcc/sparc-gaisler-elf/10.2.0/../../../../sparc-gaisler-elf/lib/leon3v7/soft/libc.a(lib_a-mprec.o)
 .debug_aranges
                0x0000000000000648       0x20 /home/fsw/rep/tasa/lib/bcc-2.2.3-gcc/bin/../lib/gcc/sparc-gaisler-elf/10.2.0/../../../../sparc-gaisler-elf/lib/leon3v7/soft/libc.a(lib_a-putc.o)
 .debug_aranges
                0x0000000000000668       0x20 /home/fsw/rep/tasa/lib/bcc-2.2.3-gcc/bin/../lib/gcc/sparc-gaisler-elf/10.2.0/../../../../sparc-gaisler-elf/lib/leon3v7/soft/libc.a(lib_a-reallocr.o)
 .debug_aranges
                0x0000000000000688       0x20 /home/fsw/rep/tasa/lib/bcc-2.2.3-gcc/bin/../lib/gcc/sparc-gaisler-elf/10.2.0/../../../../sparc-gaisler-elf/lib/leon3v7/soft/libc.a(lib_a-s_frexp.o)
 .debug_aranges
                0x00000000000006a8       0x20 /home/fsw/rep/tasa/lib/bcc-2.2.3-gcc/bin/../lib/gcc/sparc-gaisler-elf/10.2.0/../../../../sparc-gaisler-elf/lib/leon3v7/soft/libc.a(lib_a-sbrkr.o)
 .debug_aranges
                0x00000000000006c8       0x20 /home/fsw/rep/tasa/lib/bcc-2.2.3-gcc/bin/../lib/gcc/sparc-gaisler-elf/10.2.0/../../../../sparc-gaisler-elf/lib/leon3v7/soft/libc.a(lib_a-stdio.o)
 .debug_aranges
                0x00000000000006e8       0x20 /home/fsw/rep/tasa/lib/bcc-2.2.3-gcc/bin/../lib/gcc/sparc-gaisler-elf/10.2.0/../../../../sparc-gaisler-elf/lib/leon3v7/soft/libc.a(lib_a-strncpy.o)
 .debug_aranges
                0x0000000000000708       0x20 /home/fsw/rep/tasa/lib/bcc-2.2.3-gcc/bin/../lib/gcc/sparc-gaisler-elf/10.2.0/../../../../sparc-gaisler-elf/lib/leon3v7/soft/libc.a(lib_a-vfiprintf.o)
 .debug_aranges
                0x0000000000000728       0x20 /home/fsw/rep/tasa/lib/bcc-2.2.3-gcc/bin/../lib/gcc/sparc-gaisler-elf/10.2.0/../../../../sparc-gaisler-elf/lib/leon3v7/soft/libc.a(lib_a-wbuf.o)
 .debug_aranges
                0x0000000000000748       0x20 /home/fsw/rep/tasa/lib/bcc-2.2.3-gcc/bin/../lib/gcc/sparc-gaisler-elf/10.2.0/../../../../sparc-gaisler-elf/lib/leon3v7/soft/libc.a(lib_a-writer.o)
 .debug_aranges
                0x0000000000000768       0x20 /home/fsw/rep/tasa/lib/bcc-2.2.3-gcc/bin/../lib/gcc/sparc-gaisler-elf/10.2.0/../../../../sparc-gaisler-elf/lib/leon3v7/soft/libc.a(lib_a-callocr.o)
 .debug_aranges
                0x0000000000000788       0x20 /home/fsw/rep/tasa/lib/bcc-2.2.3-gcc/bin/../lib/gcc/sparc-gaisler-elf/10.2.0/../../../../sparc-gaisler-elf/lib/leon3v7/soft/libc.a(lib_a-closer.o)
 .debug_aranges
                0x00000000000007a8       0x20 /home/fsw/rep/tasa/lib/bcc-2.2.3-gcc/bin/../lib/gcc/sparc-gaisler-elf/10.2.0/../../../../sparc-gaisler-elf/lib/leon3v7/soft/libc.a(lib_a-fclose.o)
 .debug_aranges
                0x00000000000007c8       0x20 /home/fsw/rep/tasa/lib/bcc-2.2.3-gcc/bin/../lib/gcc/sparc-gaisler-elf/10.2.0/../../../../sparc-gaisler-elf/lib/leon3v7/soft/libc.a(lib_a-fputwc.o)
 .debug_aranges
                0x00000000000007e8       0x20 /home/fsw/rep/tasa/lib/bcc-2.2.3-gcc/bin/../lib/gcc/sparc-gaisler-elf/10.2.0/../../../../sparc-gaisler-elf/lib/leon3v7/soft/libc.a(lib_a-fstatr.o)
 .debug_aranges
                0x0000000000000808       0x20 /home/fsw/rep/tasa/lib/bcc-2.2.3-gcc/bin/../lib/gcc/sparc-gaisler-elf/10.2.0/../../../../sparc-gaisler-elf/lib/leon3v7/soft/libc.a(lib_a-isattyr.o)
 .debug_aranges
                0x0000000000000828       0x20 /home/fsw/rep/tasa/lib/bcc-2.2.3-gcc/bin/../lib/gcc/sparc-gaisler-elf/10.2.0/../../../../sparc-gaisler-elf/lib/leon3v7/soft/libc.a(lib_a-locale.o)
 .debug_aranges
                0x0000000000000848       0x20 /home/fsw/rep/tasa/lib/bcc-2.2.3-gcc/bin/../lib/gcc/sparc-gaisler-elf/10.2.0/../../../../sparc-gaisler-elf/lib/leon3v7/soft/libc.a(lib_a-lseekr.o)
 .debug_aranges
                0x0000000000000868       0x20 /home/fsw/rep/tasa/lib/bcc-2.2.3-gcc/bin/../lib/gcc/sparc-gaisler-elf/10.2.0/../../../../sparc-gaisler-elf/lib/leon3v7/soft/libc.a(lib_a-mbtowc_r.o)
 .debug_aranges
                0x0000000000000888       0x20 /home/fsw/rep/tasa/lib/bcc-2.2.3-gcc/bin/../lib/gcc/sparc-gaisler-elf/10.2.0/../../../../sparc-gaisler-elf/lib/leon3v7/soft/libc.a(lib_a-readr.o)
 .debug_aranges
                0x00000000000008a8       0x20 /home/fsw/rep/tasa/lib/bcc-2.2.3-gcc/bin/../lib/gcc/sparc-gaisler-elf/10.2.0/../../../../sparc-gaisler-elf/lib/leon3v7/soft/libc.a(lib_a-reent.o)
 .debug_aranges
                0x00000000000008c8       0x20 /home/fsw/rep/tasa/lib/bcc-2.2.3-gcc/bin/../lib/gcc/sparc-gaisler-elf/10.2.0/../../../../sparc-gaisler-elf/lib/leon3v7/soft/libc.a(lib_a-strcmp.o)
 .debug_aranges
                0x00000000000008e8       0x20 /home/fsw/rep/tasa/lib/bcc-2.2.3-gcc/bin/../lib/gcc/sparc-gaisler-elf/10.2.0/../../../../sparc-gaisler-elf/lib/leon3v7/soft/libc.a(lib_a-wcrtomb.o)
 .debug_aranges
                0x0000000000000908       0x20 /home/fsw/rep/tasa/lib/bcc-2.2.3-gcc/bin/../lib/gcc/sparc-gaisler-elf/10.2.0/../../../../sparc-gaisler-elf/lib/leon3v7/soft/libc.a(lib_a-wctomb_r.o)
 .debug_aranges
                0x0000000000000928       0x18 /home/fsw/rep/tasa/lib/bcc-2.2.3-gcc/bin/../lib/gcc/sparc-gaisler-elf/10.2.0/../../../../sparc-gaisler-elf/lib/leon3v7/soft/libc.a(lib_a-ctype_.o)
 .debug_aranges
                0x0000000000000940       0x20 /home/fsw/rep/tasa/lib/bcc-2.2.3-gcc/bin/../sparc-gaisler-elf/bsp/leon3/leon3v7/soft/libbcc.a(_exit.S.o)
 .debug_aranges
                0x0000000000000960       0x20 /home/fsw/rep/tasa/lib/bcc-2.2.3-gcc/bin/../sparc-gaisler-elf/bsp/leon3/leon3v7/soft/libbcc.a(read.c.o)
 .debug_aranges
                0x0000000000000980       0x20 /home/fsw/rep/tasa/lib/bcc-2.2.3-gcc/bin/../sparc-gaisler-elf/bsp/leon3/leon3v7/soft/libbcc.a(sbrk.c.o)
 .debug_aranges
                0x00000000000009a0       0x18 /home/fsw/rep/tasa/lib/bcc-2.2.3-gcc/bin/../sparc-gaisler-elf/bsp/leon3/leon3v7/soft/libbcc.a(heap.c.o)
 .debug_aranges
                0x00000000000009b8       0x20 /home/fsw/rep/tasa/lib/bcc-2.2.3-gcc/bin/../sparc-gaisler-elf/bsp/leon3/leon3v7/soft/libbcc.a(write.c.o)
 .debug_aranges
                0x00000000000009d8       0x20 /home/fsw/rep/tasa/lib/bcc-2.2.3-gcc/bin/../sparc-gaisler-elf/bsp/leon3/leon3v7/soft/libbcc.a(stubs.S.o)
 .debug_aranges
                0x00000000000009f8       0x20 /home/fsw/rep/tasa/lib/bcc-2.2.3-gcc/bin/../sparc-gaisler-elf/bsp/leon3/leon3v7/soft/libbcc.a(con_apbuart.c.o)
 .debug_aranges
                0x0000000000000a18       0x20 /home/fsw/rep/tasa/lib/bcc-2.2.3-gcc/bin/../lib/gcc/sparc-gaisler-elf/10.2.0/leon3v7/soft/libgcc.a(_mulsi3.o)
 .debug_aranges
                0x0000000000000a38       0x20 /home/fsw/rep/tasa/lib/bcc-2.2.3-gcc/bin/../lib/gcc/sparc-gaisler-elf/10.2.0/leon3v7/soft/libgcc.a(_divsi3.o)
 .debug_aranges
                0x0000000000000a58       0x20 /home/fsw/rep/tasa/lib/bcc-2.2.3-gcc/bin/../lib/gcc/sparc-gaisler-elf/10.2.0/leon3v7/soft/libgcc.a(_modsi3.o)
 .debug_aranges
                0x0000000000000a78       0x20 /home/fsw/rep/tasa/lib/bcc-2.2.3-gcc/bin/../lib/gcc/sparc-gaisler-elf/10.2.0/leon3v7/soft/libgcc.a(_udivdi3.o)
 .debug_aranges
                0x0000000000000a98       0x20 /home/fsw/rep/tasa/lib/bcc-2.2.3-gcc/bin/../lib/gcc/sparc-gaisler-elf/10.2.0/leon3v7/soft/libgcc.a(_umoddi3.o)
 .debug_aranges
                0x0000000000000ab8       0x20 /home/fsw/rep/tasa/lib/bcc-2.2.3-gcc/bin/../lib/gcc/sparc-gaisler-elf/10.2.0/leon3v7/soft/libgcc.a(_addsub_df.o)
 .debug_aranges
                0x0000000000000ad8       0x20 /home/fsw/rep/tasa/lib/bcc-2.2.3-gcc/bin/../lib/gcc/sparc-gaisler-elf/10.2.0/leon3v7/soft/libgcc.a(_mul_df.o)
 .debug_aranges
                0x0000000000000af8       0x20 /home/fsw/rep/tasa/lib/bcc-2.2.3-gcc/bin/../lib/gcc/sparc-gaisler-elf/10.2.0/leon3v7/soft/libgcc.a(_div_df.o)
 .debug_aranges
                0x0000000000000b18       0x20 /home/fsw/rep/tasa/lib/bcc-2.2.3-gcc/bin/../lib/gcc/sparc-gaisler-elf/10.2.0/leon3v7/soft/libgcc.a(_eq_df.o)
 .debug_aranges
                0x0000000000000b38       0x20 /home/fsw/rep/tasa/lib/bcc-2.2.3-gcc/bin/../lib/gcc/sparc-gaisler-elf/10.2.0/leon3v7/soft/libgcc.a(_ne_df.o)
 .debug_aranges
                0x0000000000000b58       0x20 /home/fsw/rep/tasa/lib/bcc-2.2.3-gcc/bin/../lib/gcc/sparc-gaisler-elf/10.2.0/leon3v7/soft/libgcc.a(_gt_df.o)
 .debug_aranges
                0x0000000000000b78       0x20 /home/fsw/rep/tasa/lib/bcc-2.2.3-gcc/bin/../lib/gcc/sparc-gaisler-elf/10.2.0/leon3v7/soft/libgcc.a(_lt_df.o)
 .debug_aranges
                0x0000000000000b98       0x20 /home/fsw/rep/tasa/lib/bcc-2.2.3-gcc/bin/../lib/gcc/sparc-gaisler-elf/10.2.0/leon3v7/soft/libgcc.a(_le_df.o)
 .debug_aranges
                0x0000000000000bb8       0x20 /home/fsw/rep/tasa/lib/bcc-2.2.3-gcc/bin/../lib/gcc/sparc-gaisler-elf/10.2.0/leon3v7/soft/libgcc.a(_unord_df.o)
 .debug_aranges
                0x0000000000000bd8       0x20 /home/fsw/rep/tasa/lib/bcc-2.2.3-gcc/bin/../lib/gcc/sparc-gaisler-elf/10.2.0/leon3v7/soft/libgcc.a(_si_to_df.o)
 .debug_aranges
                0x0000000000000bf8       0x20 /home/fsw/rep/tasa/lib/bcc-2.2.3-gcc/bin/../lib/gcc/sparc-gaisler-elf/10.2.0/leon3v7/soft/libgcc.a(_df_to_si.o)
 .debug_aranges
                0x0000000000000c18       0x18 /home/fsw/rep/tasa/lib/bcc-2.2.3-gcc/bin/../lib/gcc/sparc-gaisler-elf/10.2.0/leon3v7/soft/libgcc.a(_thenan_df.o)
 .debug_aranges
                0x0000000000000c30       0x20 /home/fsw/rep/tasa/lib/bcc-2.2.3-gcc/bin/../lib/gcc/sparc-gaisler-elf/10.2.0/leon3v7/soft/libgcc.a(_usi_to_df.o)
 .debug_aranges
                0x0000000000000c50       0x20 /home/fsw/rep/tasa/lib/bcc-2.2.3-gcc/bin/../lib/gcc/sparc-gaisler-elf/10.2.0/leon3v7/soft/libgcc.a(_muldi3.o)
 .debug_aranges
                0x0000000000000c70       0x18 /home/fsw/rep/tasa/lib/bcc-2.2.3-gcc/bin/../lib/gcc/sparc-gaisler-elf/10.2.0/leon3v7/soft/libgcc.a(_clz.o)
 .debug_aranges
                0x0000000000000c88       0x20 /home/fsw/rep/tasa/lib/bcc-2.2.3-gcc/bin/../lib/gcc/sparc-gaisler-elf/10.2.0/leon3v7/soft/libgcc.a(_clzsi2.o)
 .debug_aranges
                0x0000000000000ca8       0x20 /home/fsw/rep/tasa/lib/bcc-2.2.3-gcc/bin/../lib/gcc/sparc-gaisler-elf/10.2.0/leon3v7/soft/libgcc.a(_pack_df.o)
 .debug_aranges
                0x0000000000000cc8       0x20 /home/fsw/rep/tasa/lib/bcc-2.2.3-gcc/bin/../lib/gcc/sparc-gaisler-elf/10.2.0/leon3v7/soft/libgcc.a(_unpack_df.o)
 .debug_aranges
                0x0000000000000ce8       0x20 /home/fsw/rep/tasa/lib/bcc-2.2.3-gcc/bin/../lib/gcc/sparc-gaisler-elf/10.2.0/leon3v7/soft/libgcc.a(_fpcmp_parts_df.o)

.debug_pubnames
 *(.debug_pubnames)

.debug_info     0x0000000000000000    0x25b96
 *(.debug_info)
 .debug_info    0x0000000000000000       0x26 /home/fsw/rep/tasa/lib/bcc-2.2.3-gcc/bin/../sparc-gaisler-elf/bsp/leon3/leon3v7/soft/trap_table_mvt.S.o
 .debug_info    0x0000000000000026       0x26 /home/fsw/rep/tasa/lib/bcc-2.2.3-gcc/bin/../sparc-gaisler-elf/bsp/leon3/leon3v7/soft/crt0.S.o
 .debug_info    0x000000000000004c      0x368 /tmp/ccK7ILCi.o
 .debug_info    0x00000000000003b4       0x26 /home/fsw/rep/tasa/lib/bcc-2.2.3-gcc/bin/../sparc-gaisler-elf/bsp/leon3/leon3v7/soft/libbcc.a(reset_trap_mvt.S.o)
 .debug_info    0x00000000000003da       0x26 /home/fsw/rep/tasa/lib/bcc-2.2.3-gcc/bin/../sparc-gaisler-elf/bsp/leon3/leon3v7/soft/libbcc.a(window_trap.S.o)
 .debug_info    0x0000000000000400       0x26 /home/fsw/rep/tasa/lib/bcc-2.2.3-gcc/bin/../sparc-gaisler-elf/bsp/leon3/leon3v7/soft/libbcc.a(interrupt_trap.S.o)
 .debug_info    0x0000000000000426       0x26 /home/fsw/rep/tasa/lib/bcc-2.2.3-gcc/bin/../sparc-gaisler-elf/bsp/leon3/leon3v7/soft/libbcc.a(flush_windows_trap.S.o)
 .debug_info    0x000000000000044c       0x26 /home/fsw/rep/tasa/lib/bcc-2.2.3-gcc/bin/../sparc-gaisler-elf/bsp/leon3/leon3v7/soft/libbcc.a(sw_trap_set_pil.S.o)
 .debug_info    0x0000000000000472       0xf5 /home/fsw/rep/tasa/lib/bcc-2.2.3-gcc/bin/../sparc-gaisler-elf/bsp/leon3/leon3v7/soft/libbcc.a(isr.c.o)
 .debug_info    0x0000000000000567       0xcd /home/fsw/rep/tasa/lib/bcc-2.2.3-gcc/bin/../sparc-gaisler-elf/bsp/leon3/leon3v7/soft/libbcc.a(int_nest.c.o)
 .debug_info    0x0000000000000634       0x26 /home/fsw/rep/tasa/lib/bcc-2.2.3-gcc/bin/../sparc-gaisler-elf/bsp/leon3/leon3v7/soft/libbcc.a(init.S.o)
 .debug_info    0x000000000000065a       0x26 /home/fsw/rep/tasa/lib/bcc-2.2.3-gcc/bin/../sparc-gaisler-elf/bsp/leon3/leon3v7/soft/libbcc.a(leon_info.S.o)
 .debug_info    0x0000000000000680       0x26 /home/fsw/rep/tasa/lib/bcc-2.2.3-gcc/bin/../sparc-gaisler-elf/bsp/leon3/leon3v7/soft/libbcc.a(dwzero.S.o)
 .debug_info    0x00000000000006a6       0xe8 /home/fsw/rep/tasa/lib/bcc-2.2.3-gcc/bin/../sparc-gaisler-elf/bsp/leon3/leon3v7/soft/libbcc.a(copy_data.c.o)
 .debug_info    0x000000000000078e       0xd9 /home/fsw/rep/tasa/lib/bcc-2.2.3-gcc/bin/../sparc-gaisler-elf/bsp/leon3/leon3v7/soft/libbcc.a(argv.c.o)
 .debug_info    0x0000000000000867      0x2db /home/fsw/rep/tasa/lib/bcc-2.2.3-gcc/bin/../sparc-gaisler-elf/bsp/leon3/leon3v7/soft/libbcc.a(int_irqmp_get_source.c.o)
 .debug_info    0x0000000000000b42      0x3a6 /home/fsw/rep/tasa/lib/bcc-2.2.3-gcc/bin/../sparc-gaisler-elf/bsp/leon3/leon3v7/soft/libbcc.a(int_irqmp_mp.c.o)
 .debug_info    0x0000000000000ee8      0x5d5 /home/fsw/rep/tasa/lib/bcc-2.2.3-gcc/bin/../sparc-gaisler-elf/bsp/leon3/leon3v7/soft/libbcc.a(int_irqmp_init.c.o)
 .debug_info    0x00000000000014bd      0x122 /home/fsw/rep/tasa/lib/bcc-2.2.3-gcc/bin/../sparc-gaisler-elf/bsp/leon3/leon3v7/soft/libbcc.a(con_apbuart_init.c.o)
 .debug_info    0x00000000000015df      0x1d6 /home/fsw/rep/tasa/lib/bcc-2.2.3-gcc/bin/../sparc-gaisler-elf/bsp/leon3/leon3v7/soft/libbcc.a(timer_gptimer_init.c.o)
 .debug_info    0x00000000000017b5      0x8e0 /home/fsw/rep/tasa/lib/bcc-2.2.3-gcc/bin/../sparc-gaisler-elf/bsp/leon3/leon3v7/soft/libbcc.a(ambapp.c.o)
 .debug_info    0x0000000000002095      0x33a /home/fsw/rep/tasa/lib/bcc-2.2.3-gcc/bin/../sparc-gaisler-elf/bsp/leon3/leon3v7/soft/libbcc.a(ambapp_findfirst_fn.c.o)
 .debug_info    0x00000000000023cf       0xeb /home/fsw/rep/tasa/lib/bcc-2.2.3-gcc/bin/../sparc-gaisler-elf/bsp/leon3/leon3v7/soft/libbcc.a(int_irqmp_handle.c.o)
 .debug_info    0x00000000000024ba       0x9d /home/fsw/rep/tasa/lib/bcc-2.2.3-gcc/bin/../sparc-gaisler-elf/bsp/leon3/leon3v7/soft/libbcc.a(con_handle.c.o)
 .debug_info    0x0000000000002557       0xb7 /home/fsw/rep/tasa/lib/bcc-2.2.3-gcc/bin/../sparc-gaisler-elf/bsp/leon3/leon3v7/soft/libbcc.a(timer_handle.c.o)
 .debug_info    0x000000000000260e      0x102 /home/fsw/rep/tasa/lib/bcc-2.2.3-gcc/bin/../lib/gcc/sparc-gaisler-elf/10.2.0/../../../../sparc-gaisler-elf/lib/leon3v7/soft/libc.a(lib_a-atexit.o)
 .debug_info    0x0000000000002710      0x7de /home/fsw/rep/tasa/lib/bcc-2.2.3-gcc/bin/../lib/gcc/sparc-gaisler-elf/10.2.0/../../../../sparc-gaisler-elf/lib/leon3v7/soft/libc.a(lib_a-exit.o)
 .debug_info    0x0000000000002eee      0x83e /home/fsw/rep/tasa/lib/bcc-2.2.3-gcc/bin/../lib/gcc/sparc-gaisler-elf/10.2.0/../../../../sparc-gaisler-elf/lib/leon3v7/soft/libc.a(lib_a-impure.o)
 .debug_info    0x000000000000372c      0x162 /home/fsw/rep/tasa/lib/bcc-2.2.3-gcc/bin/../lib/gcc/sparc-gaisler-elf/10.2.0/../../../../sparc-gaisler-elf/lib/leon3v7/soft/libc.a(lib_a-memcpy.o)
 .debug_info    0x000000000000388e      0x916 /home/fsw/rep/tasa/lib/bcc-2.2.3-gcc/bin/../lib/gcc/sparc-gaisler-elf/10.2.0/../../../../sparc-gaisler-elf/lib/leon3v7/soft/libc.a(lib_a-printf.o)
 .debug_info    0x00000000000041a4      0x891 /home/fsw/rep/tasa/lib/bcc-2.2.3-gcc/bin/../lib/gcc/sparc-gaisler-elf/10.2.0/../../../../sparc-gaisler-elf/lib/leon3v7/soft/libc.a(lib_a-putchar.o)
 .debug_info    0x0000000000004a35      0xaf5 /home/fsw/rep/tasa/lib/bcc-2.2.3-gcc/bin/../lib/gcc/sparc-gaisler-elf/10.2.0/../../../../sparc-gaisler-elf/lib/leon3v7/soft/libc.a(lib_a-puts.o)
 .debug_info    0x000000000000552a       0xee /home/fsw/rep/tasa/lib/bcc-2.2.3-gcc/bin/../lib/gcc/sparc-gaisler-elf/10.2.0/../../../../sparc-gaisler-elf/lib/leon3v7/soft/libc.a(lib_a-strlen.o)
 .debug_info    0x0000000000005618     0x1ec5 /home/fsw/rep/tasa/lib/bcc-2.2.3-gcc/bin/../lib/gcc/sparc-gaisler-elf/10.2.0/../../../../sparc-gaisler-elf/lib/leon3v7/soft/libc.a(lib_a-vfprintf.o)
 .debug_info    0x00000000000074dd      0x8dd /home/fsw/rep/tasa/lib/bcc-2.2.3-gcc/bin/../lib/gcc/sparc-gaisler-elf/10.2.0/../../../../sparc-gaisler-elf/lib/leon3v7/soft/libc.a(lib_a-wsetup.o)
 .debug_info    0x0000000000007dba      0x264 /home/fsw/rep/tasa/lib/bcc-2.2.3-gcc/bin/../lib/gcc/sparc-gaisler-elf/10.2.0/../../../../sparc-gaisler-elf/lib/leon3v7/soft/libc.a(lib_a-__atexit.o)
 .debug_info    0x000000000000801e      0x28d /home/fsw/rep/tasa/lib/bcc-2.2.3-gcc/bin/../lib/gcc/sparc-gaisler-elf/10.2.0/../../../../sparc-gaisler-elf/lib/leon3v7/soft/libc.a(lib_a-__call_atexit.o)
 .debug_info    0x00000000000082ab     0x1858 /home/fsw/rep/tasa/lib/bcc-2.2.3-gcc/bin/../lib/gcc/sparc-gaisler-elf/10.2.0/../../../../sparc-gaisler-elf/lib/leon3v7/soft/libc.a(lib_a-dtoa.o)
 .debug_info    0x0000000000009b03      0xb04 /home/fsw/rep/tasa/lib/bcc-2.2.3-gcc/bin/../lib/gcc/sparc-gaisler-elf/10.2.0/../../../../sparc-gaisler-elf/lib/leon3v7/soft/libc.a(lib_a-fflush.o)
 .debug_info    0x000000000000a607      0xddb /home/fsw/rep/tasa/lib/bcc-2.2.3-gcc/bin/../lib/gcc/sparc-gaisler-elf/10.2.0/../../../../sparc-gaisler-elf/lib/leon3v7/soft/libc.a(lib_a-findfp.o)
 .debug_info    0x000000000000b3e2      0xb8d /home/fsw/rep/tasa/lib/bcc-2.2.3-gcc/bin/../lib/gcc/sparc-gaisler-elf/10.2.0/../../../../sparc-gaisler-elf/lib/leon3v7/soft/libc.a(lib_a-freer.o)
 .debug_info    0x000000000000bf6f      0xb27 /home/fsw/rep/tasa/lib/bcc-2.2.3-gcc/bin/../lib/gcc/sparc-gaisler-elf/10.2.0/../../../../sparc-gaisler-elf/lib/leon3v7/soft/libc.a(lib_a-fvwrite.o)
 .debug_info    0x000000000000ca96      0x8db /home/fsw/rep/tasa/lib/bcc-2.2.3-gcc/bin/../lib/gcc/sparc-gaisler-elf/10.2.0/../../../../sparc-gaisler-elf/lib/leon3v7/soft/libc.a(lib_a-fwalk.o)
 .debug_info    0x000000000000d371      0xb4b /home/fsw/rep/tasa/lib/bcc-2.2.3-gcc/bin/../lib/gcc/sparc-gaisler-elf/10.2.0/../../../../sparc-gaisler-elf/lib/leon3v7/soft/libc.a(lib_a-localeconv.o)
 .debug_info    0x000000000000debc      0xc41 /home/fsw/rep/tasa/lib/bcc-2.2.3-gcc/bin/../lib/gcc/sparc-gaisler-elf/10.2.0/../../../../sparc-gaisler-elf/lib/leon3v7/soft/libc.a(lib_a-makebuf.o)
 .debug_info    0x000000000000eafd      0x817 /home/fsw/rep/tasa/lib/bcc-2.2.3-gcc/bin/../lib/gcc/sparc-gaisler-elf/10.2.0/../../../../sparc-gaisler-elf/lib/leon3v7/soft/libc.a(lib_a-malloc.o)
 .debug_info    0x000000000000f314      0xcf9 /home/fsw/rep/tasa/lib/bcc-2.2.3-gcc/bin/../lib/gcc/sparc-gaisler-elf/10.2.0/../../../../sparc-gaisler-elf/lib/leon3v7/soft/libc.a(lib_a-mallocr.o)
 .debug_info    0x000000000001000d      0x14e /home/fsw/rep/tasa/lib/bcc-2.2.3-gcc/bin/../lib/gcc/sparc-gaisler-elf/10.2.0/../../../../sparc-gaisler-elf/lib/leon3v7/soft/libc.a(lib_a-memchr.o)
 .debug_info    0x000000000001015b      0x152 /home/fsw/rep/tasa/lib/bcc-2.2.3-gcc/bin/../lib/gcc/sparc-gaisler-elf/10.2.0/../../../../sparc-gaisler-elf/lib/leon3v7/soft/libc.a(lib_a-memmove.o)
 .debug_info    0x00000000000102ad      0x13d /home/fsw/rep/tasa/lib/bcc-2.2.3-gcc/bin/../lib/gcc/sparc-gaisler-elf/10.2.0/../../../../sparc-gaisler-elf/lib/leon3v7/soft/libc.a(lib_a-memset.o)
 .debug_info    0x00000000000103ea      0x7aa /home/fsw/rep/tasa/lib/bcc-2.2.3-gcc/bin/../lib/gcc/sparc-gaisler-elf/10.2.0/../../../../sparc-gaisler-elf/lib/leon3v7/soft/libc.a(lib_a-mlock.o)
 .debug_info    0x0000000000010b94     0x215d /home/fsw/rep/tasa/lib/bcc-2.2.3-gcc/bin/../lib/gcc/sparc-gaisler-elf/10.2.0/../../../../sparc-gaisler-elf/lib/leon3v7/soft/libc.a(lib_a-mprec.o)
 .debug_info    0x0000000000012cf1      0xa23 /home/fsw/rep/tasa/lib/bcc-2.2.3-gcc/bin/../lib/gcc/sparc-gaisler-elf/10.2.0/../../../../sparc-gaisler-elf/lib/leon3v7/soft/libc.a(lib_a-putc.o)
 .debug_info    0x0000000000013714      0xc15 /home/fsw/rep/tasa/lib/bcc-2.2.3-gcc/bin/../lib/gcc/sparc-gaisler-elf/10.2.0/../../../../sparc-gaisler-elf/lib/leon3v7/soft/libc.a(lib_a-reallocr.o)
 .debug_info    0x0000000000014329      0x1eb /home/fsw/rep/tasa/lib/bcc-2.2.3-gcc/bin/../lib/gcc/sparc-gaisler-elf/10.2.0/../../../../sparc-gaisler-elf/lib/leon3v7/soft/libc.a(lib_a-s_frexp.o)
 .debug_info    0x0000000000014514      0x801 /home/fsw/rep/tasa/lib/bcc-2.2.3-gcc/bin/../lib/gcc/sparc-gaisler-elf/10.2.0/../../../../sparc-gaisler-elf/lib/leon3v7/soft/libc.a(lib_a-sbrkr.o)
 .debug_info    0x0000000000014d15      0xab3 /home/fsw/rep/tasa/lib/bcc-2.2.3-gcc/bin/../lib/gcc/sparc-gaisler-elf/10.2.0/../../../../sparc-gaisler-elf/lib/leon3v7/soft/libc.a(lib_a-stdio.o)
 .debug_info    0x00000000000157c8      0x153 /home/fsw/rep/tasa/lib/bcc-2.2.3-gcc/bin/../lib/gcc/sparc-gaisler-elf/10.2.0/../../../../sparc-gaisler-elf/lib/leon3v7/soft/libc.a(lib_a-strncpy.o)
 .debug_info    0x000000000001591b     0x2413 /home/fsw/rep/tasa/lib/bcc-2.2.3-gcc/bin/../lib/gcc/sparc-gaisler-elf/10.2.0/../../../../sparc-gaisler-elf/lib/leon3v7/soft/libc.a(lib_a-vfiprintf.o)
 .debug_info    0x0000000000017d2e      0xa45 /home/fsw/rep/tasa/lib/bcc-2.2.3-gcc/bin/../lib/gcc/sparc-gaisler-elf/10.2.0/../../../../sparc-gaisler-elf/lib/leon3v7/soft/libc.a(lib_a-wbuf.o)
 .debug_info    0x0000000000018773      0x831 /home/fsw/rep/tasa/lib/bcc-2.2.3-gcc/bin/../lib/gcc/sparc-gaisler-elf/10.2.0/../../../../sparc-gaisler-elf/lib/leon3v7/soft/libc.a(lib_a-writer.o)
 .debug_info    0x0000000000018fa4      0x8f6 /home/fsw/rep/tasa/lib/bcc-2.2.3-gcc/bin/../lib/gcc/sparc-gaisler-elf/10.2.0/../../../../sparc-gaisler-elf/lib/leon3v7/soft/libc.a(lib_a-callocr.o)
 .debug_info    0x000000000001989a      0x7de /home/fsw/rep/tasa/lib/bcc-2.2.3-gcc/bin/../lib/gcc/sparc-gaisler-elf/10.2.0/../../../../sparc-gaisler-elf/lib/leon3v7/soft/libc.a(lib_a-closer.o)
 .debug_info    0x000000000001a078      0xa42 /home/fsw/rep/tasa/lib/bcc-2.2.3-gcc/bin/../lib/gcc/sparc-gaisler-elf/10.2.0/../../../../sparc-gaisler-elf/lib/leon3v7/soft/libc.a(lib_a-fclose.o)
 .debug_info    0x000000000001aaba      0xb09 /home/fsw/rep/tasa/lib/bcc-2.2.3-gcc/bin/../lib/gcc/sparc-gaisler-elf/10.2.0/../../../../sparc-gaisler-elf/lib/leon3v7/soft/libc.a(lib_a-fputwc.o)
 .debug_info    0x000000000001b5c3      0x9dd /home/fsw/rep/tasa/lib/bcc-2.2.3-gcc/bin/../lib/gcc/sparc-gaisler-elf/10.2.0/../../../../sparc-gaisler-elf/lib/leon3v7/soft/libc.a(lib_a-fstatr.o)
 .debug_info    0x000000000001bfa0      0x7de /home/fsw/rep/tasa/lib/bcc-2.2.3-gcc/bin/../lib/gcc/sparc-gaisler-elf/10.2.0/../../../../sparc-gaisler-elf/lib/leon3v7/soft/libc.a(lib_a-isattyr.o)
 .debug_info    0x000000000001c77e      0xcf4 /home/fsw/rep/tasa/lib/bcc-2.2.3-gcc/bin/../lib/gcc/sparc-gaisler-elf/10.2.0/../../../../sparc-gaisler-elf/lib/leon3v7/soft/libc.a(lib_a-locale.o)
 .debug_info    0x000000000001d472      0x812 /home/fsw/rep/tasa/lib/bcc-2.2.3-gcc/bin/../lib/gcc/sparc-gaisler-elf/10.2.0/../../../../sparc-gaisler-elf/lib/leon3v7/soft/libc.a(lib_a-lseekr.o)
 .debug_info    0x000000000001dc84      0xb78 /home/fsw/rep/tasa/lib/bcc-2.2.3-gcc/bin/../lib/gcc/sparc-gaisler-elf/10.2.0/../../../../sparc-gaisler-elf/lib/leon3v7/soft/libc.a(lib_a-mbtowc_r.o)
 .debug_info    0x000000000001e7fc      0x82a /home/fsw/rep/tasa/lib/bcc-2.2.3-gcc/bin/../lib/gcc/sparc-gaisler-elf/10.2.0/../../../../sparc-gaisler-elf/lib/leon3v7/soft/libc.a(lib_a-readr.o)
 .debug_info    0x000000000001f026      0xc8c /home/fsw/rep/tasa/lib/bcc-2.2.3-gcc/bin/../lib/gcc/sparc-gaisler-elf/10.2.0/../../../../sparc-gaisler-elf/lib/leon3v7/soft/libc.a(lib_a-reent.o)
 .debug_info    0x000000000001fcb2       0xf2 /home/fsw/rep/tasa/lib/bcc-2.2.3-gcc/bin/../lib/gcc/sparc-gaisler-elf/10.2.0/../../../../sparc-gaisler-elf/lib/leon3v7/soft/libc.a(lib_a-strcmp.o)
 .debug_info    0x000000000001fda4      0xc0c /home/fsw/rep/tasa/lib/bcc-2.2.3-gcc/bin/../lib/gcc/sparc-gaisler-elf/10.2.0/../../../../sparc-gaisler-elf/lib/leon3v7/soft/libc.a(lib_a-wcrtomb.o)
 .debug_info    0x00000000000209b0      0xb31 /home/fsw/rep/tasa/lib/bcc-2.2.3-gcc/bin/../lib/gcc/sparc-gaisler-elf/10.2.0/../../../../sparc-gaisler-elf/lib/leon3v7/soft/libc.a(lib_a-wctomb_r.o)
 .debug_info    0x00000000000214e1       0xec /home/fsw/rep/tasa/lib/bcc-2.2.3-gcc/bin/../lib/gcc/sparc-gaisler-elf/10.2.0/../../../../sparc-gaisler-elf/lib/leon3v7/soft/libc.a(lib_a-ctype_.o)
 .debug_info    0x00000000000215cd       0x26 /home/fsw/rep/tasa/lib/bcc-2.2.3-gcc/bin/../sparc-gaisler-elf/bsp/leon3/leon3v7/soft/libbcc.a(_exit.S.o)
 .debug_info    0x00000000000215f3      0x12f /home/fsw/rep/tasa/lib/bcc-2.2.3-gcc/bin/../sparc-gaisler-elf/bsp/leon3/leon3v7/soft/libbcc.a(read.c.o)
 .debug_info    0x0000000000021722      0x138 /home/fsw/rep/tasa/lib/bcc-2.2.3-gcc/bin/../sparc-gaisler-elf/bsp/leon3/leon3v7/soft/libbcc.a(sbrk.c.o)
 .debug_info    0x000000000002185a       0xbd /home/fsw/rep/tasa/lib/bcc-2.2.3-gcc/bin/../sparc-gaisler-elf/bsp/leon3/leon3v7/soft/libbcc.a(heap.c.o)
 .debug_info    0x0000000000021917      0x154 /home/fsw/rep/tasa/lib/bcc-2.2.3-gcc/bin/../sparc-gaisler-elf/bsp/leon3/leon3v7/soft/libbcc.a(write.c.o)
 .debug_info    0x0000000000021a6b       0x26 /home/fsw/rep/tasa/lib/bcc-2.2.3-gcc/bin/../sparc-gaisler-elf/bsp/leon3/leon3v7/soft/libbcc.a(stubs.S.o)
 .debug_info    0x0000000000021a91      0x1a7 /home/fsw/rep/tasa/lib/bcc-2.2.3-gcc/bin/../sparc-gaisler-elf/bsp/leon3/leon3v7/soft/libbcc.a(con_apbuart.c.o)
 .debug_info    0x0000000000021c38       0x26 /home/fsw/rep/tasa/lib/bcc-2.2.3-gcc/bin/../lib/gcc/sparc-gaisler-elf/10.2.0/leon3v7/soft/libgcc.a(_mulsi3.o)
 .debug_info    0x0000000000021c5e       0x26 /home/fsw/rep/tasa/lib/bcc-2.2.3-gcc/bin/../lib/gcc/sparc-gaisler-elf/10.2.0/leon3v7/soft/libgcc.a(_divsi3.o)
 .debug_info    0x0000000000021c84       0x26 /home/fsw/rep/tasa/lib/bcc-2.2.3-gcc/bin/../lib/gcc/sparc-gaisler-elf/10.2.0/leon3v7/soft/libgcc.a(_modsi3.o)
 .debug_info    0x0000000000021caa      0x3ca /home/fsw/rep/tasa/lib/bcc-2.2.3-gcc/bin/../lib/gcc/sparc-gaisler-elf/10.2.0/leon3v7/soft/libgcc.a(_udivdi3.o)
 .debug_info    0x0000000000022074      0x3dd /home/fsw/rep/tasa/lib/bcc-2.2.3-gcc/bin/../lib/gcc/sparc-gaisler-elf/10.2.0/leon3v7/soft/libgcc.a(_umoddi3.o)
 .debug_info    0x0000000000022451      0x726 /home/fsw/rep/tasa/lib/bcc-2.2.3-gcc/bin/../lib/gcc/sparc-gaisler-elf/10.2.0/leon3v7/soft/libgcc.a(_addsub_df.o)
 .debug_info    0x0000000000022b77      0x580 /home/fsw/rep/tasa/lib/bcc-2.2.3-gcc/bin/../lib/gcc/sparc-gaisler-elf/10.2.0/leon3v7/soft/libgcc.a(_mul_df.o)
 .debug_info    0x00000000000230f7      0x42d /home/fsw/rep/tasa/lib/bcc-2.2.3-gcc/bin/../lib/gcc/sparc-gaisler-elf/10.2.0/leon3v7/soft/libgcc.a(_div_df.o)
 .debug_info    0x0000000000023524      0x317 /home/fsw/rep/tasa/lib/bcc-2.2.3-gcc/bin/../lib/gcc/sparc-gaisler-elf/10.2.0/leon3v7/soft/libgcc.a(_eq_df.o)
 .debug_info    0x000000000002383b      0x317 /home/fsw/rep/tasa/lib/bcc-2.2.3-gcc/bin/../lib/gcc/sparc-gaisler-elf/10.2.0/leon3v7/soft/libgcc.a(_ne_df.o)
 .debug_info    0x0000000000023b52      0x317 /home/fsw/rep/tasa/lib/bcc-2.2.3-gcc/bin/../lib/gcc/sparc-gaisler-elf/10.2.0/leon3v7/soft/libgcc.a(_gt_df.o)
 .debug_info    0x0000000000023e69      0x317 /home/fsw/rep/tasa/lib/bcc-2.2.3-gcc/bin/../lib/gcc/sparc-gaisler-elf/10.2.0/leon3v7/soft/libgcc.a(_lt_df.o)
 .debug_info    0x0000000000024180      0x317 /home/fsw/rep/tasa/lib/bcc-2.2.3-gcc/bin/../lib/gcc/sparc-gaisler-elf/10.2.0/leon3v7/soft/libgcc.a(_le_df.o)
 .debug_info    0x0000000000024497      0x2f0 /home/fsw/rep/tasa/lib/bcc-2.2.3-gcc/bin/../lib/gcc/sparc-gaisler-elf/10.2.0/leon3v7/soft/libgcc.a(_unord_df.o)
 .debug_info    0x0000000000024787      0x290 /home/fsw/rep/tasa/lib/bcc-2.2.3-gcc/bin/../lib/gcc/sparc-gaisler-elf/10.2.0/leon3v7/soft/libgcc.a(_si_to_df.o)
 .debug_info    0x0000000000024a17      0x2c9 /home/fsw/rep/tasa/lib/bcc-2.2.3-gcc/bin/../lib/gcc/sparc-gaisler-elf/10.2.0/leon3v7/soft/libgcc.a(_df_to_si.o)
 .debug_info    0x0000000000024ce0      0x168 /home/fsw/rep/tasa/lib/bcc-2.2.3-gcc/bin/../lib/gcc/sparc-gaisler-elf/10.2.0/leon3v7/soft/libgcc.a(_thenan_df.o)
 .debug_info    0x0000000000024e48      0x263 /home/fsw/rep/tasa/lib/bcc-2.2.3-gcc/bin/../lib/gcc/sparc-gaisler-elf/10.2.0/leon3v7/soft/libgcc.a(_usi_to_df.o)
 .debug_info    0x00000000000250ab      0x1a9 /home/fsw/rep/tasa/lib/bcc-2.2.3-gcc/bin/../lib/gcc/sparc-gaisler-elf/10.2.0/leon3v7/soft/libgcc.a(_muldi3.o)
 .debug_info    0x0000000000025254       0xc9 /home/fsw/rep/tasa/lib/bcc-2.2.3-gcc/bin/../lib/gcc/sparc-gaisler-elf/10.2.0/leon3v7/soft/libgcc.a(_clz.o)
 .debug_info    0x000000000002531d      0x13a /home/fsw/rep/tasa/lib/bcc-2.2.3-gcc/bin/../lib/gcc/sparc-gaisler-elf/10.2.0/leon3v7/soft/libgcc.a(_clzsi2.o)
 .debug_info    0x0000000000025457      0x2da /home/fsw/rep/tasa/lib/bcc-2.2.3-gcc/bin/../lib/gcc/sparc-gaisler-elf/10.2.0/leon3v7/soft/libgcc.a(_pack_df.o)
 .debug_info    0x0000000000025731      0x223 /home/fsw/rep/tasa/lib/bcc-2.2.3-gcc/bin/../lib/gcc/sparc-gaisler-elf/10.2.0/leon3v7/soft/libgcc.a(_unpack_df.o)
 .debug_info    0x0000000000025954      0x242 /home/fsw/rep/tasa/lib/bcc-2.2.3-gcc/bin/../lib/gcc/sparc-gaisler-elf/10.2.0/leon3v7/soft/libgcc.a(_fpcmp_parts_df.o)

.debug_abbrev   0x0000000000000000     0x9834
 *(.debug_abbrev)
 .debug_abbrev  0x0000000000000000       0x14 /home/fsw/rep/tasa/lib/bcc-2.2.3-gcc/bin/../sparc-gaisler-elf/bsp/leon3/leon3v7/soft/trap_table_mvt.S.o
 .debug_abbrev  0x0000000000000014       0x14 /home/fsw/rep/tasa/lib/bcc-2.2.3-gcc/bin/../sparc-gaisler-elf/bsp/leon3/leon3v7/soft/crt0.S.o
 .debug_abbrev  0x0000000000000028       0xe8 /tmp/ccK7ILCi.o
 .debug_abbrev  0x0000000000000110       0x14 /home/fsw/rep/tasa/lib/bcc-2.2.3-gcc/bin/../sparc-gaisler-elf/bsp/leon3/leon3v7/soft/libbcc.a(reset_trap_mvt.S.o)
 .debug_abbrev  0x0000000000000124       0x14 /home/fsw/rep/tasa/lib/bcc-2.2.3-gcc/bin/../sparc-gaisler-elf/bsp/leon3/leon3v7/soft/libbcc.a(window_trap.S.o)
 .debug_abbrev  0x0000000000000138       0x14 /home/fsw/rep/tasa/lib/bcc-2.2.3-gcc/bin/../sparc-gaisler-elf/bsp/leon3/leon3v7/soft/libbcc.a(interrupt_trap.S.o)
 .debug_abbrev  0x000000000000014c       0x14 /home/fsw/rep/tasa/lib/bcc-2.2.3-gcc/bin/../sparc-gaisler-elf/bsp/leon3/leon3v7/soft/libbcc.a(flush_windows_trap.S.o)
 .debug_abbrev  0x0000000000000160       0x14 /home/fsw/rep/tasa/lib/bcc-2.2.3-gcc/bin/../sparc-gaisler-elf/bsp/leon3/leon3v7/soft/libbcc.a(sw_trap_set_pil.S.o)
 .debug_abbrev  0x0000000000000174       0xad /home/fsw/rep/tasa/lib/bcc-2.2.3-gcc/bin/../sparc-gaisler-elf/bsp/leon3/leon3v7/soft/libbcc.a(isr.c.o)
 .debug_abbrev  0x0000000000000221       0x85 /home/fsw/rep/tasa/lib/bcc-2.2.3-gcc/bin/../sparc-gaisler-elf/bsp/leon3/leon3v7/soft/libbcc.a(int_nest.c.o)
 .debug_abbrev  0x00000000000002a6       0x14 /home/fsw/rep/tasa/lib/bcc-2.2.3-gcc/bin/../sparc-gaisler-elf/bsp/leon3/leon3v7/soft/libbcc.a(init.S.o)
 .debug_abbrev  0x00000000000002ba       0x14 /home/fsw/rep/tasa/lib/bcc-2.2.3-gcc/bin/../sparc-gaisler-elf/bsp/leon3/leon3v7/soft/libbcc.a(leon_info.S.o)
 .debug_abbrev  0x00000000000002ce       0x14 /home/fsw/rep/tasa/lib/bcc-2.2.3-gcc/bin/../sparc-gaisler-elf/bsp/leon3/leon3v7/soft/libbcc.a(dwzero.S.o)
 .debug_abbrev  0x00000000000002e2       0x87 /home/fsw/rep/tasa/lib/bcc-2.2.3-gcc/bin/../sparc-gaisler-elf/bsp/leon3/leon3v7/soft/libbcc.a(copy_data.c.o)
 .debug_abbrev  0x0000000000000369       0x70 /home/fsw/rep/tasa/lib/bcc-2.2.3-gcc/bin/../sparc-gaisler-elf/bsp/leon3/leon3v7/soft/libbcc.a(argv.c.o)
 .debug_abbrev  0x00000000000003d9      0x132 /home/fsw/rep/tasa/lib/bcc-2.2.3-gcc/bin/../sparc-gaisler-elf/bsp/leon3/leon3v7/soft/libbcc.a(int_irqmp_get_source.c.o)
 .debug_abbrev  0x000000000000050b      0x16d /home/fsw/rep/tasa/lib/bcc-2.2.3-gcc/bin/../sparc-gaisler-elf/bsp/leon3/leon3v7/soft/libbcc.a(int_irqmp_mp.c.o)
 .debug_abbrev  0x0000000000000678      0x218 /home/fsw/rep/tasa/lib/bcc-2.2.3-gcc/bin/../sparc-gaisler-elf/bsp/leon3/leon3v7/soft/libbcc.a(int_irqmp_init.c.o)
 .debug_abbrev  0x0000000000000890       0xc8 /home/fsw/rep/tasa/lib/bcc-2.2.3-gcc/bin/../sparc-gaisler-elf/bsp/leon3/leon3v7/soft/libbcc.a(con_apbuart_init.c.o)
 .debug_abbrev  0x0000000000000958      0x115 /home/fsw/rep/tasa/lib/bcc-2.2.3-gcc/bin/../sparc-gaisler-elf/bsp/leon3/leon3v7/soft/libbcc.a(timer_gptimer_init.c.o)
 .debug_abbrev  0x0000000000000a6d      0x2f0 /home/fsw/rep/tasa/lib/bcc-2.2.3-gcc/bin/../sparc-gaisler-elf/bsp/leon3/leon3v7/soft/libbcc.a(ambapp.c.o)
 .debug_abbrev  0x0000000000000d5d      0x12b /home/fsw/rep/tasa/lib/bcc-2.2.3-gcc/bin/../sparc-gaisler-elf/bsp/leon3/leon3v7/soft/libbcc.a(ambapp_findfirst_fn.c.o)
 .debug_abbrev  0x0000000000000e88       0x57 /home/fsw/rep/tasa/lib/bcc-2.2.3-gcc/bin/../sparc-gaisler-elf/bsp/leon3/leon3v7/soft/libbcc.a(int_irqmp_handle.c.o)
 .debug_abbrev  0x0000000000000edf       0x57 /home/fsw/rep/tasa/lib/bcc-2.2.3-gcc/bin/../sparc-gaisler-elf/bsp/leon3/leon3v7/soft/libbcc.a(con_handle.c.o)
 .debug_abbrev  0x0000000000000f36       0x57 /home/fsw/rep/tasa/lib/bcc-2.2.3-gcc/bin/../sparc-gaisler-elf/bsp/leon3/leon3v7/soft/libbcc.a(timer_handle.c.o)
 .debug_abbrev  0x0000000000000f8d       0xb7 /home/fsw/rep/tasa/lib/bcc-2.2.3-gcc/bin/../lib/gcc/sparc-gaisler-elf/10.2.0/../../../../sparc-gaisler-elf/lib/leon3v7/soft/libc.a(lib_a-atexit.o)
 .debug_abbrev  0x0000000000001044      0x1a5 /home/fsw/rep/tasa/lib/bcc-2.2.3-gcc/bin/../lib/gcc/sparc-gaisler-elf/10.2.0/../../../../sparc-gaisler-elf/lib/leon3v7/soft/libc.a(lib_a-exit.o)
 .debug_abbrev  0x00000000000011e9      0x151 /home/fsw/rep/tasa/lib/bcc-2.2.3-gcc/bin/../lib/gcc/sparc-gaisler-elf/10.2.0/../../../../sparc-gaisler-elf/lib/leon3v7/soft/libc.a(lib_a-impure.o)
 .debug_abbrev  0x000000000000133a       0xb6 /home/fsw/rep/tasa/lib/bcc-2.2.3-gcc/bin/../lib/gcc/sparc-gaisler-elf/10.2.0/../../../../sparc-gaisler-elf/lib/leon3v7/soft/libc.a(lib_a-memcpy.o)
 .debug_abbrev  0x00000000000013f0      0x20f /home/fsw/rep/tasa/lib/bcc-2.2.3-gcc/bin/../lib/gcc/sparc-gaisler-elf/10.2.0/../../../../sparc-gaisler-elf/lib/leon3v7/soft/libc.a(lib_a-printf.o)
 .debug_abbrev  0x00000000000015ff      0x1fc /home/fsw/rep/tasa/lib/bcc-2.2.3-gcc/bin/../lib/gcc/sparc-gaisler-elf/10.2.0/../../../../sparc-gaisler-elf/lib/leon3v7/soft/libc.a(lib_a-putchar.o)
 .debug_abbrev  0x00000000000017fb      0x252 /home/fsw/rep/tasa/lib/bcc-2.2.3-gcc/bin/../lib/gcc/sparc-gaisler-elf/10.2.0/../../../../sparc-gaisler-elf/lib/leon3v7/soft/libc.a(lib_a-puts.o)
 .debug_abbrev  0x0000000000001a4d       0x8f /home/fsw/rep/tasa/lib/bcc-2.2.3-gcc/bin/../lib/gcc/sparc-gaisler-elf/10.2.0/../../../../sparc-gaisler-elf/lib/leon3v7/soft/libc.a(lib_a-strlen.o)
 .debug_abbrev  0x0000000000001adc      0x406 /home/fsw/rep/tasa/lib/bcc-2.2.3-gcc/bin/../lib/gcc/sparc-gaisler-elf/10.2.0/../../../../sparc-gaisler-elf/lib/leon3v7/soft/libc.a(lib_a-vfprintf.o)
 .debug_abbrev  0x0000000000001ee2      0x1d4 /home/fsw/rep/tasa/lib/bcc-2.2.3-gcc/bin/../lib/gcc/sparc-gaisler-elf/10.2.0/../../../../sparc-gaisler-elf/lib/leon3v7/soft/libc.a(lib_a-wsetup.o)
 .debug_abbrev  0x00000000000020b6      0x1b2 /home/fsw/rep/tasa/lib/bcc-2.2.3-gcc/bin/../lib/gcc/sparc-gaisler-elf/10.2.0/../../../../sparc-gaisler-elf/lib/leon3v7/soft/libc.a(lib_a-__atexit.o)
 .debug_abbrev  0x0000000000002268      0x1a0 /home/fsw/rep/tasa/lib/bcc-2.2.3-gcc/bin/../lib/gcc/sparc-gaisler-elf/10.2.0/../../../../sparc-gaisler-elf/lib/leon3v7/soft/libc.a(lib_a-__call_atexit.o)
 .debug_abbrev  0x0000000000002408      0x2f7 /home/fsw/rep/tasa/lib/bcc-2.2.3-gcc/bin/../lib/gcc/sparc-gaisler-elf/10.2.0/../../../../sparc-gaisler-elf/lib/leon3v7/soft/libc.a(lib_a-dtoa.o)
 .debug_abbrev  0x00000000000026ff      0x2b3 /home/fsw/rep/tasa/lib/bcc-2.2.3-gcc/bin/../lib/gcc/sparc-gaisler-elf/10.2.0/../../../../sparc-gaisler-elf/lib/leon3v7/soft/libc.a(lib_a-fflush.o)
 .debug_abbrev  0x00000000000029b2      0x334 /home/fsw/rep/tasa/lib/bcc-2.2.3-gcc/bin/../lib/gcc/sparc-gaisler-elf/10.2.0/../../../../sparc-gaisler-elf/lib/leon3v7/soft/libc.a(lib_a-findfp.o)
 .debug_abbrev  0x0000000000002ce6      0x247 /home/fsw/rep/tasa/lib/bcc-2.2.3-gcc/bin/../lib/gcc/sparc-gaisler-elf/10.2.0/../../../../sparc-gaisler-elf/lib/leon3v7/soft/libc.a(lib_a-freer.o)
 .debug_abbrev  0x0000000000002f2d      0x20c /home/fsw/rep/tasa/lib/bcc-2.2.3-gcc/bin/../lib/gcc/sparc-gaisler-elf/10.2.0/../../../../sparc-gaisler-elf/lib/leon3v7/soft/libc.a(lib_a-fvwrite.o)
 .debug_abbrev  0x0000000000003139      0x197 /home/fsw/rep/tasa/lib/bcc-2.2.3-gcc/bin/../lib/gcc/sparc-gaisler-elf/10.2.0/../../../../sparc-gaisler-elf/lib/leon3v7/soft/libc.a(lib_a-fwalk.o)
 .debug_abbrev  0x00000000000032d0      0x24b /home/fsw/rep/tasa/lib/bcc-2.2.3-gcc/bin/../lib/gcc/sparc-gaisler-elf/10.2.0/../../../../sparc-gaisler-elf/lib/leon3v7/soft/libc.a(lib_a-localeconv.o)
 .debug_abbrev  0x000000000000351b      0x290 /home/fsw/rep/tasa/lib/bcc-2.2.3-gcc/bin/../lib/gcc/sparc-gaisler-elf/10.2.0/../../../../sparc-gaisler-elf/lib/leon3v7/soft/libc.a(lib_a-makebuf.o)
 .debug_abbrev  0x00000000000037ab      0x1b6 /home/fsw/rep/tasa/lib/bcc-2.2.3-gcc/bin/../lib/gcc/sparc-gaisler-elf/10.2.0/../../../../sparc-gaisler-elf/lib/leon3v7/soft/libc.a(lib_a-malloc.o)
 .debug_abbrev  0x0000000000003961      0x273 /home/fsw/rep/tasa/lib/bcc-2.2.3-gcc/bin/../lib/gcc/sparc-gaisler-elf/10.2.0/../../../../sparc-gaisler-elf/lib/leon3v7/soft/libc.a(lib_a-mallocr.o)
 .debug_abbrev  0x0000000000003bd4       0xd4 /home/fsw/rep/tasa/lib/bcc-2.2.3-gcc/bin/../lib/gcc/sparc-gaisler-elf/10.2.0/../../../../sparc-gaisler-elf/lib/leon3v7/soft/libc.a(lib_a-memchr.o)
 .debug_abbrev  0x0000000000003ca8       0xc0 /home/fsw/rep/tasa/lib/bcc-2.2.3-gcc/bin/../lib/gcc/sparc-gaisler-elf/10.2.0/../../../../sparc-gaisler-elf/lib/leon3v7/soft/libc.a(lib_a-memmove.o)
 .debug_abbrev  0x0000000000003d68       0xb4 /home/fsw/rep/tasa/lib/bcc-2.2.3-gcc/bin/../lib/gcc/sparc-gaisler-elf/10.2.0/../../../../sparc-gaisler-elf/lib/leon3v7/soft/libc.a(lib_a-memset.o)
 .debug_abbrev  0x0000000000003e1c      0x174 /home/fsw/rep/tasa/lib/bcc-2.2.3-gcc/bin/../lib/gcc/sparc-gaisler-elf/10.2.0/../../../../sparc-gaisler-elf/lib/leon3v7/soft/libc.a(lib_a-mlock.o)
 .debug_abbrev  0x0000000000003f90      0x446 /home/fsw/rep/tasa/lib/bcc-2.2.3-gcc/bin/../lib/gcc/sparc-gaisler-elf/10.2.0/../../../../sparc-gaisler-elf/lib/leon3v7/soft/libc.a(lib_a-mprec.o)
 .debug_abbrev  0x00000000000043d6      0x263 /home/fsw/rep/tasa/lib/bcc-2.2.3-gcc/bin/../lib/gcc/sparc-gaisler-elf/10.2.0/../../../../sparc-gaisler-elf/lib/leon3v7/soft/libc.a(lib_a-putc.o)
 .debug_abbrev  0x0000000000004639      0x224 /home/fsw/rep/tasa/lib/bcc-2.2.3-gcc/bin/../lib/gcc/sparc-gaisler-elf/10.2.0/../../../../sparc-gaisler-elf/lib/leon3v7/soft/libc.a(lib_a-reallocr.o)
 .debug_abbrev  0x000000000000485d      0x15f /home/fsw/rep/tasa/lib/bcc-2.2.3-gcc/bin/../lib/gcc/sparc-gaisler-elf/10.2.0/../../../../sparc-gaisler-elf/lib/leon3v7/soft/libc.a(lib_a-s_frexp.o)
 .debug_abbrev  0x00000000000049bc      0x1d6 /home/fsw/rep/tasa/lib/bcc-2.2.3-gcc/bin/../lib/gcc/sparc-gaisler-elf/10.2.0/../../../../sparc-gaisler-elf/lib/leon3v7/soft/libc.a(lib_a-sbrkr.o)
 .debug_abbrev  0x0000000000004b92      0x219 /home/fsw/rep/tasa/lib/bcc-2.2.3-gcc/bin/../lib/gcc/sparc-gaisler-elf/10.2.0/../../../../sparc-gaisler-elf/lib/leon3v7/soft/libc.a(lib_a-stdio.o)
 .debug_abbrev  0x0000000000004dab       0xbb /home/fsw/rep/tasa/lib/bcc-2.2.3-gcc/bin/../lib/gcc/sparc-gaisler-elf/10.2.0/../../../../sparc-gaisler-elf/lib/leon3v7/soft/libc.a(lib_a-strncpy.o)
 .debug_abbrev  0x0000000000004e66      0x3e5 /home/fsw/rep/tasa/lib/bcc-2.2.3-gcc/bin/../lib/gcc/sparc-gaisler-elf/10.2.0/../../../../sparc-gaisler-elf/lib/leon3v7/soft/libc.a(lib_a-vfiprintf.o)
 .debug_abbrev  0x000000000000524b      0x257 /home/fsw/rep/tasa/lib/bcc-2.2.3-gcc/bin/../lib/gcc/sparc-gaisler-elf/10.2.0/../../../../sparc-gaisler-elf/lib/leon3v7/soft/libc.a(lib_a-wbuf.o)
 .debug_abbrev  0x00000000000054a2      0x1b0 /home/fsw/rep/tasa/lib/bcc-2.2.3-gcc/bin/../lib/gcc/sparc-gaisler-elf/10.2.0/../../../../sparc-gaisler-elf/lib/leon3v7/soft/libc.a(lib_a-writer.o)
 .debug_abbrev  0x0000000000005652      0x1f2 /home/fsw/rep/tasa/lib/bcc-2.2.3-gcc/bin/../lib/gcc/sparc-gaisler-elf/10.2.0/../../../../sparc-gaisler-elf/lib/leon3v7/soft/libc.a(lib_a-callocr.o)
 .debug_abbrev  0x0000000000005844      0x1ab /home/fsw/rep/tasa/lib/bcc-2.2.3-gcc/bin/../lib/gcc/sparc-gaisler-elf/10.2.0/../../../../sparc-gaisler-elf/lib/leon3v7/soft/libc.a(lib_a-closer.o)
 .debug_abbrev  0x00000000000059ef      0x265 /home/fsw/rep/tasa/lib/bcc-2.2.3-gcc/bin/../lib/gcc/sparc-gaisler-elf/10.2.0/../../../../sparc-gaisler-elf/lib/leon3v7/soft/libc.a(lib_a-fclose.o)
 .debug_abbrev  0x0000000000005c54      0x2d5 /home/fsw/rep/tasa/lib/bcc-2.2.3-gcc/bin/../lib/gcc/sparc-gaisler-elf/10.2.0/../../../../sparc-gaisler-elf/lib/leon3v7/soft/libc.a(lib_a-fputwc.o)
 .debug_abbrev  0x0000000000005f29      0x1bf /home/fsw/rep/tasa/lib/bcc-2.2.3-gcc/bin/../lib/gcc/sparc-gaisler-elf/10.2.0/../../../../sparc-gaisler-elf/lib/leon3v7/soft/libc.a(lib_a-fstatr.o)
 .debug_abbrev  0x00000000000060e8      0x1ab /home/fsw/rep/tasa/lib/bcc-2.2.3-gcc/bin/../lib/gcc/sparc-gaisler-elf/10.2.0/../../../../sparc-gaisler-elf/lib/leon3v7/soft/libc.a(lib_a-isattyr.o)
 .debug_abbrev  0x0000000000006293      0x2bb /home/fsw/rep/tasa/lib/bcc-2.2.3-gcc/bin/../lib/gcc/sparc-gaisler-elf/10.2.0/../../../../sparc-gaisler-elf/lib/leon3v7/soft/libc.a(lib_a-locale.o)
 .debug_abbrev  0x000000000000654e      0x1bf /home/fsw/rep/tasa/lib/bcc-2.2.3-gcc/bin/../lib/gcc/sparc-gaisler-elf/10.2.0/../../../../sparc-gaisler-elf/lib/leon3v7/soft/libc.a(lib_a-lseekr.o)
 .debug_abbrev  0x000000000000670d      0x253 /home/fsw/rep/tasa/lib/bcc-2.2.3-gcc/bin/../lib/gcc/sparc-gaisler-elf/10.2.0/../../../../sparc-gaisler-elf/lib/leon3v7/soft/libc.a(lib_a-mbtowc_r.o)
 .debug_abbrev  0x0000000000006960      0x1ab /home/fsw/rep/tasa/lib/bcc-2.2.3-gcc/bin/../lib/gcc/sparc-gaisler-elf/10.2.0/../../../../sparc-gaisler-elf/lib/leon3v7/soft/libc.a(lib_a-readr.o)
 .debug_abbrev  0x0000000000006b0b      0x263 /home/fsw/rep/tasa/lib/bcc-2.2.3-gcc/bin/../lib/gcc/sparc-gaisler-elf/10.2.0/../../../../sparc-gaisler-elf/lib/leon3v7/soft/libc.a(lib_a-reent.o)
 .debug_abbrev  0x0000000000006d6e       0x80 /home/fsw/rep/tasa/lib/bcc-2.2.3-gcc/bin/../lib/gcc/sparc-gaisler-elf/10.2.0/../../../../sparc-gaisler-elf/lib/leon3v7/soft/libc.a(lib_a-strcmp.o)
 .debug_abbrev  0x0000000000006dee      0x233 /home/fsw/rep/tasa/lib/bcc-2.2.3-gcc/bin/../lib/gcc/sparc-gaisler-elf/10.2.0/../../../../sparc-gaisler-elf/lib/leon3v7/soft/libc.a(lib_a-wcrtomb.o)
 .debug_abbrev  0x0000000000007021      0x23b /home/fsw/rep/tasa/lib/bcc-2.2.3-gcc/bin/../lib/gcc/sparc-gaisler-elf/10.2.0/../../../../sparc-gaisler-elf/lib/leon3v7/soft/libc.a(lib_a-wctomb_r.o)
 .debug_abbrev  0x000000000000725c       0x73 /home/fsw/rep/tasa/lib/bcc-2.2.3-gcc/bin/../lib/gcc/sparc-gaisler-elf/10.2.0/../../../../sparc-gaisler-elf/lib/leon3v7/soft/libc.a(lib_a-ctype_.o)
 .debug_abbrev  0x00000000000072cf       0x14 /home/fsw/rep/tasa/lib/bcc-2.2.3-gcc/bin/../sparc-gaisler-elf/bsp/leon3/leon3v7/soft/libbcc.a(_exit.S.o)
 .debug_abbrev  0x00000000000072e3       0xc8 /home/fsw/rep/tasa/lib/bcc-2.2.3-gcc/bin/../sparc-gaisler-elf/bsp/leon3/leon3v7/soft/libbcc.a(read.c.o)
 .debug_abbrev  0x00000000000073ab       0xc9 /home/fsw/rep/tasa/lib/bcc-2.2.3-gcc/bin/../sparc-gaisler-elf/bsp/leon3/leon3v7/soft/libbcc.a(sbrk.c.o)
 .debug_abbrev  0x0000000000007474       0x60 /home/fsw/rep/tasa/lib/bcc-2.2.3-gcc/bin/../sparc-gaisler-elf/bsp/leon3/leon3v7/soft/libbcc.a(heap.c.o)
 .debug_abbrev  0x00000000000074d4      0x102 /home/fsw/rep/tasa/lib/bcc-2.2.3-gcc/bin/../sparc-gaisler-elf/bsp/leon3/leon3v7/soft/libbcc.a(write.c.o)
 .debug_abbrev  0x00000000000075d6       0x14 /home/fsw/rep/tasa/lib/bcc-2.2.3-gcc/bin/../sparc-gaisler-elf/bsp/leon3/leon3v7/soft/libbcc.a(stubs.S.o)
 .debug_abbrev  0x00000000000075ea      0x13f /home/fsw/rep/tasa/lib/bcc-2.2.3-gcc/bin/../sparc-gaisler-elf/bsp/leon3/leon3v7/soft/libbcc.a(con_apbuart.c.o)
 .debug_abbrev  0x0000000000007729       0x14 /home/fsw/rep/tasa/lib/bcc-2.2.3-gcc/bin/../lib/gcc/sparc-gaisler-elf/10.2.0/leon3v7/soft/libgcc.a(_mulsi3.o)
 .debug_abbrev  0x000000000000773d       0x14 /home/fsw/rep/tasa/lib/bcc-2.2.3-gcc/bin/../lib/gcc/sparc-gaisler-elf/10.2.0/leon3v7/soft/libgcc.a(_divsi3.o)
 .debug_abbrev  0x0000000000007751       0x14 /home/fsw/rep/tasa/lib/bcc-2.2.3-gcc/bin/../lib/gcc/sparc-gaisler-elf/10.2.0/leon3v7/soft/libgcc.a(_modsi3.o)
 .debug_abbrev  0x0000000000007765      0x1bf /home/fsw/rep/tasa/lib/bcc-2.2.3-gcc/bin/../lib/gcc/sparc-gaisler-elf/10.2.0/leon3v7/soft/libgcc.a(_udivdi3.o)
 .debug_abbrev  0x0000000000007924      0x1d3 /home/fsw/rep/tasa/lib/bcc-2.2.3-gcc/bin/../lib/gcc/sparc-gaisler-elf/10.2.0/leon3v7/soft/libgcc.a(_umoddi3.o)
 .debug_abbrev  0x0000000000007af7      0x257 /home/fsw/rep/tasa/lib/bcc-2.2.3-gcc/bin/../lib/gcc/sparc-gaisler-elf/10.2.0/leon3v7/soft/libgcc.a(_addsub_df.o)
 .debug_abbrev  0x0000000000007d4e      0x27a /home/fsw/rep/tasa/lib/bcc-2.2.3-gcc/bin/../lib/gcc/sparc-gaisler-elf/10.2.0/leon3v7/soft/libgcc.a(_mul_df.o)
 .debug_abbrev  0x0000000000007fc8      0x263 /home/fsw/rep/tasa/lib/bcc-2.2.3-gcc/bin/../lib/gcc/sparc-gaisler-elf/10.2.0/leon3v7/soft/libgcc.a(_div_df.o)
 .debug_abbrev  0x000000000000822b      0x195 /home/fsw/rep/tasa/lib/bcc-2.2.3-gcc/bin/../lib/gcc/sparc-gaisler-elf/10.2.0/leon3v7/soft/libgcc.a(_eq_df.o)
 .debug_abbrev  0x00000000000083c0      0x195 /home/fsw/rep/tasa/lib/bcc-2.2.3-gcc/bin/../lib/gcc/sparc-gaisler-elf/10.2.0/leon3v7/soft/libgcc.a(_ne_df.o)
 .debug_abbrev  0x0000000000008555      0x195 /home/fsw/rep/tasa/lib/bcc-2.2.3-gcc/bin/../lib/gcc/sparc-gaisler-elf/10.2.0/leon3v7/soft/libgcc.a(_gt_df.o)
 .debug_abbrev  0x00000000000086ea      0x195 /home/fsw/rep/tasa/lib/bcc-2.2.3-gcc/bin/../lib/gcc/sparc-gaisler-elf/10.2.0/leon3v7/soft/libgcc.a(_lt_df.o)
 .debug_abbrev  0x000000000000887f      0x195 /home/fsw/rep/tasa/lib/bcc-2.2.3-gcc/bin/../lib/gcc/sparc-gaisler-elf/10.2.0/leon3v7/soft/libgcc.a(_le_df.o)
 .debug_abbrev  0x0000000000008a14      0x195 /home/fsw/rep/tasa/lib/bcc-2.2.3-gcc/bin/../lib/gcc/sparc-gaisler-elf/10.2.0/leon3v7/soft/libgcc.a(_unord_df.o)
 .debug_abbrev  0x0000000000008ba9      0x1ca /home/fsw/rep/tasa/lib/bcc-2.2.3-gcc/bin/../lib/gcc/sparc-gaisler-elf/10.2.0/leon3v7/soft/libgcc.a(_si_to_df.o)
 .debug_abbrev  0x0000000000008d73      0x19c /home/fsw/rep/tasa/lib/bcc-2.2.3-gcc/bin/../lib/gcc/sparc-gaisler-elf/10.2.0/leon3v7/soft/libgcc.a(_df_to_si.o)
 .debug_abbrev  0x0000000000008f0f       0xca /home/fsw/rep/tasa/lib/bcc-2.2.3-gcc/bin/../lib/gcc/sparc-gaisler-elf/10.2.0/leon3v7/soft/libgcc.a(_thenan_df.o)
 .debug_abbrev  0x0000000000008fd9      0x1ce /home/fsw/rep/tasa/lib/bcc-2.2.3-gcc/bin/../lib/gcc/sparc-gaisler-elf/10.2.0/leon3v7/soft/libgcc.a(_usi_to_df.o)
 .debug_abbrev  0x00000000000091a7      0x102 /home/fsw/rep/tasa/lib/bcc-2.2.3-gcc/bin/../lib/gcc/sparc-gaisler-elf/10.2.0/leon3v7/soft/libgcc.a(_muldi3.o)
 .debug_abbrev  0x00000000000092a9       0x70 /home/fsw/rep/tasa/lib/bcc-2.2.3-gcc/bin/../lib/gcc/sparc-gaisler-elf/10.2.0/leon3v7/soft/libgcc.a(_clz.o)
 .debug_abbrev  0x0000000000009319       0xbf /home/fsw/rep/tasa/lib/bcc-2.2.3-gcc/bin/../lib/gcc/sparc-gaisler-elf/10.2.0/leon3v7/soft/libgcc.a(_clzsi2.o)
 .debug_abbrev  0x00000000000093d8      0x1b7 /home/fsw/rep/tasa/lib/bcc-2.2.3-gcc/bin/../lib/gcc/sparc-gaisler-elf/10.2.0/leon3v7/soft/libgcc.a(_pack_df.o)
 .debug_abbrev  0x000000000000958f      0x12d /home/fsw/rep/tasa/lib/bcc-2.2.3-gcc/bin/../lib/gcc/sparc-gaisler-elf/10.2.0/leon3v7/soft/libgcc.a(_unpack_df.o)
 .debug_abbrev  0x00000000000096bc      0x178 /home/fsw/rep/tasa/lib/bcc-2.2.3-gcc/bin/../lib/gcc/sparc-gaisler-elf/10.2.0/leon3v7/soft/libgcc.a(_fpcmp_parts_df.o)

.debug_line     0x0000000000000000    0x14eda
 *(.debug_line)
 .debug_line    0x0000000000000000       0xda /home/fsw/rep/tasa/lib/bcc-2.2.3-gcc/bin/../sparc-gaisler-elf/bsp/leon3/leon3v7/soft/trap_table_mvt.S.o
 .debug_line    0x00000000000000da       0x88 /home/fsw/rep/tasa/lib/bcc-2.2.3-gcc/bin/../sparc-gaisler-elf/bsp/leon3/leon3v7/soft/crt0.S.o
 .debug_line    0x0000000000000162      0x195 /tmp/ccK7ILCi.o
 .debug_line    0x00000000000002f7       0x8c /home/fsw/rep/tasa/lib/bcc-2.2.3-gcc/bin/../sparc-gaisler-elf/bsp/leon3/leon3v7/soft/libbcc.a(reset_trap_mvt.S.o)
 .debug_line    0x0000000000000383       0x90 /home/fsw/rep/tasa/lib/bcc-2.2.3-gcc/bin/../sparc-gaisler-elf/bsp/leon3/leon3v7/soft/libbcc.a(window_trap.S.o)
 .debug_line    0x0000000000000413       0xd3 /home/fsw/rep/tasa/lib/bcc-2.2.3-gcc/bin/../sparc-gaisler-elf/bsp/leon3/leon3v7/soft/libbcc.a(interrupt_trap.S.o)
 .debug_line    0x00000000000004e6       0x8d /home/fsw/rep/tasa/lib/bcc-2.2.3-gcc/bin/../sparc-gaisler-elf/bsp/leon3/leon3v7/soft/libbcc.a(flush_windows_trap.S.o)
 .debug_line    0x0000000000000573       0x75 /home/fsw/rep/tasa/lib/bcc-2.2.3-gcc/bin/../sparc-gaisler-elf/bsp/leon3/leon3v7/soft/libbcc.a(sw_trap_set_pil.S.o)
 .debug_line    0x00000000000005e8       0x93 /home/fsw/rep/tasa/lib/bcc-2.2.3-gcc/bin/../sparc-gaisler-elf/bsp/leon3/leon3v7/soft/libbcc.a(isr.c.o)
 .debug_line    0x000000000000067b      0x1c2 /home/fsw/rep/tasa/lib/bcc-2.2.3-gcc/bin/../sparc-gaisler-elf/bsp/leon3/leon3v7/soft/libbcc.a(int_nest.c.o)
 .debug_line    0x000000000000083d       0x5c /home/fsw/rep/tasa/lib/bcc-2.2.3-gcc/bin/../sparc-gaisler-elf/bsp/leon3/leon3v7/soft/libbcc.a(init.S.o)
 .debug_line    0x0000000000000899       0x84 /home/fsw/rep/tasa/lib/bcc-2.2.3-gcc/bin/../sparc-gaisler-elf/bsp/leon3/leon3v7/soft/libbcc.a(leon_info.S.o)
 .debug_line    0x000000000000091d       0x67 /home/fsw/rep/tasa/lib/bcc-2.2.3-gcc/bin/../sparc-gaisler-elf/bsp/leon3/leon3v7/soft/libbcc.a(dwzero.S.o)
 .debug_line    0x0000000000000984      0x1de /home/fsw/rep/tasa/lib/bcc-2.2.3-gcc/bin/../sparc-gaisler-elf/bsp/leon3/leon3v7/soft/libbcc.a(copy_data.c.o)
 .debug_line    0x0000000000000b62       0x8c /home/fsw/rep/tasa/lib/bcc-2.2.3-gcc/bin/../sparc-gaisler-elf/bsp/leon3/leon3v7/soft/libbcc.a(argv.c.o)
 .debug_line    0x0000000000000bee      0x2a6 /home/fsw/rep/tasa/lib/bcc-2.2.3-gcc/bin/../sparc-gaisler-elf/bsp/leon3/leon3v7/soft/libbcc.a(int_irqmp_get_source.c.o)
 .debug_line    0x0000000000000e94      0x313 /home/fsw/rep/tasa/lib/bcc-2.2.3-gcc/bin/../sparc-gaisler-elf/bsp/leon3/leon3v7/soft/libbcc.a(int_irqmp_mp.c.o)
 .debug_line    0x00000000000011a7      0x497 /home/fsw/rep/tasa/lib/bcc-2.2.3-gcc/bin/../sparc-gaisler-elf/bsp/leon3/leon3v7/soft/libbcc.a(int_irqmp_init.c.o)
 .debug_line    0x000000000000163e      0x24f /home/fsw/rep/tasa/lib/bcc-2.2.3-gcc/bin/../sparc-gaisler-elf/bsp/leon3/leon3v7/soft/libbcc.a(con_apbuart_init.c.o)
 .debug_line    0x000000000000188d      0x263 /home/fsw/rep/tasa/lib/bcc-2.2.3-gcc/bin/../sparc-gaisler-elf/bsp/leon3/leon3v7/soft/libbcc.a(timer_gptimer_init.c.o)
 .debug_line    0x0000000000001af0      0x872 /home/fsw/rep/tasa/lib/bcc-2.2.3-gcc/bin/../sparc-gaisler-elf/bsp/leon3/leon3v7/soft/libbcc.a(ambapp.c.o)
 .debug_line    0x0000000000002362      0x26a /home/fsw/rep/tasa/lib/bcc-2.2.3-gcc/bin/../sparc-gaisler-elf/bsp/leon3/leon3v7/soft/libbcc.a(ambapp_findfirst_fn.c.o)
 .debug_line    0x00000000000025cc      0x201 /home/fsw/rep/tasa/lib/bcc-2.2.3-gcc/bin/../sparc-gaisler-elf/bsp/leon3/leon3v7/soft/libbcc.a(int_irqmp_handle.c.o)
 .debug_line    0x00000000000027cd      0x1f9 /home/fsw/rep/tasa/lib/bcc-2.2.3-gcc/bin/../sparc-gaisler-elf/bsp/leon3/leon3v7/soft/libbcc.a(con_handle.c.o)
 .debug_line    0x00000000000029c6      0x1f9 /home/fsw/rep/tasa/lib/bcc-2.2.3-gcc/bin/../sparc-gaisler-elf/bsp/leon3/leon3v7/soft/libbcc.a(timer_handle.c.o)
 .debug_line    0x0000000000002bbf       0xd1 /home/fsw/rep/tasa/lib/bcc-2.2.3-gcc/bin/../lib/gcc/sparc-gaisler-elf/10.2.0/../../../../sparc-gaisler-elf/lib/leon3v7/soft/libc.a(lib_a-atexit.o)
 .debug_line    0x0000000000002c90      0x1fa /home/fsw/rep/tasa/lib/bcc-2.2.3-gcc/bin/../lib/gcc/sparc-gaisler-elf/10.2.0/../../../../sparc-gaisler-elf/lib/leon3v7/soft/libc.a(lib_a-exit.o)
 .debug_line    0x0000000000002e8a      0x16e /home/fsw/rep/tasa/lib/bcc-2.2.3-gcc/bin/../lib/gcc/sparc-gaisler-elf/10.2.0/../../../../sparc-gaisler-elf/lib/leon3v7/soft/libc.a(lib_a-impure.o)
 .debug_line    0x0000000000002ff8      0x266 /home/fsw/rep/tasa/lib/bcc-2.2.3-gcc/bin/../lib/gcc/sparc-gaisler-elf/10.2.0/../../../../sparc-gaisler-elf/lib/leon3v7/soft/libc.a(lib_a-memcpy.o)
 .debug_line    0x000000000000325e      0x33e /home/fsw/rep/tasa/lib/bcc-2.2.3-gcc/bin/../lib/gcc/sparc-gaisler-elf/10.2.0/../../../../sparc-gaisler-elf/lib/leon3v7/soft/libc.a(lib_a-printf.o)
 .debug_line    0x000000000000359c      0x25e /home/fsw/rep/tasa/lib/bcc-2.2.3-gcc/bin/../lib/gcc/sparc-gaisler-elf/10.2.0/../../../../sparc-gaisler-elf/lib/leon3v7/soft/libc.a(lib_a-putchar.o)
 .debug_line    0x00000000000037fa      0x3bf /home/fsw/rep/tasa/lib/bcc-2.2.3-gcc/bin/../lib/gcc/sparc-gaisler-elf/10.2.0/../../../../sparc-gaisler-elf/lib/leon3v7/soft/libc.a(lib_a-puts.o)
 .debug_line    0x0000000000003bb9      0x1cd /home/fsw/rep/tasa/lib/bcc-2.2.3-gcc/bin/../lib/gcc/sparc-gaisler-elf/10.2.0/../../../../sparc-gaisler-elf/lib/leon3v7/soft/libc.a(lib_a-strlen.o)
 .debug_line    0x0000000000003d86     0x1f4f /home/fsw/rep/tasa/lib/bcc-2.2.3-gcc/bin/../lib/gcc/sparc-gaisler-elf/10.2.0/../../../../sparc-gaisler-elf/lib/leon3v7/soft/libc.a(lib_a-vfprintf.o)
 .debug_line    0x0000000000005cd5      0x38e /home/fsw/rep/tasa/lib/bcc-2.2.3-gcc/bin/../lib/gcc/sparc-gaisler-elf/10.2.0/../../../../sparc-gaisler-elf/lib/leon3v7/soft/libc.a(lib_a-wsetup.o)
 .debug_line    0x0000000000006063      0x241 /home/fsw/rep/tasa/lib/bcc-2.2.3-gcc/bin/../lib/gcc/sparc-gaisler-elf/10.2.0/../../../../sparc-gaisler-elf/lib/leon3v7/soft/libc.a(lib_a-__atexit.o)
 .debug_line    0x00000000000062a4      0x31f /home/fsw/rep/tasa/lib/bcc-2.2.3-gcc/bin/../lib/gcc/sparc-gaisler-elf/10.2.0/../../../../sparc-gaisler-elf/lib/leon3v7/soft/libc.a(lib_a-__call_atexit.o)
 .debug_line    0x00000000000065c3     0x145c /home/fsw/rep/tasa/lib/bcc-2.2.3-gcc/bin/../lib/gcc/sparc-gaisler-elf/10.2.0/../../../../sparc-gaisler-elf/lib/leon3v7/soft/libc.a(lib_a-dtoa.o)
 .debug_line    0x0000000000007a1f      0x506 /home/fsw/rep/tasa/lib/bcc-2.2.3-gcc/bin/../lib/gcc/sparc-gaisler-elf/10.2.0/../../../../sparc-gaisler-elf/lib/leon3v7/soft/libc.a(lib_a-fflush.o)
 .debug_line    0x0000000000007f25      0x5c2 /home/fsw/rep/tasa/lib/bcc-2.2.3-gcc/bin/../lib/gcc/sparc-gaisler-elf/10.2.0/../../../../sparc-gaisler-elf/lib/leon3v7/soft/libc.a(lib_a-findfp.o)
 .debug_line    0x00000000000084e7      0x512 /home/fsw/rep/tasa/lib/bcc-2.2.3-gcc/bin/../lib/gcc/sparc-gaisler-elf/10.2.0/../../../../sparc-gaisler-elf/lib/leon3v7/soft/libc.a(lib_a-freer.o)
 .debug_line    0x00000000000089f9      0x632 /home/fsw/rep/tasa/lib/bcc-2.2.3-gcc/bin/../lib/gcc/sparc-gaisler-elf/10.2.0/../../../../sparc-gaisler-elf/lib/leon3v7/soft/libc.a(lib_a-fvwrite.o)
 .debug_line    0x000000000000902b      0x2e5 /home/fsw/rep/tasa/lib/bcc-2.2.3-gcc/bin/../lib/gcc/sparc-gaisler-elf/10.2.0/../../../../sparc-gaisler-elf/lib/leon3v7/soft/libc.a(lib_a-fwalk.o)
 .debug_line    0x0000000000009310      0x2bd /home/fsw/rep/tasa/lib/bcc-2.2.3-gcc/bin/../lib/gcc/sparc-gaisler-elf/10.2.0/../../../../sparc-gaisler-elf/lib/leon3v7/soft/libc.a(lib_a-localeconv.o)
 .debug_line    0x00000000000095cd      0x3a3 /home/fsw/rep/tasa/lib/bcc-2.2.3-gcc/bin/../lib/gcc/sparc-gaisler-elf/10.2.0/../../../../sparc-gaisler-elf/lib/leon3v7/soft/libc.a(lib_a-makebuf.o)
 .debug_line    0x0000000000009970      0x1da /home/fsw/rep/tasa/lib/bcc-2.2.3-gcc/bin/../lib/gcc/sparc-gaisler-elf/10.2.0/../../../../sparc-gaisler-elf/lib/leon3v7/soft/libc.a(lib_a-malloc.o)
 .debug_line    0x0000000000009b4a      0x865 /home/fsw/rep/tasa/lib/bcc-2.2.3-gcc/bin/../lib/gcc/sparc-gaisler-elf/10.2.0/../../../../sparc-gaisler-elf/lib/leon3v7/soft/libc.a(lib_a-mallocr.o)
 .debug_line    0x000000000000a3af      0x21f /home/fsw/rep/tasa/lib/bcc-2.2.3-gcc/bin/../lib/gcc/sparc-gaisler-elf/10.2.0/../../../../sparc-gaisler-elf/lib/leon3v7/soft/libc.a(lib_a-memchr.o)
 .debug_line    0x000000000000a5ce      0x2b1 /home/fsw/rep/tasa/lib/bcc-2.2.3-gcc/bin/../lib/gcc/sparc-gaisler-elf/10.2.0/../../../../sparc-gaisler-elf/lib/leon3v7/soft/libc.a(lib_a-memmove.o)
 .debug_line    0x000000000000a87f      0x25c /home/fsw/rep/tasa/lib/bcc-2.2.3-gcc/bin/../lib/gcc/sparc-gaisler-elf/10.2.0/../../../../sparc-gaisler-elf/lib/leon3v7/soft/libc.a(lib_a-memset.o)
 .debug_line    0x000000000000aadb      0x180 /home/fsw/rep/tasa/lib/bcc-2.2.3-gcc/bin/../lib/gcc/sparc-gaisler-elf/10.2.0/../../../../sparc-gaisler-elf/lib/leon3v7/soft/libc.a(lib_a-mlock.o)
 .debug_line    0x000000000000ac5b     0x1a44 /home/fsw/rep/tasa/lib/bcc-2.2.3-gcc/bin/../lib/gcc/sparc-gaisler-elf/10.2.0/../../../../sparc-gaisler-elf/lib/leon3v7/soft/libc.a(lib_a-mprec.o)
 .debug_line    0x000000000000c69f      0x35a /home/fsw/rep/tasa/lib/bcc-2.2.3-gcc/bin/../lib/gcc/sparc-gaisler-elf/10.2.0/../../../../sparc-gaisler-elf/lib/leon3v7/soft/libc.a(lib_a-putc.o)
 .debug_line    0x000000000000c9f9      0x713 /home/fsw/rep/tasa/lib/bcc-2.2.3-gcc/bin/../lib/gcc/sparc-gaisler-elf/10.2.0/../../../../sparc-gaisler-elf/lib/leon3v7/soft/libc.a(lib_a-reallocr.o)
 .debug_line    0x000000000000d10c      0x1e8 /home/fsw/rep/tasa/lib/bcc-2.2.3-gcc/bin/../lib/gcc/sparc-gaisler-elf/10.2.0/../../../../sparc-gaisler-elf/lib/leon3v7/soft/libc.a(lib_a-s_frexp.o)
 .debug_line    0x000000000000d2f4      0x1f9 /home/fsw/rep/tasa/lib/bcc-2.2.3-gcc/bin/../lib/gcc/sparc-gaisler-elf/10.2.0/../../../../sparc-gaisler-elf/lib/leon3v7/soft/libc.a(lib_a-sbrkr.o)
 .debug_line    0x000000000000d4ed      0x2aa /home/fsw/rep/tasa/lib/bcc-2.2.3-gcc/bin/../lib/gcc/sparc-gaisler-elf/10.2.0/../../../../sparc-gaisler-elf/lib/leon3v7/soft/libc.a(lib_a-stdio.o)
 .debug_line    0x000000000000d797      0x271 /home/fsw/rep/tasa/lib/bcc-2.2.3-gcc/bin/../lib/gcc/sparc-gaisler-elf/10.2.0/../../../../sparc-gaisler-elf/lib/leon3v7/soft/libc.a(lib_a-strncpy.o)
 .debug_line    0x000000000000da08     0x1a9e /home/fsw/rep/tasa/lib/bcc-2.2.3-gcc/bin/../lib/gcc/sparc-gaisler-elf/10.2.0/../../../../sparc-gaisler-elf/lib/leon3v7/soft/libc.a(lib_a-vfiprintf.o)
 .debug_line    0x000000000000f4a6      0x441 /home/fsw/rep/tasa/lib/bcc-2.2.3-gcc/bin/../lib/gcc/sparc-gaisler-elf/10.2.0/../../../../sparc-gaisler-elf/lib/leon3v7/soft/libc.a(lib_a-wbuf.o)
 .debug_line    0x000000000000f8e7      0x208 /home/fsw/rep/tasa/lib/bcc-2.2.3-gcc/bin/../lib/gcc/sparc-gaisler-elf/10.2.0/../../../../sparc-gaisler-elf/lib/leon3v7/soft/libc.a(lib_a-writer.o)
 .debug_line    0x000000000000faef      0x240 /home/fsw/rep/tasa/lib/bcc-2.2.3-gcc/bin/../lib/gcc/sparc-gaisler-elf/10.2.0/../../../../sparc-gaisler-elf/lib/leon3v7/soft/libc.a(lib_a-callocr.o)
 .debug_line    0x000000000000fd2f      0x205 /home/fsw/rep/tasa/lib/bcc-2.2.3-gcc/bin/../lib/gcc/sparc-gaisler-elf/10.2.0/../../../../sparc-gaisler-elf/lib/leon3v7/soft/libc.a(lib_a-closer.o)
 .debug_line    0x000000000000ff34      0x3e9 /home/fsw/rep/tasa/lib/bcc-2.2.3-gcc/bin/../lib/gcc/sparc-gaisler-elf/10.2.0/../../../../sparc-gaisler-elf/lib/leon3v7/soft/libc.a(lib_a-fclose.o)
 .debug_line    0x000000000001031d      0x363 /home/fsw/rep/tasa/lib/bcc-2.2.3-gcc/bin/../lib/gcc/sparc-gaisler-elf/10.2.0/../../../../sparc-gaisler-elf/lib/leon3v7/soft/libc.a(lib_a-fputwc.o)
 .debug_line    0x0000000000010680      0x21f /home/fsw/rep/tasa/lib/bcc-2.2.3-gcc/bin/../lib/gcc/sparc-gaisler-elf/10.2.0/../../../../sparc-gaisler-elf/lib/leon3v7/soft/libc.a(lib_a-fstatr.o)
 .debug_line    0x000000000001089f      0x206 /home/fsw/rep/tasa/lib/bcc-2.2.3-gcc/bin/../lib/gcc/sparc-gaisler-elf/10.2.0/../../../../sparc-gaisler-elf/lib/leon3v7/soft/libc.a(lib_a-isattyr.o)
 .debug_line    0x0000000000010aa5      0x34c /home/fsw/rep/tasa/lib/bcc-2.2.3-gcc/bin/../lib/gcc/sparc-gaisler-elf/10.2.0/../../../../sparc-gaisler-elf/lib/leon3v7/soft/libc.a(lib_a-locale.o)
 .debug_line    0x0000000000010df1      0x208 /home/fsw/rep/tasa/lib/bcc-2.2.3-gcc/bin/../lib/gcc/sparc-gaisler-elf/10.2.0/../../../../sparc-gaisler-elf/lib/leon3v7/soft/libc.a(lib_a-lseekr.o)
 .debug_line    0x0000000000010ff9      0x2b8 /home/fsw/rep/tasa/lib/bcc-2.2.3-gcc/bin/../lib/gcc/sparc-gaisler-elf/10.2.0/../../../../sparc-gaisler-elf/lib/leon3v7/soft/libc.a(lib_a-mbtowc_r.o)
 .debug_line    0x00000000000112b1      0x207 /home/fsw/rep/tasa/lib/bcc-2.2.3-gcc/bin/../lib/gcc/sparc-gaisler-elf/10.2.0/../../../../sparc-gaisler-elf/lib/leon3v7/soft/libc.a(lib_a-readr.o)
 .debug_line    0x00000000000114b8      0x3f5 /home/fsw/rep/tasa/lib/bcc-2.2.3-gcc/bin/../lib/gcc/sparc-gaisler-elf/10.2.0/../../../../sparc-gaisler-elf/lib/leon3v7/soft/libc.a(lib_a-reent.o)
 .debug_line    0x00000000000118ad      0x155 /home/fsw/rep/tasa/lib/bcc-2.2.3-gcc/bin/../lib/gcc/sparc-gaisler-elf/10.2.0/../../../../sparc-gaisler-elf/lib/leon3v7/soft/libc.a(lib_a-strcmp.o)
 .debug_line    0x0000000000011a02      0x344 /home/fsw/rep/tasa/lib/bcc-2.2.3-gcc/bin/../lib/gcc/sparc-gaisler-elf/10.2.0/../../../../sparc-gaisler-elf/lib/leon3v7/soft/libc.a(lib_a-wcrtomb.o)
 .debug_line    0x0000000000011d46      0x2ac /home/fsw/rep/tasa/lib/bcc-2.2.3-gcc/bin/../lib/gcc/sparc-gaisler-elf/10.2.0/../../../../sparc-gaisler-elf/lib/leon3v7/soft/libc.a(lib_a-wctomb_r.o)
 .debug_line    0x0000000000011ff2       0xb6 /home/fsw/rep/tasa/lib/bcc-2.2.3-gcc/bin/../lib/gcc/sparc-gaisler-elf/10.2.0/../../../../sparc-gaisler-elf/lib/leon3v7/soft/libc.a(lib_a-ctype_.o)
 .debug_line    0x00000000000120a8       0x5f /home/fsw/rep/tasa/lib/bcc-2.2.3-gcc/bin/../sparc-gaisler-elf/bsp/leon3/leon3v7/soft/libbcc.a(_exit.S.o)
 .debug_line    0x0000000000012107      0x23e /home/fsw/rep/tasa/lib/bcc-2.2.3-gcc/bin/../sparc-gaisler-elf/bsp/leon3/leon3v7/soft/libbcc.a(read.c.o)
 .debug_line    0x0000000000012345      0x321 /home/fsw/rep/tasa/lib/bcc-2.2.3-gcc/bin/../sparc-gaisler-elf/bsp/leon3/leon3v7/soft/libbcc.a(sbrk.c.o)
 .debug_line    0x0000000000012666      0x1eb /home/fsw/rep/tasa/lib/bcc-2.2.3-gcc/bin/../sparc-gaisler-elf/bsp/leon3/leon3v7/soft/libbcc.a(heap.c.o)
 .debug_line    0x0000000000012851      0x26f /home/fsw/rep/tasa/lib/bcc-2.2.3-gcc/bin/../sparc-gaisler-elf/bsp/leon3/leon3v7/soft/libbcc.a(write.c.o)
 .debug_line    0x0000000000012ac0       0x68 /home/fsw/rep/tasa/lib/bcc-2.2.3-gcc/bin/../sparc-gaisler-elf/bsp/leon3/leon3v7/soft/libbcc.a(stubs.S.o)
 .debug_line    0x0000000000012b28      0x325 /home/fsw/rep/tasa/lib/bcc-2.2.3-gcc/bin/../sparc-gaisler-elf/bsp/leon3/leon3v7/soft/libbcc.a(con_apbuart.c.o)
 .debug_line    0x0000000000012e4d       0xaa /home/fsw/rep/tasa/lib/bcc-2.2.3-gcc/bin/../lib/gcc/sparc-gaisler-elf/10.2.0/leon3v7/soft/libgcc.a(_mulsi3.o)
 .debug_line    0x0000000000012ef7      0x11f /home/fsw/rep/tasa/lib/bcc-2.2.3-gcc/bin/../lib/gcc/sparc-gaisler-elf/10.2.0/leon3v7/soft/libgcc.a(_divsi3.o)
 .debug_line    0x0000000000013016      0x11f /home/fsw/rep/tasa/lib/bcc-2.2.3-gcc/bin/../lib/gcc/sparc-gaisler-elf/10.2.0/leon3v7/soft/libgcc.a(_modsi3.o)
 .debug_line    0x0000000000013135      0x182 /home/fsw/rep/tasa/lib/bcc-2.2.3-gcc/bin/../lib/gcc/sparc-gaisler-elf/10.2.0/leon3v7/soft/libgcc.a(_udivdi3.o)
 .debug_line    0x00000000000132b7      0x1e4 /home/fsw/rep/tasa/lib/bcc-2.2.3-gcc/bin/../lib/gcc/sparc-gaisler-elf/10.2.0/leon3v7/soft/libgcc.a(_umoddi3.o)
 .debug_line    0x000000000001349b      0x606 /home/fsw/rep/tasa/lib/bcc-2.2.3-gcc/bin/../lib/gcc/sparc-gaisler-elf/10.2.0/leon3v7/soft/libgcc.a(_addsub_df.o)
 .debug_line    0x0000000000013aa1      0x2f3 /home/fsw/rep/tasa/lib/bcc-2.2.3-gcc/bin/../lib/gcc/sparc-gaisler-elf/10.2.0/leon3v7/soft/libgcc.a(_mul_df.o)
 .debug_line    0x0000000000013d94      0x24e /home/fsw/rep/tasa/lib/bcc-2.2.3-gcc/bin/../lib/gcc/sparc-gaisler-elf/10.2.0/leon3v7/soft/libgcc.a(_div_df.o)
 .debug_line    0x0000000000013fe2       0xb7 /home/fsw/rep/tasa/lib/bcc-2.2.3-gcc/bin/../lib/gcc/sparc-gaisler-elf/10.2.0/leon3v7/soft/libgcc.a(_eq_df.o)
 .debug_line    0x0000000000014099       0xb7 /home/fsw/rep/tasa/lib/bcc-2.2.3-gcc/bin/../lib/gcc/sparc-gaisler-elf/10.2.0/leon3v7/soft/libgcc.a(_ne_df.o)
 .debug_line    0x0000000000014150       0xb7 /home/fsw/rep/tasa/lib/bcc-2.2.3-gcc/bin/../lib/gcc/sparc-gaisler-elf/10.2.0/leon3v7/soft/libgcc.a(_gt_df.o)
 .debug_line    0x0000000000014207       0xb7 /home/fsw/rep/tasa/lib/bcc-2.2.3-gcc/bin/../lib/gcc/sparc-gaisler-elf/10.2.0/leon3v7/soft/libgcc.a(_lt_df.o)
 .debug_line    0x00000000000142be       0xb7 /home/fsw/rep/tasa/lib/bcc-2.2.3-gcc/bin/../lib/gcc/sparc-gaisler-elf/10.2.0/leon3v7/soft/libgcc.a(_le_df.o)
 .debug_line    0x0000000000014375       0xaf /home/fsw/rep/tasa/lib/bcc-2.2.3-gcc/bin/../lib/gcc/sparc-gaisler-elf/10.2.0/leon3v7/soft/libgcc.a(_unord_df.o)
 .debug_line    0x0000000000014424      0x13a /home/fsw/rep/tasa/lib/bcc-2.2.3-gcc/bin/../lib/gcc/sparc-gaisler-elf/10.2.0/leon3v7/soft/libgcc.a(_si_to_df.o)
 .debug_line    0x000000000001455e       0xef /home/fsw/rep/tasa/lib/bcc-2.2.3-gcc/bin/../lib/gcc/sparc-gaisler-elf/10.2.0/leon3v7/soft/libgcc.a(_df_to_si.o)
 .debug_line    0x000000000001464d       0x61 /home/fsw/rep/tasa/lib/bcc-2.2.3-gcc/bin/../lib/gcc/sparc-gaisler-elf/10.2.0/leon3v7/soft/libgcc.a(_thenan_df.o)
 .debug_line    0x00000000000146ae       0xd5 /home/fsw/rep/tasa/lib/bcc-2.2.3-gcc/bin/../lib/gcc/sparc-gaisler-elf/10.2.0/leon3v7/soft/libgcc.a(_usi_to_df.o)
 .debug_line    0x0000000000014783       0xa1 /home/fsw/rep/tasa/lib/bcc-2.2.3-gcc/bin/../lib/gcc/sparc-gaisler-elf/10.2.0/leon3v7/soft/libgcc.a(_muldi3.o)
 .debug_line    0x0000000000014824       0x63 /home/fsw/rep/tasa/lib/bcc-2.2.3-gcc/bin/../lib/gcc/sparc-gaisler-elf/10.2.0/leon3v7/soft/libgcc.a(_clz.o)
 .debug_line    0x0000000000014887       0xd4 /home/fsw/rep/tasa/lib/bcc-2.2.3-gcc/bin/../lib/gcc/sparc-gaisler-elf/10.2.0/leon3v7/soft/libgcc.a(_clzsi2.o)
 .debug_line    0x000000000001495b      0x29b /home/fsw/rep/tasa/lib/bcc-2.2.3-gcc/bin/../lib/gcc/sparc-gaisler-elf/10.2.0/leon3v7/soft/libgcc.a(_pack_df.o)
 .debug_line    0x0000000000014bf6      0x150 /home/fsw/rep/tasa/lib/bcc-2.2.3-gcc/bin/../lib/gcc/sparc-gaisler-elf/10.2.0/leon3v7/soft/libgcc.a(_unpack_df.o)
 .debug_line    0x0000000000014d46      0x194 /home/fsw/rep/tasa/lib/bcc-2.2.3-gcc/bin/../lib/gcc/sparc-gaisler-elf/10.2.0/leon3v7/soft/libgcc.a(_fpcmp_parts_df.o)

.debug_frame    0x0000000000000000     0x1104
 *(.debug_frame)
 .debug_frame   0x0000000000000000       0x28 /tmp/ccK7ILCi.o
 .debug_frame   0x0000000000000028       0x20 /home/fsw/rep/tasa/lib/bcc-2.2.3-gcc/bin/../sparc-gaisler-elf/bsp/leon3/leon3v7/soft/libbcc.a(copy_data.c.o)
 .debug_frame   0x0000000000000048       0x20 /home/fsw/rep/tasa/lib/bcc-2.2.3-gcc/bin/../sparc-gaisler-elf/bsp/leon3/leon3v7/soft/libbcc.a(int_irqmp_get_source.c.o)
 .debug_frame   0x0000000000000068       0x40 /home/fsw/rep/tasa/lib/bcc-2.2.3-gcc/bin/../sparc-gaisler-elf/bsp/leon3/leon3v7/soft/libbcc.a(int_irqmp_mp.c.o)
 .debug_frame   0x00000000000000a8       0x28 /home/fsw/rep/tasa/lib/bcc-2.2.3-gcc/bin/../sparc-gaisler-elf/bsp/leon3/leon3v7/soft/libbcc.a(int_irqmp_init.c.o)
 .debug_frame   0x00000000000000d0       0x28 /home/fsw/rep/tasa/lib/bcc-2.2.3-gcc/bin/../sparc-gaisler-elf/bsp/leon3/leon3v7/soft/libbcc.a(con_apbuart_init.c.o)
 .debug_frame   0x00000000000000f8       0x28 /home/fsw/rep/tasa/lib/bcc-2.2.3-gcc/bin/../sparc-gaisler-elf/bsp/leon3/leon3v7/soft/libbcc.a(timer_gptimer_init.c.o)
 .debug_frame   0x0000000000000120       0x60 /home/fsw/rep/tasa/lib/bcc-2.2.3-gcc/bin/../sparc-gaisler-elf/bsp/leon3/leon3v7/soft/libbcc.a(ambapp.c.o)
 .debug_frame   0x0000000000000180       0x28 /home/fsw/rep/tasa/lib/bcc-2.2.3-gcc/bin/../sparc-gaisler-elf/bsp/leon3/leon3v7/soft/libbcc.a(ambapp_findfirst_fn.c.o)
 .debug_frame   0x00000000000001a8       0x20 /home/fsw/rep/tasa/lib/bcc-2.2.3-gcc/bin/../lib/gcc/sparc-gaisler-elf/10.2.0/../../../../sparc-gaisler-elf/lib/leon3v7/soft/libc.a(lib_a-atexit.o)
 .debug_frame   0x00000000000001c8       0x28 /home/fsw/rep/tasa/lib/bcc-2.2.3-gcc/bin/../lib/gcc/sparc-gaisler-elf/10.2.0/../../../../sparc-gaisler-elf/lib/leon3v7/soft/libc.a(lib_a-exit.o)
 .debug_frame   0x00000000000001f0       0x28 /home/fsw/rep/tasa/lib/bcc-2.2.3-gcc/bin/../lib/gcc/sparc-gaisler-elf/10.2.0/../../../../sparc-gaisler-elf/lib/leon3v7/soft/libc.a(lib_a-memcpy.o)
 .debug_frame   0x0000000000000218       0x40 /home/fsw/rep/tasa/lib/bcc-2.2.3-gcc/bin/../lib/gcc/sparc-gaisler-elf/10.2.0/../../../../sparc-gaisler-elf/lib/leon3v7/soft/libc.a(lib_a-printf.o)
 .debug_frame   0x0000000000000258       0x40 /home/fsw/rep/tasa/lib/bcc-2.2.3-gcc/bin/../lib/gcc/sparc-gaisler-elf/10.2.0/../../../../sparc-gaisler-elf/lib/leon3v7/soft/libc.a(lib_a-putchar.o)
 .debug_frame   0x0000000000000298       0x40 /home/fsw/rep/tasa/lib/bcc-2.2.3-gcc/bin/../lib/gcc/sparc-gaisler-elf/10.2.0/../../../../sparc-gaisler-elf/lib/leon3v7/soft/libc.a(lib_a-puts.o)
 .debug_frame   0x00000000000002d8       0x20 /home/fsw/rep/tasa/lib/bcc-2.2.3-gcc/bin/../lib/gcc/sparc-gaisler-elf/10.2.0/../../../../sparc-gaisler-elf/lib/leon3v7/soft/libc.a(lib_a-strlen.o)
 .debug_frame   0x00000000000002f8       0x50 /home/fsw/rep/tasa/lib/bcc-2.2.3-gcc/bin/../lib/gcc/sparc-gaisler-elf/10.2.0/../../../../sparc-gaisler-elf/lib/leon3v7/soft/libc.a(lib_a-vfprintf.o)
 .debug_frame   0x0000000000000348       0x28 /home/fsw/rep/tasa/lib/bcc-2.2.3-gcc/bin/../lib/gcc/sparc-gaisler-elf/10.2.0/../../../../sparc-gaisler-elf/lib/leon3v7/soft/libc.a(lib_a-wsetup.o)
 .debug_frame   0x0000000000000370       0x28 /home/fsw/rep/tasa/lib/bcc-2.2.3-gcc/bin/../lib/gcc/sparc-gaisler-elf/10.2.0/../../../../sparc-gaisler-elf/lib/leon3v7/soft/libc.a(lib_a-__atexit.o)
 .debug_frame   0x0000000000000398       0x28 /home/fsw/rep/tasa/lib/bcc-2.2.3-gcc/bin/../lib/gcc/sparc-gaisler-elf/10.2.0/../../../../sparc-gaisler-elf/lib/leon3v7/soft/libc.a(lib_a-__call_atexit.o)
 .debug_frame   0x00000000000003c0       0x40 /home/fsw/rep/tasa/lib/bcc-2.2.3-gcc/bin/../lib/gcc/sparc-gaisler-elf/10.2.0/../../../../sparc-gaisler-elf/lib/leon3v7/soft/libc.a(lib_a-dtoa.o)
 .debug_frame   0x0000000000000400       0x58 /home/fsw/rep/tasa/lib/bcc-2.2.3-gcc/bin/../lib/gcc/sparc-gaisler-elf/10.2.0/../../../../sparc-gaisler-elf/lib/leon3v7/soft/libc.a(lib_a-fflush.o)
 .debug_frame   0x0000000000000458       0x88 /home/fsw/rep/tasa/lib/bcc-2.2.3-gcc/bin/../lib/gcc/sparc-gaisler-elf/10.2.0/../../../../sparc-gaisler-elf/lib/leon3v7/soft/libc.a(lib_a-findfp.o)
 .debug_frame   0x00000000000004e0       0x40 /home/fsw/rep/tasa/lib/bcc-2.2.3-gcc/bin/../lib/gcc/sparc-gaisler-elf/10.2.0/../../../../sparc-gaisler-elf/lib/leon3v7/soft/libc.a(lib_a-freer.o)
 .debug_frame   0x0000000000000520       0x28 /home/fsw/rep/tasa/lib/bcc-2.2.3-gcc/bin/../lib/gcc/sparc-gaisler-elf/10.2.0/../../../../sparc-gaisler-elf/lib/leon3v7/soft/libc.a(lib_a-fvwrite.o)
 .debug_frame   0x0000000000000548       0x40 /home/fsw/rep/tasa/lib/bcc-2.2.3-gcc/bin/../lib/gcc/sparc-gaisler-elf/10.2.0/../../../../sparc-gaisler-elf/lib/leon3v7/soft/libc.a(lib_a-fwalk.o)
 .debug_frame   0x0000000000000588       0x40 /home/fsw/rep/tasa/lib/bcc-2.2.3-gcc/bin/../lib/gcc/sparc-gaisler-elf/10.2.0/../../../../sparc-gaisler-elf/lib/leon3v7/soft/libc.a(lib_a-localeconv.o)
 .debug_frame   0x00000000000005c8       0x40 /home/fsw/rep/tasa/lib/bcc-2.2.3-gcc/bin/../lib/gcc/sparc-gaisler-elf/10.2.0/../../../../sparc-gaisler-elf/lib/leon3v7/soft/libc.a(lib_a-makebuf.o)
 .debug_frame   0x0000000000000608       0x30 /home/fsw/rep/tasa/lib/bcc-2.2.3-gcc/bin/../lib/gcc/sparc-gaisler-elf/10.2.0/../../../../sparc-gaisler-elf/lib/leon3v7/soft/libc.a(lib_a-malloc.o)
 .debug_frame   0x0000000000000638       0x28 /home/fsw/rep/tasa/lib/bcc-2.2.3-gcc/bin/../lib/gcc/sparc-gaisler-elf/10.2.0/../../../../sparc-gaisler-elf/lib/leon3v7/soft/libc.a(lib_a-mallocr.o)
 .debug_frame   0x0000000000000660       0x20 /home/fsw/rep/tasa/lib/bcc-2.2.3-gcc/bin/../lib/gcc/sparc-gaisler-elf/10.2.0/../../../../sparc-gaisler-elf/lib/leon3v7/soft/libc.a(lib_a-memchr.o)
 .debug_frame   0x0000000000000680       0x20 /home/fsw/rep/tasa/lib/bcc-2.2.3-gcc/bin/../lib/gcc/sparc-gaisler-elf/10.2.0/../../../../sparc-gaisler-elf/lib/leon3v7/soft/libc.a(lib_a-memmove.o)
 .debug_frame   0x00000000000006a0       0x20 /home/fsw/rep/tasa/lib/bcc-2.2.3-gcc/bin/../lib/gcc/sparc-gaisler-elf/10.2.0/../../../../sparc-gaisler-elf/lib/leon3v7/soft/libc.a(lib_a-memset.o)
 .debug_frame   0x00000000000006c0       0x30 /home/fsw/rep/tasa/lib/bcc-2.2.3-gcc/bin/../lib/gcc/sparc-gaisler-elf/10.2.0/../../../../sparc-gaisler-elf/lib/leon3v7/soft/libc.a(lib_a-mlock.o)
 .debug_frame   0x00000000000006f0      0x1a8 /home/fsw/rep/tasa/lib/bcc-2.2.3-gcc/bin/../lib/gcc/sparc-gaisler-elf/10.2.0/../../../../sparc-gaisler-elf/lib/leon3v7/soft/libc.a(lib_a-mprec.o)
 .debug_frame   0x0000000000000898       0x40 /home/fsw/rep/tasa/lib/bcc-2.2.3-gcc/bin/../lib/gcc/sparc-gaisler-elf/10.2.0/../../../../sparc-gaisler-elf/lib/leon3v7/soft/libc.a(lib_a-putc.o)
 .debug_frame   0x00000000000008d8       0x28 /home/fsw/rep/tasa/lib/bcc-2.2.3-gcc/bin/../lib/gcc/sparc-gaisler-elf/10.2.0/../../../../sparc-gaisler-elf/lib/leon3v7/soft/libc.a(lib_a-reallocr.o)
 .debug_frame   0x0000000000000900       0x28 /home/fsw/rep/tasa/lib/bcc-2.2.3-gcc/bin/../lib/gcc/sparc-gaisler-elf/10.2.0/../../../../sparc-gaisler-elf/lib/leon3v7/soft/libc.a(lib_a-s_frexp.o)
 .debug_frame   0x0000000000000928       0x28 /home/fsw/rep/tasa/lib/bcc-2.2.3-gcc/bin/../lib/gcc/sparc-gaisler-elf/10.2.0/../../../../sparc-gaisler-elf/lib/leon3v7/soft/libc.a(lib_a-sbrkr.o)
 .debug_frame   0x0000000000000950       0x78 /home/fsw/rep/tasa/lib/bcc-2.2.3-gcc/bin/../lib/gcc/sparc-gaisler-elf/10.2.0/../../../../sparc-gaisler-elf/lib/leon3v7/soft/libc.a(lib_a-stdio.o)
 .debug_frame   0x00000000000009c8       0x20 /home/fsw/rep/tasa/lib/bcc-2.2.3-gcc/bin/../lib/gcc/sparc-gaisler-elf/10.2.0/../../../../sparc-gaisler-elf/lib/leon3v7/soft/libc.a(lib_a-strncpy.o)
 .debug_frame   0x00000000000009e8       0x68 /home/fsw/rep/tasa/lib/bcc-2.2.3-gcc/bin/../lib/gcc/sparc-gaisler-elf/10.2.0/../../../../sparc-gaisler-elf/lib/leon3v7/soft/libc.a(lib_a-vfiprintf.o)
 .debug_frame   0x0000000000000a50       0x40 /home/fsw/rep/tasa/lib/bcc-2.2.3-gcc/bin/../lib/gcc/sparc-gaisler-elf/10.2.0/../../../../sparc-gaisler-elf/lib/leon3v7/soft/libc.a(lib_a-wbuf.o)
 .debug_frame   0x0000000000000a90       0x28 /home/fsw/rep/tasa/lib/bcc-2.2.3-gcc/bin/../lib/gcc/sparc-gaisler-elf/10.2.0/../../../../sparc-gaisler-elf/lib/leon3v7/soft/libc.a(lib_a-writer.o)
 .debug_frame   0x0000000000000ab8       0x28 /home/fsw/rep/tasa/lib/bcc-2.2.3-gcc/bin/../lib/gcc/sparc-gaisler-elf/10.2.0/../../../../sparc-gaisler-elf/lib/leon3v7/soft/libc.a(lib_a-callocr.o)
 .debug_frame   0x0000000000000ae0       0x28 /home/fsw/rep/tasa/lib/bcc-2.2.3-gcc/bin/../lib/gcc/sparc-gaisler-elf/10.2.0/../../../../sparc-gaisler-elf/lib/leon3v7/soft/libc.a(lib_a-closer.o)
 .debug_frame   0x0000000000000b08       0x40 /home/fsw/rep/tasa/lib/bcc-2.2.3-gcc/bin/../lib/gcc/sparc-gaisler-elf/10.2.0/../../../../sparc-gaisler-elf/lib/leon3v7/soft/libc.a(lib_a-fclose.o)
 .debug_frame   0x0000000000000b48       0x50 /home/fsw/rep/tasa/lib/bcc-2.2.3-gcc/bin/../lib/gcc/sparc-gaisler-elf/10.2.0/../../../../sparc-gaisler-elf/lib/leon3v7/soft/libc.a(lib_a-fputwc.o)
 .debug_frame   0x0000000000000b98       0x28 /home/fsw/rep/tasa/lib/bcc-2.2.3-gcc/bin/../lib/gcc/sparc-gaisler-elf/10.2.0/../../../../sparc-gaisler-elf/lib/leon3v7/soft/libc.a(lib_a-fstatr.o)
 .debug_frame   0x0000000000000bc0       0x28 /home/fsw/rep/tasa/lib/bcc-2.2.3-gcc/bin/../lib/gcc/sparc-gaisler-elf/10.2.0/../../../../sparc-gaisler-elf/lib/leon3v7/soft/libc.a(lib_a-isattyr.o)
 .debug_frame   0x0000000000000be8       0x70 /home/fsw/rep/tasa/lib/bcc-2.2.3-gcc/bin/../lib/gcc/sparc-gaisler-elf/10.2.0/../../../../sparc-gaisler-elf/lib/leon3v7/soft/libc.a(lib_a-locale.o)
 .debug_frame   0x0000000000000c58       0x28 /home/fsw/rep/tasa/lib/bcc-2.2.3-gcc/bin/../lib/gcc/sparc-gaisler-elf/10.2.0/../../../../sparc-gaisler-elf/lib/leon3v7/soft/libc.a(lib_a-lseekr.o)
 .debug_frame   0x0000000000000c80       0x3c /home/fsw/rep/tasa/lib/bcc-2.2.3-gcc/bin/../lib/gcc/sparc-gaisler-elf/10.2.0/../../../../sparc-gaisler-elf/lib/leon3v7/soft/libc.a(lib_a-mbtowc_r.o)
 .debug_frame   0x0000000000000cbc       0x28 /home/fsw/rep/tasa/lib/bcc-2.2.3-gcc/bin/../lib/gcc/sparc-gaisler-elf/10.2.0/../../../../sparc-gaisler-elf/lib/leon3v7/soft/libc.a(lib_a-readr.o)
 .debug_frame   0x0000000000000ce4       0x40 /home/fsw/rep/tasa/lib/bcc-2.2.3-gcc/bin/../lib/gcc/sparc-gaisler-elf/10.2.0/../../../../sparc-gaisler-elf/lib/leon3v7/soft/libc.a(lib_a-reent.o)
 .debug_frame   0x0000000000000d24       0x20 /home/fsw/rep/tasa/lib/bcc-2.2.3-gcc/bin/../lib/gcc/sparc-gaisler-elf/10.2.0/../../../../sparc-gaisler-elf/lib/leon3v7/soft/libc.a(lib_a-strcmp.o)
 .debug_frame   0x0000000000000d44       0x40 /home/fsw/rep/tasa/lib/bcc-2.2.3-gcc/bin/../lib/gcc/sparc-gaisler-elf/10.2.0/../../../../sparc-gaisler-elf/lib/leon3v7/soft/libc.a(lib_a-wcrtomb.o)
 .debug_frame   0x0000000000000d84       0x38 /home/fsw/rep/tasa/lib/bcc-2.2.3-gcc/bin/../lib/gcc/sparc-gaisler-elf/10.2.0/../../../../sparc-gaisler-elf/lib/leon3v7/soft/libc.a(lib_a-wctomb_r.o)
 .debug_frame   0x0000000000000dbc       0x28 /home/fsw/rep/tasa/lib/bcc-2.2.3-gcc/bin/../sparc-gaisler-elf/bsp/leon3/leon3v7/soft/libbcc.a(read.c.o)
 .debug_frame   0x0000000000000de4       0x20 /home/fsw/rep/tasa/lib/bcc-2.2.3-gcc/bin/../sparc-gaisler-elf/bsp/leon3/leon3v7/soft/libbcc.a(sbrk.c.o)
 .debug_frame   0x0000000000000e04       0x28 /home/fsw/rep/tasa/lib/bcc-2.2.3-gcc/bin/../sparc-gaisler-elf/bsp/leon3/leon3v7/soft/libbcc.a(write.c.o)
 .debug_frame   0x0000000000000e2c       0x30 /home/fsw/rep/tasa/lib/bcc-2.2.3-gcc/bin/../sparc-gaisler-elf/bsp/leon3/leon3v7/soft/libbcc.a(con_apbuart.c.o)
 .debug_frame   0x0000000000000e5c       0x40 /home/fsw/rep/tasa/lib/bcc-2.2.3-gcc/bin/../lib/gcc/sparc-gaisler-elf/10.2.0/leon3v7/soft/libgcc.a(_addsub_df.o)
 .debug_frame   0x0000000000000e9c       0x28 /home/fsw/rep/tasa/lib/bcc-2.2.3-gcc/bin/../lib/gcc/sparc-gaisler-elf/10.2.0/leon3v7/soft/libgcc.a(_mul_df.o)
 .debug_frame   0x0000000000000ec4       0x28 /home/fsw/rep/tasa/lib/bcc-2.2.3-gcc/bin/../lib/gcc/sparc-gaisler-elf/10.2.0/leon3v7/soft/libgcc.a(_div_df.o)
 .debug_frame   0x0000000000000eec       0x28 /home/fsw/rep/tasa/lib/bcc-2.2.3-gcc/bin/../lib/gcc/sparc-gaisler-elf/10.2.0/leon3v7/soft/libgcc.a(_eq_df.o)
 .debug_frame   0x0000000000000f14       0x28 /home/fsw/rep/tasa/lib/bcc-2.2.3-gcc/bin/../lib/gcc/sparc-gaisler-elf/10.2.0/leon3v7/soft/libgcc.a(_ne_df.o)
 .debug_frame   0x0000000000000f3c       0x28 /home/fsw/rep/tasa/lib/bcc-2.2.3-gcc/bin/../lib/gcc/sparc-gaisler-elf/10.2.0/leon3v7/soft/libgcc.a(_gt_df.o)
 .debug_frame   0x0000000000000f64       0x28 /home/fsw/rep/tasa/lib/bcc-2.2.3-gcc/bin/../lib/gcc/sparc-gaisler-elf/10.2.0/leon3v7/soft/libgcc.a(_lt_df.o)
 .debug_frame   0x0000000000000f8c       0x28 /home/fsw/rep/tasa/lib/bcc-2.2.3-gcc/bin/../lib/gcc/sparc-gaisler-elf/10.2.0/leon3v7/soft/libgcc.a(_le_df.o)
 .debug_frame   0x0000000000000fb4       0x28 /home/fsw/rep/tasa/lib/bcc-2.2.3-gcc/bin/../lib/gcc/sparc-gaisler-elf/10.2.0/leon3v7/soft/libgcc.a(_unord_df.o)
 .debug_frame   0x0000000000000fdc       0x28 /home/fsw/rep/tasa/lib/bcc-2.2.3-gcc/bin/../lib/gcc/sparc-gaisler-elf/10.2.0/leon3v7/soft/libgcc.a(_si_to_df.o)
 .debug_frame   0x0000000000001004       0x28 /home/fsw/rep/tasa/lib/bcc-2.2.3-gcc/bin/../lib/gcc/sparc-gaisler-elf/10.2.0/leon3v7/soft/libgcc.a(_df_to_si.o)
 .debug_frame   0x000000000000102c       0x28 /home/fsw/rep/tasa/lib/bcc-2.2.3-gcc/bin/../lib/gcc/sparc-gaisler-elf/10.2.0/leon3v7/soft/libgcc.a(_usi_to_df.o)
 .debug_frame   0x0000000000001054       0x28 /home/fsw/rep/tasa/lib/bcc-2.2.3-gcc/bin/../lib/gcc/sparc-gaisler-elf/10.2.0/leon3v7/soft/libgcc.a(_muldi3.o)
 .debug_frame   0x000000000000107c       0x20 /home/fsw/rep/tasa/lib/bcc-2.2.3-gcc/bin/../lib/gcc/sparc-gaisler-elf/10.2.0/leon3v7/soft/libgcc.a(_clzsi2.o)
 .debug_frame   0x000000000000109c       0x28 /home/fsw/rep/tasa/lib/bcc-2.2.3-gcc/bin/../lib/gcc/sparc-gaisler-elf/10.2.0/leon3v7/soft/libgcc.a(_pack_df.o)
 .debug_frame   0x00000000000010c4       0x20 /home/fsw/rep/tasa/lib/bcc-2.2.3-gcc/bin/../lib/gcc/sparc-gaisler-elf/10.2.0/leon3v7/soft/libgcc.a(_unpack_df.o)
 .debug_frame   0x00000000000010e4       0x20 /home/fsw/rep/tasa/lib/bcc-2.2.3-gcc/bin/../lib/gcc/sparc-gaisler-elf/10.2.0/leon3v7/soft/libgcc.a(_fpcmp_parts_df.o)

.debug_str      0x0000000000000000     0x35a6
 *(.debug_str)
 .debug_str     0x0000000000000000       0xb3 /home/fsw/rep/tasa/lib/bcc-2.2.3-gcc/bin/../sparc-gaisler-elf/bsp/leon3/leon3v7/soft/trap_table_mvt.S.o
 .debug_str     0x00000000000000b3       0x2c /home/fsw/rep/tasa/lib/bcc-2.2.3-gcc/bin/../sparc-gaisler-elf/bsp/leon3/leon3v7/soft/crt0.S.o
                                         0xa4 (size before relaxing)
 .debug_str     0x00000000000000df      0x122 /tmp/ccK7ILCi.o
                                        0x17a (size before relaxing)
 .debug_str     0x0000000000000201       0x3b /home/fsw/rep/tasa/lib/bcc-2.2.3-gcc/bin/../sparc-gaisler-elf/bsp/leon3/leon3v7/soft/libbcc.a(reset_trap_mvt.S.o)
                                         0xb3 (size before relaxing)
 .debug_str     0x000000000000023c       0x38 /home/fsw/rep/tasa/lib/bcc-2.2.3-gcc/bin/../sparc-gaisler-elf/bsp/leon3/leon3v7/soft/libbcc.a(window_trap.S.o)
                                         0xb0 (size before relaxing)
 .debug_str     0x0000000000000274       0x3b /home/fsw/rep/tasa/lib/bcc-2.2.3-gcc/bin/../sparc-gaisler-elf/bsp/leon3/leon3v7/soft/libbcc.a(interrupt_trap.S.o)
                                         0xb3 (size before relaxing)
 .debug_str     0x00000000000002af       0x3f /home/fsw/rep/tasa/lib/bcc-2.2.3-gcc/bin/../sparc-gaisler-elf/bsp/leon3/leon3v7/soft/libbcc.a(flush_windows_trap.S.o)
                                         0xb7 (size before relaxing)
 .debug_str     0x00000000000002ee       0x3c /home/fsw/rep/tasa/lib/bcc-2.2.3-gcc/bin/../sparc-gaisler-elf/bsp/leon3/leon3v7/soft/libbcc.a(sw_trap_set_pil.S.o)
                                         0xb4 (size before relaxing)
 .debug_str     0x000000000000032a       0xa0 /home/fsw/rep/tasa/lib/bcc-2.2.3-gcc/bin/../sparc-gaisler-elf/bsp/leon3/leon3v7/soft/libbcc.a(isr.c.o)
                                        0x19c (size before relaxing)
 .debug_str     0x00000000000003ca       0x77 /home/fsw/rep/tasa/lib/bcc-2.2.3-gcc/bin/../sparc-gaisler-elf/bsp/leon3/leon3v7/soft/libbcc.a(int_nest.c.o)
                                        0x1b6 (size before relaxing)
 .debug_str     0x0000000000000441       0x2c /home/fsw/rep/tasa/lib/bcc-2.2.3-gcc/bin/../sparc-gaisler-elf/bsp/leon3/leon3v7/soft/libbcc.a(init.S.o)
                                         0xa4 (size before relaxing)
 .debug_str     0x000000000000046d       0x31 /home/fsw/rep/tasa/lib/bcc-2.2.3-gcc/bin/../sparc-gaisler-elf/bsp/leon3/leon3v7/soft/libbcc.a(leon_info.S.o)
                                         0xa9 (size before relaxing)
 .debug_str     0x000000000000049e       0x2e /home/fsw/rep/tasa/lib/bcc-2.2.3-gcc/bin/../sparc-gaisler-elf/bsp/leon3/leon3v7/soft/libbcc.a(dwzero.S.o)
                                         0xa6 (size before relaxing)
 .debug_str     0x00000000000004cc       0x75 /home/fsw/rep/tasa/lib/bcc-2.2.3-gcc/bin/../sparc-gaisler-elf/bsp/leon3/leon3v7/soft/libbcc.a(copy_data.c.o)
                                        0x1b5 (size before relaxing)
 .debug_str     0x0000000000000541       0x4e /home/fsw/rep/tasa/lib/bcc-2.2.3-gcc/bin/../sparc-gaisler-elf/bsp/leon3/leon3v7/soft/libbcc.a(argv.c.o)
                                        0x18a (size before relaxing)
 .debug_str     0x000000000000058f      0x17b /home/fsw/rep/tasa/lib/bcc-2.2.3-gcc/bin/../sparc-gaisler-elf/bsp/leon3/leon3v7/soft/libbcc.a(int_irqmp_get_source.c.o)
                                        0x2d7 (size before relaxing)
 .debug_str     0x000000000000070a       0x93 /home/fsw/rep/tasa/lib/bcc-2.2.3-gcc/bin/../sparc-gaisler-elf/bsp/leon3/leon3v7/soft/libbcc.a(int_irqmp_mp.c.o)
                                        0x314 (size before relaxing)
 .debug_str     0x000000000000079d       0xe9 /home/fsw/rep/tasa/lib/bcc-2.2.3-gcc/bin/../sparc-gaisler-elf/bsp/leon3/leon3v7/soft/libbcc.a(int_irqmp_init.c.o)
                                        0x3a9 (size before relaxing)
 .debug_str     0x0000000000000886       0x60 /home/fsw/rep/tasa/lib/bcc-2.2.3-gcc/bin/../sparc-gaisler-elf/bsp/leon3/leon3v7/soft/libbcc.a(con_apbuart_init.c.o)
                                        0x1e6 (size before relaxing)
 .debug_str     0x00000000000008e6       0x7a /home/fsw/rep/tasa/lib/bcc-2.2.3-gcc/bin/../sparc-gaisler-elf/bsp/leon3/leon3v7/soft/libbcc.a(timer_gptimer_init.c.o)
                                        0x24a (size before relaxing)
 .debug_str     0x0000000000000960       0xfc /home/fsw/rep/tasa/lib/bcc-2.2.3-gcc/bin/../sparc-gaisler-elf/bsp/leon3/leon3v7/soft/libbcc.a(ambapp.c.o)
                                        0x2bd (size before relaxing)
 .debug_str     0x0000000000000a5c       0x6b /home/fsw/rep/tasa/lib/bcc-2.2.3-gcc/bin/../sparc-gaisler-elf/bsp/leon3/leon3v7/soft/libbcc.a(ambapp_findfirst_fn.c.o)
                                        0x258 (size before relaxing)
 .debug_str     0x0000000000000ac7       0x42 /home/fsw/rep/tasa/lib/bcc-2.2.3-gcc/bin/../sparc-gaisler-elf/bsp/leon3/leon3v7/soft/libbcc.a(int_irqmp_handle.c.o)
                                        0x1e0 (size before relaxing)
 .debug_str     0x0000000000000b09       0x3a /home/fsw/rep/tasa/lib/bcc-2.2.3-gcc/bin/../sparc-gaisler-elf/bsp/leon3/leon3v7/soft/libbcc.a(con_handle.c.o)
                                        0x19b (size before relaxing)
 .debug_str     0x0000000000000b43       0x3a /home/fsw/rep/tasa/lib/bcc-2.2.3-gcc/bin/../sparc-gaisler-elf/bsp/leon3/leon3v7/soft/libbcc.a(timer_handle.c.o)
                                        0x1b3 (size before relaxing)
 .debug_str     0x0000000000000b7d      0x193 /home/fsw/rep/tasa/lib/bcc-2.2.3-gcc/bin/../lib/gcc/sparc-gaisler-elf/10.2.0/../../../../sparc-gaisler-elf/lib/leon3v7/soft/libc.a(lib_a-atexit.o)
                                        0x223 (size before relaxing)
 .debug_str     0x0000000000000d10      0x341 /home/fsw/rep/tasa/lib/bcc-2.2.3-gcc/bin/../lib/gcc/sparc-gaisler-elf/10.2.0/../../../../sparc-gaisler-elf/lib/leon3v7/soft/libc.a(lib_a-exit.o)
                                        0x541 (size before relaxing)
 .debug_str     0x0000000000001051      0x133 /home/fsw/rep/tasa/lib/bcc-2.2.3-gcc/bin/../lib/gcc/sparc-gaisler-elf/10.2.0/../../../../sparc-gaisler-elf/lib/leon3v7/soft/libc.a(lib_a-impure.o)
                                        0x577 (size before relaxing)
 .debug_str     0x0000000000001184      0x111 /home/fsw/rep/tasa/lib/bcc-2.2.3-gcc/bin/../lib/gcc/sparc-gaisler-elf/10.2.0/../../../../sparc-gaisler-elf/lib/leon3v7/soft/libc.a(lib_a-memcpy.o)
                                        0x20d (size before relaxing)
 .debug_str     0x0000000000001295      0x127 /home/fsw/rep/tasa/lib/bcc-2.2.3-gcc/bin/../lib/gcc/sparc-gaisler-elf/10.2.0/../../../../sparc-gaisler-elf/lib/leon3v7/soft/libc.a(lib_a-printf.o)
                                        0x567 (size before relaxing)
 .debug_str     0x00000000000013bc       0x57 /home/fsw/rep/tasa/lib/bcc-2.2.3-gcc/bin/../lib/gcc/sparc-gaisler-elf/10.2.0/../../../../sparc-gaisler-elf/lib/leon3v7/soft/libc.a(lib_a-putchar.o)
                                        0x543 (size before relaxing)
 .debug_str     0x0000000000001413       0xa9 /home/fsw/rep/tasa/lib/bcc-2.2.3-gcc/bin/../lib/gcc/sparc-gaisler-elf/10.2.0/../../../../sparc-gaisler-elf/lib/leon3v7/soft/libc.a(lib_a-puts.o)
                                        0x5de (size before relaxing)
 .debug_str     0x00000000000014bc       0x51 /home/fsw/rep/tasa/lib/bcc-2.2.3-gcc/bin/../lib/gcc/sparc-gaisler-elf/10.2.0/../../../../sparc-gaisler-elf/lib/leon3v7/soft/libc.a(lib_a-strlen.o)
                                        0x1f9 (size before relaxing)
 .debug_str     0x000000000000150d      0x3fd /home/fsw/rep/tasa/lib/bcc-2.2.3-gcc/bin/../lib/gcc/sparc-gaisler-elf/10.2.0/../../../../sparc-gaisler-elf/lib/leon3v7/soft/libc.a(lib_a-vfprintf.o)
                                        0xa8c (size before relaxing)
 .debug_str     0x000000000000190a       0x50 /home/fsw/rep/tasa/lib/bcc-2.2.3-gcc/bin/../lib/gcc/sparc-gaisler-elf/10.2.0/../../../../sparc-gaisler-elf/lib/leon3v7/soft/libc.a(lib_a-wsetup.o)
                                        0x596 (size before relaxing)
 .debug_str     0x000000000000195a       0xbc /home/fsw/rep/tasa/lib/bcc-2.2.3-gcc/bin/../lib/gcc/sparc-gaisler-elf/10.2.0/../../../../sparc-gaisler-elf/lib/leon3v7/soft/libc.a(lib_a-__atexit.o)
                                        0x2c2 (size before relaxing)
 .debug_str     0x0000000000001a16       0x67 /home/fsw/rep/tasa/lib/bcc-2.2.3-gcc/bin/../lib/gcc/sparc-gaisler-elf/10.2.0/../../../../sparc-gaisler-elf/lib/leon3v7/soft/libc.a(lib_a-__call_atexit.o)
                                        0x28f (size before relaxing)
 .debug_str     0x0000000000001a7d      0x187 /home/fsw/rep/tasa/lib/bcc-2.2.3-gcc/bin/../lib/gcc/sparc-gaisler-elf/10.2.0/../../../../sparc-gaisler-elf/lib/leon3v7/soft/libc.a(lib_a-dtoa.o)
                                        0x8e6 (size before relaxing)
 .debug_str     0x0000000000001c04       0x73 /home/fsw/rep/tasa/lib/bcc-2.2.3-gcc/bin/../lib/gcc/sparc-gaisler-elf/10.2.0/../../../../sparc-gaisler-elf/lib/leon3v7/soft/libc.a(lib_a-fflush.o)
                                        0x5d7 (size before relaxing)
 .debug_str     0x0000000000001c77      0x100 /home/fsw/rep/tasa/lib/bcc-2.2.3-gcc/bin/../lib/gcc/sparc-gaisler-elf/10.2.0/../../../../sparc-gaisler-elf/lib/leon3v7/soft/libc.a(lib_a-findfp.o)
                                        0x66d (size before relaxing)
 .debug_str     0x0000000000001d77      0x182 /home/fsw/rep/tasa/lib/bcc-2.2.3-gcc/bin/../lib/gcc/sparc-gaisler-elf/10.2.0/../../../../sparc-gaisler-elf/lib/leon3v7/soft/libc.a(lib_a-freer.o)
                                        0x687 (size before relaxing)
 .debug_str     0x0000000000001ef9       0x75 /home/fsw/rep/tasa/lib/bcc-2.2.3-gcc/bin/../lib/gcc/sparc-gaisler-elf/10.2.0/../../../../sparc-gaisler-elf/lib/leon3v7/soft/libc.a(lib_a-fvwrite.o)
                                        0x5e2 (size before relaxing)
 .debug_str     0x0000000000001f6e       0x58 /home/fsw/rep/tasa/lib/bcc-2.2.3-gcc/bin/../lib/gcc/sparc-gaisler-elf/10.2.0/../../../../sparc-gaisler-elf/lib/leon3v7/soft/libc.a(lib_a-fwalk.o)
                                        0x53d (size before relaxing)
 .debug_str     0x0000000000001fc6      0x150 /home/fsw/rep/tasa/lib/bcc-2.2.3-gcc/bin/../lib/gcc/sparc-gaisler-elf/10.2.0/../../../../sparc-gaisler-elf/lib/leon3v7/soft/libc.a(lib_a-localeconv.o)
                                        0x779 (size before relaxing)
 .debug_str     0x0000000000002116      0x16a /home/fsw/rep/tasa/lib/bcc-2.2.3-gcc/bin/../lib/gcc/sparc-gaisler-elf/10.2.0/../../../../sparc-gaisler-elf/lib/leon3v7/soft/libc.a(lib_a-makebuf.o)
                                        0x6a7 (size before relaxing)
 .debug_str     0x0000000000002280       0x50 /home/fsw/rep/tasa/lib/bcc-2.2.3-gcc/bin/../lib/gcc/sparc-gaisler-elf/10.2.0/../../../../sparc-gaisler-elf/lib/leon3v7/soft/libc.a(lib_a-malloc.o)
                                        0x54c (size before relaxing)
 .debug_str     0x00000000000022d0       0xdf /home/fsw/rep/tasa/lib/bcc-2.2.3-gcc/bin/../lib/gcc/sparc-gaisler-elf/10.2.0/../../../../sparc-gaisler-elf/lib/leon3v7/soft/libc.a(lib_a-mallocr.o)
                                        0x73d (size before relaxing)
 .debug_str     0x00000000000023af       0x52 /home/fsw/rep/tasa/lib/bcc-2.2.3-gcc/bin/../lib/gcc/sparc-gaisler-elf/10.2.0/../../../../sparc-gaisler-elf/lib/leon3v7/soft/libc.a(lib_a-memchr.o)
                                        0x200 (size before relaxing)
 .debug_str     0x0000000000002401       0x4e /home/fsw/rep/tasa/lib/bcc-2.2.3-gcc/bin/../lib/gcc/sparc-gaisler-elf/10.2.0/../../../../sparc-gaisler-elf/lib/leon3v7/soft/libc.a(lib_a-memmove.o)
                                        0x219 (size before relaxing)
 .debug_str     0x000000000000244f       0x4b /home/fsw/rep/tasa/lib/bcc-2.2.3-gcc/bin/../lib/gcc/sparc-gaisler-elf/10.2.0/../../../../sparc-gaisler-elf/lib/leon3v7/soft/libc.a(lib_a-memset.o)
                                        0x1fa (size before relaxing)
 .debug_str     0x000000000000249a       0x43 /home/fsw/rep/tasa/lib/bcc-2.2.3-gcc/bin/../lib/gcc/sparc-gaisler-elf/10.2.0/../../../../sparc-gaisler-elf/lib/leon3v7/soft/libc.a(lib_a-mlock.o)
                                        0x52c (size before relaxing)
 .debug_str     0x00000000000024dd       0xae /home/fsw/rep/tasa/lib/bcc-2.2.3-gcc/bin/../lib/gcc/sparc-gaisler-elf/10.2.0/../../../../sparc-gaisler-elf/lib/leon3v7/soft/libc.a(lib_a-mprec.o)
                                        0x840 (size before relaxing)
 .debug_str     0x000000000000258b       0x5a /home/fsw/rep/tasa/lib/bcc-2.2.3-gcc/bin/../lib/gcc/sparc-gaisler-elf/10.2.0/../../../../sparc-gaisler-elf/lib/leon3v7/soft/libc.a(lib_a-putc.o)
                                        0x5a6 (size before relaxing)
 .debug_str     0x00000000000025e5       0x4e /home/fsw/rep/tasa/lib/bcc-2.2.3-gcc/bin/../lib/gcc/sparc-gaisler-elf/10.2.0/../../../../sparc-gaisler-elf/lib/leon3v7/soft/libc.a(lib_a-reallocr.o)
                                        0x619 (size before relaxing)
 .debug_str     0x0000000000002633      0x122 /home/fsw/rep/tasa/lib/bcc-2.2.3-gcc/bin/../lib/gcc/sparc-gaisler-elf/10.2.0/../../../../sparc-gaisler-elf/lib/leon3v7/soft/libc.a(lib_a-s_frexp.o)
                                        0x243 (size before relaxing)
 .debug_str     0x0000000000002755       0x56 /home/fsw/rep/tasa/lib/bcc-2.2.3-gcc/bin/../lib/gcc/sparc-gaisler-elf/10.2.0/../../../../sparc-gaisler-elf/lib/leon3v7/soft/libc.a(lib_a-sbrkr.o)
                                        0x52e (size before relaxing)
 .debug_str     0x00000000000027ab       0xa2 /home/fsw/rep/tasa/lib/bcc-2.2.3-gcc/bin/../lib/gcc/sparc-gaisler-elf/10.2.0/../../../../sparc-gaisler-elf/lib/leon3v7/soft/libc.a(lib_a-stdio.o)
                                        0x58c (size before relaxing)
 .debug_str     0x000000000000284d       0x45 /home/fsw/rep/tasa/lib/bcc-2.2.3-gcc/bin/../lib/gcc/sparc-gaisler-elf/10.2.0/../../../../sparc-gaisler-elf/lib/leon3v7/soft/libc.a(lib_a-strncpy.o)
                                        0x210 (size before relaxing)
 .debug_str     0x0000000000002892       0x21 /home/fsw/rep/tasa/lib/bcc-2.2.3-gcc/bin/../lib/gcc/sparc-gaisler-elf/10.2.0/../../../../sparc-gaisler-elf/lib/leon3v7/soft/libc.a(lib_a-vfiprintf.o)
                                        0x962 (size before relaxing)
 .debug_str     0x00000000000028b3       0x49 /home/fsw/rep/tasa/lib/bcc-2.2.3-gcc/bin/../lib/gcc/sparc-gaisler-elf/10.2.0/../../../../sparc-gaisler-elf/lib/leon3v7/soft/libc.a(lib_a-wbuf.o)
                                        0x59b (size before relaxing)
 .debug_str     0x00000000000028fc       0x43 /home/fsw/rep/tasa/lib/bcc-2.2.3-gcc/bin/../lib/gcc/sparc-gaisler-elf/10.2.0/../../../../sparc-gaisler-elf/lib/leon3v7/soft/libc.a(lib_a-writer.o)
                                        0x532 (size before relaxing)
 .debug_str     0x000000000000293f        0xf /home/fsw/rep/tasa/lib/bcc-2.2.3-gcc/bin/../lib/gcc/sparc-gaisler-elf/10.2.0/../../../../sparc-gaisler-elf/lib/leon3v7/soft/libc.a(lib_a-callocr.o)
                                        0x57e (size before relaxing)
 .debug_str     0x000000000000294e       0x43 /home/fsw/rep/tasa/lib/bcc-2.2.3-gcc/bin/../lib/gcc/sparc-gaisler-elf/10.2.0/../../../../sparc-gaisler-elf/lib/leon3v7/soft/libc.a(lib_a-closer.o)
                                        0x522 (size before relaxing)
 .debug_str     0x0000000000002991       0x54 /home/fsw/rep/tasa/lib/bcc-2.2.3-gcc/bin/../lib/gcc/sparc-gaisler-elf/10.2.0/../../../../sparc-gaisler-elf/lib/leon3v7/soft/libc.a(lib_a-fclose.o)
                                        0x59e (size before relaxing)
 .debug_str     0x00000000000029e5       0x6b /home/fsw/rep/tasa/lib/bcc-2.2.3-gcc/bin/../lib/gcc/sparc-gaisler-elf/10.2.0/../../../../sparc-gaisler-elf/lib/leon3v7/soft/libc.a(lib_a-fputwc.o)
                                        0x5dc (size before relaxing)
 .debug_str     0x0000000000002a50       0x49 /home/fsw/rep/tasa/lib/bcc-2.2.3-gcc/bin/../lib/gcc/sparc-gaisler-elf/10.2.0/../../../../sparc-gaisler-elf/lib/leon3v7/soft/libc.a(lib_a-fstatr.o)
                                        0x65b (size before relaxing)
 .debug_str     0x0000000000002a99       0x4b /home/fsw/rep/tasa/lib/bcc-2.2.3-gcc/bin/../lib/gcc/sparc-gaisler-elf/10.2.0/../../../../sparc-gaisler-elf/lib/leon3v7/soft/libc.a(lib_a-isattyr.o)
                                        0x525 (size before relaxing)
 .debug_str     0x0000000000002ae4       0xa8 /home/fsw/rep/tasa/lib/bcc-2.2.3-gcc/bin/../lib/gcc/sparc-gaisler-elf/10.2.0/../../../../sparc-gaisler-elf/lib/leon3v7/soft/libc.a(lib_a-locale.o)
                                        0x7b1 (size before relaxing)
 .debug_str     0x0000000000002b8c       0x49 /home/fsw/rep/tasa/lib/bcc-2.2.3-gcc/bin/../lib/gcc/sparc-gaisler-elf/10.2.0/../../../../sparc-gaisler-elf/lib/leon3v7/soft/libc.a(lib_a-lseekr.o)
                                        0x529 (size before relaxing)
 .debug_str     0x0000000000002bd5       0x65 /home/fsw/rep/tasa/lib/bcc-2.2.3-gcc/bin/../lib/gcc/sparc-gaisler-elf/10.2.0/../../../../sparc-gaisler-elf/lib/leon3v7/soft/libc.a(lib_a-mbtowc_r.o)
                                        0x767 (size before relaxing)
 .debug_str     0x0000000000002c3a       0x42 /home/fsw/rep/tasa/lib/bcc-2.2.3-gcc/bin/../lib/gcc/sparc-gaisler-elf/10.2.0/../../../../sparc-gaisler-elf/lib/leon3v7/soft/libc.a(lib_a-readr.o)
                                        0x52f (size before relaxing)
 .debug_str     0x0000000000002c7c       0x6e /home/fsw/rep/tasa/lib/bcc-2.2.3-gcc/bin/../lib/gcc/sparc-gaisler-elf/10.2.0/../../../../sparc-gaisler-elf/lib/leon3v7/soft/libc.a(lib_a-reent.o)
                                        0x557 (size before relaxing)
 .debug_str     0x0000000000002cea       0x44 /home/fsw/rep/tasa/lib/bcc-2.2.3-gcc/bin/../lib/gcc/sparc-gaisler-elf/10.2.0/../../../../sparc-gaisler-elf/lib/leon3v7/soft/libc.a(lib_a-strcmp.o)
                                        0x1df (size before relaxing)
 .debug_str     0x0000000000002d2e       0x54 /home/fsw/rep/tasa/lib/bcc-2.2.3-gcc/bin/../lib/gcc/sparc-gaisler-elf/10.2.0/../../../../sparc-gaisler-elf/lib/leon3v7/soft/libc.a(lib_a-wcrtomb.o)
                                        0x753 (size before relaxing)
 .debug_str     0x0000000000002d82       0x66 /home/fsw/rep/tasa/lib/bcc-2.2.3-gcc/bin/../lib/gcc/sparc-gaisler-elf/10.2.0/../../../../sparc-gaisler-elf/lib/leon3v7/soft/libc.a(lib_a-wctomb_r.o)
                                        0x760 (size before relaxing)
 .debug_str     0x0000000000002de8       0xf0 /home/fsw/rep/tasa/lib/bcc-2.2.3-gcc/bin/../lib/gcc/sparc-gaisler-elf/10.2.0/../../../../sparc-gaisler-elf/lib/leon3v7/soft/libc.a(lib_a-ctype_.o)
                                        0x1e7 (size before relaxing)
 .debug_str     0x0000000000002ed8       0x2d /home/fsw/rep/tasa/lib/bcc-2.2.3-gcc/bin/../sparc-gaisler-elf/bsp/leon3/leon3v7/soft/libbcc.a(_exit.S.o)
                                         0xa5 (size before relaxing)
 .debug_str     0x0000000000002f05       0x3d /home/fsw/rep/tasa/lib/bcc-2.2.3-gcc/bin/../sparc-gaisler-elf/bsp/leon3/leon3v7/soft/libbcc.a(read.c.o)
                                        0x18b (size before relaxing)
 .debug_str     0x0000000000002f42       0x9d /home/fsw/rep/tasa/lib/bcc-2.2.3-gcc/bin/../sparc-gaisler-elf/bsp/leon3/leon3v7/soft/libbcc.a(sbrk.c.o)
                                        0x1ff (size before relaxing)
 .debug_str     0x0000000000002fdf       0x2c /home/fsw/rep/tasa/lib/bcc-2.2.3-gcc/bin/../sparc-gaisler-elf/bsp/leon3/leon3v7/soft/libbcc.a(heap.c.o)
                                        0x198 (size before relaxing)
 .debug_str     0x000000000000300b       0x3f /home/fsw/rep/tasa/lib/bcc-2.2.3-gcc/bin/../sparc-gaisler-elf/bsp/leon3/leon3v7/soft/libbcc.a(write.c.o)
                                        0x18e (size before relaxing)
 .debug_str     0x000000000000304a       0x33 /home/fsw/rep/tasa/lib/bcc-2.2.3-gcc/bin/../sparc-gaisler-elf/bsp/leon3/leon3v7/soft/libbcc.a(stubs.S.o)
                                         0xab (size before relaxing)
 .debug_str     0x000000000000307d       0x89 /home/fsw/rep/tasa/lib/bcc-2.2.3-gcc/bin/../sparc-gaisler-elf/bsp/leon3/leon3v7/soft/libbcc.a(con_apbuart.c.o)
                                        0x21c (size before relaxing)
 .debug_str     0x0000000000003106       0xd9 /home/fsw/rep/tasa/lib/bcc-2.2.3-gcc/bin/../lib/gcc/sparc-gaisler-elf/10.2.0/leon3v7/soft/libgcc.a(_mulsi3.o)
                                         0xe5 (size before relaxing)
 .debug_str     0x00000000000031df       0xe5 /home/fsw/rep/tasa/lib/bcc-2.2.3-gcc/bin/../lib/gcc/sparc-gaisler-elf/10.2.0/leon3v7/soft/libgcc.a(_divsi3.o)
 .debug_str     0x00000000000031df       0xe5 /home/fsw/rep/tasa/lib/bcc-2.2.3-gcc/bin/../lib/gcc/sparc-gaisler-elf/10.2.0/leon3v7/soft/libgcc.a(_modsi3.o)
 .debug_str     0x00000000000031df      0x13a /home/fsw/rep/tasa/lib/bcc-2.2.3-gcc/bin/../lib/gcc/sparc-gaisler-elf/10.2.0/leon3v7/soft/libgcc.a(_udivdi3.o)
                                        0x286 (size before relaxing)
 .debug_str     0x0000000000003319      0x286 /home/fsw/rep/tasa/lib/bcc-2.2.3-gcc/bin/../lib/gcc/sparc-gaisler-elf/10.2.0/leon3v7/soft/libgcc.a(_umoddi3.o)
 .debug_str     0x0000000000003319      0x1e7 /home/fsw/rep/tasa/lib/bcc-2.2.3-gcc/bin/../lib/gcc/sparc-gaisler-elf/10.2.0/leon3v7/soft/libgcc.a(_addsub_df.o)
                                        0x343 (size before relaxing)
 .debug_str     0x0000000000003500       0x40 /home/fsw/rep/tasa/lib/bcc-2.2.3-gcc/bin/../lib/gcc/sparc-gaisler-elf/10.2.0/leon3v7/soft/libgcc.a(_mul_df.o)
                                        0x31e (size before relaxing)
 .debug_str     0x0000000000003540       0x2c /home/fsw/rep/tasa/lib/bcc-2.2.3-gcc/bin/../lib/gcc/sparc-gaisler-elf/10.2.0/leon3v7/soft/libgcc.a(_div_df.o)
                                        0x305 (size before relaxing)
 .debug_str     0x000000000000356c       0x18 /home/fsw/rep/tasa/lib/bcc-2.2.3-gcc/bin/../lib/gcc/sparc-gaisler-elf/10.2.0/leon3v7/soft/libgcc.a(_eq_df.o)
                                        0x2c6 (size before relaxing)
 .debug_str     0x0000000000003584      0x2c6 /home/fsw/rep/tasa/lib/bcc-2.2.3-gcc/bin/../lib/gcc/sparc-gaisler-elf/10.2.0/leon3v7/soft/libgcc.a(_ne_df.o)
 .debug_str     0x0000000000003584      0x2c6 /home/fsw/rep/tasa/lib/bcc-2.2.3-gcc/bin/../lib/gcc/sparc-gaisler-elf/10.2.0/leon3v7/soft/libgcc.a(_gt_df.o)
 .debug_str     0x0000000000003584      0x2c6 /home/fsw/rep/tasa/lib/bcc-2.2.3-gcc/bin/../lib/gcc/sparc-gaisler-elf/10.2.0/leon3v7/soft/libgcc.a(_lt_df.o)
 .debug_str     0x0000000000003584      0x2c6 /home/fsw/rep/tasa/lib/bcc-2.2.3-gcc/bin/../lib/gcc/sparc-gaisler-elf/10.2.0/leon3v7/soft/libgcc.a(_le_df.o)
 .debug_str     0x0000000000003584      0x2b9 /home/fsw/rep/tasa/lib/bcc-2.2.3-gcc/bin/../lib/gcc/sparc-gaisler-elf/10.2.0/leon3v7/soft/libgcc.a(_unord_df.o)
 .debug_str     0x0000000000003584       0x15 /home/fsw/rep/tasa/lib/bcc-2.2.3-gcc/bin/../lib/gcc/sparc-gaisler-elf/10.2.0/leon3v7/soft/libgcc.a(_si_to_df.o)
                                        0x2a1 (size before relaxing)
 .debug_str     0x0000000000003599      0x2be /home/fsw/rep/tasa/lib/bcc-2.2.3-gcc/bin/../lib/gcc/sparc-gaisler-elf/10.2.0/leon3v7/soft/libgcc.a(_df_to_si.o)
 .debug_str     0x0000000000003599      0x260 /home/fsw/rep/tasa/lib/bcc-2.2.3-gcc/bin/../lib/gcc/sparc-gaisler-elf/10.2.0/leon3v7/soft/libgcc.a(_thenan_df.o)
 .debug_str     0x0000000000003599        0x6 /home/fsw/rep/tasa/lib/bcc-2.2.3-gcc/bin/../lib/gcc/sparc-gaisler-elf/10.2.0/leon3v7/soft/libgcc.a(_usi_to_df.o)
                                        0x29d (size before relaxing)
 .debug_str     0x000000000000359f      0x236 /home/fsw/rep/tasa/lib/bcc-2.2.3-gcc/bin/../lib/gcc/sparc-gaisler-elf/10.2.0/leon3v7/soft/libgcc.a(_muldi3.o)
 .debug_str     0x000000000000359f      0x206 /home/fsw/rep/tasa/lib/bcc-2.2.3-gcc/bin/../lib/gcc/sparc-gaisler-elf/10.2.0/leon3v7/soft/libgcc.a(_clz.o)
 .debug_str     0x000000000000359f      0x223 /home/fsw/rep/tasa/lib/bcc-2.2.3-gcc/bin/../lib/gcc/sparc-gaisler-elf/10.2.0/leon3v7/soft/libgcc.a(_clzsi2.o)
 .debug_str     0x000000000000359f        0x7 /home/fsw/rep/tasa/lib/bcc-2.2.3-gcc/bin/../lib/gcc/sparc-gaisler-elf/10.2.0/leon3v7/soft/libgcc.a(_pack_df.o)
                                        0x2b2 (size before relaxing)
 .debug_str     0x00000000000035a6      0x294 /home/fsw/rep/tasa/lib/bcc-2.2.3-gcc/bin/../lib/gcc/sparc-gaisler-elf/10.2.0/leon3v7/soft/libgcc.a(_unpack_df.o)
 .debug_str     0x00000000000035a6      0x277 /home/fsw/rep/tasa/lib/bcc-2.2.3-gcc/bin/../lib/gcc/sparc-gaisler-elf/10.2.0/leon3v7/soft/libgcc.a(_fpcmp_parts_df.o)

.debug_loc      0x0000000000000000    0x19c14
 *(.debug_loc)
 .debug_loc     0x0000000000000000       0x44 /tmp/ccK7ILCi.o
 .debug_loc     0x0000000000000044       0x58 /home/fsw/rep/tasa/lib/bcc-2.2.3-gcc/bin/../sparc-gaisler-elf/bsp/leon3/leon3v7/soft/libbcc.a(int_irqmp_get_source.c.o)
 .debug_loc     0x000000000000009c       0xd2 /home/fsw/rep/tasa/lib/bcc-2.2.3-gcc/bin/../sparc-gaisler-elf/bsp/leon3/leon3v7/soft/libbcc.a(int_irqmp_mp.c.o)
 .debug_loc     0x000000000000016e      0x2a2 /home/fsw/rep/tasa/lib/bcc-2.2.3-gcc/bin/../sparc-gaisler-elf/bsp/leon3/leon3v7/soft/libbcc.a(int_irqmp_init.c.o)
 .debug_loc     0x0000000000000410      0xb5d /home/fsw/rep/tasa/lib/bcc-2.2.3-gcc/bin/../sparc-gaisler-elf/bsp/leon3/leon3v7/soft/libbcc.a(ambapp.c.o)
 .debug_loc     0x0000000000000f6d      0x239 /home/fsw/rep/tasa/lib/bcc-2.2.3-gcc/bin/../sparc-gaisler-elf/bsp/leon3/leon3v7/soft/libbcc.a(ambapp_findfirst_fn.c.o)
 .debug_loc     0x00000000000011a6       0x22 /home/fsw/rep/tasa/lib/bcc-2.2.3-gcc/bin/../lib/gcc/sparc-gaisler-elf/10.2.0/../../../../sparc-gaisler-elf/lib/leon3v7/soft/libc.a(lib_a-atexit.o)
 .debug_loc     0x00000000000011c8       0x22 /home/fsw/rep/tasa/lib/bcc-2.2.3-gcc/bin/../lib/gcc/sparc-gaisler-elf/10.2.0/../../../../sparc-gaisler-elf/lib/leon3v7/soft/libc.a(lib_a-exit.o)
 .debug_loc     0x00000000000011ea      0x4b6 /home/fsw/rep/tasa/lib/bcc-2.2.3-gcc/bin/../lib/gcc/sparc-gaisler-elf/10.2.0/../../../../sparc-gaisler-elf/lib/leon3v7/soft/libc.a(lib_a-memcpy.o)
 .debug_loc     0x00000000000016a0      0x134 /home/fsw/rep/tasa/lib/bcc-2.2.3-gcc/bin/../lib/gcc/sparc-gaisler-elf/10.2.0/../../../../sparc-gaisler-elf/lib/leon3v7/soft/libc.a(lib_a-printf.o)
 .debug_loc     0x00000000000017d4       0xa2 /home/fsw/rep/tasa/lib/bcc-2.2.3-gcc/bin/../lib/gcc/sparc-gaisler-elf/10.2.0/../../../../sparc-gaisler-elf/lib/leon3v7/soft/libc.a(lib_a-putchar.o)
 .debug_loc     0x0000000000001876      0x249 /home/fsw/rep/tasa/lib/bcc-2.2.3-gcc/bin/../lib/gcc/sparc-gaisler-elf/10.2.0/../../../../sparc-gaisler-elf/lib/leon3v7/soft/libc.a(lib_a-puts.o)
 .debug_loc     0x0000000000001abf       0x76 /home/fsw/rep/tasa/lib/bcc-2.2.3-gcc/bin/../lib/gcc/sparc-gaisler-elf/10.2.0/../../../../sparc-gaisler-elf/lib/leon3v7/soft/libc.a(lib_a-strlen.o)
 .debug_loc     0x0000000000001b35     0x5325 /home/fsw/rep/tasa/lib/bcc-2.2.3-gcc/bin/../lib/gcc/sparc-gaisler-elf/10.2.0/../../../../sparc-gaisler-elf/lib/leon3v7/soft/libc.a(lib_a-vfprintf.o)
 .debug_loc     0x0000000000006e5a       0x86 /home/fsw/rep/tasa/lib/bcc-2.2.3-gcc/bin/../lib/gcc/sparc-gaisler-elf/10.2.0/../../../../sparc-gaisler-elf/lib/leon3v7/soft/libc.a(lib_a-wsetup.o)
 .debug_loc     0x0000000000006ee0      0x15d /home/fsw/rep/tasa/lib/bcc-2.2.3-gcc/bin/../lib/gcc/sparc-gaisler-elf/10.2.0/../../../../sparc-gaisler-elf/lib/leon3v7/soft/libc.a(lib_a-__atexit.o)
 .debug_loc     0x000000000000703d      0x2a2 /home/fsw/rep/tasa/lib/bcc-2.2.3-gcc/bin/../lib/gcc/sparc-gaisler-elf/10.2.0/../../../../sparc-gaisler-elf/lib/leon3v7/soft/libc.a(lib_a-__call_atexit.o)
 .debug_loc     0x00000000000072df     0x2cf6 /home/fsw/rep/tasa/lib/bcc-2.2.3-gcc/bin/../lib/gcc/sparc-gaisler-elf/10.2.0/../../../../sparc-gaisler-elf/lib/leon3v7/soft/libc.a(lib_a-dtoa.o)
 .debug_loc     0x0000000000009fd5      0x356 /home/fsw/rep/tasa/lib/bcc-2.2.3-gcc/bin/../lib/gcc/sparc-gaisler-elf/10.2.0/../../../../sparc-gaisler-elf/lib/leon3v7/soft/libc.a(lib_a-fflush.o)
 .debug_loc     0x000000000000a32b      0x2d8 /home/fsw/rep/tasa/lib/bcc-2.2.3-gcc/bin/../lib/gcc/sparc-gaisler-elf/10.2.0/../../../../sparc-gaisler-elf/lib/leon3v7/soft/libc.a(lib_a-findfp.o)
 .debug_loc     0x000000000000a603      0x685 /home/fsw/rep/tasa/lib/bcc-2.2.3-gcc/bin/../lib/gcc/sparc-gaisler-elf/10.2.0/../../../../sparc-gaisler-elf/lib/leon3v7/soft/libc.a(lib_a-freer.o)
 .debug_loc     0x000000000000ac88      0x5dc /home/fsw/rep/tasa/lib/bcc-2.2.3-gcc/bin/../lib/gcc/sparc-gaisler-elf/10.2.0/../../../../sparc-gaisler-elf/lib/leon3v7/soft/libc.a(lib_a-fvwrite.o)
 .debug_loc     0x000000000000b264      0x1be /home/fsw/rep/tasa/lib/bcc-2.2.3-gcc/bin/../lib/gcc/sparc-gaisler-elf/10.2.0/../../../../sparc-gaisler-elf/lib/leon3v7/soft/libc.a(lib_a-fwalk.o)
 .debug_loc     0x000000000000b422      0x103 /home/fsw/rep/tasa/lib/bcc-2.2.3-gcc/bin/../lib/gcc/sparc-gaisler-elf/10.2.0/../../../../sparc-gaisler-elf/lib/leon3v7/soft/libc.a(lib_a-localeconv.o)
 .debug_loc     0x000000000000b525      0x3a1 /home/fsw/rep/tasa/lib/bcc-2.2.3-gcc/bin/../lib/gcc/sparc-gaisler-elf/10.2.0/../../../../sparc-gaisler-elf/lib/leon3v7/soft/libc.a(lib_a-makebuf.o)
 .debug_loc     0x000000000000b8c6       0x44 /home/fsw/rep/tasa/lib/bcc-2.2.3-gcc/bin/../lib/gcc/sparc-gaisler-elf/10.2.0/../../../../sparc-gaisler-elf/lib/leon3v7/soft/libc.a(lib_a-malloc.o)
 .debug_loc     0x000000000000b90a      0xdec /home/fsw/rep/tasa/lib/bcc-2.2.3-gcc/bin/../lib/gcc/sparc-gaisler-elf/10.2.0/../../../../sparc-gaisler-elf/lib/leon3v7/soft/libc.a(lib_a-mallocr.o)
 .debug_loc     0x000000000000c6f6      0x19e /home/fsw/rep/tasa/lib/bcc-2.2.3-gcc/bin/../lib/gcc/sparc-gaisler-elf/10.2.0/../../../../sparc-gaisler-elf/lib/leon3v7/soft/libc.a(lib_a-memchr.o)
 .debug_loc     0x000000000000c894      0x558 /home/fsw/rep/tasa/lib/bcc-2.2.3-gcc/bin/../lib/gcc/sparc-gaisler-elf/10.2.0/../../../../sparc-gaisler-elf/lib/leon3v7/soft/libc.a(lib_a-memmove.o)
 .debug_loc     0x000000000000cdec      0x274 /home/fsw/rep/tasa/lib/bcc-2.2.3-gcc/bin/../lib/gcc/sparc-gaisler-elf/10.2.0/../../../../sparc-gaisler-elf/lib/leon3v7/soft/libc.a(lib_a-memset.o)
 .debug_loc     0x000000000000d060     0x2dea /home/fsw/rep/tasa/lib/bcc-2.2.3-gcc/bin/../lib/gcc/sparc-gaisler-elf/10.2.0/../../../../sparc-gaisler-elf/lib/leon3v7/soft/libc.a(lib_a-mprec.o)
 .debug_loc     0x000000000000fe4a      0x260 /home/fsw/rep/tasa/lib/bcc-2.2.3-gcc/bin/../lib/gcc/sparc-gaisler-elf/10.2.0/../../../../sparc-gaisler-elf/lib/leon3v7/soft/libc.a(lib_a-putc.o)
 .debug_loc     0x00000000000100aa      0xf1f /home/fsw/rep/tasa/lib/bcc-2.2.3-gcc/bin/../lib/gcc/sparc-gaisler-elf/10.2.0/../../../../sparc-gaisler-elf/lib/leon3v7/soft/libc.a(lib_a-reallocr.o)
 .debug_loc     0x0000000000010fc9      0x12f /home/fsw/rep/tasa/lib/bcc-2.2.3-gcc/bin/../lib/gcc/sparc-gaisler-elf/10.2.0/../../../../sparc-gaisler-elf/lib/leon3v7/soft/libc.a(lib_a-s_frexp.o)
 .debug_loc     0x00000000000110f8       0x86 /home/fsw/rep/tasa/lib/bcc-2.2.3-gcc/bin/../lib/gcc/sparc-gaisler-elf/10.2.0/../../../../sparc-gaisler-elf/lib/leon3v7/soft/libc.a(lib_a-sbrkr.o)
 .debug_loc     0x000000000001117e      0x295 /home/fsw/rep/tasa/lib/bcc-2.2.3-gcc/bin/../lib/gcc/sparc-gaisler-elf/10.2.0/../../../../sparc-gaisler-elf/lib/leon3v7/soft/libc.a(lib_a-stdio.o)
 .debug_loc     0x0000000000011413      0x292 /home/fsw/rep/tasa/lib/bcc-2.2.3-gcc/bin/../lib/gcc/sparc-gaisler-elf/10.2.0/../../../../sparc-gaisler-elf/lib/leon3v7/soft/libc.a(lib_a-strncpy.o)
 .debug_loc     0x00000000000116a5     0x3c72 /home/fsw/rep/tasa/lib/bcc-2.2.3-gcc/bin/../lib/gcc/sparc-gaisler-elf/10.2.0/../../../../sparc-gaisler-elf/lib/leon3v7/soft/libc.a(lib_a-vfiprintf.o)
 .debug_loc     0x0000000000015317      0x21b /home/fsw/rep/tasa/lib/bcc-2.2.3-gcc/bin/../lib/gcc/sparc-gaisler-elf/10.2.0/../../../../sparc-gaisler-elf/lib/leon3v7/soft/libc.a(lib_a-wbuf.o)
 .debug_loc     0x0000000000015532       0xca /home/fsw/rep/tasa/lib/bcc-2.2.3-gcc/bin/../lib/gcc/sparc-gaisler-elf/10.2.0/../../../../sparc-gaisler-elf/lib/leon3v7/soft/libc.a(lib_a-writer.o)
 .debug_loc     0x00000000000155fc      0x1df /home/fsw/rep/tasa/lib/bcc-2.2.3-gcc/bin/../lib/gcc/sparc-gaisler-elf/10.2.0/../../../../sparc-gaisler-elf/lib/leon3v7/soft/libc.a(lib_a-callocr.o)
 .debug_loc     0x00000000000157db       0x86 /home/fsw/rep/tasa/lib/bcc-2.2.3-gcc/bin/../lib/gcc/sparc-gaisler-elf/10.2.0/../../../../sparc-gaisler-elf/lib/leon3v7/soft/libc.a(lib_a-closer.o)
 .debug_loc     0x0000000000015861      0x1c7 /home/fsw/rep/tasa/lib/bcc-2.2.3-gcc/bin/../lib/gcc/sparc-gaisler-elf/10.2.0/../../../../sparc-gaisler-elf/lib/leon3v7/soft/libc.a(lib_a-fclose.o)
 .debug_loc     0x0000000000015a28      0x287 /home/fsw/rep/tasa/lib/bcc-2.2.3-gcc/bin/../lib/gcc/sparc-gaisler-elf/10.2.0/../../../../sparc-gaisler-elf/lib/leon3v7/soft/libc.a(lib_a-fputwc.o)
 .debug_loc     0x0000000000015caf       0xa8 /home/fsw/rep/tasa/lib/bcc-2.2.3-gcc/bin/../lib/gcc/sparc-gaisler-elf/10.2.0/../../../../sparc-gaisler-elf/lib/leon3v7/soft/libc.a(lib_a-fstatr.o)
 .debug_loc     0x0000000000015d57       0x86 /home/fsw/rep/tasa/lib/bcc-2.2.3-gcc/bin/../lib/gcc/sparc-gaisler-elf/10.2.0/../../../../sparc-gaisler-elf/lib/leon3v7/soft/libc.a(lib_a-isattyr.o)
 .debug_loc     0x0000000000015ddd      0x204 /home/fsw/rep/tasa/lib/bcc-2.2.3-gcc/bin/../lib/gcc/sparc-gaisler-elf/10.2.0/../../../../sparc-gaisler-elf/lib/leon3v7/soft/libc.a(lib_a-locale.o)
 .debug_loc     0x0000000000015fe1       0xca /home/fsw/rep/tasa/lib/bcc-2.2.3-gcc/bin/../lib/gcc/sparc-gaisler-elf/10.2.0/../../../../sparc-gaisler-elf/lib/leon3v7/soft/libc.a(lib_a-lseekr.o)
 .debug_loc     0x00000000000160ab      0x15d /home/fsw/rep/tasa/lib/bcc-2.2.3-gcc/bin/../lib/gcc/sparc-gaisler-elf/10.2.0/../../../../sparc-gaisler-elf/lib/leon3v7/soft/libc.a(lib_a-mbtowc_r.o)
 .debug_loc     0x0000000000016208       0xca /home/fsw/rep/tasa/lib/bcc-2.2.3-gcc/bin/../lib/gcc/sparc-gaisler-elf/10.2.0/../../../../sparc-gaisler-elf/lib/leon3v7/soft/libc.a(lib_a-readr.o)
 .debug_loc     0x00000000000162d2      0x26b /home/fsw/rep/tasa/lib/bcc-2.2.3-gcc/bin/../lib/gcc/sparc-gaisler-elf/10.2.0/../../../../sparc-gaisler-elf/lib/leon3v7/soft/libc.a(lib_a-reent.o)
 .debug_loc     0x000000000001653d       0xf6 /home/fsw/rep/tasa/lib/bcc-2.2.3-gcc/bin/../lib/gcc/sparc-gaisler-elf/10.2.0/../../../../sparc-gaisler-elf/lib/leon3v7/soft/libc.a(lib_a-strcmp.o)
 .debug_loc     0x0000000000016633      0x20f /home/fsw/rep/tasa/lib/bcc-2.2.3-gcc/bin/../lib/gcc/sparc-gaisler-elf/10.2.0/../../../../sparc-gaisler-elf/lib/leon3v7/soft/libc.a(lib_a-wcrtomb.o)
 .debug_loc     0x0000000000016842      0x129 /home/fsw/rep/tasa/lib/bcc-2.2.3-gcc/bin/../lib/gcc/sparc-gaisler-elf/10.2.0/../../../../sparc-gaisler-elf/lib/leon3v7/soft/libc.a(lib_a-wctomb_r.o)
 .debug_loc     0x000000000001696b      0x106 /home/fsw/rep/tasa/lib/bcc-2.2.3-gcc/bin/../sparc-gaisler-elf/bsp/leon3/leon3v7/soft/libbcc.a(read.c.o)
 .debug_loc     0x0000000000016a71       0x5c /home/fsw/rep/tasa/lib/bcc-2.2.3-gcc/bin/../sparc-gaisler-elf/bsp/leon3/leon3v7/soft/libbcc.a(sbrk.c.o)
 .debug_loc     0x0000000000016acd       0xdc /home/fsw/rep/tasa/lib/bcc-2.2.3-gcc/bin/../sparc-gaisler-elf/bsp/leon3/leon3v7/soft/libbcc.a(write.c.o)
 .debug_loc     0x0000000000016ba9       0xa7 /home/fsw/rep/tasa/lib/bcc-2.2.3-gcc/bin/../sparc-gaisler-elf/bsp/leon3/leon3v7/soft/libbcc.a(con_apbuart.c.o)
 .debug_loc     0x0000000000016c50      0x57f /home/fsw/rep/tasa/lib/bcc-2.2.3-gcc/bin/../lib/gcc/sparc-gaisler-elf/10.2.0/leon3v7/soft/libgcc.a(_udivdi3.o)
 .debug_loc     0x00000000000171cf      0x5d2 /home/fsw/rep/tasa/lib/bcc-2.2.3-gcc/bin/../lib/gcc/sparc-gaisler-elf/10.2.0/leon3v7/soft/libgcc.a(_umoddi3.o)
 .debug_loc     0x00000000000177a1     0x101a /home/fsw/rep/tasa/lib/bcc-2.2.3-gcc/bin/../lib/gcc/sparc-gaisler-elf/10.2.0/leon3v7/soft/libgcc.a(_addsub_df.o)
 .debug_loc     0x00000000000187bb      0x562 /home/fsw/rep/tasa/lib/bcc-2.2.3-gcc/bin/../lib/gcc/sparc-gaisler-elf/10.2.0/leon3v7/soft/libgcc.a(_mul_df.o)
 .debug_loc     0x0000000000018d1d      0x2a9 /home/fsw/rep/tasa/lib/bcc-2.2.3-gcc/bin/../lib/gcc/sparc-gaisler-elf/10.2.0/leon3v7/soft/libgcc.a(_div_df.o)
 .debug_loc     0x0000000000018fc6       0x98 /home/fsw/rep/tasa/lib/bcc-2.2.3-gcc/bin/../lib/gcc/sparc-gaisler-elf/10.2.0/leon3v7/soft/libgcc.a(_eq_df.o)
 .debug_loc     0x000000000001905e       0x98 /home/fsw/rep/tasa/lib/bcc-2.2.3-gcc/bin/../lib/gcc/sparc-gaisler-elf/10.2.0/leon3v7/soft/libgcc.a(_ne_df.o)
 .debug_loc     0x00000000000190f6       0x98 /home/fsw/rep/tasa/lib/bcc-2.2.3-gcc/bin/../lib/gcc/sparc-gaisler-elf/10.2.0/leon3v7/soft/libgcc.a(_gt_df.o)
 .debug_loc     0x000000000001918e       0x98 /home/fsw/rep/tasa/lib/bcc-2.2.3-gcc/bin/../lib/gcc/sparc-gaisler-elf/10.2.0/leon3v7/soft/libgcc.a(_lt_df.o)
 .debug_loc     0x0000000000019226       0x98 /home/fsw/rep/tasa/lib/bcc-2.2.3-gcc/bin/../lib/gcc/sparc-gaisler-elf/10.2.0/leon3v7/soft/libgcc.a(_le_df.o)
 .debug_loc     0x00000000000192be       0x98 /home/fsw/rep/tasa/lib/bcc-2.2.3-gcc/bin/../lib/gcc/sparc-gaisler-elf/10.2.0/leon3v7/soft/libgcc.a(_unord_df.o)
 .debug_loc     0x0000000000019356       0xff /home/fsw/rep/tasa/lib/bcc-2.2.3-gcc/bin/../lib/gcc/sparc-gaisler-elf/10.2.0/leon3v7/soft/libgcc.a(_si_to_df.o)
 .debug_loc     0x0000000000019455       0x6a /home/fsw/rep/tasa/lib/bcc-2.2.3-gcc/bin/../lib/gcc/sparc-gaisler-elf/10.2.0/leon3v7/soft/libgcc.a(_df_to_si.o)
 .debug_loc     0x00000000000194bf       0x86 /home/fsw/rep/tasa/lib/bcc-2.2.3-gcc/bin/../lib/gcc/sparc-gaisler-elf/10.2.0/leon3v7/soft/libgcc.a(_usi_to_df.o)
 .debug_loc     0x0000000000019545       0x6a /home/fsw/rep/tasa/lib/bcc-2.2.3-gcc/bin/../lib/gcc/sparc-gaisler-elf/10.2.0/leon3v7/soft/libgcc.a(_muldi3.o)
 .debug_loc     0x00000000000195af       0xbe /home/fsw/rep/tasa/lib/bcc-2.2.3-gcc/bin/../lib/gcc/sparc-gaisler-elf/10.2.0/leon3v7/soft/libgcc.a(_clzsi2.o)
 .debug_loc     0x000000000001966d      0x436 /home/fsw/rep/tasa/lib/bcc-2.2.3-gcc/bin/../lib/gcc/sparc-gaisler-elf/10.2.0/leon3v7/soft/libgcc.a(_pack_df.o)
 .debug_loc     0x0000000000019aa3       0x74 /home/fsw/rep/tasa/lib/bcc-2.2.3-gcc/bin/../lib/gcc/sparc-gaisler-elf/10.2.0/leon3v7/soft/libgcc.a(_unpack_df.o)
 .debug_loc     0x0000000000019b17       0xfd /home/fsw/rep/tasa/lib/bcc-2.2.3-gcc/bin/../lib/gcc/sparc-gaisler-elf/10.2.0/leon3v7/soft/libgcc.a(_fpcmp_parts_df.o)

.comment        0x0000000000000000       0x19
 .comment       0x0000000000000000       0x19 /home/fsw/rep/tasa/lib/bcc-2.2.3-gcc/bin/../lib/gcc/sparc-gaisler-elf/10.2.0/leon3v7/soft/crtbegin.o
                                         0x1a (size before relaxing)
 .comment       0x0000000000000019       0x1a /tmp/ccK7ILCi.o
 .comment       0x0000000000000019       0x1a /home/fsw/rep/tasa/lib/bcc-2.2.3-gcc/bin/../sparc-gaisler-elf/bsp/leon3/leon3v7/soft/libbcc.a(isr.c.o)
 .comment       0x0000000000000019       0x1a /home/fsw/rep/tasa/lib/bcc-2.2.3-gcc/bin/../sparc-gaisler-elf/bsp/leon3/leon3v7/soft/libbcc.a(int_nest.c.o)
 .comment       0x0000000000000019       0x1a /home/fsw/rep/tasa/lib/bcc-2.2.3-gcc/bin/../sparc-gaisler-elf/bsp/leon3/leon3v7/soft/libbcc.a(copy_data.c.o)
 .comment       0x0000000000000019       0x1a /home/fsw/rep/tasa/lib/bcc-2.2.3-gcc/bin/../sparc-gaisler-elf/bsp/leon3/leon3v7/soft/libbcc.a(argv.c.o)
 .comment       0x0000000000000019       0x1a /home/fsw/rep/tasa/lib/bcc-2.2.3-gcc/bin/../sparc-gaisler-elf/bsp/leon3/leon3v7/soft/libbcc.a(int_irqmp_get_source.c.o)
 .comment       0x0000000000000019       0x1a /home/fsw/rep/tasa/lib/bcc-2.2.3-gcc/bin/../sparc-gaisler-elf/bsp/leon3/leon3v7/soft/libbcc.a(int_irqmp_mp.c.o)
 .comment       0x0000000000000019       0x1a /home/fsw/rep/tasa/lib/bcc-2.2.3-gcc/bin/../sparc-gaisler-elf/bsp/leon3/leon3v7/soft/libbcc.a(int_irqmp_init.c.o)
 .comment       0x0000000000000019       0x1a /home/fsw/rep/tasa/lib/bcc-2.2.3-gcc/bin/../sparc-gaisler-elf/bsp/leon3/leon3v7/soft/libbcc.a(con_apbuart_init.c.o)
 .comment       0x0000000000000019       0x1a /home/fsw/rep/tasa/lib/bcc-2.2.3-gcc/bin/../sparc-gaisler-elf/bsp/leon3/leon3v7/soft/libbcc.a(timer_gptimer_init.c.o)
 .comment       0x0000000000000019       0x1a /home/fsw/rep/tasa/lib/bcc-2.2.3-gcc/bin/../sparc-gaisler-elf/bsp/leon3/leon3v7/soft/libbcc.a(ambapp.c.o)
 .comment       0x0000000000000019       0x1a /home/fsw/rep/tasa/lib/bcc-2.2.3-gcc/bin/../sparc-gaisler-elf/bsp/leon3/leon3v7/soft/libbcc.a(ambapp_findfirst_fn.c.o)
 .comment       0x0000000000000019       0x1a /home/fsw/rep/tasa/lib/bcc-2.2.3-gcc/bin/../sparc-gaisler-elf/bsp/leon3/leon3v7/soft/libbcc.a(int_irqmp_handle.c.o)
 .comment       0x0000000000000019       0x1a /home/fsw/rep/tasa/lib/bcc-2.2.3-gcc/bin/../sparc-gaisler-elf/bsp/leon3/leon3v7/soft/libbcc.a(con_handle.c.o)
 .comment       0x0000000000000019       0x1a /home/fsw/rep/tasa/lib/bcc-2.2.3-gcc/bin/../sparc-gaisler-elf/bsp/leon3/leon3v7/soft/libbcc.a(timer_handle.c.o)
 .comment       0x0000000000000019       0x1a /home/fsw/rep/tasa/lib/bcc-2.2.3-gcc/bin/../lib/gcc/sparc-gaisler-elf/10.2.0/../../../../sparc-gaisler-elf/lib/leon3v7/soft/libc.a(lib_a-atexit.o)
 .comment       0x0000000000000019       0x1a /home/fsw/rep/tasa/lib/bcc-2.2.3-gcc/bin/../lib/gcc/sparc-gaisler-elf/10.2.0/../../../../sparc-gaisler-elf/lib/leon3v7/soft/libc.a(lib_a-exit.o)
 .comment       0x0000000000000019       0x1a /home/fsw/rep/tasa/lib/bcc-2.2.3-gcc/bin/../lib/gcc/sparc-gaisler-elf/10.2.0/../../../../sparc-gaisler-elf/lib/leon3v7/soft/libc.a(lib_a-impure.o)
 .comment       0x0000000000000019       0x1a /home/fsw/rep/tasa/lib/bcc-2.2.3-gcc/bin/../lib/gcc/sparc-gaisler-elf/10.2.0/../../../../sparc-gaisler-elf/lib/leon3v7/soft/libc.a(lib_a-memcpy.o)
 .comment       0x0000000000000019       0x1a /home/fsw/rep/tasa/lib/bcc-2.2.3-gcc/bin/../lib/gcc/sparc-gaisler-elf/10.2.0/../../../../sparc-gaisler-elf/lib/leon3v7/soft/libc.a(lib_a-printf.o)
 .comment       0x0000000000000019       0x1a /home/fsw/rep/tasa/lib/bcc-2.2.3-gcc/bin/../lib/gcc/sparc-gaisler-elf/10.2.0/../../../../sparc-gaisler-elf/lib/leon3v7/soft/libc.a(lib_a-putchar.o)
 .comment       0x0000000000000019       0x1a /home/fsw/rep/tasa/lib/bcc-2.2.3-gcc/bin/../lib/gcc/sparc-gaisler-elf/10.2.0/../../../../sparc-gaisler-elf/lib/leon3v7/soft/libc.a(lib_a-puts.o)
 .comment       0x0000000000000019       0x1a /home/fsw/rep/tasa/lib/bcc-2.2.3-gcc/bin/../lib/gcc/sparc-gaisler-elf/10.2.0/../../../../sparc-gaisler-elf/lib/leon3v7/soft/libc.a(lib_a-strlen.o)
 .comment       0x0000000000000019       0x1a /home/fsw/rep/tasa/lib/bcc-2.2.3-gcc/bin/../lib/gcc/sparc-gaisler-elf/10.2.0/../../../../sparc-gaisler-elf/lib/leon3v7/soft/libc.a(lib_a-vfprintf.o)
 .comment       0x0000000000000019       0x1a /home/fsw/rep/tasa/lib/bcc-2.2.3-gcc/bin/../lib/gcc/sparc-gaisler-elf/10.2.0/../../../../sparc-gaisler-elf/lib/leon3v7/soft/libc.a(lib_a-wsetup.o)
 .comment       0x0000000000000019       0x1a /home/fsw/rep/tasa/lib/bcc-2.2.3-gcc/bin/../lib/gcc/sparc-gaisler-elf/10.2.0/../../../../sparc-gaisler-elf/lib/leon3v7/soft/libc.a(lib_a-__atexit.o)
 .comment       0x0000000000000019       0x1a /home/fsw/rep/tasa/lib/bcc-2.2.3-gcc/bin/../lib/gcc/sparc-gaisler-elf/10.2.0/../../../../sparc-gaisler-elf/lib/leon3v7/soft/libc.a(lib_a-__call_atexit.o)
 .comment       0x0000000000000019       0x1a /home/fsw/rep/tasa/lib/bcc-2.2.3-gcc/bin/../lib/gcc/sparc-gaisler-elf/10.2.0/../../../../sparc-gaisler-elf/lib/leon3v7/soft/libc.a(lib_a-dtoa.o)
 .comment       0x0000000000000019       0x1a /home/fsw/rep/tasa/lib/bcc-2.2.3-gcc/bin/../lib/gcc/sparc-gaisler-elf/10.2.0/../../../../sparc-gaisler-elf/lib/leon3v7/soft/libc.a(lib_a-fflush.o)
 .comment       0x0000000000000019       0x1a /home/fsw/rep/tasa/lib/bcc-2.2.3-gcc/bin/../lib/gcc/sparc-gaisler-elf/10.2.0/../../../../sparc-gaisler-elf/lib/leon3v7/soft/libc.a(lib_a-findfp.o)
 .comment       0x0000000000000019       0x1a /home/fsw/rep/tasa/lib/bcc-2.2.3-gcc/bin/../lib/gcc/sparc-gaisler-elf/10.2.0/../../../../sparc-gaisler-elf/lib/leon3v7/soft/libc.a(lib_a-freer.o)
 .comment       0x0000000000000019       0x1a /home/fsw/rep/tasa/lib/bcc-2.2.3-gcc/bin/../lib/gcc/sparc-gaisler-elf/10.2.0/../../../../sparc-gaisler-elf/lib/leon3v7/soft/libc.a(lib_a-fvwrite.o)
 .comment       0x0000000000000019       0x1a /home/fsw/rep/tasa/lib/bcc-2.2.3-gcc/bin/../lib/gcc/sparc-gaisler-elf/10.2.0/../../../../sparc-gaisler-elf/lib/leon3v7/soft/libc.a(lib_a-fwalk.o)
 .comment       0x0000000000000019       0x1a /home/fsw/rep/tasa/lib/bcc-2.2.3-gcc/bin/../lib/gcc/sparc-gaisler-elf/10.2.0/../../../../sparc-gaisler-elf/lib/leon3v7/soft/libc.a(lib_a-localeconv.o)
 .comment       0x0000000000000019       0x1a /home/fsw/rep/tasa/lib/bcc-2.2.3-gcc/bin/../lib/gcc/sparc-gaisler-elf/10.2.0/../../../../sparc-gaisler-elf/lib/leon3v7/soft/libc.a(lib_a-makebuf.o)
 .comment       0x0000000000000019       0x1a /home/fsw/rep/tasa/lib/bcc-2.2.3-gcc/bin/../lib/gcc/sparc-gaisler-elf/10.2.0/../../../../sparc-gaisler-elf/lib/leon3v7/soft/libc.a(lib_a-malloc.o)
 .comment       0x0000000000000019       0x1a /home/fsw/rep/tasa/lib/bcc-2.2.3-gcc/bin/../lib/gcc/sparc-gaisler-elf/10.2.0/../../../../sparc-gaisler-elf/lib/leon3v7/soft/libc.a(lib_a-mallocr.o)
 .comment       0x0000000000000019       0x1a /home/fsw/rep/tasa/lib/bcc-2.2.3-gcc/bin/../lib/gcc/sparc-gaisler-elf/10.2.0/../../../../sparc-gaisler-elf/lib/leon3v7/soft/libc.a(lib_a-memchr.o)
 .comment       0x0000000000000019       0x1a /home/fsw/rep/tasa/lib/bcc-2.2.3-gcc/bin/../lib/gcc/sparc-gaisler-elf/10.2.0/../../../../sparc-gaisler-elf/lib/leon3v7/soft/libc.a(lib_a-memmove.o)
 .comment       0x0000000000000019       0x1a /home/fsw/rep/tasa/lib/bcc-2.2.3-gcc/bin/../lib/gcc/sparc-gaisler-elf/10.2.0/../../../../sparc-gaisler-elf/lib/leon3v7/soft/libc.a(lib_a-memset.o)
 .comment       0x0000000000000019       0x1a /home/fsw/rep/tasa/lib/bcc-2.2.3-gcc/bin/../lib/gcc/sparc-gaisler-elf/10.2.0/../../../../sparc-gaisler-elf/lib/leon3v7/soft/libc.a(lib_a-mlock.o)
 .comment       0x0000000000000019       0x1a /home/fsw/rep/tasa/lib/bcc-2.2.3-gcc/bin/../lib/gcc/sparc-gaisler-elf/10.2.0/../../../../sparc-gaisler-elf/lib/leon3v7/soft/libc.a(lib_a-mprec.o)
 .comment       0x0000000000000019       0x1a /home/fsw/rep/tasa/lib/bcc-2.2.3-gcc/bin/../lib/gcc/sparc-gaisler-elf/10.2.0/../../../../sparc-gaisler-elf/lib/leon3v7/soft/libc.a(lib_a-putc.o)
 .comment       0x0000000000000019       0x1a /home/fsw/rep/tasa/lib/bcc-2.2.3-gcc/bin/../lib/gcc/sparc-gaisler-elf/10.2.0/../../../../sparc-gaisler-elf/lib/leon3v7/soft/libc.a(lib_a-reallocr.o)
 .comment       0x0000000000000019       0x1a /home/fsw/rep/tasa/lib/bcc-2.2.3-gcc/bin/../lib/gcc/sparc-gaisler-elf/10.2.0/../../../../sparc-gaisler-elf/lib/leon3v7/soft/libc.a(lib_a-s_frexp.o)
 .comment       0x0000000000000019       0x1a /home/fsw/rep/tasa/lib/bcc-2.2.3-gcc/bin/../lib/gcc/sparc-gaisler-elf/10.2.0/../../../../sparc-gaisler-elf/lib/leon3v7/soft/libc.a(lib_a-sbrkr.o)
 .comment       0x0000000000000019       0x1a /home/fsw/rep/tasa/lib/bcc-2.2.3-gcc/bin/../lib/gcc/sparc-gaisler-elf/10.2.0/../../../../sparc-gaisler-elf/lib/leon3v7/soft/libc.a(lib_a-stdio.o)
 .comment       0x0000000000000019       0x1a /home/fsw/rep/tasa/lib/bcc-2.2.3-gcc/bin/../lib/gcc/sparc-gaisler-elf/10.2.0/../../../../sparc-gaisler-elf/lib/leon3v7/soft/libc.a(lib_a-strncpy.o)
 .comment       0x0000000000000019       0x1a /home/fsw/rep/tasa/lib/bcc-2.2.3-gcc/bin/../lib/gcc/sparc-gaisler-elf/10.2.0/../../../../sparc-gaisler-elf/lib/leon3v7/soft/libc.a(lib_a-vfiprintf.o)
 .comment       0x0000000000000019       0x1a /home/fsw/rep/tasa/lib/bcc-2.2.3-gcc/bin/../lib/gcc/sparc-gaisler-elf/10.2.0/../../../../sparc-gaisler-elf/lib/leon3v7/soft/libc.a(lib_a-wbuf.o)
 .comment       0x0000000000000019       0x1a /home/fsw/rep/tasa/lib/bcc-2.2.3-gcc/bin/../lib/gcc/sparc-gaisler-elf/10.2.0/../../../../sparc-gaisler-elf/lib/leon3v7/soft/libc.a(lib_a-writer.o)
 .comment       0x0000000000000019       0x1a /home/fsw/rep/tasa/lib/bcc-2.2.3-gcc/bin/../lib/gcc/sparc-gaisler-elf/10.2.0/../../../../sparc-gaisler-elf/lib/leon3v7/soft/libc.a(lib_a-callocr.o)
 .comment       0x0000000000000019       0x1a /home/fsw/rep/tasa/lib/bcc-2.2.3-gcc/bin/../lib/gcc/sparc-gaisler-elf/10.2.0/../../../../sparc-gaisler-elf/lib/leon3v7/soft/libc.a(lib_a-closer.o)
 .comment       0x0000000000000019       0x1a /home/fsw/rep/tasa/lib/bcc-2.2.3-gcc/bin/../lib/gcc/sparc-gaisler-elf/10.2.0/../../../../sparc-gaisler-elf/lib/leon3v7/soft/libc.a(lib_a-fclose.o)
 .comment       0x0000000000000019       0x1a /home/fsw/rep/tasa/lib/bcc-2.2.3-gcc/bin/../lib/gcc/sparc-gaisler-elf/10.2.0/../../../../sparc-gaisler-elf/lib/leon3v7/soft/libc.a(lib_a-fputwc.o)
 .comment       0x0000000000000019       0x1a /home/fsw/rep/tasa/lib/bcc-2.2.3-gcc/bin/../lib/gcc/sparc-gaisler-elf/10.2.0/../../../../sparc-gaisler-elf/lib/leon3v7/soft/libc.a(lib_a-fstatr.o)
 .comment       0x0000000000000019       0x1a /home/fsw/rep/tasa/lib/bcc-2.2.3-gcc/bin/../lib/gcc/sparc-gaisler-elf/10.2.0/../../../../sparc-gaisler-elf/lib/leon3v7/soft/libc.a(lib_a-isattyr.o)
 .comment       0x0000000000000019       0x1a /home/fsw/rep/tasa/lib/bcc-2.2.3-gcc/bin/../lib/gcc/sparc-gaisler-elf/10.2.0/../../../../sparc-gaisler-elf/lib/leon3v7/soft/libc.a(lib_a-locale.o)
 .comment       0x0000000000000019       0x1a /home/fsw/rep/tasa/lib/bcc-2.2.3-gcc/bin/../lib/gcc/sparc-gaisler-elf/10.2.0/../../../../sparc-gaisler-elf/lib/leon3v7/soft/libc.a(lib_a-lseekr.o)
 .comment       0x0000000000000019       0x1a /home/fsw/rep/tasa/lib/bcc-2.2.3-gcc/bin/../lib/gcc/sparc-gaisler-elf/10.2.0/../../../../sparc-gaisler-elf/lib/leon3v7/soft/libc.a(lib_a-mbtowc_r.o)
 .comment       0x0000000000000019       0x1a /home/fsw/rep/tasa/lib/bcc-2.2.3-gcc/bin/../lib/gcc/sparc-gaisler-elf/10.2.0/../../../../sparc-gaisler-elf/lib/leon3v7/soft/libc.a(lib_a-readr.o)
 .comment       0x0000000000000019       0x1a /home/fsw/rep/tasa/lib/bcc-2.2.3-gcc/bin/../lib/gcc/sparc-gaisler-elf/10.2.0/../../../../sparc-gaisler-elf/lib/leon3v7/soft/libc.a(lib_a-reent.o)
 .comment       0x0000000000000019       0x1a /home/fsw/rep/tasa/lib/bcc-2.2.3-gcc/bin/../lib/gcc/sparc-gaisler-elf/10.2.0/../../../../sparc-gaisler-elf/lib/leon3v7/soft/libc.a(lib_a-strcmp.o)
 .comment       0x0000000000000019       0x1a /home/fsw/rep/tasa/lib/bcc-2.2.3-gcc/bin/../lib/gcc/sparc-gaisler-elf/10.2.0/../../../../sparc-gaisler-elf/lib/leon3v7/soft/libc.a(lib_a-wcrtomb.o)
 .comment       0x0000000000000019       0x1a /home/fsw/rep/tasa/lib/bcc-2.2.3-gcc/bin/../lib/gcc/sparc-gaisler-elf/10.2.0/../../../../sparc-gaisler-elf/lib/leon3v7/soft/libc.a(lib_a-wctomb_r.o)
 .comment       0x0000000000000019       0x1a /home/fsw/rep/tasa/lib/bcc-2.2.3-gcc/bin/../lib/gcc/sparc-gaisler-elf/10.2.0/../../../../sparc-gaisler-elf/lib/leon3v7/soft/libc.a(lib_a-ctype_.o)
 .comment       0x0000000000000019       0x1a /home/fsw/rep/tasa/lib/bcc-2.2.3-gcc/bin/../sparc-gaisler-elf/bsp/leon3/leon3v7/soft/libbcc.a(read.c.o)
 .comment       0x0000000000000019       0x1a /home/fsw/rep/tasa/lib/bcc-2.2.3-gcc/bin/../sparc-gaisler-elf/bsp/leon3/leon3v7/soft/libbcc.a(sbrk.c.o)
 .comment       0x0000000000000019       0x1a /home/fsw/rep/tasa/lib/bcc-2.2.3-gcc/bin/../sparc-gaisler-elf/bsp/leon3/leon3v7/soft/libbcc.a(heap.c.o)
 .comment       0x0000000000000019       0x1a /home/fsw/rep/tasa/lib/bcc-2.2.3-gcc/bin/../sparc-gaisler-elf/bsp/leon3/leon3v7/soft/libbcc.a(write.c.o)
 .comment       0x0000000000000019       0x1a /home/fsw/rep/tasa/lib/bcc-2.2.3-gcc/bin/../sparc-gaisler-elf/bsp/leon3/leon3v7/soft/libbcc.a(con_apbuart.c.o)
 .comment       0x0000000000000019       0x1a /home/fsw/rep/tasa/lib/bcc-2.2.3-gcc/bin/../lib/gcc/sparc-gaisler-elf/10.2.0/leon3v7/soft/libgcc.a(_udivdi3.o)
 .comment       0x0000000000000019       0x1a /home/fsw/rep/tasa/lib/bcc-2.2.3-gcc/bin/../lib/gcc/sparc-gaisler-elf/10.2.0/leon3v7/soft/libgcc.a(_umoddi3.o)
 .comment       0x0000000000000019       0x1a /home/fsw/rep/tasa/lib/bcc-2.2.3-gcc/bin/../lib/gcc/sparc-gaisler-elf/10.2.0/leon3v7/soft/libgcc.a(_addsub_df.o)
 .comment       0x0000000000000019       0x1a /home/fsw/rep/tasa/lib/bcc-2.2.3-gcc/bin/../lib/gcc/sparc-gaisler-elf/10.2.0/leon3v7/soft/libgcc.a(_mul_df.o)
 .comment       0x0000000000000019       0x1a /home/fsw/rep/tasa/lib/bcc-2.2.3-gcc/bin/../lib/gcc/sparc-gaisler-elf/10.2.0/leon3v7/soft/libgcc.a(_div_df.o)
 .comment       0x0000000000000019       0x1a /home/fsw/rep/tasa/lib/bcc-2.2.3-gcc/bin/../lib/gcc/sparc-gaisler-elf/10.2.0/leon3v7/soft/libgcc.a(_eq_df.o)
 .comment       0x0000000000000019       0x1a /home/fsw/rep/tasa/lib/bcc-2.2.3-gcc/bin/../lib/gcc/sparc-gaisler-elf/10.2.0/leon3v7/soft/libgcc.a(_ne_df.o)
 .comment       0x0000000000000019       0x1a /home/fsw/rep/tasa/lib/bcc-2.2.3-gcc/bin/../lib/gcc/sparc-gaisler-elf/10.2.0/leon3v7/soft/libgcc.a(_gt_df.o)
 .comment       0x0000000000000019       0x1a /home/fsw/rep/tasa/lib/bcc-2.2.3-gcc/bin/../lib/gcc/sparc-gaisler-elf/10.2.0/leon3v7/soft/libgcc.a(_lt_df.o)
 .comment       0x0000000000000019       0x1a /home/fsw/rep/tasa/lib/bcc-2.2.3-gcc/bin/../lib/gcc/sparc-gaisler-elf/10.2.0/leon3v7/soft/libgcc.a(_le_df.o)
 .comment       0x0000000000000019       0x1a /home/fsw/rep/tasa/lib/bcc-2.2.3-gcc/bin/../lib/gcc/sparc-gaisler-elf/10.2.0/leon3v7/soft/libgcc.a(_unord_df.o)
 .comment       0x0000000000000019       0x1a /home/fsw/rep/tasa/lib/bcc-2.2.3-gcc/bin/../lib/gcc/sparc-gaisler-elf/10.2.0/leon3v7/soft/libgcc.a(_si_to_df.o)
 .comment       0x0000000000000019       0x1a /home/fsw/rep/tasa/lib/bcc-2.2.3-gcc/bin/../lib/gcc/sparc-gaisler-elf/10.2.0/leon3v7/soft/libgcc.a(_df_to_si.o)
 .comment       0x0000000000000019       0x1a /home/fsw/rep/tasa/lib/bcc-2.2.3-gcc/bin/../lib/gcc/sparc-gaisler-elf/10.2.0/leon3v7/soft/libgcc.a(_thenan_df.o)
 .comment       0x0000000000000019       0x1a /home/fsw/rep/tasa/lib/bcc-2.2.3-gcc/bin/../lib/gcc/sparc-gaisler-elf/10.2.0/leon3v7/soft/libgcc.a(_usi_to_df.o)
 .comment       0x0000000000000019       0x1a /home/fsw/rep/tasa/lib/bcc-2.2.3-gcc/bin/../lib/gcc/sparc-gaisler-elf/10.2.0/leon3v7/soft/libgcc.a(_muldi3.o)
 .comment       0x0000000000000019       0x1a /home/fsw/rep/tasa/lib/bcc-2.2.3-gcc/bin/../lib/gcc/sparc-gaisler-elf/10.2.0/leon3v7/soft/libgcc.a(_clz.o)
 .comment       0x0000000000000019       0x1a /home/fsw/rep/tasa/lib/bcc-2.2.3-gcc/bin/../lib/gcc/sparc-gaisler-elf/10.2.0/leon3v7/soft/libgcc.a(_clzsi2.o)
 .comment       0x0000000000000019       0x1a /home/fsw/rep/tasa/lib/bcc-2.2.3-gcc/bin/../lib/gcc/sparc-gaisler-elf/10.2.0/leon3v7/soft/libgcc.a(_pack_df.o)
 .comment       0x0000000000000019       0x1a /home/fsw/rep/tasa/lib/bcc-2.2.3-gcc/bin/../lib/gcc/sparc-gaisler-elf/10.2.0/leon3v7/soft/libgcc.a(_unpack_df.o)
 .comment       0x0000000000000019       0x1a /home/fsw/rep/tasa/lib/bcc-2.2.3-gcc/bin/../lib/gcc/sparc-gaisler-elf/10.2.0/leon3v7/soft/libgcc.a(_fpcmp_parts_df.o)
 .comment       0x0000000000000019       0x1a /home/fsw/rep/tasa/lib/bcc-2.2.3-gcc/bin/../lib/gcc/sparc-gaisler-elf/10.2.0/leon3v7/soft/crtend.o

.debug_macinfo
 *(.debug_macinfo)

.debug_weaknames
 *(.debug_weaknames)

.debug_funcnames
 *(.debug_funcnames)

.debug_typenames
 *(.debug_typenames)

.debug_varnames
 *(.debug_varnames)
LOAD /home/fsw/rep/tasa/lib/bcc-2.2.3-gcc/bin/../lib/gcc/sparc-gaisler-elf/10.2.0/leon3v7/soft/libgcc.a
START GROUP
LOAD /home/fsw/rep/tasa/lib/bcc-2.2.3-gcc/bin/../sparc-gaisler-elf/bsp/leon3/leon3v7/soft/libbcc.a
LOAD /home/fsw/rep/tasa/lib/bcc-2.2.3-gcc/bin/../lib/gcc/sparc-gaisler-elf/10.2.0/leon3v7/soft/libatomic.a
LOAD /home/fsw/rep/tasa/lib/bcc-2.2.3-gcc/bin/../lib/gcc/sparc-gaisler-elf/10.2.0/../../../../sparc-gaisler-elf/lib/leon3v7/soft/libc.a
END GROUP
LOAD /home/fsw/rep/tasa/lib/bcc-2.2.3-gcc/bin/../lib/gcc/sparc-gaisler-elf/10.2.0/leon3v7/soft/libgcc.a
LOAD /home/fsw/rep/tasa/lib/bcc-2.2.3-gcc/bin/../lib/gcc/sparc-gaisler-elf/10.2.0/leon3v7/soft/crtend.o
LOAD /home/fsw/rep/tasa/lib/bcc-2.2.3-gcc/bin/../lib/gcc/sparc-gaisler-elf/10.2.0/leon3v7/soft/crtn.o
OUTPUT(bin/leon3/leon3v7/soft/bcc_amp0.elf elf32-sparc)

.debug_ranges   0x0000000000000000     0x1b58
 .debug_ranges  0x0000000000000000       0x10 /tmp/ccK7ILCi.o
 .debug_ranges  0x0000000000000010       0x88 /home/fsw/rep/tasa/lib/bcc-2.2.3-gcc/bin/../sparc-gaisler-elf/bsp/leon3/leon3v7/soft/libbcc.a(int_irqmp_init.c.o)
 .debug_ranges  0x0000000000000098      0x170 /home/fsw/rep/tasa/lib/bcc-2.2.3-gcc/bin/../sparc-gaisler-elf/bsp/leon3/leon3v7/soft/libbcc.a(ambapp.c.o)
 .debug_ranges  0x0000000000000208       0x78 /home/fsw/rep/tasa/lib/bcc-2.2.3-gcc/bin/../lib/gcc/sparc-gaisler-elf/10.2.0/../../../../sparc-gaisler-elf/lib/leon3v7/soft/libc.a(lib_a-puts.o)
 .debug_ranges  0x0000000000000280      0x2b0 /home/fsw/rep/tasa/lib/bcc-2.2.3-gcc/bin/../lib/gcc/sparc-gaisler-elf/10.2.0/../../../../sparc-gaisler-elf/lib/leon3v7/soft/libc.a(lib_a-vfprintf.o)
 .debug_ranges  0x0000000000000530       0x28 /home/fsw/rep/tasa/lib/bcc-2.2.3-gcc/bin/../lib/gcc/sparc-gaisler-elf/10.2.0/../../../../sparc-gaisler-elf/lib/leon3v7/soft/libc.a(lib_a-wsetup.o)
 .debug_ranges  0x0000000000000558       0x60 /home/fsw/rep/tasa/lib/bcc-2.2.3-gcc/bin/../lib/gcc/sparc-gaisler-elf/10.2.0/../../../../sparc-gaisler-elf/lib/leon3v7/soft/libc.a(lib_a-__call_atexit.o)
 .debug_ranges  0x00000000000005b8       0x18 /home/fsw/rep/tasa/lib/bcc-2.2.3-gcc/bin/../lib/gcc/sparc-gaisler-elf/10.2.0/../../../../sparc-gaisler-elf/lib/leon3v7/soft/libc.a(lib_a-dtoa.o)
 .debug_ranges  0x00000000000005d0       0xa8 /home/fsw/rep/tasa/lib/bcc-2.2.3-gcc/bin/../lib/gcc/sparc-gaisler-elf/10.2.0/../../../../sparc-gaisler-elf/lib/leon3v7/soft/libc.a(lib_a-fflush.o)
 .debug_ranges  0x0000000000000678       0xe8 /home/fsw/rep/tasa/lib/bcc-2.2.3-gcc/bin/../lib/gcc/sparc-gaisler-elf/10.2.0/../../../../sparc-gaisler-elf/lib/leon3v7/soft/libc.a(lib_a-findfp.o)
 .debug_ranges  0x0000000000000760       0x38 /home/fsw/rep/tasa/lib/bcc-2.2.3-gcc/bin/../lib/gcc/sparc-gaisler-elf/10.2.0/../../../../sparc-gaisler-elf/lib/leon3v7/soft/libc.a(lib_a-fvwrite.o)
 .debug_ranges  0x0000000000000798       0x70 /home/fsw/rep/tasa/lib/bcc-2.2.3-gcc/bin/../lib/gcc/sparc-gaisler-elf/10.2.0/../../../../sparc-gaisler-elf/lib/leon3v7/soft/libc.a(lib_a-localeconv.o)
 .debug_ranges  0x0000000000000808       0x50 /home/fsw/rep/tasa/lib/bcc-2.2.3-gcc/bin/../lib/gcc/sparc-gaisler-elf/10.2.0/../../../../sparc-gaisler-elf/lib/leon3v7/soft/libc.a(lib_a-makebuf.o)
 .debug_ranges  0x0000000000000858       0x38 /home/fsw/rep/tasa/lib/bcc-2.2.3-gcc/bin/../lib/gcc/sparc-gaisler-elf/10.2.0/../../../../sparc-gaisler-elf/lib/leon3v7/soft/libc.a(lib_a-mallocr.o)
 .debug_ranges  0x0000000000000890      0x380 /home/fsw/rep/tasa/lib/bcc-2.2.3-gcc/bin/../lib/gcc/sparc-gaisler-elf/10.2.0/../../../../sparc-gaisler-elf/lib/leon3v7/soft/libc.a(lib_a-mprec.o)
 .debug_ranges  0x0000000000000c10       0x70 /home/fsw/rep/tasa/lib/bcc-2.2.3-gcc/bin/../lib/gcc/sparc-gaisler-elf/10.2.0/../../../../sparc-gaisler-elf/lib/leon3v7/soft/libc.a(lib_a-putc.o)
 .debug_ranges  0x0000000000000c80      0x178 /home/fsw/rep/tasa/lib/bcc-2.2.3-gcc/bin/../lib/gcc/sparc-gaisler-elf/10.2.0/../../../../sparc-gaisler-elf/lib/leon3v7/soft/libc.a(lib_a-reallocr.o)
 .debug_ranges  0x0000000000000df8       0x30 /home/fsw/rep/tasa/lib/bcc-2.2.3-gcc/bin/../lib/gcc/sparc-gaisler-elf/10.2.0/../../../../sparc-gaisler-elf/lib/leon3v7/soft/libc.a(lib_a-s_frexp.o)
 .debug_ranges  0x0000000000000e28      0x710 /home/fsw/rep/tasa/lib/bcc-2.2.3-gcc/bin/../lib/gcc/sparc-gaisler-elf/10.2.0/../../../../sparc-gaisler-elf/lib/leon3v7/soft/libc.a(lib_a-vfiprintf.o)
 .debug_ranges  0x0000000000001538       0x80 /home/fsw/rep/tasa/lib/bcc-2.2.3-gcc/bin/../lib/gcc/sparc-gaisler-elf/10.2.0/../../../../sparc-gaisler-elf/lib/leon3v7/soft/libc.a(lib_a-wbuf.o)
 .debug_ranges  0x00000000000015b8       0x38 /home/fsw/rep/tasa/lib/bcc-2.2.3-gcc/bin/../lib/gcc/sparc-gaisler-elf/10.2.0/../../../../sparc-gaisler-elf/lib/leon3v7/soft/libc.a(lib_a-callocr.o)
 .debug_ranges  0x00000000000015f0       0x80 /home/fsw/rep/tasa/lib/bcc-2.2.3-gcc/bin/../lib/gcc/sparc-gaisler-elf/10.2.0/../../../../sparc-gaisler-elf/lib/leon3v7/soft/libc.a(lib_a-fclose.o)
 .debug_ranges  0x0000000000001670       0x30 /home/fsw/rep/tasa/lib/bcc-2.2.3-gcc/bin/../lib/gcc/sparc-gaisler-elf/10.2.0/../../../../sparc-gaisler-elf/lib/leon3v7/soft/libc.a(lib_a-fputwc.o)
 .debug_ranges  0x00000000000016a0       0x48 /home/fsw/rep/tasa/lib/bcc-2.2.3-gcc/bin/../lib/gcc/sparc-gaisler-elf/10.2.0/../../../../sparc-gaisler-elf/lib/leon3v7/soft/libc.a(lib_a-locale.o)
 .debug_ranges  0x00000000000016e8       0x18 /home/fsw/rep/tasa/lib/bcc-2.2.3-gcc/bin/../lib/gcc/sparc-gaisler-elf/10.2.0/../../../../sparc-gaisler-elf/lib/leon3v7/soft/libc.a(lib_a-mbtowc_r.o)
 .debug_ranges  0x0000000000001700       0x18 /home/fsw/rep/tasa/lib/bcc-2.2.3-gcc/bin/../lib/gcc/sparc-gaisler-elf/10.2.0/../../../../sparc-gaisler-elf/lib/leon3v7/soft/libc.a(lib_a-wcrtomb.o)
 .debug_ranges  0x0000000000001718       0x18 /home/fsw/rep/tasa/lib/bcc-2.2.3-gcc/bin/../lib/gcc/sparc-gaisler-elf/10.2.0/../../../../sparc-gaisler-elf/lib/leon3v7/soft/libc.a(lib_a-wctomb_r.o)
 .debug_ranges  0x0000000000001730       0x18 /home/fsw/rep/tasa/lib/bcc-2.2.3-gcc/bin/../sparc-gaisler-elf/bsp/leon3/leon3v7/soft/libbcc.a(read.c.o)
 .debug_ranges  0x0000000000001748       0x18 /home/fsw/rep/tasa/lib/bcc-2.2.3-gcc/bin/../sparc-gaisler-elf/bsp/leon3/leon3v7/soft/libbcc.a(write.c.o)
 .debug_ranges  0x0000000000001760       0x50 /home/fsw/rep/tasa/lib/bcc-2.2.3-gcc/bin/../lib/gcc/sparc-gaisler-elf/10.2.0/leon3v7/soft/libgcc.a(_udivdi3.o)
 .debug_ranges  0x00000000000017b0       0x48 /home/fsw/rep/tasa/lib/bcc-2.2.3-gcc/bin/../lib/gcc/sparc-gaisler-elf/10.2.0/leon3v7/soft/libgcc.a(_umoddi3.o)
 .debug_ranges  0x00000000000017f8      0x170 /home/fsw/rep/tasa/lib/bcc-2.2.3-gcc/bin/../lib/gcc/sparc-gaisler-elf/10.2.0/leon3v7/soft/libgcc.a(_addsub_df.o)
 .debug_ranges  0x0000000000001968       0x80 /home/fsw/rep/tasa/lib/bcc-2.2.3-gcc/bin/../lib/gcc/sparc-gaisler-elf/10.2.0/leon3v7/soft/libgcc.a(_mul_df.o)
 .debug_ranges  0x00000000000019e8       0x58 /home/fsw/rep/tasa/lib/bcc-2.2.3-gcc/bin/../lib/gcc/sparc-gaisler-elf/10.2.0/leon3v7/soft/libgcc.a(_div_df.o)
 .debug_ranges  0x0000000000001a40       0x38 /home/fsw/rep/tasa/lib/bcc-2.2.3-gcc/bin/../lib/gcc/sparc-gaisler-elf/10.2.0/leon3v7/soft/libgcc.a(_si_to_df.o)
 .debug_ranges  0x0000000000001a78       0x18 /home/fsw/rep/tasa/lib/bcc-2.2.3-gcc/bin/../lib/gcc/sparc-gaisler-elf/10.2.0/leon3v7/soft/libgcc.a(_usi_to_df.o)
 .debug_ranges  0x0000000000001a90       0x18 /home/fsw/rep/tasa/lib/bcc-2.2.3-gcc/bin/../lib/gcc/sparc-gaisler-elf/10.2.0/leon3v7/soft/libgcc.a(_muldi3.o)
 .debug_ranges  0x0000000000001aa8       0x30 /home/fsw/rep/tasa/lib/bcc-2.2.3-gcc/bin/../lib/gcc/sparc-gaisler-elf/10.2.0/leon3v7/soft/libgcc.a(_clzsi2.o)
 .debug_ranges  0x0000000000001ad8       0x80 /home/fsw/rep/tasa/lib/bcc-2.2.3-gcc/bin/../lib/gcc/sparc-gaisler-elf/10.2.0/leon3v7/soft/libgcc.a(_pack_df.o)
