Archive member included to satisfy reference by file (symbol)

/home/fsw/rep/tasa/lib/bcc-2.2.3-gcc/bin/../sparc-gaisler-elf/bsp/leon3/leon/mfix-ut699/soft/flat/libbcc.a(reset_trap_mvt.S.o)
                              /home/fsw/rep/tasa/lib/bcc-2.2.3-gcc/bin/../sparc-gaisler-elf/bsp/leon3/leon/mfix-ut699/soft/flat/trap_table_mvt_tn0018.S.o (__bcc_trap_reset_mvt)
/home/fsw/rep/tasa/lib/bcc-2.2.3-gcc/bin/../sparc-gaisler-elf/bsp/leon3/leon/mfix-ut699/soft/flat/libbcc.a(sw_trap_set_pil.S.o)
                              /home/fsw/rep/tasa/lib/bcc-2.2.3-gcc/bin/../sparc-gaisler-elf/bsp/leon3/leon/mfix-ut699/soft/flat/trap_table_mvt_tn0018.S.o (__bcc_trap_sw_set_pil)
/home/fsw/rep/tasa/lib/bcc-2.2.3-gcc/bin/../sparc-gaisler-elf/bsp/leon3/leon/mfix-ut699/soft/flat/libbcc.a(init.S.o)
                              /home/fsw/rep/tasa/lib/bcc-2.2.3-gcc/bin/../sparc-gaisler-elf/bsp/leon3/leon/mfix-ut699/soft/flat/libbcc.a(reset_trap_mvt.S.o) (__bcc_init40)
/home/fsw/rep/tasa/lib/bcc-2.2.3-gcc/bin/../sparc-gaisler-elf/bsp/leon3/leon/mfix-ut699/soft/flat/libbcc.a(leon_info.S.o)
                              /home/fsw/rep/tasa/lib/bcc-2.2.3-gcc/bin/../sparc-gaisler-elf/bsp/leon3/leon/mfix-ut699/soft/flat/crt0.S.o (__bcc_get_leon_info)
/home/fsw/rep/tasa/lib/bcc-2.2.3-gcc/bin/../sparc-gaisler-elf/bsp/leon3/leon/mfix-ut699/soft/flat/libbcc.a(dwzero.S.o)
                              /home/fsw/rep/tasa/lib/bcc-2.2.3-gcc/bin/../sparc-gaisler-elf/bsp/leon3/leon/mfix-ut699/soft/flat/crt0.S.o (bcc_dwzero)
/home/fsw/rep/tasa/lib/bcc-2.2.3-gcc/bin/../sparc-gaisler-elf/bsp/leon3/leon/mfix-ut699/soft/flat/libbcc.a(copy_data.c.o)
                              /home/fsw/rep/tasa/lib/bcc-2.2.3-gcc/bin/../sparc-gaisler-elf/bsp/leon3/leon/mfix-ut699/soft/flat/crt0.S.o (__bcc_copy_data)
/home/fsw/rep/tasa/lib/bcc-2.2.3-gcc/bin/../sparc-gaisler-elf/bsp/leon3/leon/mfix-ut699/soft/flat/libbcc.a(argv.c.o)
                              /home/fsw/rep/tasa/lib/bcc-2.2.3-gcc/bin/../sparc-gaisler-elf/bsp/leon3/leon/mfix-ut699/soft/flat/crt0.S.o (__bcc_argvp)
/home/fsw/rep/tasa/lib/bcc-2.2.3-gcc/bin/../sparc-gaisler-elf/bsp/leon3/leon/mfix-ut699/soft/flat/libbcc.a(interrupt_trap_flat_tn0018.S.o)
                              /home/fsw/rep/tasa/lib/bcc-2.2.3-gcc/bin/../sparc-gaisler-elf/bsp/leon3/leon/mfix-ut699/soft/flat/trap_table_mvt_tn0018.S.o (__bcc_trap_interrupt_flat_tn0018)
/home/fsw/rep/tasa/lib/bcc-2.2.3-gcc/bin/../sparc-gaisler-elf/bsp/leon3/leon/mfix-ut699/soft/flat/libbcc.a(int_irqmp_get_source.c.o)
                              /home/fsw/rep/tasa/lib/bcc-2.2.3-gcc/bin/../sparc-gaisler-elf/bsp/leon3/leon/mfix-ut699/soft/flat/libbcc.a(interrupt_trap_flat_tn0018.S.o) (__bcc_int_get_source)
/home/fsw/rep/tasa/lib/bcc-2.2.3-gcc/bin/../sparc-gaisler-elf/bsp/leon3/leon/mfix-ut699/soft/flat/libbcc.a(int_irqmp_mp.c.o)
                              /tmp/ccK56PDv.o (bcc_get_cpu_count)
/home/fsw/rep/tasa/lib/bcc-2.2.3-gcc/bin/../sparc-gaisler-elf/bsp/leon3/leon/mfix-ut699/soft/flat/libbcc.a(int_irqmp_init.c.o)
                              /home/fsw/rep/tasa/lib/bcc-2.2.3-gcc/bin/../sparc-gaisler-elf/bsp/leon3/leon/mfix-ut699/soft/flat/crt0.S.o (__bcc_int_init)
/home/fsw/rep/tasa/lib/bcc-2.2.3-gcc/bin/../sparc-gaisler-elf/bsp/leon3/leon/mfix-ut699/soft/flat/libbcc.a(con_apbuart_init.c.o)
                              /home/fsw/rep/tasa/lib/bcc-2.2.3-gcc/bin/../sparc-gaisler-elf/bsp/leon3/leon/mfix-ut699/soft/flat/crt0.S.o (__bcc_con_init)
/home/fsw/rep/tasa/lib/bcc-2.2.3-gcc/bin/../sparc-gaisler-elf/bsp/leon3/leon/mfix-ut699/soft/flat/libbcc.a(timer_gptimer_init.c.o)
                              /home/fsw/rep/tasa/lib/bcc-2.2.3-gcc/bin/../sparc-gaisler-elf/bsp/leon3/leon/mfix-ut699/soft/flat/crt0.S.o (__bcc_timer_init)
/home/fsw/rep/tasa/lib/bcc-2.2.3-gcc/bin/../sparc-gaisler-elf/bsp/leon3/leon/mfix-ut699/soft/flat/libbcc.a(isr.c.o)
                              /home/fsw/rep/tasa/lib/bcc-2.2.3-gcc/bin/../sparc-gaisler-elf/bsp/leon3/leon/mfix-ut699/soft/flat/libbcc.a(interrupt_trap_flat_tn0018.S.o) (__bcc_isr_list)
/home/fsw/rep/tasa/lib/bcc-2.2.3-gcc/bin/../sparc-gaisler-elf/bsp/leon3/leon/mfix-ut699/soft/flat/libbcc.a(int_nest.c.o)
                              /home/fsw/rep/tasa/lib/bcc-2.2.3-gcc/bin/../sparc-gaisler-elf/bsp/leon3/leon/mfix-ut699/soft/flat/libbcc.a(interrupt_trap_flat_tn0018.S.o) (__bcc_int_nest)
/home/fsw/rep/tasa/lib/bcc-2.2.3-gcc/bin/../sparc-gaisler-elf/bsp/leon3/leon/mfix-ut699/soft/flat/libbcc.a(ambapp.c.o)
                              /home/fsw/rep/tasa/lib/bcc-2.2.3-gcc/bin/../sparc-gaisler-elf/bsp/leon3/leon/mfix-ut699/soft/flat/libbcc.a(int_irqmp_init.c.o) (ambapp_visit)
/home/fsw/rep/tasa/lib/bcc-2.2.3-gcc/bin/../sparc-gaisler-elf/bsp/leon3/leon/mfix-ut699/soft/flat/libbcc.a(ambapp_findfirst_fn.c.o)
                              /home/fsw/rep/tasa/lib/bcc-2.2.3-gcc/bin/../sparc-gaisler-elf/bsp/leon3/leon/mfix-ut699/soft/flat/libbcc.a(int_irqmp_init.c.o) (ambapp_findfirst_fn)
/home/fsw/rep/tasa/lib/bcc-2.2.3-gcc/bin/../sparc-gaisler-elf/bsp/leon3/leon/mfix-ut699/soft/flat/libbcc.a(int_irqmp_handle.c.o)
                              /home/fsw/rep/tasa/lib/bcc-2.2.3-gcc/bin/../sparc-gaisler-elf/bsp/leon3/leon/mfix-ut699/soft/flat/libbcc.a(int_irqmp_init.c.o) (__bcc_int_irqmp_nts)
/home/fsw/rep/tasa/lib/bcc-2.2.3-gcc/bin/../sparc-gaisler-elf/bsp/leon3/leon/mfix-ut699/soft/flat/libbcc.a(con_handle.c.o)
                              /home/fsw/rep/tasa/lib/bcc-2.2.3-gcc/bin/../sparc-gaisler-elf/bsp/leon3/leon/mfix-ut699/soft/flat/libbcc.a(con_apbuart_init.c.o) (__bcc_con_handle)
/home/fsw/rep/tasa/lib/bcc-2.2.3-gcc/bin/../sparc-gaisler-elf/bsp/leon3/leon/mfix-ut699/soft/flat/libbcc.a(timer_handle.c.o)
                              /home/fsw/rep/tasa/lib/bcc-2.2.3-gcc/bin/../sparc-gaisler-elf/bsp/leon3/leon/mfix-ut699/soft/flat/libbcc.a(timer_gptimer_init.c.o) (__bcc_timer_interrupt)
/home/fsw/rep/tasa/lib/bcc-2.2.3-gcc/bin/../lib/gcc/sparc-gaisler-elf/10.2.0/../../../../sparc-gaisler-elf/lib/leon/mfix-ut699/soft/flat/libc.a(lib_a-atexit.o)
                              /home/fsw/rep/tasa/lib/bcc-2.2.3-gcc/bin/../sparc-gaisler-elf/bsp/leon3/leon/mfix-ut699/soft/flat/crt0.S.o (atexit)
/home/fsw/rep/tasa/lib/bcc-2.2.3-gcc/bin/../lib/gcc/sparc-gaisler-elf/10.2.0/../../../../sparc-gaisler-elf/lib/leon/mfix-ut699/soft/flat/libc.a(lib_a-exit.o)
                              /home/fsw/rep/tasa/lib/bcc-2.2.3-gcc/bin/../sparc-gaisler-elf/bsp/leon3/leon/mfix-ut699/soft/flat/crt0.S.o (exit)
/home/fsw/rep/tasa/lib/bcc-2.2.3-gcc/bin/../lib/gcc/sparc-gaisler-elf/10.2.0/../../../../sparc-gaisler-elf/lib/leon/mfix-ut699/soft/flat/libc.a(lib_a-impure.o)
                              /home/fsw/rep/tasa/lib/bcc-2.2.3-gcc/bin/../lib/gcc/sparc-gaisler-elf/10.2.0/../../../../sparc-gaisler-elf/lib/leon/mfix-ut699/soft/flat/libc.a(lib_a-exit.o) (_global_impure_ptr)
/home/fsw/rep/tasa/lib/bcc-2.2.3-gcc/bin/../lib/gcc/sparc-gaisler-elf/10.2.0/../../../../sparc-gaisler-elf/lib/leon/mfix-ut699/soft/flat/libc.a(lib_a-memcpy.o)
                              /home/fsw/rep/tasa/lib/bcc-2.2.3-gcc/bin/../sparc-gaisler-elf/bsp/leon3/leon/mfix-ut699/soft/flat/libbcc.a(ambapp_findfirst_fn.c.o) (memcpy)
/home/fsw/rep/tasa/lib/bcc-2.2.3-gcc/bin/../lib/gcc/sparc-gaisler-elf/10.2.0/../../../../sparc-gaisler-elf/lib/leon/mfix-ut699/soft/flat/libc.a(lib_a-printf.o)
                              /tmp/ccK56PDv.o (printf)
/home/fsw/rep/tasa/lib/bcc-2.2.3-gcc/bin/../lib/gcc/sparc-gaisler-elf/10.2.0/../../../../sparc-gaisler-elf/lib/leon/mfix-ut699/soft/flat/libc.a(lib_a-putchar.o)
                              /tmp/ccK56PDv.o (putchar)
/home/fsw/rep/tasa/lib/bcc-2.2.3-gcc/bin/../lib/gcc/sparc-gaisler-elf/10.2.0/../../../../sparc-gaisler-elf/lib/leon/mfix-ut699/soft/flat/libc.a(lib_a-puts.o)
                              /tmp/ccK56PDv.o (puts)
/home/fsw/rep/tasa/lib/bcc-2.2.3-gcc/bin/../lib/gcc/sparc-gaisler-elf/10.2.0/../../../../sparc-gaisler-elf/lib/leon/mfix-ut699/soft/flat/libc.a(lib_a-strlen.o)
                              /home/fsw/rep/tasa/lib/bcc-2.2.3-gcc/bin/../lib/gcc/sparc-gaisler-elf/10.2.0/../../../../sparc-gaisler-elf/lib/leon/mfix-ut699/soft/flat/libc.a(lib_a-puts.o) (strlen)
/home/fsw/rep/tasa/lib/bcc-2.2.3-gcc/bin/../lib/gcc/sparc-gaisler-elf/10.2.0/../../../../sparc-gaisler-elf/lib/leon/mfix-ut699/soft/flat/libc.a(lib_a-vfprintf.o)
                              /home/fsw/rep/tasa/lib/bcc-2.2.3-gcc/bin/../lib/gcc/sparc-gaisler-elf/10.2.0/../../../../sparc-gaisler-elf/lib/leon/mfix-ut699/soft/flat/libc.a(lib_a-printf.o) (_vfprintf_r)
/home/fsw/rep/tasa/lib/bcc-2.2.3-gcc/bin/../lib/gcc/sparc-gaisler-elf/10.2.0/../../../../sparc-gaisler-elf/lib/leon/mfix-ut699/soft/flat/libc.a(lib_a-wsetup.o)
                              /home/fsw/rep/tasa/lib/bcc-2.2.3-gcc/bin/../lib/gcc/sparc-gaisler-elf/10.2.0/../../../../sparc-gaisler-elf/lib/leon/mfix-ut699/soft/flat/libc.a(lib_a-vfprintf.o) (__swsetup_r)
/home/fsw/rep/tasa/lib/bcc-2.2.3-gcc/bin/../lib/gcc/sparc-gaisler-elf/10.2.0/../../../../sparc-gaisler-elf/lib/leon/mfix-ut699/soft/flat/libc.a(lib_a-__atexit.o)
                              /home/fsw/rep/tasa/lib/bcc-2.2.3-gcc/bin/../lib/gcc/sparc-gaisler-elf/10.2.0/../../../../sparc-gaisler-elf/lib/leon/mfix-ut699/soft/flat/libc.a(lib_a-atexit.o) (__register_exitproc)
/home/fsw/rep/tasa/lib/bcc-2.2.3-gcc/bin/../lib/gcc/sparc-gaisler-elf/10.2.0/../../../../sparc-gaisler-elf/lib/leon/mfix-ut699/soft/flat/libc.a(lib_a-__call_atexit.o)
                              /home/fsw/rep/tasa/lib/bcc-2.2.3-gcc/bin/../lib/gcc/sparc-gaisler-elf/10.2.0/../../../../sparc-gaisler-elf/lib/leon/mfix-ut699/soft/flat/libc.a(lib_a-exit.o) (__call_exitprocs)
/home/fsw/rep/tasa/lib/bcc-2.2.3-gcc/bin/../lib/gcc/sparc-gaisler-elf/10.2.0/../../../../sparc-gaisler-elf/lib/leon/mfix-ut699/soft/flat/libc.a(lib_a-dtoa.o)
                              /home/fsw/rep/tasa/lib/bcc-2.2.3-gcc/bin/../lib/gcc/sparc-gaisler-elf/10.2.0/../../../../sparc-gaisler-elf/lib/leon/mfix-ut699/soft/flat/libc.a(lib_a-vfprintf.o) (_dtoa_r)
/home/fsw/rep/tasa/lib/bcc-2.2.3-gcc/bin/../lib/gcc/sparc-gaisler-elf/10.2.0/../../../../sparc-gaisler-elf/lib/leon/mfix-ut699/soft/flat/libc.a(lib_a-fflush.o)
                              /home/fsw/rep/tasa/lib/bcc-2.2.3-gcc/bin/../lib/gcc/sparc-gaisler-elf/10.2.0/../../../../sparc-gaisler-elf/lib/leon/mfix-ut699/soft/flat/libc.a(lib_a-vfprintf.o) (_fflush_r)
/home/fsw/rep/tasa/lib/bcc-2.2.3-gcc/bin/../lib/gcc/sparc-gaisler-elf/10.2.0/../../../../sparc-gaisler-elf/lib/leon/mfix-ut699/soft/flat/libc.a(lib_a-findfp.o)
                              /home/fsw/rep/tasa/lib/bcc-2.2.3-gcc/bin/../lib/gcc/sparc-gaisler-elf/10.2.0/../../../../sparc-gaisler-elf/lib/leon/mfix-ut699/soft/flat/libc.a(lib_a-printf.o) (__sinit)
/home/fsw/rep/tasa/lib/bcc-2.2.3-gcc/bin/../lib/gcc/sparc-gaisler-elf/10.2.0/../../../../sparc-gaisler-elf/lib/leon/mfix-ut699/soft/flat/libc.a(lib_a-freer.o)
                              /home/fsw/rep/tasa/lib/bcc-2.2.3-gcc/bin/../lib/gcc/sparc-gaisler-elf/10.2.0/../../../../sparc-gaisler-elf/lib/leon/mfix-ut699/soft/flat/libc.a(lib_a-vfprintf.o) (_free_r)
/home/fsw/rep/tasa/lib/bcc-2.2.3-gcc/bin/../lib/gcc/sparc-gaisler-elf/10.2.0/../../../../sparc-gaisler-elf/lib/leon/mfix-ut699/soft/flat/libc.a(lib_a-fvwrite.o)
                              /home/fsw/rep/tasa/lib/bcc-2.2.3-gcc/bin/../lib/gcc/sparc-gaisler-elf/10.2.0/../../../../sparc-gaisler-elf/lib/leon/mfix-ut699/soft/flat/libc.a(lib_a-puts.o) (__sfvwrite_r)
/home/fsw/rep/tasa/lib/bcc-2.2.3-gcc/bin/../lib/gcc/sparc-gaisler-elf/10.2.0/../../../../sparc-gaisler-elf/lib/leon/mfix-ut699/soft/flat/libc.a(lib_a-fwalk.o)
                              /home/fsw/rep/tasa/lib/bcc-2.2.3-gcc/bin/../lib/gcc/sparc-gaisler-elf/10.2.0/../../../../sparc-gaisler-elf/lib/leon/mfix-ut699/soft/flat/libc.a(lib_a-fflush.o) (_fwalk_reent)
/home/fsw/rep/tasa/lib/bcc-2.2.3-gcc/bin/../lib/gcc/sparc-gaisler-elf/10.2.0/../../../../sparc-gaisler-elf/lib/leon/mfix-ut699/soft/flat/libc.a(lib_a-localeconv.o)
                              /home/fsw/rep/tasa/lib/bcc-2.2.3-gcc/bin/../lib/gcc/sparc-gaisler-elf/10.2.0/../../../../sparc-gaisler-elf/lib/leon/mfix-ut699/soft/flat/libc.a(lib_a-vfprintf.o) (_localeconv_r)
/home/fsw/rep/tasa/lib/bcc-2.2.3-gcc/bin/../lib/gcc/sparc-gaisler-elf/10.2.0/../../../../sparc-gaisler-elf/lib/leon/mfix-ut699/soft/flat/libc.a(lib_a-makebuf.o)
                              /home/fsw/rep/tasa/lib/bcc-2.2.3-gcc/bin/../lib/gcc/sparc-gaisler-elf/10.2.0/../../../../sparc-gaisler-elf/lib/leon/mfix-ut699/soft/flat/libc.a(lib_a-wsetup.o) (__smakebuf_r)
/home/fsw/rep/tasa/lib/bcc-2.2.3-gcc/bin/../lib/gcc/sparc-gaisler-elf/10.2.0/../../../../sparc-gaisler-elf/lib/leon/mfix-ut699/soft/flat/libc.a(lib_a-malloc.o)
                              /home/fsw/rep/tasa/lib/bcc-2.2.3-gcc/bin/../lib/gcc/sparc-gaisler-elf/10.2.0/../../../../sparc-gaisler-elf/lib/leon/mfix-ut699/soft/flat/libc.a(lib_a-dtoa.o) (malloc)
/home/fsw/rep/tasa/lib/bcc-2.2.3-gcc/bin/../lib/gcc/sparc-gaisler-elf/10.2.0/../../../../sparc-gaisler-elf/lib/leon/mfix-ut699/soft/flat/libc.a(lib_a-mallocr.o)
                              /home/fsw/rep/tasa/lib/bcc-2.2.3-gcc/bin/../lib/gcc/sparc-gaisler-elf/10.2.0/../../../../sparc-gaisler-elf/lib/leon/mfix-ut699/soft/flat/libc.a(lib_a-vfprintf.o) (_malloc_r)
/home/fsw/rep/tasa/lib/bcc-2.2.3-gcc/bin/../lib/gcc/sparc-gaisler-elf/10.2.0/../../../../sparc-gaisler-elf/lib/leon/mfix-ut699/soft/flat/libc.a(lib_a-memchr.o)
                              /home/fsw/rep/tasa/lib/bcc-2.2.3-gcc/bin/../lib/gcc/sparc-gaisler-elf/10.2.0/../../../../sparc-gaisler-elf/lib/leon/mfix-ut699/soft/flat/libc.a(lib_a-vfprintf.o) (memchr)
/home/fsw/rep/tasa/lib/bcc-2.2.3-gcc/bin/../lib/gcc/sparc-gaisler-elf/10.2.0/../../../../sparc-gaisler-elf/lib/leon/mfix-ut699/soft/flat/libc.a(lib_a-memmove.o)
                              /home/fsw/rep/tasa/lib/bcc-2.2.3-gcc/bin/../lib/gcc/sparc-gaisler-elf/10.2.0/../../../../sparc-gaisler-elf/lib/leon/mfix-ut699/soft/flat/libc.a(lib_a-fvwrite.o) (memmove)
/home/fsw/rep/tasa/lib/bcc-2.2.3-gcc/bin/../lib/gcc/sparc-gaisler-elf/10.2.0/../../../../sparc-gaisler-elf/lib/leon/mfix-ut699/soft/flat/libc.a(lib_a-memset.o)
                              /home/fsw/rep/tasa/lib/bcc-2.2.3-gcc/bin/../lib/gcc/sparc-gaisler-elf/10.2.0/../../../../sparc-gaisler-elf/lib/leon/mfix-ut699/soft/flat/libc.a(lib_a-findfp.o) (memset)
/home/fsw/rep/tasa/lib/bcc-2.2.3-gcc/bin/../lib/gcc/sparc-gaisler-elf/10.2.0/../../../../sparc-gaisler-elf/lib/leon/mfix-ut699/soft/flat/libc.a(lib_a-mlock.o)
                              /home/fsw/rep/tasa/lib/bcc-2.2.3-gcc/bin/../lib/gcc/sparc-gaisler-elf/10.2.0/../../../../sparc-gaisler-elf/lib/leon/mfix-ut699/soft/flat/libc.a(lib_a-freer.o) (__malloc_lock)
/home/fsw/rep/tasa/lib/bcc-2.2.3-gcc/bin/../lib/gcc/sparc-gaisler-elf/10.2.0/../../../../sparc-gaisler-elf/lib/leon/mfix-ut699/soft/flat/libc.a(lib_a-mprec.o)
                              /home/fsw/rep/tasa/lib/bcc-2.2.3-gcc/bin/../lib/gcc/sparc-gaisler-elf/10.2.0/../../../../sparc-gaisler-elf/lib/leon/mfix-ut699/soft/flat/libc.a(lib_a-dtoa.o) (_Balloc)
/home/fsw/rep/tasa/lib/bcc-2.2.3-gcc/bin/../lib/gcc/sparc-gaisler-elf/10.2.0/../../../../sparc-gaisler-elf/lib/leon/mfix-ut699/soft/flat/libc.a(lib_a-putc.o)
                              /home/fsw/rep/tasa/lib/bcc-2.2.3-gcc/bin/../lib/gcc/sparc-gaisler-elf/10.2.0/../../../../sparc-gaisler-elf/lib/leon/mfix-ut699/soft/flat/libc.a(lib_a-putchar.o) (_putc_r)
/home/fsw/rep/tasa/lib/bcc-2.2.3-gcc/bin/../lib/gcc/sparc-gaisler-elf/10.2.0/../../../../sparc-gaisler-elf/lib/leon/mfix-ut699/soft/flat/libc.a(lib_a-reallocr.o)
                              /home/fsw/rep/tasa/lib/bcc-2.2.3-gcc/bin/../lib/gcc/sparc-gaisler-elf/10.2.0/../../../../sparc-gaisler-elf/lib/leon/mfix-ut699/soft/flat/libc.a(lib_a-fvwrite.o) (_realloc_r)
/home/fsw/rep/tasa/lib/bcc-2.2.3-gcc/bin/../lib/gcc/sparc-gaisler-elf/10.2.0/../../../../sparc-gaisler-elf/lib/leon/mfix-ut699/soft/flat/libc.a(lib_a-s_frexp.o)
                              /home/fsw/rep/tasa/lib/bcc-2.2.3-gcc/bin/../lib/gcc/sparc-gaisler-elf/10.2.0/../../../../sparc-gaisler-elf/lib/leon/mfix-ut699/soft/flat/libc.a(lib_a-vfprintf.o) (frexp)
/home/fsw/rep/tasa/lib/bcc-2.2.3-gcc/bin/../lib/gcc/sparc-gaisler-elf/10.2.0/../../../../sparc-gaisler-elf/lib/leon/mfix-ut699/soft/flat/libc.a(lib_a-sbrkr.o)
                              /home/fsw/rep/tasa/lib/bcc-2.2.3-gcc/bin/../lib/gcc/sparc-gaisler-elf/10.2.0/../../../../sparc-gaisler-elf/lib/leon/mfix-ut699/soft/flat/libc.a(lib_a-freer.o) (_sbrk_r)
/home/fsw/rep/tasa/lib/bcc-2.2.3-gcc/bin/../lib/gcc/sparc-gaisler-elf/10.2.0/../../../../sparc-gaisler-elf/lib/leon/mfix-ut699/soft/flat/libc.a(lib_a-stdio.o)
                              /home/fsw/rep/tasa/lib/bcc-2.2.3-gcc/bin/../lib/gcc/sparc-gaisler-elf/10.2.0/../../../../sparc-gaisler-elf/lib/leon/mfix-ut699/soft/flat/libc.a(lib_a-findfp.o) (__sread)
/home/fsw/rep/tasa/lib/bcc-2.2.3-gcc/bin/../lib/gcc/sparc-gaisler-elf/10.2.0/../../../../sparc-gaisler-elf/lib/leon/mfix-ut699/soft/flat/libc.a(lib_a-strncpy.o)
                              /home/fsw/rep/tasa/lib/bcc-2.2.3-gcc/bin/../lib/gcc/sparc-gaisler-elf/10.2.0/../../../../sparc-gaisler-elf/lib/leon/mfix-ut699/soft/flat/libc.a(lib_a-vfprintf.o) (strncpy)
/home/fsw/rep/tasa/lib/bcc-2.2.3-gcc/bin/../lib/gcc/sparc-gaisler-elf/10.2.0/../../../../sparc-gaisler-elf/lib/leon/mfix-ut699/soft/flat/libc.a(lib_a-vfiprintf.o)
                              /home/fsw/rep/tasa/lib/bcc-2.2.3-gcc/bin/../lib/gcc/sparc-gaisler-elf/10.2.0/../../../../sparc-gaisler-elf/lib/leon/mfix-ut699/soft/flat/libc.a(lib_a-vfprintf.o) (__sprint_r)
/home/fsw/rep/tasa/lib/bcc-2.2.3-gcc/bin/../lib/gcc/sparc-gaisler-elf/10.2.0/../../../../sparc-gaisler-elf/lib/leon/mfix-ut699/soft/flat/libc.a(lib_a-wbuf.o)
                              /home/fsw/rep/tasa/lib/bcc-2.2.3-gcc/bin/../lib/gcc/sparc-gaisler-elf/10.2.0/../../../../sparc-gaisler-elf/lib/leon/mfix-ut699/soft/flat/libc.a(lib_a-putc.o) (__swbuf_r)
/home/fsw/rep/tasa/lib/bcc-2.2.3-gcc/bin/../lib/gcc/sparc-gaisler-elf/10.2.0/../../../../sparc-gaisler-elf/lib/leon/mfix-ut699/soft/flat/libc.a(lib_a-writer.o)
                              /home/fsw/rep/tasa/lib/bcc-2.2.3-gcc/bin/../lib/gcc/sparc-gaisler-elf/10.2.0/../../../../sparc-gaisler-elf/lib/leon/mfix-ut699/soft/flat/libc.a(lib_a-stdio.o) (_write_r)
/home/fsw/rep/tasa/lib/bcc-2.2.3-gcc/bin/../lib/gcc/sparc-gaisler-elf/10.2.0/../../../../sparc-gaisler-elf/lib/leon/mfix-ut699/soft/flat/libc.a(lib_a-callocr.o)
                              /home/fsw/rep/tasa/lib/bcc-2.2.3-gcc/bin/../lib/gcc/sparc-gaisler-elf/10.2.0/../../../../sparc-gaisler-elf/lib/leon/mfix-ut699/soft/flat/libc.a(lib_a-mprec.o) (_calloc_r)
/home/fsw/rep/tasa/lib/bcc-2.2.3-gcc/bin/../lib/gcc/sparc-gaisler-elf/10.2.0/../../../../sparc-gaisler-elf/lib/leon/mfix-ut699/soft/flat/libc.a(lib_a-closer.o)
                              /home/fsw/rep/tasa/lib/bcc-2.2.3-gcc/bin/../lib/gcc/sparc-gaisler-elf/10.2.0/../../../../sparc-gaisler-elf/lib/leon/mfix-ut699/soft/flat/libc.a(lib_a-stdio.o) (_close_r)
/home/fsw/rep/tasa/lib/bcc-2.2.3-gcc/bin/../lib/gcc/sparc-gaisler-elf/10.2.0/../../../../sparc-gaisler-elf/lib/leon/mfix-ut699/soft/flat/libc.a(lib_a-fclose.o)
                              /home/fsw/rep/tasa/lib/bcc-2.2.3-gcc/bin/../lib/gcc/sparc-gaisler-elf/10.2.0/../../../../sparc-gaisler-elf/lib/leon/mfix-ut699/soft/flat/libc.a(lib_a-findfp.o) (_fclose_r)
/home/fsw/rep/tasa/lib/bcc-2.2.3-gcc/bin/../lib/gcc/sparc-gaisler-elf/10.2.0/../../../../sparc-gaisler-elf/lib/leon/mfix-ut699/soft/flat/libc.a(lib_a-fputwc.o)
                              /home/fsw/rep/tasa/lib/bcc-2.2.3-gcc/bin/../lib/gcc/sparc-gaisler-elf/10.2.0/../../../../sparc-gaisler-elf/lib/leon/mfix-ut699/soft/flat/libc.a(lib_a-vfiprintf.o) (_fputwc_r)
/home/fsw/rep/tasa/lib/bcc-2.2.3-gcc/bin/../lib/gcc/sparc-gaisler-elf/10.2.0/../../../../sparc-gaisler-elf/lib/leon/mfix-ut699/soft/flat/libc.a(lib_a-fstatr.o)
                              /home/fsw/rep/tasa/lib/bcc-2.2.3-gcc/bin/../lib/gcc/sparc-gaisler-elf/10.2.0/../../../../sparc-gaisler-elf/lib/leon/mfix-ut699/soft/flat/libc.a(lib_a-makebuf.o) (_fstat_r)
/home/fsw/rep/tasa/lib/bcc-2.2.3-gcc/bin/../lib/gcc/sparc-gaisler-elf/10.2.0/../../../../sparc-gaisler-elf/lib/leon/mfix-ut699/soft/flat/libc.a(lib_a-isattyr.o)
                              /home/fsw/rep/tasa/lib/bcc-2.2.3-gcc/bin/../lib/gcc/sparc-gaisler-elf/10.2.0/../../../../sparc-gaisler-elf/lib/leon/mfix-ut699/soft/flat/libc.a(lib_a-makebuf.o) (_isatty_r)
/home/fsw/rep/tasa/lib/bcc-2.2.3-gcc/bin/../lib/gcc/sparc-gaisler-elf/10.2.0/../../../../sparc-gaisler-elf/lib/leon/mfix-ut699/soft/flat/libc.a(lib_a-locale.o)
                              /home/fsw/rep/tasa/lib/bcc-2.2.3-gcc/bin/../lib/gcc/sparc-gaisler-elf/10.2.0/../../../../sparc-gaisler-elf/lib/leon/mfix-ut699/soft/flat/libc.a(lib_a-fputwc.o) (__locale_mb_cur_max)
/home/fsw/rep/tasa/lib/bcc-2.2.3-gcc/bin/../lib/gcc/sparc-gaisler-elf/10.2.0/../../../../sparc-gaisler-elf/lib/leon/mfix-ut699/soft/flat/libc.a(lib_a-lseekr.o)
                              /home/fsw/rep/tasa/lib/bcc-2.2.3-gcc/bin/../lib/gcc/sparc-gaisler-elf/10.2.0/../../../../sparc-gaisler-elf/lib/leon/mfix-ut699/soft/flat/libc.a(lib_a-stdio.o) (_lseek_r)
/home/fsw/rep/tasa/lib/bcc-2.2.3-gcc/bin/../lib/gcc/sparc-gaisler-elf/10.2.0/../../../../sparc-gaisler-elf/lib/leon/mfix-ut699/soft/flat/libc.a(lib_a-mbtowc_r.o)
                              /home/fsw/rep/tasa/lib/bcc-2.2.3-gcc/bin/../lib/gcc/sparc-gaisler-elf/10.2.0/../../../../sparc-gaisler-elf/lib/leon/mfix-ut699/soft/flat/libc.a(lib_a-locale.o) (__ascii_mbtowc)
/home/fsw/rep/tasa/lib/bcc-2.2.3-gcc/bin/../lib/gcc/sparc-gaisler-elf/10.2.0/../../../../sparc-gaisler-elf/lib/leon/mfix-ut699/soft/flat/libc.a(lib_a-readr.o)
                              /home/fsw/rep/tasa/lib/bcc-2.2.3-gcc/bin/../lib/gcc/sparc-gaisler-elf/10.2.0/../../../../sparc-gaisler-elf/lib/leon/mfix-ut699/soft/flat/libc.a(lib_a-stdio.o) (_read_r)
/home/fsw/rep/tasa/lib/bcc-2.2.3-gcc/bin/../lib/gcc/sparc-gaisler-elf/10.2.0/../../../../sparc-gaisler-elf/lib/leon/mfix-ut699/soft/flat/libc.a(lib_a-reent.o)
                              /home/fsw/rep/tasa/lib/bcc-2.2.3-gcc/bin/../lib/gcc/sparc-gaisler-elf/10.2.0/../../../../sparc-gaisler-elf/lib/leon/mfix-ut699/soft/flat/libc.a(lib_a-sbrkr.o) (errno)
/home/fsw/rep/tasa/lib/bcc-2.2.3-gcc/bin/../lib/gcc/sparc-gaisler-elf/10.2.0/../../../../sparc-gaisler-elf/lib/leon/mfix-ut699/soft/flat/libc.a(lib_a-strcmp.o)
                              /home/fsw/rep/tasa/lib/bcc-2.2.3-gcc/bin/../lib/gcc/sparc-gaisler-elf/10.2.0/../../../../sparc-gaisler-elf/lib/leon/mfix-ut699/soft/flat/libc.a(lib_a-locale.o) (strcmp)
/home/fsw/rep/tasa/lib/bcc-2.2.3-gcc/bin/../lib/gcc/sparc-gaisler-elf/10.2.0/../../../../sparc-gaisler-elf/lib/leon/mfix-ut699/soft/flat/libc.a(lib_a-wcrtomb.o)
                              /home/fsw/rep/tasa/lib/bcc-2.2.3-gcc/bin/../lib/gcc/sparc-gaisler-elf/10.2.0/../../../../sparc-gaisler-elf/lib/leon/mfix-ut699/soft/flat/libc.a(lib_a-fputwc.o) (_wcrtomb_r)
/home/fsw/rep/tasa/lib/bcc-2.2.3-gcc/bin/../lib/gcc/sparc-gaisler-elf/10.2.0/../../../../sparc-gaisler-elf/lib/leon/mfix-ut699/soft/flat/libc.a(lib_a-wctomb_r.o)
                              /home/fsw/rep/tasa/lib/bcc-2.2.3-gcc/bin/../lib/gcc/sparc-gaisler-elf/10.2.0/../../../../sparc-gaisler-elf/lib/leon/mfix-ut699/soft/flat/libc.a(lib_a-locale.o) (__ascii_wctomb)
/home/fsw/rep/tasa/lib/bcc-2.2.3-gcc/bin/../lib/gcc/sparc-gaisler-elf/10.2.0/../../../../sparc-gaisler-elf/lib/leon/mfix-ut699/soft/flat/libc.a(lib_a-ctype_.o)
                              /home/fsw/rep/tasa/lib/bcc-2.2.3-gcc/bin/../lib/gcc/sparc-gaisler-elf/10.2.0/../../../../sparc-gaisler-elf/lib/leon/mfix-ut699/soft/flat/libc.a(lib_a-locale.o) (_ctype_b)
/home/fsw/rep/tasa/lib/bcc-2.2.3-gcc/bin/../sparc-gaisler-elf/bsp/leon3/leon/mfix-ut699/soft/flat/libbcc.a(_exit.S.o)
                              /home/fsw/rep/tasa/lib/bcc-2.2.3-gcc/bin/../lib/gcc/sparc-gaisler-elf/10.2.0/../../../../sparc-gaisler-elf/lib/leon/mfix-ut699/soft/flat/libc.a(lib_a-exit.o) (_exit)
/home/fsw/rep/tasa/lib/bcc-2.2.3-gcc/bin/../sparc-gaisler-elf/bsp/leon3/leon/mfix-ut699/soft/flat/libbcc.a(read.c.o)
                              /home/fsw/rep/tasa/lib/bcc-2.2.3-gcc/bin/../lib/gcc/sparc-gaisler-elf/10.2.0/../../../../sparc-gaisler-elf/lib/leon/mfix-ut699/soft/flat/libc.a(lib_a-readr.o) (read)
/home/fsw/rep/tasa/lib/bcc-2.2.3-gcc/bin/../sparc-gaisler-elf/bsp/leon3/leon/mfix-ut699/soft/flat/libbcc.a(sbrk.c.o)
                              /home/fsw/rep/tasa/lib/bcc-2.2.3-gcc/bin/../lib/gcc/sparc-gaisler-elf/10.2.0/../../../../sparc-gaisler-elf/lib/leon/mfix-ut699/soft/flat/libc.a(lib_a-sbrkr.o) (sbrk)
/home/fsw/rep/tasa/lib/bcc-2.2.3-gcc/bin/../sparc-gaisler-elf/bsp/leon3/leon/mfix-ut699/soft/flat/libbcc.a(heap.c.o)
                              /home/fsw/rep/tasa/lib/bcc-2.2.3-gcc/bin/../sparc-gaisler-elf/bsp/leon3/leon/mfix-ut699/soft/flat/libbcc.a(sbrk.c.o) (__bcc_heap_max)
/home/fsw/rep/tasa/lib/bcc-2.2.3-gcc/bin/../sparc-gaisler-elf/bsp/leon3/leon/mfix-ut699/soft/flat/libbcc.a(write.c.o)
                              /home/fsw/rep/tasa/lib/bcc-2.2.3-gcc/bin/../lib/gcc/sparc-gaisler-elf/10.2.0/../../../../sparc-gaisler-elf/lib/leon/mfix-ut699/soft/flat/libc.a(lib_a-writer.o) (write)
/home/fsw/rep/tasa/lib/bcc-2.2.3-gcc/bin/../sparc-gaisler-elf/bsp/leon3/leon/mfix-ut699/soft/flat/libbcc.a(stubs.S.o)
                              /home/fsw/rep/tasa/lib/bcc-2.2.3-gcc/bin/../lib/gcc/sparc-gaisler-elf/10.2.0/../../../../sparc-gaisler-elf/lib/leon/mfix-ut699/soft/flat/libc.a(lib_a-closer.o) (close)
/home/fsw/rep/tasa/lib/bcc-2.2.3-gcc/bin/../sparc-gaisler-elf/bsp/leon3/leon/mfix-ut699/soft/flat/libbcc.a(con_apbuart.c.o)
                              /home/fsw/rep/tasa/lib/bcc-2.2.3-gcc/bin/../sparc-gaisler-elf/bsp/leon3/leon/mfix-ut699/soft/flat/libbcc.a(write.c.o) (__bcc_con_outbyte)
/home/fsw/rep/tasa/lib/bcc-2.2.3-gcc/bin/../lib/gcc/sparc-gaisler-elf/10.2.0/leon/mfix-ut699/soft/flat/libgcc.a(_udivdi3.o)
                              /home/fsw/rep/tasa/lib/bcc-2.2.3-gcc/bin/../lib/gcc/sparc-gaisler-elf/10.2.0/../../../../sparc-gaisler-elf/lib/leon/mfix-ut699/soft/flat/libc.a(lib_a-vfprintf.o) (__udivdi3)
/home/fsw/rep/tasa/lib/bcc-2.2.3-gcc/bin/../lib/gcc/sparc-gaisler-elf/10.2.0/leon/mfix-ut699/soft/flat/libgcc.a(_umoddi3.o)
                              /home/fsw/rep/tasa/lib/bcc-2.2.3-gcc/bin/../lib/gcc/sparc-gaisler-elf/10.2.0/../../../../sparc-gaisler-elf/lib/leon/mfix-ut699/soft/flat/libc.a(lib_a-vfprintf.o) (__umoddi3)
/home/fsw/rep/tasa/lib/bcc-2.2.3-gcc/bin/../lib/gcc/sparc-gaisler-elf/10.2.0/leon/mfix-ut699/soft/flat/libgcc.a(_addsub_df.o)
                              /home/fsw/rep/tasa/lib/bcc-2.2.3-gcc/bin/../lib/gcc/sparc-gaisler-elf/10.2.0/../../../../sparc-gaisler-elf/lib/leon/mfix-ut699/soft/flat/libc.a(lib_a-dtoa.o) (__adddf3)
/home/fsw/rep/tasa/lib/bcc-2.2.3-gcc/bin/../lib/gcc/sparc-gaisler-elf/10.2.0/leon/mfix-ut699/soft/flat/libgcc.a(_mul_df.o)
                              /home/fsw/rep/tasa/lib/bcc-2.2.3-gcc/bin/../lib/gcc/sparc-gaisler-elf/10.2.0/../../../../sparc-gaisler-elf/lib/leon/mfix-ut699/soft/flat/libc.a(lib_a-vfprintf.o) (__muldf3)
/home/fsw/rep/tasa/lib/bcc-2.2.3-gcc/bin/../lib/gcc/sparc-gaisler-elf/10.2.0/leon/mfix-ut699/soft/flat/libgcc.a(_div_df.o)
                              /home/fsw/rep/tasa/lib/bcc-2.2.3-gcc/bin/../lib/gcc/sparc-gaisler-elf/10.2.0/../../../../sparc-gaisler-elf/lib/leon/mfix-ut699/soft/flat/libc.a(lib_a-dtoa.o) (__divdf3)
/home/fsw/rep/tasa/lib/bcc-2.2.3-gcc/bin/../lib/gcc/sparc-gaisler-elf/10.2.0/leon/mfix-ut699/soft/flat/libgcc.a(_eq_df.o)
                              /home/fsw/rep/tasa/lib/bcc-2.2.3-gcc/bin/../lib/gcc/sparc-gaisler-elf/10.2.0/../../../../sparc-gaisler-elf/lib/leon/mfix-ut699/soft/flat/libc.a(lib_a-vfprintf.o) (__eqdf2)
/home/fsw/rep/tasa/lib/bcc-2.2.3-gcc/bin/../lib/gcc/sparc-gaisler-elf/10.2.0/leon/mfix-ut699/soft/flat/libgcc.a(_ne_df.o)
                              /home/fsw/rep/tasa/lib/bcc-2.2.3-gcc/bin/../lib/gcc/sparc-gaisler-elf/10.2.0/../../../../sparc-gaisler-elf/lib/leon/mfix-ut699/soft/flat/libc.a(lib_a-vfprintf.o) (__nedf2)
/home/fsw/rep/tasa/lib/bcc-2.2.3-gcc/bin/../lib/gcc/sparc-gaisler-elf/10.2.0/leon/mfix-ut699/soft/flat/libgcc.a(_gt_df.o)
                              /home/fsw/rep/tasa/lib/bcc-2.2.3-gcc/bin/../lib/gcc/sparc-gaisler-elf/10.2.0/../../../../sparc-gaisler-elf/lib/leon/mfix-ut699/soft/flat/libc.a(lib_a-vfprintf.o) (__gtdf2)
/home/fsw/rep/tasa/lib/bcc-2.2.3-gcc/bin/../lib/gcc/sparc-gaisler-elf/10.2.0/leon/mfix-ut699/soft/flat/libgcc.a(_lt_df.o)
                              /home/fsw/rep/tasa/lib/bcc-2.2.3-gcc/bin/../lib/gcc/sparc-gaisler-elf/10.2.0/../../../../sparc-gaisler-elf/lib/leon/mfix-ut699/soft/flat/libc.a(lib_a-vfprintf.o) (__ltdf2)
/home/fsw/rep/tasa/lib/bcc-2.2.3-gcc/bin/../lib/gcc/sparc-gaisler-elf/10.2.0/leon/mfix-ut699/soft/flat/libgcc.a(_le_df.o)
                              /home/fsw/rep/tasa/lib/bcc-2.2.3-gcc/bin/../lib/gcc/sparc-gaisler-elf/10.2.0/../../../../sparc-gaisler-elf/lib/leon/mfix-ut699/soft/flat/libc.a(lib_a-vfprintf.o) (__ledf2)
/home/fsw/rep/tasa/lib/bcc-2.2.3-gcc/bin/../lib/gcc/sparc-gaisler-elf/10.2.0/leon/mfix-ut699/soft/flat/libgcc.a(_unord_df.o)
                              /home/fsw/rep/tasa/lib/bcc-2.2.3-gcc/bin/../lib/gcc/sparc-gaisler-elf/10.2.0/../../../../sparc-gaisler-elf/lib/leon/mfix-ut699/soft/flat/libc.a(lib_a-vfprintf.o) (__unorddf2)
/home/fsw/rep/tasa/lib/bcc-2.2.3-gcc/bin/../lib/gcc/sparc-gaisler-elf/10.2.0/leon/mfix-ut699/soft/flat/libgcc.a(_si_to_df.o)
                              /home/fsw/rep/tasa/lib/bcc-2.2.3-gcc/bin/../lib/gcc/sparc-gaisler-elf/10.2.0/../../../../sparc-gaisler-elf/lib/leon/mfix-ut699/soft/flat/libc.a(lib_a-vfprintf.o) (__floatsidf)
/home/fsw/rep/tasa/lib/bcc-2.2.3-gcc/bin/../lib/gcc/sparc-gaisler-elf/10.2.0/leon/mfix-ut699/soft/flat/libgcc.a(_df_to_si.o)
                              /home/fsw/rep/tasa/lib/bcc-2.2.3-gcc/bin/../lib/gcc/sparc-gaisler-elf/10.2.0/../../../../sparc-gaisler-elf/lib/leon/mfix-ut699/soft/flat/libc.a(lib_a-vfprintf.o) (__fixdfsi)
/home/fsw/rep/tasa/lib/bcc-2.2.3-gcc/bin/../lib/gcc/sparc-gaisler-elf/10.2.0/leon/mfix-ut699/soft/flat/libgcc.a(_thenan_df.o)
                              /home/fsw/rep/tasa/lib/bcc-2.2.3-gcc/bin/../lib/gcc/sparc-gaisler-elf/10.2.0/leon/mfix-ut699/soft/flat/libgcc.a(_addsub_df.o) (__thenan_df)
/home/fsw/rep/tasa/lib/bcc-2.2.3-gcc/bin/../lib/gcc/sparc-gaisler-elf/10.2.0/leon/mfix-ut699/soft/flat/libgcc.a(_usi_to_df.o)
                              /home/fsw/rep/tasa/lib/bcc-2.2.3-gcc/bin/../lib/gcc/sparc-gaisler-elf/10.2.0/../../../../sparc-gaisler-elf/lib/leon/mfix-ut699/soft/flat/libc.a(lib_a-dtoa.o) (__floatunsidf)
/home/fsw/rep/tasa/lib/bcc-2.2.3-gcc/bin/../lib/gcc/sparc-gaisler-elf/10.2.0/leon/mfix-ut699/soft/flat/libgcc.a(_clz.o)
                              /home/fsw/rep/tasa/lib/bcc-2.2.3-gcc/bin/../lib/gcc/sparc-gaisler-elf/10.2.0/leon/mfix-ut699/soft/flat/libgcc.a(_udivdi3.o) (__clz_tab)
/home/fsw/rep/tasa/lib/bcc-2.2.3-gcc/bin/../lib/gcc/sparc-gaisler-elf/10.2.0/leon/mfix-ut699/soft/flat/libgcc.a(_clzsi2.o)
                              /home/fsw/rep/tasa/lib/bcc-2.2.3-gcc/bin/../lib/gcc/sparc-gaisler-elf/10.2.0/leon/mfix-ut699/soft/flat/libgcc.a(_si_to_df.o) (__clzsi2)
/home/fsw/rep/tasa/lib/bcc-2.2.3-gcc/bin/../lib/gcc/sparc-gaisler-elf/10.2.0/leon/mfix-ut699/soft/flat/libgcc.a(_pack_df.o)
                              /home/fsw/rep/tasa/lib/bcc-2.2.3-gcc/bin/../lib/gcc/sparc-gaisler-elf/10.2.0/leon/mfix-ut699/soft/flat/libgcc.a(_addsub_df.o) (__pack_d)
/home/fsw/rep/tasa/lib/bcc-2.2.3-gcc/bin/../lib/gcc/sparc-gaisler-elf/10.2.0/leon/mfix-ut699/soft/flat/libgcc.a(_unpack_df.o)
                              /home/fsw/rep/tasa/lib/bcc-2.2.3-gcc/bin/../lib/gcc/sparc-gaisler-elf/10.2.0/leon/mfix-ut699/soft/flat/libgcc.a(_addsub_df.o) (__unpack_d)
/home/fsw/rep/tasa/lib/bcc-2.2.3-gcc/bin/../lib/gcc/sparc-gaisler-elf/10.2.0/leon/mfix-ut699/soft/flat/libgcc.a(_fpcmp_parts_df.o)
                              /home/fsw/rep/tasa/lib/bcc-2.2.3-gcc/bin/../lib/gcc/sparc-gaisler-elf/10.2.0/leon/mfix-ut699/soft/flat/libgcc.a(_eq_df.o) (__fpcmp_parts_d)

Memory Configuration

Name             Origin             Length             Attributes
rom              0x0000000000000000 0x0000000020000000
ram              0x0000000040000000 0x0000000040000000
*default*        0x0000000000000000 0xffffffffffffffff

Linker script and memory map

LOAD /home/fsw/rep/tasa/lib/bcc-2.2.3-gcc/bin/../sparc-gaisler-elf/bsp/leon3/leon/mfix-ut699/soft/flat/trap_table_mvt_tn0018.S.o
LOAD /home/fsw/rep/tasa/lib/bcc-2.2.3-gcc/bin/../sparc-gaisler-elf/bsp/leon3/leon/mfix-ut699/soft/flat/crt0.S.o
LOAD /home/fsw/rep/tasa/lib/bcc-2.2.3-gcc/bin/../lib/gcc/sparc-gaisler-elf/10.2.0/leon/mfix-ut699/soft/flat/crti.o
LOAD /home/fsw/rep/tasa/lib/bcc-2.2.3-gcc/bin/../lib/gcc/sparc-gaisler-elf/10.2.0/leon/mfix-ut699/soft/flat/crtbegin.o
LOAD /tmp/ccK56PDv.o
                0x0000000000000000                PROVIDE (__bcc_cfg_skip_clear_bss = 0x0)

.text           0x0000000040000000    0x12290
 CREATE_OBJECT_SYMBOLS
                0x0000000040000000                __text_start = .
                0x0000000040000000                . = ALIGN (0x1000)
 *(.text.traptable)
 .text.traptable
                0x0000000040000000     0x1000 /home/fsw/rep/tasa/lib/bcc-2.2.3-gcc/bin/../sparc-gaisler-elf/bsp/leon3/leon/mfix-ut699/soft/flat/trap_table_mvt_tn0018.S.o
                0x0000000040000000                __bcc_trap_table
                0x0000000040000000                __bcc_entry_point
 *(.text .text.*)
 .text          0x0000000040001000        0x0 /home/fsw/rep/tasa/lib/bcc-2.2.3-gcc/bin/../sparc-gaisler-elf/bsp/leon3/leon/mfix-ut699/soft/flat/trap_table_mvt_tn0018.S.o
 .text          0x0000000040001000       0xc8 /home/fsw/rep/tasa/lib/bcc-2.2.3-gcc/bin/../sparc-gaisler-elf/bsp/leon3/leon/mfix-ut699/soft/flat/crt0.S.o
                0x0000000040001000                __bcc_crt0
 .text          0x00000000400010c8        0x0 /home/fsw/rep/tasa/lib/bcc-2.2.3-gcc/bin/../lib/gcc/sparc-gaisler-elf/10.2.0/leon/mfix-ut699/soft/flat/crti.o
 .text          0x00000000400010c8      0x204 /home/fsw/rep/tasa/lib/bcc-2.2.3-gcc/bin/../lib/gcc/sparc-gaisler-elf/10.2.0/leon/mfix-ut699/soft/flat/crtbegin.o
 .text          0x00000000400012cc        0x0 /tmp/ccK56PDv.o
 .text.startup  0x00000000400012cc      0x170 /tmp/ccK56PDv.o
                0x00000000400012cc                main
 .text          0x000000004000143c       0x90 /home/fsw/rep/tasa/lib/bcc-2.2.3-gcc/bin/../sparc-gaisler-elf/bsp/leon3/leon/mfix-ut699/soft/flat/libbcc.a(reset_trap_mvt.S.o)
                0x000000004000143c                __bcc_trap_reset_mvt
 .text          0x00000000400014cc       0x2c /home/fsw/rep/tasa/lib/bcc-2.2.3-gcc/bin/../sparc-gaisler-elf/bsp/leon3/leon/mfix-ut699/soft/flat/libbcc.a(sw_trap_set_pil.S.o)
                0x00000000400014cc                __bcc_trap_sw_set_pil
 .text          0x00000000400014f8        0x8 /home/fsw/rep/tasa/lib/bcc-2.2.3-gcc/bin/../sparc-gaisler-elf/bsp/leon3/leon/mfix-ut699/soft/flat/libbcc.a(init.S.o)
                0x00000000400014f8                __bcc_init50
                0x00000000400014f8                __bcc_init40
                0x00000000400014f8                __bcc_init70
                0x00000000400014f8                __bcc_init60
 .text          0x0000000040001500       0x98 /home/fsw/rep/tasa/lib/bcc-2.2.3-gcc/bin/../sparc-gaisler-elf/bsp/leon3/leon/mfix-ut699/soft/flat/libbcc.a(leon_info.S.o)
                0x0000000040001500                __bcc_get_leon_info
                0x0000000040001588                bcc_get_cpuid
 .text          0x0000000040001598       0x2c /home/fsw/rep/tasa/lib/bcc-2.2.3-gcc/bin/../sparc-gaisler-elf/bsp/leon3/leon/mfix-ut699/soft/flat/libbcc.a(dwzero.S.o)
                0x0000000040001598                bcc_dwzero
 .text          0x00000000400015c4       0x78 /home/fsw/rep/tasa/lib/bcc-2.2.3-gcc/bin/../sparc-gaisler-elf/bsp/leon3/leon/mfix-ut699/soft/flat/libbcc.a(copy_data.c.o)
                0x00000000400015c4                __bcc_copy_data
 .text          0x000000004000163c        0x0 /home/fsw/rep/tasa/lib/bcc-2.2.3-gcc/bin/../sparc-gaisler-elf/bsp/leon3/leon/mfix-ut699/soft/flat/libbcc.a(argv.c.o)
 *fill*         0x000000004000163c        0x4 
 .text          0x0000000040001640      0x1a0 /home/fsw/rep/tasa/lib/bcc-2.2.3-gcc/bin/../sparc-gaisler-elf/bsp/leon3/leon/mfix-ut699/soft/flat/libbcc.a(interrupt_trap_flat_tn0018.S.o)
                0x0000000040001640                __bcc_trap_interrupt_flat_svt_tn0018
                0x0000000040001644                __bcc_trap_interrupt_flat_tn0018
 .text          0x00000000400017e0       0x48 /home/fsw/rep/tasa/lib/bcc-2.2.3-gcc/bin/../sparc-gaisler-elf/bsp/leon3/leon/mfix-ut699/soft/flat/libbcc.a(int_irqmp_get_source.c.o)
                0x00000000400017e0                __bcc_int_get_source
 .text          0x0000000040001828       0xa0 /home/fsw/rep/tasa/lib/bcc-2.2.3-gcc/bin/../sparc-gaisler-elf/bsp/leon3/leon/mfix-ut699/soft/flat/libbcc.a(int_irqmp_mp.c.o)
                0x0000000040001828                bcc_send_interrupt
                0x0000000040001868                bcc_get_cpu_count
                0x0000000040001894                bcc_start_processor
 .text          0x00000000400018c8      0x1ec /home/fsw/rep/tasa/lib/bcc-2.2.3-gcc/bin/../sparc-gaisler-elf/bsp/leon3/leon/mfix-ut699/soft/flat/libbcc.a(int_irqmp_init.c.o)
                0x00000000400018c8                __bcc_int_init
 .text          0x0000000040001ab4       0x6c /home/fsw/rep/tasa/lib/bcc-2.2.3-gcc/bin/../sparc-gaisler-elf/bsp/leon3/leon/mfix-ut699/soft/flat/libbcc.a(con_apbuart_init.c.o)
                0x0000000040001ab4                __bcc_con_init
 .text          0x0000000040001b20       0x9c /home/fsw/rep/tasa/lib/bcc-2.2.3-gcc/bin/../sparc-gaisler-elf/bsp/leon3/leon/mfix-ut699/soft/flat/libbcc.a(timer_gptimer_init.c.o)
                0x0000000040001b20                __bcc_timer_init
 .text          0x0000000040001bbc        0x0 /home/fsw/rep/tasa/lib/bcc-2.2.3-gcc/bin/../sparc-gaisler-elf/bsp/leon3/leon/mfix-ut699/soft/flat/libbcc.a(isr.c.o)
 .text          0x0000000040001bbc        0x0 /home/fsw/rep/tasa/lib/bcc-2.2.3-gcc/bin/../sparc-gaisler-elf/bsp/leon3/leon/mfix-ut699/soft/flat/libbcc.a(int_nest.c.o)
 .text          0x0000000040001bbc      0x7f4 /home/fsw/rep/tasa/lib/bcc-2.2.3-gcc/bin/../sparc-gaisler-elf/bsp/leon3/leon/mfix-ut699/soft/flat/libbcc.a(ambapp.c.o)
                0x0000000040001bbc                ambapp_get_ahbinfo
                0x00000000400022d0                ambapp_get_apbinfo
                0x0000000040002378                ambapp_visit
 .text          0x00000000400023b0       0xbc /home/fsw/rep/tasa/lib/bcc-2.2.3-gcc/bin/../sparc-gaisler-elf/bsp/leon3/leon/mfix-ut699/soft/flat/libbcc.a(ambapp_findfirst_fn.c.o)
                0x00000000400023b0                ambapp_findfirst_fn
 .text          0x000000004000246c        0x0 /home/fsw/rep/tasa/lib/bcc-2.2.3-gcc/bin/../sparc-gaisler-elf/bsp/leon3/leon/mfix-ut699/soft/flat/libbcc.a(int_irqmp_handle.c.o)
 .text          0x000000004000246c        0x0 /home/fsw/rep/tasa/lib/bcc-2.2.3-gcc/bin/../sparc-gaisler-elf/bsp/leon3/leon/mfix-ut699/soft/flat/libbcc.a(con_handle.c.o)
 .text          0x000000004000246c        0x0 /home/fsw/rep/tasa/lib/bcc-2.2.3-gcc/bin/../sparc-gaisler-elf/bsp/leon3/leon/mfix-ut699/soft/flat/libbcc.a(timer_handle.c.o)
 .text          0x000000004000246c       0x1c /home/fsw/rep/tasa/lib/bcc-2.2.3-gcc/bin/../lib/gcc/sparc-gaisler-elf/10.2.0/../../../../sparc-gaisler-elf/lib/leon/mfix-ut699/soft/flat/libc.a(lib_a-atexit.o)
                0x000000004000246c                atexit
 .text          0x0000000040002488       0x50 /home/fsw/rep/tasa/lib/bcc-2.2.3-gcc/bin/../lib/gcc/sparc-gaisler-elf/10.2.0/../../../../sparc-gaisler-elf/lib/leon/mfix-ut699/soft/flat/libc.a(lib_a-exit.o)
                0x0000000040002488                exit
 .text          0x00000000400024d8        0x0 /home/fsw/rep/tasa/lib/bcc-2.2.3-gcc/bin/../lib/gcc/sparc-gaisler-elf/10.2.0/../../../../sparc-gaisler-elf/lib/leon/mfix-ut699/soft/flat/libc.a(lib_a-impure.o)
 .text          0x00000000400024d8      0x1d0 /home/fsw/rep/tasa/lib/bcc-2.2.3-gcc/bin/../lib/gcc/sparc-gaisler-elf/10.2.0/../../../../sparc-gaisler-elf/lib/leon/mfix-ut699/soft/flat/libc.a(lib_a-memcpy.o)
                0x00000000400024d8                memcpy
 .text          0x00000000400026a8      0x174 /home/fsw/rep/tasa/lib/bcc-2.2.3-gcc/bin/../lib/gcc/sparc-gaisler-elf/10.2.0/../../../../sparc-gaisler-elf/lib/leon/mfix-ut699/soft/flat/libc.a(lib_a-printf.o)
                0x00000000400026a8                _printf_r
                0x0000000040002764                printf
 .text          0x000000004000281c      0x124 /home/fsw/rep/tasa/lib/bcc-2.2.3-gcc/bin/../lib/gcc/sparc-gaisler-elf/10.2.0/../../../../sparc-gaisler-elf/lib/leon/mfix-ut699/soft/flat/libc.a(lib_a-putchar.o)
                0x000000004000281c                _putchar_r
                0x00000000400028a8                putchar
 .text          0x0000000040002940      0x2bc /home/fsw/rep/tasa/lib/bcc-2.2.3-gcc/bin/../lib/gcc/sparc-gaisler-elf/10.2.0/../../../../sparc-gaisler-elf/lib/leon/mfix-ut699/soft/flat/libc.a(lib_a-puts.o)
                0x0000000040002940                _puts_r
                0x0000000040002a9c                puts
 .text          0x0000000040002bfc       0xc4 /home/fsw/rep/tasa/lib/bcc-2.2.3-gcc/bin/../lib/gcc/sparc-gaisler-elf/10.2.0/../../../../sparc-gaisler-elf/lib/leon/mfix-ut699/soft/flat/libc.a(lib_a-strlen.o)
                0x0000000040002bfc                strlen
 .text          0x0000000040002cc0     0x3130 /home/fsw/rep/tasa/lib/bcc-2.2.3-gcc/bin/../lib/gcc/sparc-gaisler-elf/10.2.0/../../../../sparc-gaisler-elf/lib/leon/mfix-ut699/soft/flat/libc.a(lib_a-vfprintf.o)
                0x0000000040002e2c                _vfprintf_r
                0x0000000040005cfc                vfprintf
 .text          0x0000000040005df0      0x210 /home/fsw/rep/tasa/lib/bcc-2.2.3-gcc/bin/../lib/gcc/sparc-gaisler-elf/10.2.0/../../../../sparc-gaisler-elf/lib/leon/mfix-ut699/soft/flat/libc.a(lib_a-wsetup.o)
                0x0000000040005df0                __swsetup_r
 .text          0x0000000040006000      0x198 /home/fsw/rep/tasa/lib/bcc-2.2.3-gcc/bin/../lib/gcc/sparc-gaisler-elf/10.2.0/../../../../sparc-gaisler-elf/lib/leon/mfix-ut699/soft/flat/libc.a(lib_a-__atexit.o)
                0x0000000040006000                __register_exitproc
 .text          0x0000000040006198      0x30c /home/fsw/rep/tasa/lib/bcc-2.2.3-gcc/bin/../lib/gcc/sparc-gaisler-elf/10.2.0/../../../../sparc-gaisler-elf/lib/leon/mfix-ut699/soft/flat/libc.a(lib_a-__call_atexit.o)
                0x0000000040006198                __call_exitprocs
 .text          0x00000000400064a4     0x1974 /home/fsw/rep/tasa/lib/bcc-2.2.3-gcc/bin/../lib/gcc/sparc-gaisler-elf/10.2.0/../../../../sparc-gaisler-elf/lib/leon/mfix-ut699/soft/flat/libc.a(lib_a-dtoa.o)
                0x00000000400066dc                _dtoa_r
 .text          0x0000000040007e18      0x4dc /home/fsw/rep/tasa/lib/bcc-2.2.3-gcc/bin/../lib/gcc/sparc-gaisler-elf/10.2.0/../../../../sparc-gaisler-elf/lib/leon/mfix-ut699/soft/flat/libc.a(lib_a-fflush.o)
                0x0000000040007e18                __sflush_r
                0x00000000400080d4                _fflush_r
                0x00000000400081c4                fflush
 .text          0x00000000400082f4      0x414 /home/fsw/rep/tasa/lib/bcc-2.2.3-gcc/bin/../lib/gcc/sparc-gaisler-elf/10.2.0/../../../../sparc-gaisler-elf/lib/leon/mfix-ut699/soft/flat/libc.a(lib_a-findfp.o)
                0x00000000400082f4                _cleanup_r
                0x0000000040008308                __sfmoreglue
                0x0000000040008374                __sfp
                0x00000000400086c8                _cleanup
                0x00000000400086e4                __sinit
 .text          0x0000000040008708      0x4b8 /home/fsw/rep/tasa/lib/bcc-2.2.3-gcc/bin/../lib/gcc/sparc-gaisler-elf/10.2.0/../../../../sparc-gaisler-elf/lib/leon/mfix-ut699/soft/flat/libc.a(lib_a-freer.o)
                0x0000000040008708                _malloc_trim_r
                0x0000000040008828                _free_r
 .text          0x0000000040008bc0      0x5a8 /home/fsw/rep/tasa/lib/bcc-2.2.3-gcc/bin/../lib/gcc/sparc-gaisler-elf/10.2.0/../../../../sparc-gaisler-elf/lib/leon/mfix-ut699/soft/flat/libc.a(lib_a-fvwrite.o)
                0x0000000040008bc0                __sfvwrite_r
 .text          0x0000000040009168      0x154 /home/fsw/rep/tasa/lib/bcc-2.2.3-gcc/bin/../lib/gcc/sparc-gaisler-elf/10.2.0/../../../../sparc-gaisler-elf/lib/leon/mfix-ut699/soft/flat/libc.a(lib_a-fwalk.o)
                0x0000000040009168                _fwalk
                0x0000000040009214                _fwalk_reent
 .text          0x00000000400092bc       0x60 /home/fsw/rep/tasa/lib/bcc-2.2.3-gcc/bin/../lib/gcc/sparc-gaisler-elf/10.2.0/../../../../sparc-gaisler-elf/lib/leon/mfix-ut699/soft/flat/libc.a(lib_a-localeconv.o)
                0x00000000400092bc                __localeconv_l
                0x00000000400092c4                _localeconv_r
                0x00000000400092f0                localeconv
 .text          0x000000004000931c      0x2b0 /home/fsw/rep/tasa/lib/bcc-2.2.3-gcc/bin/../lib/gcc/sparc-gaisler-elf/10.2.0/../../../../sparc-gaisler-elf/lib/leon/mfix-ut699/soft/flat/libc.a(lib_a-makebuf.o)
                0x000000004000931c                __smakebuf_r
                0x00000000400094ec                __swhatbuf_r
 .text          0x00000000400095cc       0x30 /home/fsw/rep/tasa/lib/bcc-2.2.3-gcc/bin/../lib/gcc/sparc-gaisler-elf/10.2.0/../../../../sparc-gaisler-elf/lib/leon/mfix-ut699/soft/flat/libc.a(lib_a-malloc.o)
                0x00000000400095cc                malloc
                0x00000000400095e4                free
 .text          0x00000000400095fc      0x8e8 /home/fsw/rep/tasa/lib/bcc-2.2.3-gcc/bin/../lib/gcc/sparc-gaisler-elf/10.2.0/../../../../sparc-gaisler-elf/lib/leon/mfix-ut699/soft/flat/libc.a(lib_a-mallocr.o)
                0x00000000400095fc                _malloc_r
 .text          0x0000000040009ee4      0x120 /home/fsw/rep/tasa/lib/bcc-2.2.3-gcc/bin/../lib/gcc/sparc-gaisler-elf/10.2.0/../../../../sparc-gaisler-elf/lib/leon/mfix-ut699/soft/flat/libc.a(lib_a-memchr.o)
                0x0000000040009ee4                memchr
 .text          0x000000004000a004      0x228 /home/fsw/rep/tasa/lib/bcc-2.2.3-gcc/bin/../lib/gcc/sparc-gaisler-elf/10.2.0/../../../../sparc-gaisler-elf/lib/leon/mfix-ut699/soft/flat/libc.a(lib_a-memmove.o)
                0x000000004000a004                memmove
 .text          0x000000004000a22c      0x144 /home/fsw/rep/tasa/lib/bcc-2.2.3-gcc/bin/../lib/gcc/sparc-gaisler-elf/10.2.0/../../../../sparc-gaisler-elf/lib/leon/mfix-ut699/soft/flat/libc.a(lib_a-memset.o)
                0x000000004000a22c                memset
 .text          0x000000004000a370       0x10 /home/fsw/rep/tasa/lib/bcc-2.2.3-gcc/bin/../lib/gcc/sparc-gaisler-elf/10.2.0/../../../../sparc-gaisler-elf/lib/leon/mfix-ut699/soft/flat/libc.a(lib_a-mlock.o)
                0x000000004000a370                __malloc_lock
                0x000000004000a378                __malloc_unlock
 .text          0x000000004000a380     0x1a54 /home/fsw/rep/tasa/lib/bcc-2.2.3-gcc/bin/../lib/gcc/sparc-gaisler-elf/10.2.0/../../../../sparc-gaisler-elf/lib/leon/mfix-ut699/soft/flat/libc.a(lib_a-mprec.o)
                0x000000004000a380                _Balloc
                0x000000004000a480                _Bfree
                0x000000004000a50c                __multadd
                0x000000004000a664                __s2b
                0x000000004000a790                __hi0bits
                0x000000004000a824                __lo0bits
                0x000000004000a8fc                __i2b
                0x000000004000aa30                __multiply
                0x000000004000ac98                __pow5mult
                0x000000004000ae60                __lshift
                0x000000004000b098                __mcmp
                0x000000004000b124                __mdiff
                0x000000004000b394                __ulp
                0x000000004000b3fc                __b2d
                0x000000004000b5a4                __d2b
                0x000000004000b9c8                __ratio
                0x000000004000bc1c                _mprec_log10
                0x000000004000bcb8                __copybits
                0x000000004000bd50                __any_on
 .text          0x000000004000bdd4      0x280 /home/fsw/rep/tasa/lib/bcc-2.2.3-gcc/bin/../lib/gcc/sparc-gaisler-elf/10.2.0/../../../../sparc-gaisler-elf/lib/leon/mfix-ut699/soft/flat/libc.a(lib_a-putc.o)
                0x000000004000bdd4                _putc_r
                0x000000004000bf04                putc
 .text          0x000000004000c054      0x5e8 /home/fsw/rep/tasa/lib/bcc-2.2.3-gcc/bin/../lib/gcc/sparc-gaisler-elf/10.2.0/../../../../sparc-gaisler-elf/lib/leon/mfix-ut699/soft/flat/libc.a(lib_a-reallocr.o)
                0x000000004000c054                _realloc_r
 .text          0x000000004000c63c       0xbc /home/fsw/rep/tasa/lib/bcc-2.2.3-gcc/bin/../lib/gcc/sparc-gaisler-elf/10.2.0/../../../../sparc-gaisler-elf/lib/leon/mfix-ut699/soft/flat/libc.a(lib_a-s_frexp.o)
                0x000000004000c63c                frexp
 .text          0x000000004000c6f8       0x6c /home/fsw/rep/tasa/lib/bcc-2.2.3-gcc/bin/../lib/gcc/sparc-gaisler-elf/10.2.0/../../../../sparc-gaisler-elf/lib/leon/mfix-ut699/soft/flat/libc.a(lib_a-sbrkr.o)
                0x000000004000c6f8                _sbrk_r
 .text          0x000000004000c764      0x1cc /home/fsw/rep/tasa/lib/bcc-2.2.3-gcc/bin/../lib/gcc/sparc-gaisler-elf/10.2.0/../../../../sparc-gaisler-elf/lib/leon/mfix-ut699/soft/flat/libc.a(lib_a-stdio.o)
                0x000000004000c764                __sread
                0x000000004000c7dc                __seofread
                0x000000004000c7e4                __swrite
                0x000000004000c89c                __sseek
                0x000000004000c920                __sclose
 .text          0x000000004000c930      0x1d0 /home/fsw/rep/tasa/lib/bcc-2.2.3-gcc/bin/../lib/gcc/sparc-gaisler-elf/10.2.0/../../../../sparc-gaisler-elf/lib/leon/mfix-ut699/soft/flat/libc.a(lib_a-strncpy.o)
                0x000000004000c930                strncpy
 .text          0x000000004000cb00     0x205c /home/fsw/rep/tasa/lib/bcc-2.2.3-gcc/bin/../lib/gcc/sparc-gaisler-elf/10.2.0/../../../../sparc-gaisler-elf/lib/leon/mfix-ut699/soft/flat/libc.a(lib_a-vfiprintf.o)
                0x000000004000cc6c                __sprint_r
                0x000000004000cd8c                _vfiprintf_r
                0x000000004000ea68                vfiprintf
 .text          0x000000004000eb5c      0x3c4 /home/fsw/rep/tasa/lib/bcc-2.2.3-gcc/bin/../lib/gcc/sparc-gaisler-elf/10.2.0/../../../../sparc-gaisler-elf/lib/leon/mfix-ut699/soft/flat/libc.a(lib_a-wbuf.o)
                0x000000004000eb5c                __swbuf_r
                0x000000004000ed3c                __swbuf
 .text          0x000000004000ef20       0x74 /home/fsw/rep/tasa/lib/bcc-2.2.3-gcc/bin/../lib/gcc/sparc-gaisler-elf/10.2.0/../../../../sparc-gaisler-elf/lib/leon/mfix-ut699/soft/flat/libc.a(lib_a-writer.o)
                0x000000004000ef20                _write_r
 .text          0x000000004000ef94       0xd0 /home/fsw/rep/tasa/lib/bcc-2.2.3-gcc/bin/../lib/gcc/sparc-gaisler-elf/10.2.0/../../../../sparc-gaisler-elf/lib/leon/mfix-ut699/soft/flat/libc.a(lib_a-callocr.o)
                0x000000004000ef94                _calloc_r
 .text          0x000000004000f064       0x6c /home/fsw/rep/tasa/lib/bcc-2.2.3-gcc/bin/../lib/gcc/sparc-gaisler-elf/10.2.0/../../../../sparc-gaisler-elf/lib/leon/mfix-ut699/soft/flat/libc.a(lib_a-closer.o)
                0x000000004000f064                _close_r
 .text          0x000000004000f0d0      0x344 /home/fsw/rep/tasa/lib/bcc-2.2.3-gcc/bin/../lib/gcc/sparc-gaisler-elf/10.2.0/../../../../sparc-gaisler-elf/lib/leon/mfix-ut699/soft/flat/libc.a(lib_a-fclose.o)
                0x000000004000f0d0                _fclose_r
                0x000000004000f270                fclose
 .text          0x000000004000f414      0x260 /home/fsw/rep/tasa/lib/bcc-2.2.3-gcc/bin/../lib/gcc/sparc-gaisler-elf/10.2.0/../../../../sparc-gaisler-elf/lib/leon/mfix-ut699/soft/flat/libc.a(lib_a-fputwc.o)
                0x000000004000f414                __fputwc
                0x000000004000f548                _fputwc_r
                0x000000004000f578                fputwc
 .text          0x000000004000f674       0x70 /home/fsw/rep/tasa/lib/bcc-2.2.3-gcc/bin/../lib/gcc/sparc-gaisler-elf/10.2.0/../../../../sparc-gaisler-elf/lib/leon/mfix-ut699/soft/flat/libc.a(lib_a-fstatr.o)
                0x000000004000f674                _fstat_r
 .text          0x000000004000f6e4       0x6c /home/fsw/rep/tasa/lib/bcc-2.2.3-gcc/bin/../lib/gcc/sparc-gaisler-elf/10.2.0/../../../../sparc-gaisler-elf/lib/leon/mfix-ut699/soft/flat/libc.a(lib_a-isattyr.o)
                0x000000004000f6e4                _isatty_r
 .text          0x000000004000f750      0x194 /home/fsw/rep/tasa/lib/bcc-2.2.3-gcc/bin/../lib/gcc/sparc-gaisler-elf/10.2.0/../../../../sparc-gaisler-elf/lib/leon/mfix-ut699/soft/flat/libc.a(lib_a-locale.o)
                0x000000004000f750                _setlocale_r
                0x000000004000f7e0                __locale_mb_cur_max
                0x000000004000f814                __locale_ctype_ptr_l
                0x000000004000f820                __locale_ctype_ptr
                0x000000004000f854                setlocale
 .text          0x000000004000f8e4       0x74 /home/fsw/rep/tasa/lib/bcc-2.2.3-gcc/bin/../lib/gcc/sparc-gaisler-elf/10.2.0/../../../../sparc-gaisler-elf/lib/leon/mfix-ut699/soft/flat/libc.a(lib_a-lseekr.o)
                0x000000004000f8e4                _lseek_r
 .text          0x000000004000f958       0xb4 /home/fsw/rep/tasa/lib/bcc-2.2.3-gcc/bin/../lib/gcc/sparc-gaisler-elf/10.2.0/../../../../sparc-gaisler-elf/lib/leon/mfix-ut699/soft/flat/libc.a(lib_a-mbtowc_r.o)
                0x000000004000f958                _mbtowc_r
                0x000000004000f9b8                __ascii_mbtowc
 .text          0x000000004000fa0c       0x74 /home/fsw/rep/tasa/lib/bcc-2.2.3-gcc/bin/../lib/gcc/sparc-gaisler-elf/10.2.0/../../../../sparc-gaisler-elf/lib/leon/mfix-ut699/soft/flat/libc.a(lib_a-readr.o)
                0x000000004000fa0c                _read_r
 .text          0x000000004000fa80      0x3d8 /home/fsw/rep/tasa/lib/bcc-2.2.3-gcc/bin/../lib/gcc/sparc-gaisler-elf/10.2.0/../../../../sparc-gaisler-elf/lib/leon/mfix-ut699/soft/flat/libc.a(lib_a-reent.o)
                0x000000004000fa80                cleanup_glue
                0x000000004000fb3c                _reclaim_reent
 .text          0x000000004000fe58       0xc8 /home/fsw/rep/tasa/lib/bcc-2.2.3-gcc/bin/../lib/gcc/sparc-gaisler-elf/10.2.0/../../../../sparc-gaisler-elf/lib/leon/mfix-ut699/soft/flat/libc.a(lib_a-strcmp.o)
                0x000000004000fe58                strcmp
 .text          0x000000004000ff20      0x19c /home/fsw/rep/tasa/lib/bcc-2.2.3-gcc/bin/../lib/gcc/sparc-gaisler-elf/10.2.0/../../../../sparc-gaisler-elf/lib/leon/mfix-ut699/soft/flat/libc.a(lib_a-wcrtomb.o)
                0x000000004000ff20                _wcrtomb_r
                0x000000004000ffec                wcrtomb
 .text          0x00000000400100bc       0x98 /home/fsw/rep/tasa/lib/bcc-2.2.3-gcc/bin/../lib/gcc/sparc-gaisler-elf/10.2.0/../../../../sparc-gaisler-elf/lib/leon/mfix-ut699/soft/flat/libc.a(lib_a-wctomb_r.o)
                0x00000000400100bc                _wctomb_r
                0x000000004001011c                __ascii_wctomb
 .text          0x0000000040010154        0x0 /home/fsw/rep/tasa/lib/bcc-2.2.3-gcc/bin/../lib/gcc/sparc-gaisler-elf/10.2.0/../../../../sparc-gaisler-elf/lib/leon/mfix-ut699/soft/flat/libc.a(lib_a-ctype_.o)
 .text          0x0000000040010154       0x10 /home/fsw/rep/tasa/lib/bcc-2.2.3-gcc/bin/../sparc-gaisler-elf/bsp/leon3/leon/mfix-ut699/soft/flat/libbcc.a(_exit.S.o)
                0x0000000040010154                _exit
 .text          0x0000000040010164       0x80 /home/fsw/rep/tasa/lib/bcc-2.2.3-gcc/bin/../sparc-gaisler-elf/bsp/leon3/leon/mfix-ut699/soft/flat/libbcc.a(read.c.o)
                0x0000000040010164                read
 .text          0x00000000400101e4       0xd0 /home/fsw/rep/tasa/lib/bcc-2.2.3-gcc/bin/../sparc-gaisler-elf/bsp/leon3/leon/mfix-ut699/soft/flat/libbcc.a(sbrk.c.o)
                0x00000000400101e4                sbrk
 .text          0x00000000400102b4        0x0 /home/fsw/rep/tasa/lib/bcc-2.2.3-gcc/bin/../sparc-gaisler-elf/bsp/leon3/leon/mfix-ut699/soft/flat/libbcc.a(heap.c.o)
 .text          0x00000000400102b4       0xa8 /home/fsw/rep/tasa/lib/bcc-2.2.3-gcc/bin/../sparc-gaisler-elf/bsp/leon3/leon/mfix-ut699/soft/flat/libbcc.a(write.c.o)
                0x00000000400102b4                write
 .text          0x000000004001035c       0x20 /home/fsw/rep/tasa/lib/bcc-2.2.3-gcc/bin/../sparc-gaisler-elf/bsp/leon3/leon/mfix-ut699/soft/flat/libbcc.a(stubs.S.o)
                0x000000004001035c                execve
                0x000000004001035c                lseek
                0x000000004001035c                fstat
                0x000000004001035c                kill
                0x000000004001035c                wait
                0x000000004001035c                unlink
                0x000000004001035c                fork
                0x000000004001035c                stat
                0x000000004001035c                link
                0x000000004001035c                open
                0x000000004001035c                close
                0x0000000040010374                getpid
                0x0000000040010374                isatty
 .text          0x000000004001037c       0xc4 /home/fsw/rep/tasa/lib/bcc-2.2.3-gcc/bin/../sparc-gaisler-elf/bsp/leon3/leon/mfix-ut699/soft/flat/libbcc.a(con_apbuart.c.o)
                0x000000004001037c                __bcc_con_outbyte
                0x000000004001040c                __bcc_con_inbyte
 .text          0x0000000040010440      0x1f0 /home/fsw/rep/tasa/lib/bcc-2.2.3-gcc/bin/../lib/gcc/sparc-gaisler-elf/10.2.0/leon/mfix-ut699/soft/flat/libgcc.a(_udivdi3.o)
                0x0000000040010440                __udivdi3
 .text          0x0000000040010630      0x21c /home/fsw/rep/tasa/lib/bcc-2.2.3-gcc/bin/../lib/gcc/sparc-gaisler-elf/10.2.0/leon/mfix-ut699/soft/flat/libgcc.a(_umoddi3.o)
                0x0000000040010630                __umoddi3
 .text          0x000000004001084c      0x814 /home/fsw/rep/tasa/lib/bcc-2.2.3-gcc/bin/../lib/gcc/sparc-gaisler-elf/10.2.0/leon/mfix-ut699/soft/flat/libgcc.a(_addsub_df.o)
                0x000000004001084c                __adddf3
                0x0000000040010c68                __subdf3
 .text          0x0000000040011060      0x334 /home/fsw/rep/tasa/lib/bcc-2.2.3-gcc/bin/../lib/gcc/sparc-gaisler-elf/10.2.0/leon/mfix-ut699/soft/flat/libgcc.a(_mul_df.o)
                0x0000000040011060                __muldf3
 .text          0x0000000040011394      0x23c /home/fsw/rep/tasa/lib/bcc-2.2.3-gcc/bin/../lib/gcc/sparc-gaisler-elf/10.2.0/leon/mfix-ut699/soft/flat/libgcc.a(_div_df.o)
                0x0000000040011394                __divdf3
 .text          0x00000000400115d0       0x7c /home/fsw/rep/tasa/lib/bcc-2.2.3-gcc/bin/../lib/gcc/sparc-gaisler-elf/10.2.0/leon/mfix-ut699/soft/flat/libgcc.a(_eq_df.o)
                0x00000000400115d0                __eqdf2
 .text          0x000000004001164c       0x7c /home/fsw/rep/tasa/lib/bcc-2.2.3-gcc/bin/../lib/gcc/sparc-gaisler-elf/10.2.0/leon/mfix-ut699/soft/flat/libgcc.a(_ne_df.o)
                0x000000004001164c                __nedf2
 .text          0x00000000400116c8       0x7c /home/fsw/rep/tasa/lib/bcc-2.2.3-gcc/bin/../lib/gcc/sparc-gaisler-elf/10.2.0/leon/mfix-ut699/soft/flat/libgcc.a(_gt_df.o)
                0x00000000400116c8                __gtdf2
 .text          0x0000000040011744       0x7c /home/fsw/rep/tasa/lib/bcc-2.2.3-gcc/bin/../lib/gcc/sparc-gaisler-elf/10.2.0/leon/mfix-ut699/soft/flat/libgcc.a(_lt_df.o)
                0x0000000040011744                __ltdf2
 .text          0x00000000400117c0       0x7c /home/fsw/rep/tasa/lib/bcc-2.2.3-gcc/bin/../lib/gcc/sparc-gaisler-elf/10.2.0/leon/mfix-ut699/soft/flat/libgcc.a(_le_df.o)
                0x00000000400117c0                __ledf2
 .text          0x000000004001183c       0x70 /home/fsw/rep/tasa/lib/bcc-2.2.3-gcc/bin/../lib/gcc/sparc-gaisler-elf/10.2.0/leon/mfix-ut699/soft/flat/libgcc.a(_unord_df.o)
                0x000000004001183c                __unorddf2
 .text          0x00000000400118ac       0xcc /home/fsw/rep/tasa/lib/bcc-2.2.3-gcc/bin/../lib/gcc/sparc-gaisler-elf/10.2.0/leon/mfix-ut699/soft/flat/libgcc.a(_si_to_df.o)
                0x00000000400118ac                __floatsidf
 .text          0x0000000040011978       0xe4 /home/fsw/rep/tasa/lib/bcc-2.2.3-gcc/bin/../lib/gcc/sparc-gaisler-elf/10.2.0/leon/mfix-ut699/soft/flat/libgcc.a(_df_to_si.o)
                0x0000000040011978                __fixdfsi
 .text          0x0000000040011a5c        0x0 /home/fsw/rep/tasa/lib/bcc-2.2.3-gcc/bin/../lib/gcc/sparc-gaisler-elf/10.2.0/leon/mfix-ut699/soft/flat/libgcc.a(_thenan_df.o)
 .text          0x0000000040011a5c       0xa0 /home/fsw/rep/tasa/lib/bcc-2.2.3-gcc/bin/../lib/gcc/sparc-gaisler-elf/10.2.0/leon/mfix-ut699/soft/flat/libgcc.a(_usi_to_df.o)
                0x0000000040011a5c                __floatunsidf
 .text          0x0000000040011afc        0x0 /home/fsw/rep/tasa/lib/bcc-2.2.3-gcc/bin/../lib/gcc/sparc-gaisler-elf/10.2.0/leon/mfix-ut699/soft/flat/libgcc.a(_clz.o)
 .text          0x0000000040011afc       0x94 /home/fsw/rep/tasa/lib/bcc-2.2.3-gcc/bin/../lib/gcc/sparc-gaisler-elf/10.2.0/leon/mfix-ut699/soft/flat/libgcc.a(_clzsi2.o)
                0x0000000040011afc                __clzsi2
 .text          0x0000000040011b90      0x2a0 /home/fsw/rep/tasa/lib/bcc-2.2.3-gcc/bin/../lib/gcc/sparc-gaisler-elf/10.2.0/leon/mfix-ut699/soft/flat/libgcc.a(_pack_df.o)
                0x0000000040011b90                __pack_d
 .text          0x0000000040011e30      0x14c /home/fsw/rep/tasa/lib/bcc-2.2.3-gcc/bin/../lib/gcc/sparc-gaisler-elf/10.2.0/leon/mfix-ut699/soft/flat/libgcc.a(_unpack_df.o)
                0x0000000040011e30                __unpack_d
 .text          0x0000000040011f7c      0x1a8 /home/fsw/rep/tasa/lib/bcc-2.2.3-gcc/bin/../lib/gcc/sparc-gaisler-elf/10.2.0/leon/mfix-ut699/soft/flat/libgcc.a(_fpcmp_parts_df.o)
                0x0000000040011f7c                __fpcmp_parts_d
 .text          0x0000000040012124       0x74 /home/fsw/rep/tasa/lib/bcc-2.2.3-gcc/bin/../lib/gcc/sparc-gaisler-elf/10.2.0/leon/mfix-ut699/soft/flat/crtend.o
 .text          0x0000000040012198        0x0 /home/fsw/rep/tasa/lib/bcc-2.2.3-gcc/bin/../lib/gcc/sparc-gaisler-elf/10.2.0/leon/mfix-ut699/soft/flat/crtn.o
                0x00000000400121a0                . = ALIGN (0x10)
 *fill*         0x0000000040012198        0x8 
 *(.eh_frame)
 .eh_frame      0x00000000400121a0        0x0 /home/fsw/rep/tasa/lib/bcc-2.2.3-gcc/bin/../lib/gcc/sparc-gaisler-elf/10.2.0/leon/mfix-ut699/soft/flat/crtbegin.o
 .eh_frame      0x00000000400121a0       0x30 /home/fsw/rep/tasa/lib/bcc-2.2.3-gcc/bin/../lib/gcc/sparc-gaisler-elf/10.2.0/leon/mfix-ut699/soft/flat/libgcc.a(_udivdi3.o)
 .eh_frame      0x00000000400121d0       0x30 /home/fsw/rep/tasa/lib/bcc-2.2.3-gcc/bin/../lib/gcc/sparc-gaisler-elf/10.2.0/leon/mfix-ut699/soft/flat/libgcc.a(_umoddi3.o)
 .eh_frame      0x0000000040012200        0x4 /home/fsw/rep/tasa/lib/bcc-2.2.3-gcc/bin/../lib/gcc/sparc-gaisler-elf/10.2.0/leon/mfix-ut699/soft/flat/crtend.o
                0x0000000040012210                . = ALIGN (0x10)
 *fill*         0x0000000040012204        0xc 
 *(.gnu.linkonce.t*)
                0x0000000040012210                ___CTOR_LIST__ = .
                0x0000000040012210        0x4 LONG 0x2 (((___CTOR_END__ - ___CTOR_LIST__) / 0x4) - 0x2)
 *(SORT_BY_NAME(.ctors.*))
 *(.ctors)
 .ctors         0x0000000040012214        0x4 /home/fsw/rep/tasa/lib/bcc-2.2.3-gcc/bin/../lib/gcc/sparc-gaisler-elf/10.2.0/leon/mfix-ut699/soft/flat/crtbegin.o
 .ctors         0x0000000040012218        0x4 /home/fsw/rep/tasa/lib/bcc-2.2.3-gcc/bin/../lib/gcc/sparc-gaisler-elf/10.2.0/leon/mfix-ut699/soft/flat/crtend.o
                0x000000004001221c        0x4 LONG 0x0
                0x0000000040012220                ___CTOR_END__ = .
                0x0000000040012220                ___DTOR_LIST__ = .
                0x0000000040012220        0x4 LONG 0x2 (((___DTOR_END__ - ___DTOR_LIST__) / 0x4) - 0x2)
 *(SORT_BY_NAME(.dtors.*))
 *(.dtors)
 .dtors         0x0000000040012224        0x4 /home/fsw/rep/tasa/lib/bcc-2.2.3-gcc/bin/../lib/gcc/sparc-gaisler-elf/10.2.0/leon/mfix-ut699/soft/flat/crtbegin.o
 .dtors         0x0000000040012228        0x4 /home/fsw/rep/tasa/lib/bcc-2.2.3-gcc/bin/../lib/gcc/sparc-gaisler-elf/10.2.0/leon/mfix-ut699/soft/flat/crtend.o
                0x0000000040012228                __DTOR_END__
                0x000000004001222c        0x4 LONG 0x0
                0x0000000040012230                ___DTOR_END__ = .
 *(.gnu.linkonce*)
 *(.init)
 .init          0x0000000040012230        0xc /home/fsw/rep/tasa/lib/bcc-2.2.3-gcc/bin/../lib/gcc/sparc-gaisler-elf/10.2.0/leon/mfix-ut699/soft/flat/crti.o
                0x0000000040012230                _init
 .init          0x000000004001223c        0x8 /home/fsw/rep/tasa/lib/bcc-2.2.3-gcc/bin/../lib/gcc/sparc-gaisler-elf/10.2.0/leon/mfix-ut699/soft/flat/crtbegin.o
 .init          0x0000000040012244        0x8 /home/fsw/rep/tasa/lib/bcc-2.2.3-gcc/bin/../lib/gcc/sparc-gaisler-elf/10.2.0/leon/mfix-ut699/soft/flat/crtend.o
 .init          0x000000004001224c       0x14 /home/fsw/rep/tasa/lib/bcc-2.2.3-gcc/bin/../lib/gcc/sparc-gaisler-elf/10.2.0/leon/mfix-ut699/soft/flat/crtn.o
 *(.fini)
 .fini          0x0000000040012260        0xc /home/fsw/rep/tasa/lib/bcc-2.2.3-gcc/bin/../lib/gcc/sparc-gaisler-elf/10.2.0/leon/mfix-ut699/soft/flat/crti.o
                0x0000000040012260                _fini
 .fini          0x000000004001226c        0x8 /home/fsw/rep/tasa/lib/bcc-2.2.3-gcc/bin/../lib/gcc/sparc-gaisler-elf/10.2.0/leon/mfix-ut699/soft/flat/crtbegin.o
 .fini          0x0000000040012274       0x14 /home/fsw/rep/tasa/lib/bcc-2.2.3-gcc/bin/../lib/gcc/sparc-gaisler-elf/10.2.0/leon/mfix-ut699/soft/flat/crtn.o
 *(.lit)
 *(.shdata)
                0x0000000040012290                . = ALIGN (0x10)
 *fill*         0x0000000040012288        0x8 
                0x0000000040012290                __text_end = .

.gcc_except_table
 *(.gcc_except_table.*)

.rodata         0x0000000040012290      0x750
                0x0000000040012290                __rodata_start = .
 *(.rodata*)
 .rodata.str1.8
                0x0000000040012290       0xcf /tmp/ccK56PDv.o
 *fill*         0x000000004001235f        0x1 
 .rodata        0x0000000040012360        0x5 /tmp/ccK56PDv.o
 *fill*         0x0000000040012365        0x3 
 .rodata        0x0000000040012368        0x4 /home/fsw/rep/tasa/lib/bcc-2.2.3-gcc/bin/../lib/gcc/sparc-gaisler-elf/10.2.0/../../../../sparc-gaisler-elf/lib/leon/mfix-ut699/soft/flat/libc.a(lib_a-impure.o)
                0x0000000040012368                _global_impure_ptr
 *fill*         0x000000004001236c        0x4 
 .rodata.str1.8
                0x0000000040012370        0x2 /home/fsw/rep/tasa/lib/bcc-2.2.3-gcc/bin/../lib/gcc/sparc-gaisler-elf/10.2.0/../../../../sparc-gaisler-elf/lib/leon/mfix-ut699/soft/flat/libc.a(lib_a-puts.o)
 *fill*         0x0000000040012372        0x6 
 .rodata.str1.8
                0x0000000040012378       0x5a /home/fsw/rep/tasa/lib/bcc-2.2.3-gcc/bin/../lib/gcc/sparc-gaisler-elf/10.2.0/../../../../sparc-gaisler-elf/lib/leon/mfix-ut699/soft/flat/libc.a(lib_a-vfprintf.o)
 *fill*         0x00000000400123d2        0x6 
 .rodata.cst8   0x00000000400123d8       0x18 /home/fsw/rep/tasa/lib/bcc-2.2.3-gcc/bin/../lib/gcc/sparc-gaisler-elf/10.2.0/../../../../sparc-gaisler-elf/lib/leon/mfix-ut699/soft/flat/libc.a(lib_a-vfprintf.o)
 .rodata        0x00000000400123f0       0x20 /home/fsw/rep/tasa/lib/bcc-2.2.3-gcc/bin/../lib/gcc/sparc-gaisler-elf/10.2.0/../../../../sparc-gaisler-elf/lib/leon/mfix-ut699/soft/flat/libc.a(lib_a-vfprintf.o)
 .rodata.str1.8
                0x0000000040012410       0x14 /home/fsw/rep/tasa/lib/bcc-2.2.3-gcc/bin/../lib/gcc/sparc-gaisler-elf/10.2.0/../../../../sparc-gaisler-elf/lib/leon/mfix-ut699/soft/flat/libc.a(lib_a-dtoa.o)
                                         0x1a (size before relaxing)
 *fill*         0x0000000040012424        0x4 
 .rodata.cst8   0x0000000040012428       0x48 /home/fsw/rep/tasa/lib/bcc-2.2.3-gcc/bin/../lib/gcc/sparc-gaisler-elf/10.2.0/../../../../sparc-gaisler-elf/lib/leon/mfix-ut699/soft/flat/libc.a(lib_a-dtoa.o)
 .rodata        0x0000000040012470       0x60 /home/fsw/rep/tasa/lib/bcc-2.2.3-gcc/bin/../lib/gcc/sparc-gaisler-elf/10.2.0/../../../../sparc-gaisler-elf/lib/leon/mfix-ut699/soft/flat/libc.a(lib_a-findfp.o)
                0x0000000040012470                __sf_fake_stderr
                0x0000000040012490                __sf_fake_stdout
                0x00000000400124b0                __sf_fake_stdin
 .rodata.cst8   0x00000000400124d0       0x10 /home/fsw/rep/tasa/lib/bcc-2.2.3-gcc/bin/../lib/gcc/sparc-gaisler-elf/10.2.0/../../../../sparc-gaisler-elf/lib/leon/mfix-ut699/soft/flat/libc.a(lib_a-mprec.o)
 .rodata        0x00000000400124d0      0x128 /home/fsw/rep/tasa/lib/bcc-2.2.3-gcc/bin/../lib/gcc/sparc-gaisler-elf/10.2.0/../../../../sparc-gaisler-elf/lib/leon/mfix-ut699/soft/flat/libc.a(lib_a-mprec.o)
                0x00000000400124e0                __mprec_tinytens
                0x0000000040012508                __mprec_bigtens
                0x0000000040012530                __mprec_tens
 .rodata.cst8   0x00000000400125f8        0x8 /home/fsw/rep/tasa/lib/bcc-2.2.3-gcc/bin/../lib/gcc/sparc-gaisler-elf/10.2.0/../../../../sparc-gaisler-elf/lib/leon/mfix-ut699/soft/flat/libc.a(lib_a-s_frexp.o)
 .rodata.str1.8
                0x0000000040012600       0x37 /home/fsw/rep/tasa/lib/bcc-2.2.3-gcc/bin/../lib/gcc/sparc-gaisler-elf/10.2.0/../../../../sparc-gaisler-elf/lib/leon/mfix-ut699/soft/flat/libc.a(lib_a-vfiprintf.o)
 .rodata        0x0000000040012600       0x20 /home/fsw/rep/tasa/lib/bcc-2.2.3-gcc/bin/../lib/gcc/sparc-gaisler-elf/10.2.0/../../../../sparc-gaisler-elf/lib/leon/mfix-ut699/soft/flat/libc.a(lib_a-vfiprintf.o)
 .rodata.str1.8
                0x0000000040012620       0x12 /home/fsw/rep/tasa/lib/bcc-2.2.3-gcc/bin/../lib/gcc/sparc-gaisler-elf/10.2.0/../../../../sparc-gaisler-elf/lib/leon/mfix-ut699/soft/flat/libc.a(lib_a-locale.o)
                                         0x1a (size before relaxing)
 *fill*         0x0000000040012632        0x6 
 .rodata        0x0000000040012638      0x288 /home/fsw/rep/tasa/lib/bcc-2.2.3-gcc/bin/../lib/gcc/sparc-gaisler-elf/10.2.0/../../../../sparc-gaisler-elf/lib/leon/mfix-ut699/soft/flat/libc.a(lib_a-ctype_.o)
                0x0000000040012638                _ctype_
                0x0000000040012740                _ctype_b
 .rodata.cst8   0x00000000400128c0        0x8 /home/fsw/rep/tasa/lib/bcc-2.2.3-gcc/bin/../lib/gcc/sparc-gaisler-elf/10.2.0/leon/mfix-ut699/soft/flat/libgcc.a(_si_to_df.o)
 .rodata        0x00000000400128c8       0x18 /home/fsw/rep/tasa/lib/bcc-2.2.3-gcc/bin/../lib/gcc/sparc-gaisler-elf/10.2.0/leon/mfix-ut699/soft/flat/libgcc.a(_thenan_df.o)
                0x00000000400128c8                __thenan_df
 .rodata        0x00000000400128e0      0x100 /home/fsw/rep/tasa/lib/bcc-2.2.3-gcc/bin/../lib/gcc/sparc-gaisler-elf/10.2.0/leon/mfix-ut699/soft/flat/libgcc.a(_clz.o)
                0x00000000400128e0                __clz_tab
 *(.gnu.linkonce.r*)
                0x00000000400129e0                . = ALIGN (0x10)
                0x00000000400129e0                __rodata_end = .

.rela.dyn       0x00000000400129e0        0x0
 .rela.iplt     0x00000000400129e0        0x0 /home/fsw/rep/tasa/lib/bcc-2.2.3-gcc/bin/../sparc-gaisler-elf/bsp/leon3/leon/mfix-ut699/soft/flat/trap_table_mvt_tn0018.S.o
 .rela.text.traptable
                0x00000000400129e0        0x0 /home/fsw/rep/tasa/lib/bcc-2.2.3-gcc/bin/../sparc-gaisler-elf/bsp/leon3/leon/mfix-ut699/soft/flat/trap_table_mvt_tn0018.S.o
 .rela.text     0x00000000400129e0        0x0 /home/fsw/rep/tasa/lib/bcc-2.2.3-gcc/bin/../sparc-gaisler-elf/bsp/leon3/leon/mfix-ut699/soft/flat/trap_table_mvt_tn0018.S.o

.ext.data       0x00000000400129e0        0x0
                0x00000000400129e0                . = ALIGN (0x8)
                0x00000000400129e0                __extdata_start = .
 *(.data.ext)
                0x00000000400129e0                . = ALIGN (0x8)
                0x00000000400129e0                __extdata_end = .
                0x00000000400129e0                __extdata_start_lma = LOADADDR (.ext.data)
                0x0000000000000000                __extdata_size = SIZEOF (.ext.data)

.data           0x00000000400129e0      0x608
                0x00000000400129e0                . = ALIGN (0x8)
                0x00000000400129e0                __data_start = .
 *(.data .data.*)
 .data          0x00000000400129e0        0x0 /home/fsw/rep/tasa/lib/bcc-2.2.3-gcc/bin/../sparc-gaisler-elf/bsp/leon3/leon/mfix-ut699/soft/flat/trap_table_mvt_tn0018.S.o
 .data          0x00000000400129e0        0x0 /home/fsw/rep/tasa/lib/bcc-2.2.3-gcc/bin/../sparc-gaisler-elf/bsp/leon3/leon/mfix-ut699/soft/flat/crt0.S.o
 .data          0x00000000400129e0        0x0 /home/fsw/rep/tasa/lib/bcc-2.2.3-gcc/bin/../lib/gcc/sparc-gaisler-elf/10.2.0/leon/mfix-ut699/soft/flat/crti.o
 .data          0x00000000400129e0        0x4 /home/fsw/rep/tasa/lib/bcc-2.2.3-gcc/bin/../lib/gcc/sparc-gaisler-elf/10.2.0/leon/mfix-ut699/soft/flat/crtbegin.o
                0x00000000400129e0                __dso_handle
 .data          0x00000000400129e4        0x0 /tmp/ccK56PDv.o
 .data          0x00000000400129e4        0x0 /home/fsw/rep/tasa/lib/bcc-2.2.3-gcc/bin/../sparc-gaisler-elf/bsp/leon3/leon/mfix-ut699/soft/flat/libbcc.a(reset_trap_mvt.S.o)
 .data          0x00000000400129e4        0x0 /home/fsw/rep/tasa/lib/bcc-2.2.3-gcc/bin/../sparc-gaisler-elf/bsp/leon3/leon/mfix-ut699/soft/flat/libbcc.a(sw_trap_set_pil.S.o)
 .data          0x00000000400129e4        0x0 /home/fsw/rep/tasa/lib/bcc-2.2.3-gcc/bin/../sparc-gaisler-elf/bsp/leon3/leon/mfix-ut699/soft/flat/libbcc.a(init.S.o)
 .data          0x00000000400129e4       0x10 /home/fsw/rep/tasa/lib/bcc-2.2.3-gcc/bin/../sparc-gaisler-elf/bsp/leon3/leon/mfix-ut699/soft/flat/libbcc.a(leon_info.S.o)
                0x00000000400129e4                __bcc_leon_version
                0x00000000400129e8                __bcc_nwindows_min1
                0x00000000400129ec                __bcc_nwindows
                0x00000000400129f0                __bcc_cpuid
 .data          0x00000000400129f4        0x0 /home/fsw/rep/tasa/lib/bcc-2.2.3-gcc/bin/../sparc-gaisler-elf/bsp/leon3/leon/mfix-ut699/soft/flat/libbcc.a(dwzero.S.o)
 .data          0x00000000400129f4        0x0 /home/fsw/rep/tasa/lib/bcc-2.2.3-gcc/bin/../sparc-gaisler-elf/bsp/leon3/leon/mfix-ut699/soft/flat/libbcc.a(copy_data.c.o)
 .data          0x00000000400129f4        0x4 /home/fsw/rep/tasa/lib/bcc-2.2.3-gcc/bin/../sparc-gaisler-elf/bsp/leon3/leon/mfix-ut699/soft/flat/libbcc.a(argv.c.o)
                0x00000000400129f4                __bcc_argvp
 .data          0x00000000400129f8        0x0 /home/fsw/rep/tasa/lib/bcc-2.2.3-gcc/bin/../sparc-gaisler-elf/bsp/leon3/leon/mfix-ut699/soft/flat/libbcc.a(interrupt_trap_flat_tn0018.S.o)
 .data          0x00000000400129f8        0x0 /home/fsw/rep/tasa/lib/bcc-2.2.3-gcc/bin/../sparc-gaisler-elf/bsp/leon3/leon/mfix-ut699/soft/flat/libbcc.a(int_irqmp_get_source.c.o)
 .data          0x00000000400129f8        0x0 /home/fsw/rep/tasa/lib/bcc-2.2.3-gcc/bin/../sparc-gaisler-elf/bsp/leon3/leon/mfix-ut699/soft/flat/libbcc.a(int_irqmp_mp.c.o)
 .data          0x00000000400129f8        0x0 /home/fsw/rep/tasa/lib/bcc-2.2.3-gcc/bin/../sparc-gaisler-elf/bsp/leon3/leon/mfix-ut699/soft/flat/libbcc.a(int_irqmp_init.c.o)
 .data          0x00000000400129f8        0x0 /home/fsw/rep/tasa/lib/bcc-2.2.3-gcc/bin/../sparc-gaisler-elf/bsp/leon3/leon/mfix-ut699/soft/flat/libbcc.a(con_apbuart_init.c.o)
 .data          0x00000000400129f8        0x0 /home/fsw/rep/tasa/lib/bcc-2.2.3-gcc/bin/../sparc-gaisler-elf/bsp/leon3/leon/mfix-ut699/soft/flat/libbcc.a(timer_gptimer_init.c.o)
 .data          0x00000000400129f8        0x0 /home/fsw/rep/tasa/lib/bcc-2.2.3-gcc/bin/../sparc-gaisler-elf/bsp/leon3/leon/mfix-ut699/soft/flat/libbcc.a(isr.c.o)
 .data          0x00000000400129f8       0x10 /home/fsw/rep/tasa/lib/bcc-2.2.3-gcc/bin/../sparc-gaisler-elf/bsp/leon3/leon/mfix-ut699/soft/flat/libbcc.a(int_nest.c.o)
                0x00000000400129f8                __bcc_int_nest
 .data          0x0000000040012a08        0x0 /home/fsw/rep/tasa/lib/bcc-2.2.3-gcc/bin/../sparc-gaisler-elf/bsp/leon3/leon/mfix-ut699/soft/flat/libbcc.a(ambapp.c.o)
 .data          0x0000000040012a08        0x0 /home/fsw/rep/tasa/lib/bcc-2.2.3-gcc/bin/../sparc-gaisler-elf/bsp/leon3/leon/mfix-ut699/soft/flat/libbcc.a(ambapp_findfirst_fn.c.o)
 .data          0x0000000040012a08        0x0 /home/fsw/rep/tasa/lib/bcc-2.2.3-gcc/bin/../sparc-gaisler-elf/bsp/leon3/leon/mfix-ut699/soft/flat/libbcc.a(int_irqmp_handle.c.o)
 .data          0x0000000040012a08        0x0 /home/fsw/rep/tasa/lib/bcc-2.2.3-gcc/bin/../sparc-gaisler-elf/bsp/leon3/leon/mfix-ut699/soft/flat/libbcc.a(con_handle.c.o)
 .data          0x0000000040012a08        0x0 /home/fsw/rep/tasa/lib/bcc-2.2.3-gcc/bin/../sparc-gaisler-elf/bsp/leon3/leon/mfix-ut699/soft/flat/libbcc.a(timer_handle.c.o)
 .data          0x0000000040012a08        0x0 /home/fsw/rep/tasa/lib/bcc-2.2.3-gcc/bin/../lib/gcc/sparc-gaisler-elf/10.2.0/../../../../sparc-gaisler-elf/lib/leon/mfix-ut699/soft/flat/libc.a(lib_a-atexit.o)
 .data          0x0000000040012a08        0x0 /home/fsw/rep/tasa/lib/bcc-2.2.3-gcc/bin/../lib/gcc/sparc-gaisler-elf/10.2.0/../../../../sparc-gaisler-elf/lib/leon/mfix-ut699/soft/flat/libc.a(lib_a-exit.o)
 .data          0x0000000040012a08       0x64 /home/fsw/rep/tasa/lib/bcc-2.2.3-gcc/bin/../lib/gcc/sparc-gaisler-elf/10.2.0/../../../../sparc-gaisler-elf/lib/leon/mfix-ut699/soft/flat/libc.a(lib_a-impure.o)
                0x0000000040012a08                _impure_ptr
 .data          0x0000000040012a6c        0x0 /home/fsw/rep/tasa/lib/bcc-2.2.3-gcc/bin/../lib/gcc/sparc-gaisler-elf/10.2.0/../../../../sparc-gaisler-elf/lib/leon/mfix-ut699/soft/flat/libc.a(lib_a-memcpy.o)
 .data          0x0000000040012a6c        0x0 /home/fsw/rep/tasa/lib/bcc-2.2.3-gcc/bin/../lib/gcc/sparc-gaisler-elf/10.2.0/../../../../sparc-gaisler-elf/lib/leon/mfix-ut699/soft/flat/libc.a(lib_a-printf.o)
 .data          0x0000000040012a6c        0x0 /home/fsw/rep/tasa/lib/bcc-2.2.3-gcc/bin/../lib/gcc/sparc-gaisler-elf/10.2.0/../../../../sparc-gaisler-elf/lib/leon/mfix-ut699/soft/flat/libc.a(lib_a-putchar.o)
 .data          0x0000000040012a6c        0x0 /home/fsw/rep/tasa/lib/bcc-2.2.3-gcc/bin/../lib/gcc/sparc-gaisler-elf/10.2.0/../../../../sparc-gaisler-elf/lib/leon/mfix-ut699/soft/flat/libc.a(lib_a-puts.o)
 .data          0x0000000040012a6c        0x0 /home/fsw/rep/tasa/lib/bcc-2.2.3-gcc/bin/../lib/gcc/sparc-gaisler-elf/10.2.0/../../../../sparc-gaisler-elf/lib/leon/mfix-ut699/soft/flat/libc.a(lib_a-strlen.o)
 .data          0x0000000040012a6c        0x0 /home/fsw/rep/tasa/lib/bcc-2.2.3-gcc/bin/../lib/gcc/sparc-gaisler-elf/10.2.0/../../../../sparc-gaisler-elf/lib/leon/mfix-ut699/soft/flat/libc.a(lib_a-vfprintf.o)
 .data          0x0000000040012a6c        0x0 /home/fsw/rep/tasa/lib/bcc-2.2.3-gcc/bin/../lib/gcc/sparc-gaisler-elf/10.2.0/../../../../sparc-gaisler-elf/lib/leon/mfix-ut699/soft/flat/libc.a(lib_a-wsetup.o)
 .data          0x0000000040012a6c        0x0 /home/fsw/rep/tasa/lib/bcc-2.2.3-gcc/bin/../lib/gcc/sparc-gaisler-elf/10.2.0/../../../../sparc-gaisler-elf/lib/leon/mfix-ut699/soft/flat/libc.a(lib_a-__atexit.o)
 .data          0x0000000040012a6c        0x0 /home/fsw/rep/tasa/lib/bcc-2.2.3-gcc/bin/../lib/gcc/sparc-gaisler-elf/10.2.0/../../../../sparc-gaisler-elf/lib/leon/mfix-ut699/soft/flat/libc.a(lib_a-__call_atexit.o)
 .data          0x0000000040012a6c        0x0 /home/fsw/rep/tasa/lib/bcc-2.2.3-gcc/bin/../lib/gcc/sparc-gaisler-elf/10.2.0/../../../../sparc-gaisler-elf/lib/leon/mfix-ut699/soft/flat/libc.a(lib_a-dtoa.o)
 .data          0x0000000040012a6c        0x0 /home/fsw/rep/tasa/lib/bcc-2.2.3-gcc/bin/../lib/gcc/sparc-gaisler-elf/10.2.0/../../../../sparc-gaisler-elf/lib/leon/mfix-ut699/soft/flat/libc.a(lib_a-fflush.o)
 .data          0x0000000040012a6c        0x0 /home/fsw/rep/tasa/lib/bcc-2.2.3-gcc/bin/../lib/gcc/sparc-gaisler-elf/10.2.0/../../../../sparc-gaisler-elf/lib/leon/mfix-ut699/soft/flat/libc.a(lib_a-findfp.o)
 .data          0x0000000040012a6c        0x0 /home/fsw/rep/tasa/lib/bcc-2.2.3-gcc/bin/../lib/gcc/sparc-gaisler-elf/10.2.0/../../../../sparc-gaisler-elf/lib/leon/mfix-ut699/soft/flat/libc.a(lib_a-freer.o)
 .data          0x0000000040012a6c        0x0 /home/fsw/rep/tasa/lib/bcc-2.2.3-gcc/bin/../lib/gcc/sparc-gaisler-elf/10.2.0/../../../../sparc-gaisler-elf/lib/leon/mfix-ut699/soft/flat/libc.a(lib_a-fvwrite.o)
 .data          0x0000000040012a6c        0x0 /home/fsw/rep/tasa/lib/bcc-2.2.3-gcc/bin/../lib/gcc/sparc-gaisler-elf/10.2.0/../../../../sparc-gaisler-elf/lib/leon/mfix-ut699/soft/flat/libc.a(lib_a-fwalk.o)
 .data          0x0000000040012a6c        0x0 /home/fsw/rep/tasa/lib/bcc-2.2.3-gcc/bin/../lib/gcc/sparc-gaisler-elf/10.2.0/../../../../sparc-gaisler-elf/lib/leon/mfix-ut699/soft/flat/libc.a(lib_a-localeconv.o)
 .data          0x0000000040012a6c        0x0 /home/fsw/rep/tasa/lib/bcc-2.2.3-gcc/bin/../lib/gcc/sparc-gaisler-elf/10.2.0/../../../../sparc-gaisler-elf/lib/leon/mfix-ut699/soft/flat/libc.a(lib_a-makebuf.o)
 .data          0x0000000040012a6c        0x0 /home/fsw/rep/tasa/lib/bcc-2.2.3-gcc/bin/../lib/gcc/sparc-gaisler-elf/10.2.0/../../../../sparc-gaisler-elf/lib/leon/mfix-ut699/soft/flat/libc.a(lib_a-malloc.o)
 .data          0x0000000040012a6c      0x410 /home/fsw/rep/tasa/lib/bcc-2.2.3-gcc/bin/../lib/gcc/sparc-gaisler-elf/10.2.0/../../../../sparc-gaisler-elf/lib/leon/mfix-ut699/soft/flat/libc.a(lib_a-mallocr.o)
                0x0000000040012a6c                __malloc_sbrk_base
                0x0000000040012a70                __malloc_trim_threshold
                0x0000000040012a74                __malloc_av_
 .data          0x0000000040012e7c        0x0 /home/fsw/rep/tasa/lib/bcc-2.2.3-gcc/bin/../lib/gcc/sparc-gaisler-elf/10.2.0/../../../../sparc-gaisler-elf/lib/leon/mfix-ut699/soft/flat/libc.a(lib_a-memchr.o)
 .data          0x0000000040012e7c        0x0 /home/fsw/rep/tasa/lib/bcc-2.2.3-gcc/bin/../lib/gcc/sparc-gaisler-elf/10.2.0/../../../../sparc-gaisler-elf/lib/leon/mfix-ut699/soft/flat/libc.a(lib_a-memmove.o)
 .data          0x0000000040012e7c        0x0 /home/fsw/rep/tasa/lib/bcc-2.2.3-gcc/bin/../lib/gcc/sparc-gaisler-elf/10.2.0/../../../../sparc-gaisler-elf/lib/leon/mfix-ut699/soft/flat/libc.a(lib_a-memset.o)
 .data          0x0000000040012e7c        0x0 /home/fsw/rep/tasa/lib/bcc-2.2.3-gcc/bin/../lib/gcc/sparc-gaisler-elf/10.2.0/../../../../sparc-gaisler-elf/lib/leon/mfix-ut699/soft/flat/libc.a(lib_a-mlock.o)
 .data          0x0000000040012e7c        0x0 /home/fsw/rep/tasa/lib/bcc-2.2.3-gcc/bin/../lib/gcc/sparc-gaisler-elf/10.2.0/../../../../sparc-gaisler-elf/lib/leon/mfix-ut699/soft/flat/libc.a(lib_a-mprec.o)
 .data          0x0000000040012e7c        0x0 /home/fsw/rep/tasa/lib/bcc-2.2.3-gcc/bin/../lib/gcc/sparc-gaisler-elf/10.2.0/../../../../sparc-gaisler-elf/lib/leon/mfix-ut699/soft/flat/libc.a(lib_a-putc.o)
 .data          0x0000000040012e7c        0x0 /home/fsw/rep/tasa/lib/bcc-2.2.3-gcc/bin/../lib/gcc/sparc-gaisler-elf/10.2.0/../../../../sparc-gaisler-elf/lib/leon/mfix-ut699/soft/flat/libc.a(lib_a-reallocr.o)
 .data          0x0000000040012e7c        0x0 /home/fsw/rep/tasa/lib/bcc-2.2.3-gcc/bin/../lib/gcc/sparc-gaisler-elf/10.2.0/../../../../sparc-gaisler-elf/lib/leon/mfix-ut699/soft/flat/libc.a(lib_a-s_frexp.o)
 .data          0x0000000040012e7c        0x0 /home/fsw/rep/tasa/lib/bcc-2.2.3-gcc/bin/../lib/gcc/sparc-gaisler-elf/10.2.0/../../../../sparc-gaisler-elf/lib/leon/mfix-ut699/soft/flat/libc.a(lib_a-sbrkr.o)
 .data          0x0000000040012e7c        0x0 /home/fsw/rep/tasa/lib/bcc-2.2.3-gcc/bin/../lib/gcc/sparc-gaisler-elf/10.2.0/../../../../sparc-gaisler-elf/lib/leon/mfix-ut699/soft/flat/libc.a(lib_a-stdio.o)
 .data          0x0000000040012e7c        0x0 /home/fsw/rep/tasa/lib/bcc-2.2.3-gcc/bin/../lib/gcc/sparc-gaisler-elf/10.2.0/../../../../sparc-gaisler-elf/lib/leon/mfix-ut699/soft/flat/libc.a(lib_a-strncpy.o)
 .data          0x0000000040012e7c        0x0 /home/fsw/rep/tasa/lib/bcc-2.2.3-gcc/bin/../lib/gcc/sparc-gaisler-elf/10.2.0/../../../../sparc-gaisler-elf/lib/leon/mfix-ut699/soft/flat/libc.a(lib_a-vfiprintf.o)
 .data          0x0000000040012e7c        0x0 /home/fsw/rep/tasa/lib/bcc-2.2.3-gcc/bin/../lib/gcc/sparc-gaisler-elf/10.2.0/../../../../sparc-gaisler-elf/lib/leon/mfix-ut699/soft/flat/libc.a(lib_a-wbuf.o)
 .data          0x0000000040012e7c        0x0 /home/fsw/rep/tasa/lib/bcc-2.2.3-gcc/bin/../lib/gcc/sparc-gaisler-elf/10.2.0/../../../../sparc-gaisler-elf/lib/leon/mfix-ut699/soft/flat/libc.a(lib_a-writer.o)
 .data          0x0000000040012e7c        0x0 /home/fsw/rep/tasa/lib/bcc-2.2.3-gcc/bin/../lib/gcc/sparc-gaisler-elf/10.2.0/../../../../sparc-gaisler-elf/lib/leon/mfix-ut699/soft/flat/libc.a(lib_a-callocr.o)
 .data          0x0000000040012e7c        0x0 /home/fsw/rep/tasa/lib/bcc-2.2.3-gcc/bin/../lib/gcc/sparc-gaisler-elf/10.2.0/../../../../sparc-gaisler-elf/lib/leon/mfix-ut699/soft/flat/libc.a(lib_a-closer.o)
 .data          0x0000000040012e7c        0x0 /home/fsw/rep/tasa/lib/bcc-2.2.3-gcc/bin/../lib/gcc/sparc-gaisler-elf/10.2.0/../../../../sparc-gaisler-elf/lib/leon/mfix-ut699/soft/flat/libc.a(lib_a-fclose.o)
 .data          0x0000000040012e7c        0x0 /home/fsw/rep/tasa/lib/bcc-2.2.3-gcc/bin/../lib/gcc/sparc-gaisler-elf/10.2.0/../../../../sparc-gaisler-elf/lib/leon/mfix-ut699/soft/flat/libc.a(lib_a-fputwc.o)
 .data          0x0000000040012e7c        0x0 /home/fsw/rep/tasa/lib/bcc-2.2.3-gcc/bin/../lib/gcc/sparc-gaisler-elf/10.2.0/../../../../sparc-gaisler-elf/lib/leon/mfix-ut699/soft/flat/libc.a(lib_a-fstatr.o)
 .data          0x0000000040012e7c        0x0 /home/fsw/rep/tasa/lib/bcc-2.2.3-gcc/bin/../lib/gcc/sparc-gaisler-elf/10.2.0/../../../../sparc-gaisler-elf/lib/leon/mfix-ut699/soft/flat/libc.a(lib_a-isattyr.o)
 .data          0x0000000040012e7c      0x16c /home/fsw/rep/tasa/lib/bcc-2.2.3-gcc/bin/../lib/gcc/sparc-gaisler-elf/10.2.0/../../../../sparc-gaisler-elf/lib/leon/mfix-ut699/soft/flat/libc.a(lib_a-locale.o)
                0x0000000040012e7c                __global_locale
 .data          0x0000000040012fe8        0x0 /home/fsw/rep/tasa/lib/bcc-2.2.3-gcc/bin/../lib/gcc/sparc-gaisler-elf/10.2.0/../../../../sparc-gaisler-elf/lib/leon/mfix-ut699/soft/flat/libc.a(lib_a-lseekr.o)
 .data          0x0000000040012fe8        0x0 /home/fsw/rep/tasa/lib/bcc-2.2.3-gcc/bin/../lib/gcc/sparc-gaisler-elf/10.2.0/../../../../sparc-gaisler-elf/lib/leon/mfix-ut699/soft/flat/libc.a(lib_a-mbtowc_r.o)
 .data          0x0000000040012fe8        0x0 /home/fsw/rep/tasa/lib/bcc-2.2.3-gcc/bin/../lib/gcc/sparc-gaisler-elf/10.2.0/../../../../sparc-gaisler-elf/lib/leon/mfix-ut699/soft/flat/libc.a(lib_a-readr.o)
 .data          0x0000000040012fe8        0x0 /home/fsw/rep/tasa/lib/bcc-2.2.3-gcc/bin/../lib/gcc/sparc-gaisler-elf/10.2.0/../../../../sparc-gaisler-elf/lib/leon/mfix-ut699/soft/flat/libc.a(lib_a-reent.o)
 .data          0x0000000040012fe8        0x0 /home/fsw/rep/tasa/lib/bcc-2.2.3-gcc/bin/../lib/gcc/sparc-gaisler-elf/10.2.0/../../../../sparc-gaisler-elf/lib/leon/mfix-ut699/soft/flat/libc.a(lib_a-strcmp.o)
 .data          0x0000000040012fe8        0x0 /home/fsw/rep/tasa/lib/bcc-2.2.3-gcc/bin/../lib/gcc/sparc-gaisler-elf/10.2.0/../../../../sparc-gaisler-elf/lib/leon/mfix-ut699/soft/flat/libc.a(lib_a-wcrtomb.o)
 .data          0x0000000040012fe8        0x0 /home/fsw/rep/tasa/lib/bcc-2.2.3-gcc/bin/../lib/gcc/sparc-gaisler-elf/10.2.0/../../../../sparc-gaisler-elf/lib/leon/mfix-ut699/soft/flat/libc.a(lib_a-wctomb_r.o)
 .data          0x0000000040012fe8        0x0 /home/fsw/rep/tasa/lib/bcc-2.2.3-gcc/bin/../lib/gcc/sparc-gaisler-elf/10.2.0/../../../../sparc-gaisler-elf/lib/leon/mfix-ut699/soft/flat/libc.a(lib_a-ctype_.o)
 .data          0x0000000040012fe8        0x0 /home/fsw/rep/tasa/lib/bcc-2.2.3-gcc/bin/../sparc-gaisler-elf/bsp/leon3/leon/mfix-ut699/soft/flat/libbcc.a(_exit.S.o)
 .data          0x0000000040012fe8        0x0 /home/fsw/rep/tasa/lib/bcc-2.2.3-gcc/bin/../sparc-gaisler-elf/bsp/leon3/leon/mfix-ut699/soft/flat/libbcc.a(read.c.o)
 .data          0x0000000040012fe8        0x0 /home/fsw/rep/tasa/lib/bcc-2.2.3-gcc/bin/../sparc-gaisler-elf/bsp/leon3/leon/mfix-ut699/soft/flat/libbcc.a(sbrk.c.o)
 .data          0x0000000040012fe8        0x0 /home/fsw/rep/tasa/lib/bcc-2.2.3-gcc/bin/../sparc-gaisler-elf/bsp/leon3/leon/mfix-ut699/soft/flat/libbcc.a(heap.c.o)
 .data          0x0000000040012fe8        0x0 /home/fsw/rep/tasa/lib/bcc-2.2.3-gcc/bin/../sparc-gaisler-elf/bsp/leon3/leon/mfix-ut699/soft/flat/libbcc.a(write.c.o)
 .data          0x0000000040012fe8        0x0 /home/fsw/rep/tasa/lib/bcc-2.2.3-gcc/bin/../sparc-gaisler-elf/bsp/leon3/leon/mfix-ut699/soft/flat/libbcc.a(stubs.S.o)
 .data          0x0000000040012fe8        0x0 /home/fsw/rep/tasa/lib/bcc-2.2.3-gcc/bin/../sparc-gaisler-elf/bsp/leon3/leon/mfix-ut699/soft/flat/libbcc.a(con_apbuart.c.o)
 .data          0x0000000040012fe8        0x0 /home/fsw/rep/tasa/lib/bcc-2.2.3-gcc/bin/../lib/gcc/sparc-gaisler-elf/10.2.0/leon/mfix-ut699/soft/flat/libgcc.a(_udivdi3.o)
 .data          0x0000000040012fe8        0x0 /home/fsw/rep/tasa/lib/bcc-2.2.3-gcc/bin/../lib/gcc/sparc-gaisler-elf/10.2.0/leon/mfix-ut699/soft/flat/libgcc.a(_umoddi3.o)
 .data          0x0000000040012fe8        0x0 /home/fsw/rep/tasa/lib/bcc-2.2.3-gcc/bin/../lib/gcc/sparc-gaisler-elf/10.2.0/leon/mfix-ut699/soft/flat/libgcc.a(_addsub_df.o)
 .data          0x0000000040012fe8        0x0 /home/fsw/rep/tasa/lib/bcc-2.2.3-gcc/bin/../lib/gcc/sparc-gaisler-elf/10.2.0/leon/mfix-ut699/soft/flat/libgcc.a(_mul_df.o)
 .data          0x0000000040012fe8        0x0 /home/fsw/rep/tasa/lib/bcc-2.2.3-gcc/bin/../lib/gcc/sparc-gaisler-elf/10.2.0/leon/mfix-ut699/soft/flat/libgcc.a(_div_df.o)
 .data          0x0000000040012fe8        0x0 /home/fsw/rep/tasa/lib/bcc-2.2.3-gcc/bin/../lib/gcc/sparc-gaisler-elf/10.2.0/leon/mfix-ut699/soft/flat/libgcc.a(_eq_df.o)
 .data          0x0000000040012fe8        0x0 /home/fsw/rep/tasa/lib/bcc-2.2.3-gcc/bin/../lib/gcc/sparc-gaisler-elf/10.2.0/leon/mfix-ut699/soft/flat/libgcc.a(_ne_df.o)
 .data          0x0000000040012fe8        0x0 /home/fsw/rep/tasa/lib/bcc-2.2.3-gcc/bin/../lib/gcc/sparc-gaisler-elf/10.2.0/leon/mfix-ut699/soft/flat/libgcc.a(_gt_df.o)
 .data          0x0000000040012fe8        0x0 /home/fsw/rep/tasa/lib/bcc-2.2.3-gcc/bin/../lib/gcc/sparc-gaisler-elf/10.2.0/leon/mfix-ut699/soft/flat/libgcc.a(_lt_df.o)
 .data          0x0000000040012fe8        0x0 /home/fsw/rep/tasa/lib/bcc-2.2.3-gcc/bin/../lib/gcc/sparc-gaisler-elf/10.2.0/leon/mfix-ut699/soft/flat/libgcc.a(_le_df.o)
 .data          0x0000000040012fe8        0x0 /home/fsw/rep/tasa/lib/bcc-2.2.3-gcc/bin/../lib/gcc/sparc-gaisler-elf/10.2.0/leon/mfix-ut699/soft/flat/libgcc.a(_unord_df.o)
 .data          0x0000000040012fe8        0x0 /home/fsw/rep/tasa/lib/bcc-2.2.3-gcc/bin/../lib/gcc/sparc-gaisler-elf/10.2.0/leon/mfix-ut699/soft/flat/libgcc.a(_si_to_df.o)
 .data          0x0000000040012fe8        0x0 /home/fsw/rep/tasa/lib/bcc-2.2.3-gcc/bin/../lib/gcc/sparc-gaisler-elf/10.2.0/leon/mfix-ut699/soft/flat/libgcc.a(_df_to_si.o)
 .data          0x0000000040012fe8        0x0 /home/fsw/rep/tasa/lib/bcc-2.2.3-gcc/bin/../lib/gcc/sparc-gaisler-elf/10.2.0/leon/mfix-ut699/soft/flat/libgcc.a(_thenan_df.o)
 .data          0x0000000040012fe8        0x0 /home/fsw/rep/tasa/lib/bcc-2.2.3-gcc/bin/../lib/gcc/sparc-gaisler-elf/10.2.0/leon/mfix-ut699/soft/flat/libgcc.a(_usi_to_df.o)
 .data          0x0000000040012fe8        0x0 /home/fsw/rep/tasa/lib/bcc-2.2.3-gcc/bin/../lib/gcc/sparc-gaisler-elf/10.2.0/leon/mfix-ut699/soft/flat/libgcc.a(_clz.o)
 .data          0x0000000040012fe8        0x0 /home/fsw/rep/tasa/lib/bcc-2.2.3-gcc/bin/../lib/gcc/sparc-gaisler-elf/10.2.0/leon/mfix-ut699/soft/flat/libgcc.a(_clzsi2.o)
 .data          0x0000000040012fe8        0x0 /home/fsw/rep/tasa/lib/bcc-2.2.3-gcc/bin/../lib/gcc/sparc-gaisler-elf/10.2.0/leon/mfix-ut699/soft/flat/libgcc.a(_pack_df.o)
 .data          0x0000000040012fe8        0x0 /home/fsw/rep/tasa/lib/bcc-2.2.3-gcc/bin/../lib/gcc/sparc-gaisler-elf/10.2.0/leon/mfix-ut699/soft/flat/libgcc.a(_unpack_df.o)
 .data          0x0000000040012fe8        0x0 /home/fsw/rep/tasa/lib/bcc-2.2.3-gcc/bin/../lib/gcc/sparc-gaisler-elf/10.2.0/leon/mfix-ut699/soft/flat/libgcc.a(_fpcmp_parts_df.o)
 .data          0x0000000040012fe8        0x0 /home/fsw/rep/tasa/lib/bcc-2.2.3-gcc/bin/../lib/gcc/sparc-gaisler-elf/10.2.0/leon/mfix-ut699/soft/flat/crtend.o
 .data          0x0000000040012fe8        0x0 /home/fsw/rep/tasa/lib/bcc-2.2.3-gcc/bin/../lib/gcc/sparc-gaisler-elf/10.2.0/leon/mfix-ut699/soft/flat/crtn.o
                0x0000000040012fe8                . = ALIGN (0x8)
                0x0000000040012fe8                __data_end = .
                0x00000000400129e0                __data_start_lma = LOADADDR (.data)
                0x0000000000000608                __data_size = SIZEOF (.data)

.iplt           0x0000000040012fe8        0x0
 .iplt          0x0000000040012fe8        0x0 /home/fsw/rep/tasa/lib/bcc-2.2.3-gcc/bin/../sparc-gaisler-elf/bsp/leon3/leon/mfix-ut699/soft/flat/trap_table_mvt_tn0018.S.o

.tm_clone_table
                0x0000000040012fe8        0x0
 .tm_clone_table
                0x0000000040012fe8        0x0 /home/fsw/rep/tasa/lib/bcc-2.2.3-gcc/bin/../lib/gcc/sparc-gaisler-elf/10.2.0/leon/mfix-ut699/soft/flat/crtbegin.o
 .tm_clone_table
                0x0000000040012fe8        0x0 /home/fsw/rep/tasa/lib/bcc-2.2.3-gcc/bin/../lib/gcc/sparc-gaisler-elf/10.2.0/leon/mfix-ut699/soft/flat/crtend.o

.bss            0x0000000040012fe8      0x1a8
                0x0000000040012fe8                . = ALIGN (0x8)
                0x0000000040012fe8                __bss_start = .
 *(.bss .bss.*)
 .bss           0x0000000040012fe8        0x0 /home/fsw/rep/tasa/lib/bcc-2.2.3-gcc/bin/../sparc-gaisler-elf/bsp/leon3/leon/mfix-ut699/soft/flat/trap_table_mvt_tn0018.S.o
 .bss           0x0000000040012fe8        0x4 /home/fsw/rep/tasa/lib/bcc-2.2.3-gcc/bin/../sparc-gaisler-elf/bsp/leon3/leon/mfix-ut699/soft/flat/crt0.S.o
                0x0000000040012fe8                __bcc_sp_at_entry
 .bss           0x0000000040012fec        0x0 /home/fsw/rep/tasa/lib/bcc-2.2.3-gcc/bin/../lib/gcc/sparc-gaisler-elf/10.2.0/leon/mfix-ut699/soft/flat/crti.o
 .bss           0x0000000040012fec       0x20 /home/fsw/rep/tasa/lib/bcc-2.2.3-gcc/bin/../lib/gcc/sparc-gaisler-elf/10.2.0/leon/mfix-ut699/soft/flat/crtbegin.o
 .bss           0x000000004001300c        0x0 /tmp/ccK56PDv.o
 .bss           0x000000004001300c        0x0 /home/fsw/rep/tasa/lib/bcc-2.2.3-gcc/bin/../sparc-gaisler-elf/bsp/leon3/leon/mfix-ut699/soft/flat/libbcc.a(reset_trap_mvt.S.o)
 .bss           0x000000004001300c        0x0 /home/fsw/rep/tasa/lib/bcc-2.2.3-gcc/bin/../sparc-gaisler-elf/bsp/leon3/leon/mfix-ut699/soft/flat/libbcc.a(sw_trap_set_pil.S.o)
 .bss           0x000000004001300c        0x0 /home/fsw/rep/tasa/lib/bcc-2.2.3-gcc/bin/../sparc-gaisler-elf/bsp/leon3/leon/mfix-ut699/soft/flat/libbcc.a(init.S.o)
 .bss           0x000000004001300c        0x0 /home/fsw/rep/tasa/lib/bcc-2.2.3-gcc/bin/../sparc-gaisler-elf/bsp/leon3/leon/mfix-ut699/soft/flat/libbcc.a(leon_info.S.o)
 .bss           0x000000004001300c        0x0 /home/fsw/rep/tasa/lib/bcc-2.2.3-gcc/bin/../sparc-gaisler-elf/bsp/leon3/leon/mfix-ut699/soft/flat/libbcc.a(dwzero.S.o)
 .bss           0x000000004001300c        0x0 /home/fsw/rep/tasa/lib/bcc-2.2.3-gcc/bin/../sparc-gaisler-elf/bsp/leon3/leon/mfix-ut699/soft/flat/libbcc.a(copy_data.c.o)
 .bss           0x000000004001300c        0x8 /home/fsw/rep/tasa/lib/bcc-2.2.3-gcc/bin/../sparc-gaisler-elf/bsp/leon3/leon/mfix-ut699/soft/flat/libbcc.a(argv.c.o)
                0x0000000040013010                __bcc_argc
 .bss           0x0000000040013014        0x0 /home/fsw/rep/tasa/lib/bcc-2.2.3-gcc/bin/../sparc-gaisler-elf/bsp/leon3/leon/mfix-ut699/soft/flat/libbcc.a(interrupt_trap_flat_tn0018.S.o)
 .bss           0x0000000040013014        0x0 /home/fsw/rep/tasa/lib/bcc-2.2.3-gcc/bin/../sparc-gaisler-elf/bsp/leon3/leon/mfix-ut699/soft/flat/libbcc.a(int_irqmp_get_source.c.o)
 .bss           0x0000000040013014        0x0 /home/fsw/rep/tasa/lib/bcc-2.2.3-gcc/bin/../sparc-gaisler-elf/bsp/leon3/leon/mfix-ut699/soft/flat/libbcc.a(int_irqmp_mp.c.o)
 .bss           0x0000000040013014        0x0 /home/fsw/rep/tasa/lib/bcc-2.2.3-gcc/bin/../sparc-gaisler-elf/bsp/leon3/leon/mfix-ut699/soft/flat/libbcc.a(int_irqmp_init.c.o)
 .bss           0x0000000040013014        0x0 /home/fsw/rep/tasa/lib/bcc-2.2.3-gcc/bin/../sparc-gaisler-elf/bsp/leon3/leon/mfix-ut699/soft/flat/libbcc.a(con_apbuart_init.c.o)
 .bss           0x0000000040013014        0x0 /home/fsw/rep/tasa/lib/bcc-2.2.3-gcc/bin/../sparc-gaisler-elf/bsp/leon3/leon/mfix-ut699/soft/flat/libbcc.a(timer_gptimer_init.c.o)
 .bss           0x0000000040013014       0x80 /home/fsw/rep/tasa/lib/bcc-2.2.3-gcc/bin/../sparc-gaisler-elf/bsp/leon3/leon/mfix-ut699/soft/flat/libbcc.a(isr.c.o)
                0x0000000040013014                __bcc_isr_list
 .bss           0x0000000040013094        0x0 /home/fsw/rep/tasa/lib/bcc-2.2.3-gcc/bin/../sparc-gaisler-elf/bsp/leon3/leon/mfix-ut699/soft/flat/libbcc.a(int_nest.c.o)
 .bss           0x0000000040013094        0x0 /home/fsw/rep/tasa/lib/bcc-2.2.3-gcc/bin/../sparc-gaisler-elf/bsp/leon3/leon/mfix-ut699/soft/flat/libbcc.a(ambapp.c.o)
 .bss           0x0000000040013094        0x0 /home/fsw/rep/tasa/lib/bcc-2.2.3-gcc/bin/../sparc-gaisler-elf/bsp/leon3/leon/mfix-ut699/soft/flat/libbcc.a(ambapp_findfirst_fn.c.o)
 .bss           0x0000000040013094       0x10 /home/fsw/rep/tasa/lib/bcc-2.2.3-gcc/bin/../sparc-gaisler-elf/bsp/leon3/leon/mfix-ut699/soft/flat/libbcc.a(int_irqmp_handle.c.o)
                0x0000000040013094                __bcc_int_irqmp_nts
                0x0000000040013098                __bcc_int_irqmp_map
                0x000000004001309c                __bcc_int_irqmp_eirq
                0x00000000400130a0                __bcc_int_handle
 .bss           0x00000000400130a4        0x4 /home/fsw/rep/tasa/lib/bcc-2.2.3-gcc/bin/../sparc-gaisler-elf/bsp/leon3/leon/mfix-ut699/soft/flat/libbcc.a(con_handle.c.o)
                0x00000000400130a4                __bcc_con_handle
 .bss           0x00000000400130a8        0x8 /home/fsw/rep/tasa/lib/bcc-2.2.3-gcc/bin/../sparc-gaisler-elf/bsp/leon3/leon/mfix-ut699/soft/flat/libbcc.a(timer_handle.c.o)
                0x00000000400130a8                __bcc_timer_interrupt
                0x00000000400130ac                __bcc_timer_handle
 .bss           0x00000000400130b0        0x0 /home/fsw/rep/tasa/lib/bcc-2.2.3-gcc/bin/../lib/gcc/sparc-gaisler-elf/10.2.0/../../../../sparc-gaisler-elf/lib/leon/mfix-ut699/soft/flat/libc.a(lib_a-atexit.o)
 .bss           0x00000000400130b0        0x0 /home/fsw/rep/tasa/lib/bcc-2.2.3-gcc/bin/../lib/gcc/sparc-gaisler-elf/10.2.0/../../../../sparc-gaisler-elf/lib/leon/mfix-ut699/soft/flat/libc.a(lib_a-exit.o)
 .bss           0x00000000400130b0        0x0 /home/fsw/rep/tasa/lib/bcc-2.2.3-gcc/bin/../lib/gcc/sparc-gaisler-elf/10.2.0/../../../../sparc-gaisler-elf/lib/leon/mfix-ut699/soft/flat/libc.a(lib_a-impure.o)
 .bss           0x00000000400130b0        0x0 /home/fsw/rep/tasa/lib/bcc-2.2.3-gcc/bin/../lib/gcc/sparc-gaisler-elf/10.2.0/../../../../sparc-gaisler-elf/lib/leon/mfix-ut699/soft/flat/libc.a(lib_a-memcpy.o)
 .bss           0x00000000400130b0        0x0 /home/fsw/rep/tasa/lib/bcc-2.2.3-gcc/bin/../lib/gcc/sparc-gaisler-elf/10.2.0/../../../../sparc-gaisler-elf/lib/leon/mfix-ut699/soft/flat/libc.a(lib_a-printf.o)
 .bss           0x00000000400130b0        0x0 /home/fsw/rep/tasa/lib/bcc-2.2.3-gcc/bin/../lib/gcc/sparc-gaisler-elf/10.2.0/../../../../sparc-gaisler-elf/lib/leon/mfix-ut699/soft/flat/libc.a(lib_a-putchar.o)
 .bss           0x00000000400130b0        0x0 /home/fsw/rep/tasa/lib/bcc-2.2.3-gcc/bin/../lib/gcc/sparc-gaisler-elf/10.2.0/../../../../sparc-gaisler-elf/lib/leon/mfix-ut699/soft/flat/libc.a(lib_a-puts.o)
 .bss           0x00000000400130b0        0x0 /home/fsw/rep/tasa/lib/bcc-2.2.3-gcc/bin/../lib/gcc/sparc-gaisler-elf/10.2.0/../../../../sparc-gaisler-elf/lib/leon/mfix-ut699/soft/flat/libc.a(lib_a-strlen.o)
 .bss           0x00000000400130b0        0x0 /home/fsw/rep/tasa/lib/bcc-2.2.3-gcc/bin/../lib/gcc/sparc-gaisler-elf/10.2.0/../../../../sparc-gaisler-elf/lib/leon/mfix-ut699/soft/flat/libc.a(lib_a-vfprintf.o)
 .bss           0x00000000400130b0        0x0 /home/fsw/rep/tasa/lib/bcc-2.2.3-gcc/bin/../lib/gcc/sparc-gaisler-elf/10.2.0/../../../../sparc-gaisler-elf/lib/leon/mfix-ut699/soft/flat/libc.a(lib_a-wsetup.o)
 .bss           0x00000000400130b0       0x8c /home/fsw/rep/tasa/lib/bcc-2.2.3-gcc/bin/../lib/gcc/sparc-gaisler-elf/10.2.0/../../../../sparc-gaisler-elf/lib/leon/mfix-ut699/soft/flat/libc.a(lib_a-__atexit.o)
 .bss           0x000000004001313c        0x4 /home/fsw/rep/tasa/lib/bcc-2.2.3-gcc/bin/../lib/gcc/sparc-gaisler-elf/10.2.0/../../../../sparc-gaisler-elf/lib/leon/mfix-ut699/soft/flat/libc.a(lib_a-__call_atexit.o)
                0x000000004001313c                _global_atexit
 .bss           0x0000000040013140        0x0 /home/fsw/rep/tasa/lib/bcc-2.2.3-gcc/bin/../lib/gcc/sparc-gaisler-elf/10.2.0/../../../../sparc-gaisler-elf/lib/leon/mfix-ut699/soft/flat/libc.a(lib_a-dtoa.o)
 .bss           0x0000000040013140        0x0 /home/fsw/rep/tasa/lib/bcc-2.2.3-gcc/bin/../lib/gcc/sparc-gaisler-elf/10.2.0/../../../../sparc-gaisler-elf/lib/leon/mfix-ut699/soft/flat/libc.a(lib_a-fflush.o)
 .bss           0x0000000040013140        0x0 /home/fsw/rep/tasa/lib/bcc-2.2.3-gcc/bin/../lib/gcc/sparc-gaisler-elf/10.2.0/../../../../sparc-gaisler-elf/lib/leon/mfix-ut699/soft/flat/libc.a(lib_a-findfp.o)
 .bss           0x0000000040013140        0x0 /home/fsw/rep/tasa/lib/bcc-2.2.3-gcc/bin/../lib/gcc/sparc-gaisler-elf/10.2.0/../../../../sparc-gaisler-elf/lib/leon/mfix-ut699/soft/flat/libc.a(lib_a-freer.o)
 .bss           0x0000000040013140        0x0 /home/fsw/rep/tasa/lib/bcc-2.2.3-gcc/bin/../lib/gcc/sparc-gaisler-elf/10.2.0/../../../../sparc-gaisler-elf/lib/leon/mfix-ut699/soft/flat/libc.a(lib_a-fvwrite.o)
 .bss           0x0000000040013140        0x0 /home/fsw/rep/tasa/lib/bcc-2.2.3-gcc/bin/../lib/gcc/sparc-gaisler-elf/10.2.0/../../../../sparc-gaisler-elf/lib/leon/mfix-ut699/soft/flat/libc.a(lib_a-fwalk.o)
 .bss           0x0000000040013140        0x0 /home/fsw/rep/tasa/lib/bcc-2.2.3-gcc/bin/../lib/gcc/sparc-gaisler-elf/10.2.0/../../../../sparc-gaisler-elf/lib/leon/mfix-ut699/soft/flat/libc.a(lib_a-localeconv.o)
 .bss           0x0000000040013140        0x0 /home/fsw/rep/tasa/lib/bcc-2.2.3-gcc/bin/../lib/gcc/sparc-gaisler-elf/10.2.0/../../../../sparc-gaisler-elf/lib/leon/mfix-ut699/soft/flat/libc.a(lib_a-makebuf.o)
 .bss           0x0000000040013140        0x0 /home/fsw/rep/tasa/lib/bcc-2.2.3-gcc/bin/../lib/gcc/sparc-gaisler-elf/10.2.0/../../../../sparc-gaisler-elf/lib/leon/mfix-ut699/soft/flat/libc.a(lib_a-malloc.o)
 .bss           0x0000000040013140       0x34 /home/fsw/rep/tasa/lib/bcc-2.2.3-gcc/bin/../lib/gcc/sparc-gaisler-elf/10.2.0/../../../../sparc-gaisler-elf/lib/leon/mfix-ut699/soft/flat/libc.a(lib_a-mallocr.o)
                0x0000000040013140                __malloc_current_mallinfo
                0x0000000040013168                __malloc_max_total_mem
                0x000000004001316c                __malloc_max_sbrked_mem
                0x0000000040013170                __malloc_top_pad
 .bss           0x0000000040013174        0x0 /home/fsw/rep/tasa/lib/bcc-2.2.3-gcc/bin/../lib/gcc/sparc-gaisler-elf/10.2.0/../../../../sparc-gaisler-elf/lib/leon/mfix-ut699/soft/flat/libc.a(lib_a-memchr.o)
 .bss           0x0000000040013174        0x0 /home/fsw/rep/tasa/lib/bcc-2.2.3-gcc/bin/../lib/gcc/sparc-gaisler-elf/10.2.0/../../../../sparc-gaisler-elf/lib/leon/mfix-ut699/soft/flat/libc.a(lib_a-memmove.o)
 .bss           0x0000000040013174        0x0 /home/fsw/rep/tasa/lib/bcc-2.2.3-gcc/bin/../lib/gcc/sparc-gaisler-elf/10.2.0/../../../../sparc-gaisler-elf/lib/leon/mfix-ut699/soft/flat/libc.a(lib_a-memset.o)
 .bss           0x0000000040013174        0x0 /home/fsw/rep/tasa/lib/bcc-2.2.3-gcc/bin/../lib/gcc/sparc-gaisler-elf/10.2.0/../../../../sparc-gaisler-elf/lib/leon/mfix-ut699/soft/flat/libc.a(lib_a-mlock.o)
 .bss           0x0000000040013174        0x0 /home/fsw/rep/tasa/lib/bcc-2.2.3-gcc/bin/../lib/gcc/sparc-gaisler-elf/10.2.0/../../../../sparc-gaisler-elf/lib/leon/mfix-ut699/soft/flat/libc.a(lib_a-mprec.o)
 .bss           0x0000000040013174        0x0 /home/fsw/rep/tasa/lib/bcc-2.2.3-gcc/bin/../lib/gcc/sparc-gaisler-elf/10.2.0/../../../../sparc-gaisler-elf/lib/leon/mfix-ut699/soft/flat/libc.a(lib_a-putc.o)
 .bss           0x0000000040013174        0x0 /home/fsw/rep/tasa/lib/bcc-2.2.3-gcc/bin/../lib/gcc/sparc-gaisler-elf/10.2.0/../../../../sparc-gaisler-elf/lib/leon/mfix-ut699/soft/flat/libc.a(lib_a-reallocr.o)
 .bss           0x0000000040013174        0x0 /home/fsw/rep/tasa/lib/bcc-2.2.3-gcc/bin/../lib/gcc/sparc-gaisler-elf/10.2.0/../../../../sparc-gaisler-elf/lib/leon/mfix-ut699/soft/flat/libc.a(lib_a-s_frexp.o)
 .bss           0x0000000040013174        0x0 /home/fsw/rep/tasa/lib/bcc-2.2.3-gcc/bin/../lib/gcc/sparc-gaisler-elf/10.2.0/../../../../sparc-gaisler-elf/lib/leon/mfix-ut699/soft/flat/libc.a(lib_a-sbrkr.o)
 .bss           0x0000000040013174        0x0 /home/fsw/rep/tasa/lib/bcc-2.2.3-gcc/bin/../lib/gcc/sparc-gaisler-elf/10.2.0/../../../../sparc-gaisler-elf/lib/leon/mfix-ut699/soft/flat/libc.a(lib_a-stdio.o)
 .bss           0x0000000040013174        0x0 /home/fsw/rep/tasa/lib/bcc-2.2.3-gcc/bin/../lib/gcc/sparc-gaisler-elf/10.2.0/../../../../sparc-gaisler-elf/lib/leon/mfix-ut699/soft/flat/libc.a(lib_a-strncpy.o)
 .bss           0x0000000040013174        0x0 /home/fsw/rep/tasa/lib/bcc-2.2.3-gcc/bin/../lib/gcc/sparc-gaisler-elf/10.2.0/../../../../sparc-gaisler-elf/lib/leon/mfix-ut699/soft/flat/libc.a(lib_a-vfiprintf.o)
 .bss           0x0000000040013174        0x0 /home/fsw/rep/tasa/lib/bcc-2.2.3-gcc/bin/../lib/gcc/sparc-gaisler-elf/10.2.0/../../../../sparc-gaisler-elf/lib/leon/mfix-ut699/soft/flat/libc.a(lib_a-wbuf.o)
 .bss           0x0000000040013174        0x0 /home/fsw/rep/tasa/lib/bcc-2.2.3-gcc/bin/../lib/gcc/sparc-gaisler-elf/10.2.0/../../../../sparc-gaisler-elf/lib/leon/mfix-ut699/soft/flat/libc.a(lib_a-writer.o)
 .bss           0x0000000040013174        0x0 /home/fsw/rep/tasa/lib/bcc-2.2.3-gcc/bin/../lib/gcc/sparc-gaisler-elf/10.2.0/../../../../sparc-gaisler-elf/lib/leon/mfix-ut699/soft/flat/libc.a(lib_a-callocr.o)
 .bss           0x0000000040013174        0x0 /home/fsw/rep/tasa/lib/bcc-2.2.3-gcc/bin/../lib/gcc/sparc-gaisler-elf/10.2.0/../../../../sparc-gaisler-elf/lib/leon/mfix-ut699/soft/flat/libc.a(lib_a-closer.o)
 .bss           0x0000000040013174        0x0 /home/fsw/rep/tasa/lib/bcc-2.2.3-gcc/bin/../lib/gcc/sparc-gaisler-elf/10.2.0/../../../../sparc-gaisler-elf/lib/leon/mfix-ut699/soft/flat/libc.a(lib_a-fclose.o)
 .bss           0x0000000040013174        0x0 /home/fsw/rep/tasa/lib/bcc-2.2.3-gcc/bin/../lib/gcc/sparc-gaisler-elf/10.2.0/../../../../sparc-gaisler-elf/lib/leon/mfix-ut699/soft/flat/libc.a(lib_a-fputwc.o)
 .bss           0x0000000040013174        0x0 /home/fsw/rep/tasa/lib/bcc-2.2.3-gcc/bin/../lib/gcc/sparc-gaisler-elf/10.2.0/../../../../sparc-gaisler-elf/lib/leon/mfix-ut699/soft/flat/libc.a(lib_a-fstatr.o)
 .bss           0x0000000040013174        0x0 /home/fsw/rep/tasa/lib/bcc-2.2.3-gcc/bin/../lib/gcc/sparc-gaisler-elf/10.2.0/../../../../sparc-gaisler-elf/lib/leon/mfix-ut699/soft/flat/libc.a(lib_a-isattyr.o)
 .bss           0x0000000040013174        0x4 /home/fsw/rep/tasa/lib/bcc-2.2.3-gcc/bin/../lib/gcc/sparc-gaisler-elf/10.2.0/../../../../sparc-gaisler-elf/lib/leon/mfix-ut699/soft/flat/libc.a(lib_a-locale.o)
                0x0000000040013174                _PathLocale
 .bss           0x0000000040013178        0x0 /home/fsw/rep/tasa/lib/bcc-2.2.3-gcc/bin/../lib/gcc/sparc-gaisler-elf/10.2.0/../../../../sparc-gaisler-elf/lib/leon/mfix-ut699/soft/flat/libc.a(lib_a-lseekr.o)
 .bss           0x0000000040013178        0x0 /home/fsw/rep/tasa/lib/bcc-2.2.3-gcc/bin/../lib/gcc/sparc-gaisler-elf/10.2.0/../../../../sparc-gaisler-elf/lib/leon/mfix-ut699/soft/flat/libc.a(lib_a-mbtowc_r.o)
 .bss           0x0000000040013178        0x0 /home/fsw/rep/tasa/lib/bcc-2.2.3-gcc/bin/../lib/gcc/sparc-gaisler-elf/10.2.0/../../../../sparc-gaisler-elf/lib/leon/mfix-ut699/soft/flat/libc.a(lib_a-readr.o)
 .bss           0x0000000040013178        0x4 /home/fsw/rep/tasa/lib/bcc-2.2.3-gcc/bin/../lib/gcc/sparc-gaisler-elf/10.2.0/../../../../sparc-gaisler-elf/lib/leon/mfix-ut699/soft/flat/libc.a(lib_a-reent.o)
                0x0000000040013178                errno
 .bss           0x000000004001317c        0x0 /home/fsw/rep/tasa/lib/bcc-2.2.3-gcc/bin/../lib/gcc/sparc-gaisler-elf/10.2.0/../../../../sparc-gaisler-elf/lib/leon/mfix-ut699/soft/flat/libc.a(lib_a-strcmp.o)
 .bss           0x000000004001317c        0x0 /home/fsw/rep/tasa/lib/bcc-2.2.3-gcc/bin/../lib/gcc/sparc-gaisler-elf/10.2.0/../../../../sparc-gaisler-elf/lib/leon/mfix-ut699/soft/flat/libc.a(lib_a-wcrtomb.o)
 .bss           0x000000004001317c        0x0 /home/fsw/rep/tasa/lib/bcc-2.2.3-gcc/bin/../lib/gcc/sparc-gaisler-elf/10.2.0/../../../../sparc-gaisler-elf/lib/leon/mfix-ut699/soft/flat/libc.a(lib_a-wctomb_r.o)
 .bss           0x000000004001317c        0x0 /home/fsw/rep/tasa/lib/bcc-2.2.3-gcc/bin/../lib/gcc/sparc-gaisler-elf/10.2.0/../../../../sparc-gaisler-elf/lib/leon/mfix-ut699/soft/flat/libc.a(lib_a-ctype_.o)
 .bss           0x000000004001317c        0x0 /home/fsw/rep/tasa/lib/bcc-2.2.3-gcc/bin/../sparc-gaisler-elf/bsp/leon3/leon/mfix-ut699/soft/flat/libbcc.a(_exit.S.o)
 .bss           0x000000004001317c        0x0 /home/fsw/rep/tasa/lib/bcc-2.2.3-gcc/bin/../sparc-gaisler-elf/bsp/leon3/leon/mfix-ut699/soft/flat/libbcc.a(read.c.o)
 .bss           0x000000004001317c        0x4 /home/fsw/rep/tasa/lib/bcc-2.2.3-gcc/bin/../sparc-gaisler-elf/bsp/leon3/leon/mfix-ut699/soft/flat/libbcc.a(sbrk.c.o)
 .bss           0x0000000040013180        0x8 /home/fsw/rep/tasa/lib/bcc-2.2.3-gcc/bin/../sparc-gaisler-elf/bsp/leon3/leon/mfix-ut699/soft/flat/libbcc.a(heap.c.o)
                0x0000000040013180                __bcc_heap_max
                0x0000000040013184                __bcc_heap_min
 .bss           0x0000000040013188        0x0 /home/fsw/rep/tasa/lib/bcc-2.2.3-gcc/bin/../sparc-gaisler-elf/bsp/leon3/leon/mfix-ut699/soft/flat/libbcc.a(write.c.o)
 .bss           0x0000000040013188        0x0 /home/fsw/rep/tasa/lib/bcc-2.2.3-gcc/bin/../sparc-gaisler-elf/bsp/leon3/leon/mfix-ut699/soft/flat/libbcc.a(stubs.S.o)
 .bss           0x0000000040013188        0x4 /home/fsw/rep/tasa/lib/bcc-2.2.3-gcc/bin/../sparc-gaisler-elf/bsp/leon3/leon/mfix-ut699/soft/flat/libbcc.a(con_apbuart.c.o)
 .bss           0x000000004001318c        0x0 /home/fsw/rep/tasa/lib/bcc-2.2.3-gcc/bin/../lib/gcc/sparc-gaisler-elf/10.2.0/leon/mfix-ut699/soft/flat/libgcc.a(_udivdi3.o)
 .bss           0x000000004001318c        0x0 /home/fsw/rep/tasa/lib/bcc-2.2.3-gcc/bin/../lib/gcc/sparc-gaisler-elf/10.2.0/leon/mfix-ut699/soft/flat/libgcc.a(_umoddi3.o)
 .bss           0x000000004001318c        0x0 /home/fsw/rep/tasa/lib/bcc-2.2.3-gcc/bin/../lib/gcc/sparc-gaisler-elf/10.2.0/leon/mfix-ut699/soft/flat/libgcc.a(_addsub_df.o)
 .bss           0x000000004001318c        0x0 /home/fsw/rep/tasa/lib/bcc-2.2.3-gcc/bin/../lib/gcc/sparc-gaisler-elf/10.2.0/leon/mfix-ut699/soft/flat/libgcc.a(_mul_df.o)
 .bss           0x000000004001318c        0x0 /home/fsw/rep/tasa/lib/bcc-2.2.3-gcc/bin/../lib/gcc/sparc-gaisler-elf/10.2.0/leon/mfix-ut699/soft/flat/libgcc.a(_div_df.o)
 .bss           0x000000004001318c        0x0 /home/fsw/rep/tasa/lib/bcc-2.2.3-gcc/bin/../lib/gcc/sparc-gaisler-elf/10.2.0/leon/mfix-ut699/soft/flat/libgcc.a(_eq_df.o)
 .bss           0x000000004001318c        0x0 /home/fsw/rep/tasa/lib/bcc-2.2.3-gcc/bin/../lib/gcc/sparc-gaisler-elf/10.2.0/leon/mfix-ut699/soft/flat/libgcc.a(_ne_df.o)
 .bss           0x000000004001318c        0x0 /home/fsw/rep/tasa/lib/bcc-2.2.3-gcc/bin/../lib/gcc/sparc-gaisler-elf/10.2.0/leon/mfix-ut699/soft/flat/libgcc.a(_gt_df.o)
 .bss           0x000000004001318c        0x0 /home/fsw/rep/tasa/lib/bcc-2.2.3-gcc/bin/../lib/gcc/sparc-gaisler-elf/10.2.0/leon/mfix-ut699/soft/flat/libgcc.a(_lt_df.o)
 .bss           0x000000004001318c        0x0 /home/fsw/rep/tasa/lib/bcc-2.2.3-gcc/bin/../lib/gcc/sparc-gaisler-elf/10.2.0/leon/mfix-ut699/soft/flat/libgcc.a(_le_df.o)
 .bss           0x000000004001318c        0x0 /home/fsw/rep/tasa/lib/bcc-2.2.3-gcc/bin/../lib/gcc/sparc-gaisler-elf/10.2.0/leon/mfix-ut699/soft/flat/libgcc.a(_unord_df.o)
 .bss           0x000000004001318c        0x0 /home/fsw/rep/tasa/lib/bcc-2.2.3-gcc/bin/../lib/gcc/sparc-gaisler-elf/10.2.0/leon/mfix-ut699/soft/flat/libgcc.a(_si_to_df.o)
 .bss           0x000000004001318c        0x0 /home/fsw/rep/tasa/lib/bcc-2.2.3-gcc/bin/../lib/gcc/sparc-gaisler-elf/10.2.0/leon/mfix-ut699/soft/flat/libgcc.a(_df_to_si.o)
 .bss           0x000000004001318c        0x0 /home/fsw/rep/tasa/lib/bcc-2.2.3-gcc/bin/../lib/gcc/sparc-gaisler-elf/10.2.0/leon/mfix-ut699/soft/flat/libgcc.a(_thenan_df.o)
 .bss           0x000000004001318c        0x0 /home/fsw/rep/tasa/lib/bcc-2.2.3-gcc/bin/../lib/gcc/sparc-gaisler-elf/10.2.0/leon/mfix-ut699/soft/flat/libgcc.a(_usi_to_df.o)
 .bss           0x000000004001318c        0x0 /home/fsw/rep/tasa/lib/bcc-2.2.3-gcc/bin/../lib/gcc/sparc-gaisler-elf/10.2.0/leon/mfix-ut699/soft/flat/libgcc.a(_clz.o)
 .bss           0x000000004001318c        0x0 /home/fsw/rep/tasa/lib/bcc-2.2.3-gcc/bin/../lib/gcc/sparc-gaisler-elf/10.2.0/leon/mfix-ut699/soft/flat/libgcc.a(_clzsi2.o)
 .bss           0x000000004001318c        0x0 /home/fsw/rep/tasa/lib/bcc-2.2.3-gcc/bin/../lib/gcc/sparc-gaisler-elf/10.2.0/leon/mfix-ut699/soft/flat/libgcc.a(_pack_df.o)
 .bss           0x000000004001318c        0x0 /home/fsw/rep/tasa/lib/bcc-2.2.3-gcc/bin/../lib/gcc/sparc-gaisler-elf/10.2.0/leon/mfix-ut699/soft/flat/libgcc.a(_unpack_df.o)
 .bss           0x000000004001318c        0x0 /home/fsw/rep/tasa/lib/bcc-2.2.3-gcc/bin/../lib/gcc/sparc-gaisler-elf/10.2.0/leon/mfix-ut699/soft/flat/libgcc.a(_fpcmp_parts_df.o)
 .bss           0x000000004001318c        0x0 /home/fsw/rep/tasa/lib/bcc-2.2.3-gcc/bin/../lib/gcc/sparc-gaisler-elf/10.2.0/leon/mfix-ut699/soft/flat/crtend.o
 .bss           0x000000004001318c        0x0 /home/fsw/rep/tasa/lib/bcc-2.2.3-gcc/bin/../lib/gcc/sparc-gaisler-elf/10.2.0/leon/mfix-ut699/soft/flat/crtn.o
 *(COMMON)
                0x0000000040013190                . = ALIGN (0x8)
 *fill*         0x000000004001318c        0x4 
                0x0000000040013190                __bss_end = .
                0x0000000040013190                __heap_min = .
                0x0000000040013190                . = ALIGN (0x8)

.jcr
 *(.jcr)

.stab
 *(.stab)

.stabstr
 *(.stabstr)

.debug
 *(.debug)

.line
 *(.line)

.debug_srcinfo
 *(.debug_srcinfo)

.debug_sfnames
 *(.debug_sfnames)

.debug_aranges  0x0000000000000000      0xc48
 *(.debug_aranges)
 .debug_aranges
                0x0000000000000000       0x20 /home/fsw/rep/tasa/lib/bcc-2.2.3-gcc/bin/../sparc-gaisler-elf/bsp/leon3/leon/mfix-ut699/soft/flat/trap_table_mvt_tn0018.S.o
 .debug_aranges
                0x0000000000000020       0x20 /home/fsw/rep/tasa/lib/bcc-2.2.3-gcc/bin/../sparc-gaisler-elf/bsp/leon3/leon/mfix-ut699/soft/flat/crt0.S.o
 .debug_aranges
                0x0000000000000040       0x20 /tmp/ccK56PDv.o
 .debug_aranges
                0x0000000000000060       0x20 /home/fsw/rep/tasa/lib/bcc-2.2.3-gcc/bin/../sparc-gaisler-elf/bsp/leon3/leon/mfix-ut699/soft/flat/libbcc.a(reset_trap_mvt.S.o)
 .debug_aranges
                0x0000000000000080       0x20 /home/fsw/rep/tasa/lib/bcc-2.2.3-gcc/bin/../sparc-gaisler-elf/bsp/leon3/leon/mfix-ut699/soft/flat/libbcc.a(sw_trap_set_pil.S.o)
 .debug_aranges
                0x00000000000000a0       0x20 /home/fsw/rep/tasa/lib/bcc-2.2.3-gcc/bin/../sparc-gaisler-elf/bsp/leon3/leon/mfix-ut699/soft/flat/libbcc.a(init.S.o)
 .debug_aranges
                0x00000000000000c0       0x20 /home/fsw/rep/tasa/lib/bcc-2.2.3-gcc/bin/../sparc-gaisler-elf/bsp/leon3/leon/mfix-ut699/soft/flat/libbcc.a(leon_info.S.o)
 .debug_aranges
                0x00000000000000e0       0x20 /home/fsw/rep/tasa/lib/bcc-2.2.3-gcc/bin/../sparc-gaisler-elf/bsp/leon3/leon/mfix-ut699/soft/flat/libbcc.a(dwzero.S.o)
 .debug_aranges
                0x0000000000000100       0x20 /home/fsw/rep/tasa/lib/bcc-2.2.3-gcc/bin/../sparc-gaisler-elf/bsp/leon3/leon/mfix-ut699/soft/flat/libbcc.a(copy_data.c.o)
 .debug_aranges
                0x0000000000000120       0x18 /home/fsw/rep/tasa/lib/bcc-2.2.3-gcc/bin/../sparc-gaisler-elf/bsp/leon3/leon/mfix-ut699/soft/flat/libbcc.a(argv.c.o)
 .debug_aranges
                0x0000000000000138       0x20 /home/fsw/rep/tasa/lib/bcc-2.2.3-gcc/bin/../sparc-gaisler-elf/bsp/leon3/leon/mfix-ut699/soft/flat/libbcc.a(interrupt_trap_flat_tn0018.S.o)
 .debug_aranges
                0x0000000000000158       0x20 /home/fsw/rep/tasa/lib/bcc-2.2.3-gcc/bin/../sparc-gaisler-elf/bsp/leon3/leon/mfix-ut699/soft/flat/libbcc.a(int_irqmp_get_source.c.o)
 .debug_aranges
                0x0000000000000178       0x20 /home/fsw/rep/tasa/lib/bcc-2.2.3-gcc/bin/../sparc-gaisler-elf/bsp/leon3/leon/mfix-ut699/soft/flat/libbcc.a(int_irqmp_mp.c.o)
 .debug_aranges
                0x0000000000000198       0x20 /home/fsw/rep/tasa/lib/bcc-2.2.3-gcc/bin/../sparc-gaisler-elf/bsp/leon3/leon/mfix-ut699/soft/flat/libbcc.a(int_irqmp_init.c.o)
 .debug_aranges
                0x00000000000001b8       0x20 /home/fsw/rep/tasa/lib/bcc-2.2.3-gcc/bin/../sparc-gaisler-elf/bsp/leon3/leon/mfix-ut699/soft/flat/libbcc.a(con_apbuart_init.c.o)
 .debug_aranges
                0x00000000000001d8       0x20 /home/fsw/rep/tasa/lib/bcc-2.2.3-gcc/bin/../sparc-gaisler-elf/bsp/leon3/leon/mfix-ut699/soft/flat/libbcc.a(timer_gptimer_init.c.o)
 .debug_aranges
                0x00000000000001f8       0x18 /home/fsw/rep/tasa/lib/bcc-2.2.3-gcc/bin/../sparc-gaisler-elf/bsp/leon3/leon/mfix-ut699/soft/flat/libbcc.a(isr.c.o)
 .debug_aranges
                0x0000000000000210       0x18 /home/fsw/rep/tasa/lib/bcc-2.2.3-gcc/bin/../sparc-gaisler-elf/bsp/leon3/leon/mfix-ut699/soft/flat/libbcc.a(int_nest.c.o)
 .debug_aranges
                0x0000000000000228       0x20 /home/fsw/rep/tasa/lib/bcc-2.2.3-gcc/bin/../sparc-gaisler-elf/bsp/leon3/leon/mfix-ut699/soft/flat/libbcc.a(ambapp.c.o)
 .debug_aranges
                0x0000000000000248       0x20 /home/fsw/rep/tasa/lib/bcc-2.2.3-gcc/bin/../sparc-gaisler-elf/bsp/leon3/leon/mfix-ut699/soft/flat/libbcc.a(ambapp_findfirst_fn.c.o)
 .debug_aranges
                0x0000000000000268       0x18 /home/fsw/rep/tasa/lib/bcc-2.2.3-gcc/bin/../sparc-gaisler-elf/bsp/leon3/leon/mfix-ut699/soft/flat/libbcc.a(int_irqmp_handle.c.o)
 .debug_aranges
                0x0000000000000280       0x18 /home/fsw/rep/tasa/lib/bcc-2.2.3-gcc/bin/../sparc-gaisler-elf/bsp/leon3/leon/mfix-ut699/soft/flat/libbcc.a(con_handle.c.o)
 .debug_aranges
                0x0000000000000298       0x18 /home/fsw/rep/tasa/lib/bcc-2.2.3-gcc/bin/../sparc-gaisler-elf/bsp/leon3/leon/mfix-ut699/soft/flat/libbcc.a(timer_handle.c.o)
 .debug_aranges
                0x00000000000002b0       0x20 /home/fsw/rep/tasa/lib/bcc-2.2.3-gcc/bin/../lib/gcc/sparc-gaisler-elf/10.2.0/../../../../sparc-gaisler-elf/lib/leon/mfix-ut699/soft/flat/libc.a(lib_a-atexit.o)
 .debug_aranges
                0x00000000000002d0       0x20 /home/fsw/rep/tasa/lib/bcc-2.2.3-gcc/bin/../lib/gcc/sparc-gaisler-elf/10.2.0/../../../../sparc-gaisler-elf/lib/leon/mfix-ut699/soft/flat/libc.a(lib_a-exit.o)
 .debug_aranges
                0x00000000000002f0       0x18 /home/fsw/rep/tasa/lib/bcc-2.2.3-gcc/bin/../lib/gcc/sparc-gaisler-elf/10.2.0/../../../../sparc-gaisler-elf/lib/leon/mfix-ut699/soft/flat/libc.a(lib_a-impure.o)
 .debug_aranges
                0x0000000000000308       0x20 /home/fsw/rep/tasa/lib/bcc-2.2.3-gcc/bin/../lib/gcc/sparc-gaisler-elf/10.2.0/../../../../sparc-gaisler-elf/lib/leon/mfix-ut699/soft/flat/libc.a(lib_a-memcpy.o)
 .debug_aranges
                0x0000000000000328       0x20 /home/fsw/rep/tasa/lib/bcc-2.2.3-gcc/bin/../lib/gcc/sparc-gaisler-elf/10.2.0/../../../../sparc-gaisler-elf/lib/leon/mfix-ut699/soft/flat/libc.a(lib_a-printf.o)
 .debug_aranges
                0x0000000000000348       0x20 /home/fsw/rep/tasa/lib/bcc-2.2.3-gcc/bin/../lib/gcc/sparc-gaisler-elf/10.2.0/../../../../sparc-gaisler-elf/lib/leon/mfix-ut699/soft/flat/libc.a(lib_a-putchar.o)
 .debug_aranges
                0x0000000000000368       0x20 /home/fsw/rep/tasa/lib/bcc-2.2.3-gcc/bin/../lib/gcc/sparc-gaisler-elf/10.2.0/../../../../sparc-gaisler-elf/lib/leon/mfix-ut699/soft/flat/libc.a(lib_a-puts.o)
 .debug_aranges
                0x0000000000000388       0x20 /home/fsw/rep/tasa/lib/bcc-2.2.3-gcc/bin/../lib/gcc/sparc-gaisler-elf/10.2.0/../../../../sparc-gaisler-elf/lib/leon/mfix-ut699/soft/flat/libc.a(lib_a-strlen.o)
 .debug_aranges
                0x00000000000003a8       0x20 /home/fsw/rep/tasa/lib/bcc-2.2.3-gcc/bin/../lib/gcc/sparc-gaisler-elf/10.2.0/../../../../sparc-gaisler-elf/lib/leon/mfix-ut699/soft/flat/libc.a(lib_a-vfprintf.o)
 .debug_aranges
                0x00000000000003c8       0x20 /home/fsw/rep/tasa/lib/bcc-2.2.3-gcc/bin/../lib/gcc/sparc-gaisler-elf/10.2.0/../../../../sparc-gaisler-elf/lib/leon/mfix-ut699/soft/flat/libc.a(lib_a-wsetup.o)
 .debug_aranges
                0x00000000000003e8       0x20 /home/fsw/rep/tasa/lib/bcc-2.2.3-gcc/bin/../lib/gcc/sparc-gaisler-elf/10.2.0/../../../../sparc-gaisler-elf/lib/leon/mfix-ut699/soft/flat/libc.a(lib_a-__atexit.o)
 .debug_aranges
                0x0000000000000408       0x20 /home/fsw/rep/tasa/lib/bcc-2.2.3-gcc/bin/../lib/gcc/sparc-gaisler-elf/10.2.0/../../../../sparc-gaisler-elf/lib/leon/mfix-ut699/soft/flat/libc.a(lib_a-__call_atexit.o)
 .debug_aranges
                0x0000000000000428       0x20 /home/fsw/rep/tasa/lib/bcc-2.2.3-gcc/bin/../lib/gcc/sparc-gaisler-elf/10.2.0/../../../../sparc-gaisler-elf/lib/leon/mfix-ut699/soft/flat/libc.a(lib_a-dtoa.o)
 .debug_aranges
                0x0000000000000448       0x20 /home/fsw/rep/tasa/lib/bcc-2.2.3-gcc/bin/../lib/gcc/sparc-gaisler-elf/10.2.0/../../../../sparc-gaisler-elf/lib/leon/mfix-ut699/soft/flat/libc.a(lib_a-fflush.o)
 .debug_aranges
                0x0000000000000468       0x20 /home/fsw/rep/tasa/lib/bcc-2.2.3-gcc/bin/../lib/gcc/sparc-gaisler-elf/10.2.0/../../../../sparc-gaisler-elf/lib/leon/mfix-ut699/soft/flat/libc.a(lib_a-findfp.o)
 .debug_aranges
                0x0000000000000488       0x20 /home/fsw/rep/tasa/lib/bcc-2.2.3-gcc/bin/../lib/gcc/sparc-gaisler-elf/10.2.0/../../../../sparc-gaisler-elf/lib/leon/mfix-ut699/soft/flat/libc.a(lib_a-freer.o)
 .debug_aranges
                0x00000000000004a8       0x20 /home/fsw/rep/tasa/lib/bcc-2.2.3-gcc/bin/../lib/gcc/sparc-gaisler-elf/10.2.0/../../../../sparc-gaisler-elf/lib/leon/mfix-ut699/soft/flat/libc.a(lib_a-fvwrite.o)
 .debug_aranges
                0x00000000000004c8       0x20 /home/fsw/rep/tasa/lib/bcc-2.2.3-gcc/bin/../lib/gcc/sparc-gaisler-elf/10.2.0/../../../../sparc-gaisler-elf/lib/leon/mfix-ut699/soft/flat/libc.a(lib_a-fwalk.o)
 .debug_aranges
                0x00000000000004e8       0x20 /home/fsw/rep/tasa/lib/bcc-2.2.3-gcc/bin/../lib/gcc/sparc-gaisler-elf/10.2.0/../../../../sparc-gaisler-elf/lib/leon/mfix-ut699/soft/flat/libc.a(lib_a-localeconv.o)
 .debug_aranges
                0x0000000000000508       0x20 /home/fsw/rep/tasa/lib/bcc-2.2.3-gcc/bin/../lib/gcc/sparc-gaisler-elf/10.2.0/../../../../sparc-gaisler-elf/lib/leon/mfix-ut699/soft/flat/libc.a(lib_a-makebuf.o)
 .debug_aranges
                0x0000000000000528       0x20 /home/fsw/rep/tasa/lib/bcc-2.2.3-gcc/bin/../lib/gcc/sparc-gaisler-elf/10.2.0/../../../../sparc-gaisler-elf/lib/leon/mfix-ut699/soft/flat/libc.a(lib_a-malloc.o)
 .debug_aranges
                0x0000000000000548       0x20 /home/fsw/rep/tasa/lib/bcc-2.2.3-gcc/bin/../lib/gcc/sparc-gaisler-elf/10.2.0/../../../../sparc-gaisler-elf/lib/leon/mfix-ut699/soft/flat/libc.a(lib_a-mallocr.o)
 .debug_aranges
                0x0000000000000568       0x20 /home/fsw/rep/tasa/lib/bcc-2.2.3-gcc/bin/../lib/gcc/sparc-gaisler-elf/10.2.0/../../../../sparc-gaisler-elf/lib/leon/mfix-ut699/soft/flat/libc.a(lib_a-memchr.o)
 .debug_aranges
                0x0000000000000588       0x20 /home/fsw/rep/tasa/lib/bcc-2.2.3-gcc/bin/../lib/gcc/sparc-gaisler-elf/10.2.0/../../../../sparc-gaisler-elf/lib/leon/mfix-ut699/soft/flat/libc.a(lib_a-memmove.o)
 .debug_aranges
                0x00000000000005a8       0x20 /home/fsw/rep/tasa/lib/bcc-2.2.3-gcc/bin/../lib/gcc/sparc-gaisler-elf/10.2.0/../../../../sparc-gaisler-elf/lib/leon/mfix-ut699/soft/flat/libc.a(lib_a-memset.o)
 .debug_aranges
                0x00000000000005c8       0x20 /home/fsw/rep/tasa/lib/bcc-2.2.3-gcc/bin/../lib/gcc/sparc-gaisler-elf/10.2.0/../../../../sparc-gaisler-elf/lib/leon/mfix-ut699/soft/flat/libc.a(lib_a-mlock.o)
 .debug_aranges
                0x00000000000005e8       0x20 /home/fsw/rep/tasa/lib/bcc-2.2.3-gcc/bin/../lib/gcc/sparc-gaisler-elf/10.2.0/../../../../sparc-gaisler-elf/lib/leon/mfix-ut699/soft/flat/libc.a(lib_a-mprec.o)
 .debug_aranges
                0x0000000000000608       0x20 /home/fsw/rep/tasa/lib/bcc-2.2.3-gcc/bin/../lib/gcc/sparc-gaisler-elf/10.2.0/../../../../sparc-gaisler-elf/lib/leon/mfix-ut699/soft/flat/libc.a(lib_a-putc.o)
 .debug_aranges
                0x0000000000000628       0x20 /home/fsw/rep/tasa/lib/bcc-2.2.3-gcc/bin/../lib/gcc/sparc-gaisler-elf/10.2.0/../../../../sparc-gaisler-elf/lib/leon/mfix-ut699/soft/flat/libc.a(lib_a-reallocr.o)
 .debug_aranges
                0x0000000000000648       0x20 /home/fsw/rep/tasa/lib/bcc-2.2.3-gcc/bin/../lib/gcc/sparc-gaisler-elf/10.2.0/../../../../sparc-gaisler-elf/lib/leon/mfix-ut699/soft/flat/libc.a(lib_a-s_frexp.o)
 .debug_aranges
                0x0000000000000668       0x20 /home/fsw/rep/tasa/lib/bcc-2.2.3-gcc/bin/../lib/gcc/sparc-gaisler-elf/10.2.0/../../../../sparc-gaisler-elf/lib/leon/mfix-ut699/soft/flat/libc.a(lib_a-sbrkr.o)
 .debug_aranges
                0x0000000000000688       0x20 /home/fsw/rep/tasa/lib/bcc-2.2.3-gcc/bin/../lib/gcc/sparc-gaisler-elf/10.2.0/../../../../sparc-gaisler-elf/lib/leon/mfix-ut699/soft/flat/libc.a(lib_a-stdio.o)
 .debug_aranges
                0x00000000000006a8       0x20 /home/fsw/rep/tasa/lib/bcc-2.2.3-gcc/bin/../lib/gcc/sparc-gaisler-elf/10.2.0/../../../../sparc-gaisler-elf/lib/leon/mfix-ut699/soft/flat/libc.a(lib_a-strncpy.o)
 .debug_aranges
                0x00000000000006c8       0x20 /home/fsw/rep/tasa/lib/bcc-2.2.3-gcc/bin/../lib/gcc/sparc-gaisler-elf/10.2.0/../../../../sparc-gaisler-elf/lib/leon/mfix-ut699/soft/flat/libc.a(lib_a-vfiprintf.o)
 .debug_aranges
                0x00000000000006e8       0x20 /home/fsw/rep/tasa/lib/bcc-2.2.3-gcc/bin/../lib/gcc/sparc-gaisler-elf/10.2.0/../../../../sparc-gaisler-elf/lib/leon/mfix-ut699/soft/flat/libc.a(lib_a-wbuf.o)
 .debug_aranges
                0x0000000000000708       0x20 /home/fsw/rep/tasa/lib/bcc-2.2.3-gcc/bin/../lib/gcc/sparc-gaisler-elf/10.2.0/../../../../sparc-gaisler-elf/lib/leon/mfix-ut699/soft/flat/libc.a(lib_a-writer.o)
 .debug_aranges
                0x0000000000000728       0x20 /home/fsw/rep/tasa/lib/bcc-2.2.3-gcc/bin/../lib/gcc/sparc-gaisler-elf/10.2.0/../../../../sparc-gaisler-elf/lib/leon/mfix-ut699/soft/flat/libc.a(lib_a-callocr.o)
 .debug_aranges
                0x0000000000000748       0x20 /home/fsw/rep/tasa/lib/bcc-2.2.3-gcc/bin/../lib/gcc/sparc-gaisler-elf/10.2.0/../../../../sparc-gaisler-elf/lib/leon/mfix-ut699/soft/flat/libc.a(lib_a-closer.o)
 .debug_aranges
                0x0000000000000768       0x20 /home/fsw/rep/tasa/lib/bcc-2.2.3-gcc/bin/../lib/gcc/sparc-gaisler-elf/10.2.0/../../../../sparc-gaisler-elf/lib/leon/mfix-ut699/soft/flat/libc.a(lib_a-fclose.o)
 .debug_aranges
                0x0000000000000788       0x20 /home/fsw/rep/tasa/lib/bcc-2.2.3-gcc/bin/../lib/gcc/sparc-gaisler-elf/10.2.0/../../../../sparc-gaisler-elf/lib/leon/mfix-ut699/soft/flat/libc.a(lib_a-fputwc.o)
 .debug_aranges
                0x00000000000007a8       0x20 /home/fsw/rep/tasa/lib/bcc-2.2.3-gcc/bin/../lib/gcc/sparc-gaisler-elf/10.2.0/../../../../sparc-gaisler-elf/lib/leon/mfix-ut699/soft/flat/libc.a(lib_a-fstatr.o)
 .debug_aranges
                0x00000000000007c8       0x20 /home/fsw/rep/tasa/lib/bcc-2.2.3-gcc/bin/../lib/gcc/sparc-gaisler-elf/10.2.0/../../../../sparc-gaisler-elf/lib/leon/mfix-ut699/soft/flat/libc.a(lib_a-isattyr.o)
 .debug_aranges
                0x00000000000007e8       0x20 /home/fsw/rep/tasa/lib/bcc-2.2.3-gcc/bin/../lib/gcc/sparc-gaisler-elf/10.2.0/../../../../sparc-gaisler-elf/lib/leon/mfix-ut699/soft/flat/libc.a(lib_a-locale.o)
 .debug_aranges
                0x0000000000000808       0x20 /home/fsw/rep/tasa/lib/bcc-2.2.3-gcc/bin/../lib/gcc/sparc-gaisler-elf/10.2.0/../../../../sparc-gaisler-elf/lib/leon/mfix-ut699/soft/flat/libc.a(lib_a-lseekr.o)
 .debug_aranges
                0x0000000000000828       0x20 /home/fsw/rep/tasa/lib/bcc-2.2.3-gcc/bin/../lib/gcc/sparc-gaisler-elf/10.2.0/../../../../sparc-gaisler-elf/lib/leon/mfix-ut699/soft/flat/libc.a(lib_a-mbtowc_r.o)
 .debug_aranges
                0x0000000000000848       0x20 /home/fsw/rep/tasa/lib/bcc-2.2.3-gcc/bin/../lib/gcc/sparc-gaisler-elf/10.2.0/../../../../sparc-gaisler-elf/lib/leon/mfix-ut699/soft/flat/libc.a(lib_a-readr.o)
 .debug_aranges
                0x0000000000000868       0x20 /home/fsw/rep/tasa/lib/bcc-2.2.3-gcc/bin/../lib/gcc/sparc-gaisler-elf/10.2.0/../../../../sparc-gaisler-elf/lib/leon/mfix-ut699/soft/flat/libc.a(lib_a-reent.o)
 .debug_aranges
                0x0000000000000888       0x20 /home/fsw/rep/tasa/lib/bcc-2.2.3-gcc/bin/../lib/gcc/sparc-gaisler-elf/10.2.0/../../../../sparc-gaisler-elf/lib/leon/mfix-ut699/soft/flat/libc.a(lib_a-strcmp.o)
 .debug_aranges
                0x00000000000008a8       0x20 /home/fsw/rep/tasa/lib/bcc-2.2.3-gcc/bin/../lib/gcc/sparc-gaisler-elf/10.2.0/../../../../sparc-gaisler-elf/lib/leon/mfix-ut699/soft/flat/libc.a(lib_a-wcrtomb.o)
 .debug_aranges
                0x00000000000008c8       0x20 /home/fsw/rep/tasa/lib/bcc-2.2.3-gcc/bin/../lib/gcc/sparc-gaisler-elf/10.2.0/../../../../sparc-gaisler-elf/lib/leon/mfix-ut699/soft/flat/libc.a(lib_a-wctomb_r.o)
 .debug_aranges
                0x00000000000008e8       0x18 /home/fsw/rep/tasa/lib/bcc-2.2.3-gcc/bin/../lib/gcc/sparc-gaisler-elf/10.2.0/../../../../sparc-gaisler-elf/lib/leon/mfix-ut699/soft/flat/libc.a(lib_a-ctype_.o)
 .debug_aranges
                0x0000000000000900       0x20 /home/fsw/rep/tasa/lib/bcc-2.2.3-gcc/bin/../sparc-gaisler-elf/bsp/leon3/leon/mfix-ut699/soft/flat/libbcc.a(_exit.S.o)
 .debug_aranges
                0x0000000000000920       0x20 /home/fsw/rep/tasa/lib/bcc-2.2.3-gcc/bin/../sparc-gaisler-elf/bsp/leon3/leon/mfix-ut699/soft/flat/libbcc.a(read.c.o)
 .debug_aranges
                0x0000000000000940       0x20 /home/fsw/rep/tasa/lib/bcc-2.2.3-gcc/bin/../sparc-gaisler-elf/bsp/leon3/leon/mfix-ut699/soft/flat/libbcc.a(sbrk.c.o)
 .debug_aranges
                0x0000000000000960       0x18 /home/fsw/rep/tasa/lib/bcc-2.2.3-gcc/bin/../sparc-gaisler-elf/bsp/leon3/leon/mfix-ut699/soft/flat/libbcc.a(heap.c.o)
 .debug_aranges
                0x0000000000000978       0x20 /home/fsw/rep/tasa/lib/bcc-2.2.3-gcc/bin/../sparc-gaisler-elf/bsp/leon3/leon/mfix-ut699/soft/flat/libbcc.a(write.c.o)
 .debug_aranges
                0x0000000000000998       0x20 /home/fsw/rep/tasa/lib/bcc-2.2.3-gcc/bin/../sparc-gaisler-elf/bsp/leon3/leon/mfix-ut699/soft/flat/libbcc.a(stubs.S.o)
 .debug_aranges
                0x00000000000009b8       0x20 /home/fsw/rep/tasa/lib/bcc-2.2.3-gcc/bin/../sparc-gaisler-elf/bsp/leon3/leon/mfix-ut699/soft/flat/libbcc.a(con_apbuart.c.o)
 .debug_aranges
                0x00000000000009d8       0x20 /home/fsw/rep/tasa/lib/bcc-2.2.3-gcc/bin/../lib/gcc/sparc-gaisler-elf/10.2.0/leon/mfix-ut699/soft/flat/libgcc.a(_udivdi3.o)
 .debug_aranges
                0x00000000000009f8       0x20 /home/fsw/rep/tasa/lib/bcc-2.2.3-gcc/bin/../lib/gcc/sparc-gaisler-elf/10.2.0/leon/mfix-ut699/soft/flat/libgcc.a(_umoddi3.o)
 .debug_aranges
                0x0000000000000a18       0x20 /home/fsw/rep/tasa/lib/bcc-2.2.3-gcc/bin/../lib/gcc/sparc-gaisler-elf/10.2.0/leon/mfix-ut699/soft/flat/libgcc.a(_addsub_df.o)
 .debug_aranges
                0x0000000000000a38       0x20 /home/fsw/rep/tasa/lib/bcc-2.2.3-gcc/bin/../lib/gcc/sparc-gaisler-elf/10.2.0/leon/mfix-ut699/soft/flat/libgcc.a(_mul_df.o)
 .debug_aranges
                0x0000000000000a58       0x20 /home/fsw/rep/tasa/lib/bcc-2.2.3-gcc/bin/../lib/gcc/sparc-gaisler-elf/10.2.0/leon/mfix-ut699/soft/flat/libgcc.a(_div_df.o)
 .debug_aranges
                0x0000000000000a78       0x20 /home/fsw/rep/tasa/lib/bcc-2.2.3-gcc/bin/../lib/gcc/sparc-gaisler-elf/10.2.0/leon/mfix-ut699/soft/flat/libgcc.a(_eq_df.o)
 .debug_aranges
                0x0000000000000a98       0x20 /home/fsw/rep/tasa/lib/bcc-2.2.3-gcc/bin/../lib/gcc/sparc-gaisler-elf/10.2.0/leon/mfix-ut699/soft/flat/libgcc.a(_ne_df.o)
 .debug_aranges
                0x0000000000000ab8       0x20 /home/fsw/rep/tasa/lib/bcc-2.2.3-gcc/bin/../lib/gcc/sparc-gaisler-elf/10.2.0/leon/mfix-ut699/soft/flat/libgcc.a(_gt_df.o)
 .debug_aranges
                0x0000000000000ad8       0x20 /home/fsw/rep/tasa/lib/bcc-2.2.3-gcc/bin/../lib/gcc/sparc-gaisler-elf/10.2.0/leon/mfix-ut699/soft/flat/libgcc.a(_lt_df.o)
 .debug_aranges
                0x0000000000000af8       0x20 /home/fsw/rep/tasa/lib/bcc-2.2.3-gcc/bin/../lib/gcc/sparc-gaisler-elf/10.2.0/leon/mfix-ut699/soft/flat/libgcc.a(_le_df.o)
 .debug_aranges
                0x0000000000000b18       0x20 /home/fsw/rep/tasa/lib/bcc-2.2.3-gcc/bin/../lib/gcc/sparc-gaisler-elf/10.2.0/leon/mfix-ut699/soft/flat/libgcc.a(_unord_df.o)
 .debug_aranges
                0x0000000000000b38       0x20 /home/fsw/rep/tasa/lib/bcc-2.2.3-gcc/bin/../lib/gcc/sparc-gaisler-elf/10.2.0/leon/mfix-ut699/soft/flat/libgcc.a(_si_to_df.o)
 .debug_aranges
                0x0000000000000b58       0x20 /home/fsw/rep/tasa/lib/bcc-2.2.3-gcc/bin/../lib/gcc/sparc-gaisler-elf/10.2.0/leon/mfix-ut699/soft/flat/libgcc.a(_df_to_si.o)
 .debug_aranges
                0x0000000000000b78       0x18 /home/fsw/rep/tasa/lib/bcc-2.2.3-gcc/bin/../lib/gcc/sparc-gaisler-elf/10.2.0/leon/mfix-ut699/soft/flat/libgcc.a(_thenan_df.o)
 .debug_aranges
                0x0000000000000b90       0x20 /home/fsw/rep/tasa/lib/bcc-2.2.3-gcc/bin/../lib/gcc/sparc-gaisler-elf/10.2.0/leon/mfix-ut699/soft/flat/libgcc.a(_usi_to_df.o)
 .debug_aranges
                0x0000000000000bb0       0x18 /home/fsw/rep/tasa/lib/bcc-2.2.3-gcc/bin/../lib/gcc/sparc-gaisler-elf/10.2.0/leon/mfix-ut699/soft/flat/libgcc.a(_clz.o)
 .debug_aranges
                0x0000000000000bc8       0x20 /home/fsw/rep/tasa/lib/bcc-2.2.3-gcc/bin/../lib/gcc/sparc-gaisler-elf/10.2.0/leon/mfix-ut699/soft/flat/libgcc.a(_clzsi2.o)
 .debug_aranges
                0x0000000000000be8       0x20 /home/fsw/rep/tasa/lib/bcc-2.2.3-gcc/bin/../lib/gcc/sparc-gaisler-elf/10.2.0/leon/mfix-ut699/soft/flat/libgcc.a(_pack_df.o)
 .debug_aranges
                0x0000000000000c08       0x20 /home/fsw/rep/tasa/lib/bcc-2.2.3-gcc/bin/../lib/gcc/sparc-gaisler-elf/10.2.0/leon/mfix-ut699/soft/flat/libgcc.a(_unpack_df.o)
 .debug_aranges
                0x0000000000000c28       0x20 /home/fsw/rep/tasa/lib/bcc-2.2.3-gcc/bin/../lib/gcc/sparc-gaisler-elf/10.2.0/leon/mfix-ut699/soft/flat/libgcc.a(_fpcmp_parts_df.o)

.debug_pubnames
 *(.debug_pubnames)

.debug_info     0x0000000000000000    0x256c2
 *(.debug_info)
 .debug_info    0x0000000000000000       0x26 /home/fsw/rep/tasa/lib/bcc-2.2.3-gcc/bin/../sparc-gaisler-elf/bsp/leon3/leon/mfix-ut699/soft/flat/trap_table_mvt_tn0018.S.o
 .debug_info    0x0000000000000026       0x26 /home/fsw/rep/tasa/lib/bcc-2.2.3-gcc/bin/../sparc-gaisler-elf/bsp/leon3/leon/mfix-ut699/soft/flat/crt0.S.o
 .debug_info    0x000000000000004c      0x368 /tmp/ccK56PDv.o
 .debug_info    0x00000000000003b4       0x26 /home/fsw/rep/tasa/lib/bcc-2.2.3-gcc/bin/../sparc-gaisler-elf/bsp/leon3/leon/mfix-ut699/soft/flat/libbcc.a(reset_trap_mvt.S.o)
 .debug_info    0x00000000000003da       0x26 /home/fsw/rep/tasa/lib/bcc-2.2.3-gcc/bin/../sparc-gaisler-elf/bsp/leon3/leon/mfix-ut699/soft/flat/libbcc.a(sw_trap_set_pil.S.o)
 .debug_info    0x0000000000000400       0x26 /home/fsw/rep/tasa/lib/bcc-2.2.3-gcc/bin/../sparc-gaisler-elf/bsp/leon3/leon/mfix-ut699/soft/flat/libbcc.a(init.S.o)
 .debug_info    0x0000000000000426       0x26 /home/fsw/rep/tasa/lib/bcc-2.2.3-gcc/bin/../sparc-gaisler-elf/bsp/leon3/leon/mfix-ut699/soft/flat/libbcc.a(leon_info.S.o)
 .debug_info    0x000000000000044c       0x26 /home/fsw/rep/tasa/lib/bcc-2.2.3-gcc/bin/../sparc-gaisler-elf/bsp/leon3/leon/mfix-ut699/soft/flat/libbcc.a(dwzero.S.o)
 .debug_info    0x0000000000000472       0xe8 /home/fsw/rep/tasa/lib/bcc-2.2.3-gcc/bin/../sparc-gaisler-elf/bsp/leon3/leon/mfix-ut699/soft/flat/libbcc.a(copy_data.c.o)
 .debug_info    0x000000000000055a       0xd9 /home/fsw/rep/tasa/lib/bcc-2.2.3-gcc/bin/../sparc-gaisler-elf/bsp/leon3/leon/mfix-ut699/soft/flat/libbcc.a(argv.c.o)
 .debug_info    0x0000000000000633       0x26 /home/fsw/rep/tasa/lib/bcc-2.2.3-gcc/bin/../sparc-gaisler-elf/bsp/leon3/leon/mfix-ut699/soft/flat/libbcc.a(interrupt_trap_flat_tn0018.S.o)
 .debug_info    0x0000000000000659      0x2db /home/fsw/rep/tasa/lib/bcc-2.2.3-gcc/bin/../sparc-gaisler-elf/bsp/leon3/leon/mfix-ut699/soft/flat/libbcc.a(int_irqmp_get_source.c.o)
 .debug_info    0x0000000000000934      0x3a6 /home/fsw/rep/tasa/lib/bcc-2.2.3-gcc/bin/../sparc-gaisler-elf/bsp/leon3/leon/mfix-ut699/soft/flat/libbcc.a(int_irqmp_mp.c.o)
 .debug_info    0x0000000000000cda      0x5d4 /home/fsw/rep/tasa/lib/bcc-2.2.3-gcc/bin/../sparc-gaisler-elf/bsp/leon3/leon/mfix-ut699/soft/flat/libbcc.a(int_irqmp_init.c.o)
 .debug_info    0x00000000000012ae      0x121 /home/fsw/rep/tasa/lib/bcc-2.2.3-gcc/bin/../sparc-gaisler-elf/bsp/leon3/leon/mfix-ut699/soft/flat/libbcc.a(con_apbuart_init.c.o)
 .debug_info    0x00000000000013cf      0x1d6 /home/fsw/rep/tasa/lib/bcc-2.2.3-gcc/bin/../sparc-gaisler-elf/bsp/leon3/leon/mfix-ut699/soft/flat/libbcc.a(timer_gptimer_init.c.o)
 .debug_info    0x00000000000015a5       0xf5 /home/fsw/rep/tasa/lib/bcc-2.2.3-gcc/bin/../sparc-gaisler-elf/bsp/leon3/leon/mfix-ut699/soft/flat/libbcc.a(isr.c.o)
 .debug_info    0x000000000000169a       0xcd /home/fsw/rep/tasa/lib/bcc-2.2.3-gcc/bin/../sparc-gaisler-elf/bsp/leon3/leon/mfix-ut699/soft/flat/libbcc.a(int_nest.c.o)
 .debug_info    0x0000000000001767      0x8ee /home/fsw/rep/tasa/lib/bcc-2.2.3-gcc/bin/../sparc-gaisler-elf/bsp/leon3/leon/mfix-ut699/soft/flat/libbcc.a(ambapp.c.o)
 .debug_info    0x0000000000002055      0x337 /home/fsw/rep/tasa/lib/bcc-2.2.3-gcc/bin/../sparc-gaisler-elf/bsp/leon3/leon/mfix-ut699/soft/flat/libbcc.a(ambapp_findfirst_fn.c.o)
 .debug_info    0x000000000000238c       0xeb /home/fsw/rep/tasa/lib/bcc-2.2.3-gcc/bin/../sparc-gaisler-elf/bsp/leon3/leon/mfix-ut699/soft/flat/libbcc.a(int_irqmp_handle.c.o)
 .debug_info    0x0000000000002477       0x9d /home/fsw/rep/tasa/lib/bcc-2.2.3-gcc/bin/../sparc-gaisler-elf/bsp/leon3/leon/mfix-ut699/soft/flat/libbcc.a(con_handle.c.o)
 .debug_info    0x0000000000002514       0xb7 /home/fsw/rep/tasa/lib/bcc-2.2.3-gcc/bin/../sparc-gaisler-elf/bsp/leon3/leon/mfix-ut699/soft/flat/libbcc.a(timer_handle.c.o)
 .debug_info    0x00000000000025cb      0x100 /home/fsw/rep/tasa/lib/bcc-2.2.3-gcc/bin/../lib/gcc/sparc-gaisler-elf/10.2.0/../../../../sparc-gaisler-elf/lib/leon/mfix-ut699/soft/flat/libc.a(lib_a-atexit.o)
 .debug_info    0x00000000000026cb      0x7de /home/fsw/rep/tasa/lib/bcc-2.2.3-gcc/bin/../lib/gcc/sparc-gaisler-elf/10.2.0/../../../../sparc-gaisler-elf/lib/leon/mfix-ut699/soft/flat/libc.a(lib_a-exit.o)
 .debug_info    0x0000000000002ea9      0x83e /home/fsw/rep/tasa/lib/bcc-2.2.3-gcc/bin/../lib/gcc/sparc-gaisler-elf/10.2.0/../../../../sparc-gaisler-elf/lib/leon/mfix-ut699/soft/flat/libc.a(lib_a-impure.o)
 .debug_info    0x00000000000036e7      0x15c /home/fsw/rep/tasa/lib/bcc-2.2.3-gcc/bin/../lib/gcc/sparc-gaisler-elf/10.2.0/../../../../sparc-gaisler-elf/lib/leon/mfix-ut699/soft/flat/libc.a(lib_a-memcpy.o)
 .debug_info    0x0000000000003843      0x903 /home/fsw/rep/tasa/lib/bcc-2.2.3-gcc/bin/../lib/gcc/sparc-gaisler-elf/10.2.0/../../../../sparc-gaisler-elf/lib/leon/mfix-ut699/soft/flat/libc.a(lib_a-printf.o)
 .debug_info    0x0000000000004146      0x86d /home/fsw/rep/tasa/lib/bcc-2.2.3-gcc/bin/../lib/gcc/sparc-gaisler-elf/10.2.0/../../../../sparc-gaisler-elf/lib/leon/mfix-ut699/soft/flat/libc.a(lib_a-putchar.o)
 .debug_info    0x00000000000049b3      0xaf5 /home/fsw/rep/tasa/lib/bcc-2.2.3-gcc/bin/../lib/gcc/sparc-gaisler-elf/10.2.0/../../../../sparc-gaisler-elf/lib/leon/mfix-ut699/soft/flat/libc.a(lib_a-puts.o)
 .debug_info    0x00000000000054a8       0xee /home/fsw/rep/tasa/lib/bcc-2.2.3-gcc/bin/../lib/gcc/sparc-gaisler-elf/10.2.0/../../../../sparc-gaisler-elf/lib/leon/mfix-ut699/soft/flat/libc.a(lib_a-strlen.o)
 .debug_info    0x0000000000005596     0x1e8c /home/fsw/rep/tasa/lib/bcc-2.2.3-gcc/bin/../lib/gcc/sparc-gaisler-elf/10.2.0/../../../../sparc-gaisler-elf/lib/leon/mfix-ut699/soft/flat/libc.a(lib_a-vfprintf.o)
 .debug_info    0x0000000000007422      0x8dd /home/fsw/rep/tasa/lib/bcc-2.2.3-gcc/bin/../lib/gcc/sparc-gaisler-elf/10.2.0/../../../../sparc-gaisler-elf/lib/leon/mfix-ut699/soft/flat/libc.a(lib_a-wsetup.o)
 .debug_info    0x0000000000007cff      0x264 /home/fsw/rep/tasa/lib/bcc-2.2.3-gcc/bin/../lib/gcc/sparc-gaisler-elf/10.2.0/../../../../sparc-gaisler-elf/lib/leon/mfix-ut699/soft/flat/libc.a(lib_a-__atexit.o)
 .debug_info    0x0000000000007f63      0x28d /home/fsw/rep/tasa/lib/bcc-2.2.3-gcc/bin/../lib/gcc/sparc-gaisler-elf/10.2.0/../../../../sparc-gaisler-elf/lib/leon/mfix-ut699/soft/flat/libc.a(lib_a-__call_atexit.o)
 .debug_info    0x00000000000081f0     0x1824 /home/fsw/rep/tasa/lib/bcc-2.2.3-gcc/bin/../lib/gcc/sparc-gaisler-elf/10.2.0/../../../../sparc-gaisler-elf/lib/leon/mfix-ut699/soft/flat/libc.a(lib_a-dtoa.o)
 .debug_info    0x0000000000009a14      0xae9 /home/fsw/rep/tasa/lib/bcc-2.2.3-gcc/bin/../lib/gcc/sparc-gaisler-elf/10.2.0/../../../../sparc-gaisler-elf/lib/leon/mfix-ut699/soft/flat/libc.a(lib_a-fflush.o)
 .debug_info    0x000000000000a4fd      0xddd /home/fsw/rep/tasa/lib/bcc-2.2.3-gcc/bin/../lib/gcc/sparc-gaisler-elf/10.2.0/../../../../sparc-gaisler-elf/lib/leon/mfix-ut699/soft/flat/libc.a(lib_a-findfp.o)
 .debug_info    0x000000000000b2da      0xb85 /home/fsw/rep/tasa/lib/bcc-2.2.3-gcc/bin/../lib/gcc/sparc-gaisler-elf/10.2.0/../../../../sparc-gaisler-elf/lib/leon/mfix-ut699/soft/flat/libc.a(lib_a-freer.o)
 .debug_info    0x000000000000be5f      0xb03 /home/fsw/rep/tasa/lib/bcc-2.2.3-gcc/bin/../lib/gcc/sparc-gaisler-elf/10.2.0/../../../../sparc-gaisler-elf/lib/leon/mfix-ut699/soft/flat/libc.a(lib_a-fvwrite.o)
 .debug_info    0x000000000000c962      0x8db /home/fsw/rep/tasa/lib/bcc-2.2.3-gcc/bin/../lib/gcc/sparc-gaisler-elf/10.2.0/../../../../sparc-gaisler-elf/lib/leon/mfix-ut699/soft/flat/libc.a(lib_a-fwalk.o)
 .debug_info    0x000000000000d23d      0xb4b /home/fsw/rep/tasa/lib/bcc-2.2.3-gcc/bin/../lib/gcc/sparc-gaisler-elf/10.2.0/../../../../sparc-gaisler-elf/lib/leon/mfix-ut699/soft/flat/libc.a(lib_a-localeconv.o)
 .debug_info    0x000000000000dd88      0xc44 /home/fsw/rep/tasa/lib/bcc-2.2.3-gcc/bin/../lib/gcc/sparc-gaisler-elf/10.2.0/../../../../sparc-gaisler-elf/lib/leon/mfix-ut699/soft/flat/libc.a(lib_a-makebuf.o)
 .debug_info    0x000000000000e9cc      0x80d /home/fsw/rep/tasa/lib/bcc-2.2.3-gcc/bin/../lib/gcc/sparc-gaisler-elf/10.2.0/../../../../sparc-gaisler-elf/lib/leon/mfix-ut699/soft/flat/libc.a(lib_a-malloc.o)
 .debug_info    0x000000000000f1d9      0xd02 /home/fsw/rep/tasa/lib/bcc-2.2.3-gcc/bin/../lib/gcc/sparc-gaisler-elf/10.2.0/../../../../sparc-gaisler-elf/lib/leon/mfix-ut699/soft/flat/libc.a(lib_a-mallocr.o)
 .debug_info    0x000000000000fedb      0x14e /home/fsw/rep/tasa/lib/bcc-2.2.3-gcc/bin/../lib/gcc/sparc-gaisler-elf/10.2.0/../../../../sparc-gaisler-elf/lib/leon/mfix-ut699/soft/flat/libc.a(lib_a-memchr.o)
 .debug_info    0x0000000000010029      0x152 /home/fsw/rep/tasa/lib/bcc-2.2.3-gcc/bin/../lib/gcc/sparc-gaisler-elf/10.2.0/../../../../sparc-gaisler-elf/lib/leon/mfix-ut699/soft/flat/libc.a(lib_a-memmove.o)
 .debug_info    0x000000000001017b      0x137 /home/fsw/rep/tasa/lib/bcc-2.2.3-gcc/bin/../lib/gcc/sparc-gaisler-elf/10.2.0/../../../../sparc-gaisler-elf/lib/leon/mfix-ut699/soft/flat/libc.a(lib_a-memset.o)
 .debug_info    0x00000000000102b2      0x7aa /home/fsw/rep/tasa/lib/bcc-2.2.3-gcc/bin/../lib/gcc/sparc-gaisler-elf/10.2.0/../../../../sparc-gaisler-elf/lib/leon/mfix-ut699/soft/flat/libc.a(lib_a-mlock.o)
 .debug_info    0x0000000000010a5c     0x20f0 /home/fsw/rep/tasa/lib/bcc-2.2.3-gcc/bin/../lib/gcc/sparc-gaisler-elf/10.2.0/../../../../sparc-gaisler-elf/lib/leon/mfix-ut699/soft/flat/libc.a(lib_a-mprec.o)
 .debug_info    0x0000000000012b4c      0xa11 /home/fsw/rep/tasa/lib/bcc-2.2.3-gcc/bin/../lib/gcc/sparc-gaisler-elf/10.2.0/../../../../sparc-gaisler-elf/lib/leon/mfix-ut699/soft/flat/libc.a(lib_a-putc.o)
 .debug_info    0x000000000001355d      0xc01 /home/fsw/rep/tasa/lib/bcc-2.2.3-gcc/bin/../lib/gcc/sparc-gaisler-elf/10.2.0/../../../../sparc-gaisler-elf/lib/leon/mfix-ut699/soft/flat/libc.a(lib_a-reallocr.o)
 .debug_info    0x000000000001415e      0x1eb /home/fsw/rep/tasa/lib/bcc-2.2.3-gcc/bin/../lib/gcc/sparc-gaisler-elf/10.2.0/../../../../sparc-gaisler-elf/lib/leon/mfix-ut699/soft/flat/libc.a(lib_a-s_frexp.o)
 .debug_info    0x0000000000014349      0x802 /home/fsw/rep/tasa/lib/bcc-2.2.3-gcc/bin/../lib/gcc/sparc-gaisler-elf/10.2.0/../../../../sparc-gaisler-elf/lib/leon/mfix-ut699/soft/flat/libc.a(lib_a-sbrkr.o)
 .debug_info    0x0000000000014b4b      0xab8 /home/fsw/rep/tasa/lib/bcc-2.2.3-gcc/bin/../lib/gcc/sparc-gaisler-elf/10.2.0/../../../../sparc-gaisler-elf/lib/leon/mfix-ut699/soft/flat/libc.a(lib_a-stdio.o)
 .debug_info    0x0000000000015603      0x153 /home/fsw/rep/tasa/lib/bcc-2.2.3-gcc/bin/../lib/gcc/sparc-gaisler-elf/10.2.0/../../../../sparc-gaisler-elf/lib/leon/mfix-ut699/soft/flat/libc.a(lib_a-strncpy.o)
 .debug_info    0x0000000000015756     0x23f4 /home/fsw/rep/tasa/lib/bcc-2.2.3-gcc/bin/../lib/gcc/sparc-gaisler-elf/10.2.0/../../../../sparc-gaisler-elf/lib/leon/mfix-ut699/soft/flat/libc.a(lib_a-vfiprintf.o)
 .debug_info    0x0000000000017b4a      0xa46 /home/fsw/rep/tasa/lib/bcc-2.2.3-gcc/bin/../lib/gcc/sparc-gaisler-elf/10.2.0/../../../../sparc-gaisler-elf/lib/leon/mfix-ut699/soft/flat/libc.a(lib_a-wbuf.o)
 .debug_info    0x0000000000018590      0x834 /home/fsw/rep/tasa/lib/bcc-2.2.3-gcc/bin/../lib/gcc/sparc-gaisler-elf/10.2.0/../../../../sparc-gaisler-elf/lib/leon/mfix-ut699/soft/flat/libc.a(lib_a-writer.o)
 .debug_info    0x0000000000018dc4      0x8f0 /home/fsw/rep/tasa/lib/bcc-2.2.3-gcc/bin/../lib/gcc/sparc-gaisler-elf/10.2.0/../../../../sparc-gaisler-elf/lib/leon/mfix-ut699/soft/flat/libc.a(lib_a-callocr.o)
 .debug_info    0x00000000000196b4      0x7df /home/fsw/rep/tasa/lib/bcc-2.2.3-gcc/bin/../lib/gcc/sparc-gaisler-elf/10.2.0/../../../../sparc-gaisler-elf/lib/leon/mfix-ut699/soft/flat/libc.a(lib_a-closer.o)
 .debug_info    0x0000000000019e93      0xa2b /home/fsw/rep/tasa/lib/bcc-2.2.3-gcc/bin/../lib/gcc/sparc-gaisler-elf/10.2.0/../../../../sparc-gaisler-elf/lib/leon/mfix-ut699/soft/flat/libc.a(lib_a-fclose.o)
 .debug_info    0x000000000001a8be      0xb10 /home/fsw/rep/tasa/lib/bcc-2.2.3-gcc/bin/../lib/gcc/sparc-gaisler-elf/10.2.0/../../../../sparc-gaisler-elf/lib/leon/mfix-ut699/soft/flat/libc.a(lib_a-fputwc.o)
 .debug_info    0x000000000001b3ce      0x9df /home/fsw/rep/tasa/lib/bcc-2.2.3-gcc/bin/../lib/gcc/sparc-gaisler-elf/10.2.0/../../../../sparc-gaisler-elf/lib/leon/mfix-ut699/soft/flat/libc.a(lib_a-fstatr.o)
 .debug_info    0x000000000001bdad      0x7df /home/fsw/rep/tasa/lib/bcc-2.2.3-gcc/bin/../lib/gcc/sparc-gaisler-elf/10.2.0/../../../../sparc-gaisler-elf/lib/leon/mfix-ut699/soft/flat/libc.a(lib_a-isattyr.o)
 .debug_info    0x000000000001c58c      0xcd7 /home/fsw/rep/tasa/lib/bcc-2.2.3-gcc/bin/../lib/gcc/sparc-gaisler-elf/10.2.0/../../../../sparc-gaisler-elf/lib/leon/mfix-ut699/soft/flat/libc.a(lib_a-locale.o)
 .debug_info    0x000000000001d263      0x815 /home/fsw/rep/tasa/lib/bcc-2.2.3-gcc/bin/../lib/gcc/sparc-gaisler-elf/10.2.0/../../../../sparc-gaisler-elf/lib/leon/mfix-ut699/soft/flat/libc.a(lib_a-lseekr.o)
 .debug_info    0x000000000001da78      0xb55 /home/fsw/rep/tasa/lib/bcc-2.2.3-gcc/bin/../lib/gcc/sparc-gaisler-elf/10.2.0/../../../../sparc-gaisler-elf/lib/leon/mfix-ut699/soft/flat/libc.a(lib_a-mbtowc_r.o)
 .debug_info    0x000000000001e5cd      0x82d /home/fsw/rep/tasa/lib/bcc-2.2.3-gcc/bin/../lib/gcc/sparc-gaisler-elf/10.2.0/../../../../sparc-gaisler-elf/lib/leon/mfix-ut699/soft/flat/libc.a(lib_a-readr.o)
 .debug_info    0x000000000001edfa      0xca4 /home/fsw/rep/tasa/lib/bcc-2.2.3-gcc/bin/../lib/gcc/sparc-gaisler-elf/10.2.0/../../../../sparc-gaisler-elf/lib/leon/mfix-ut699/soft/flat/libc.a(lib_a-reent.o)
 .debug_info    0x000000000001fa9e       0xf2 /home/fsw/rep/tasa/lib/bcc-2.2.3-gcc/bin/../lib/gcc/sparc-gaisler-elf/10.2.0/../../../../sparc-gaisler-elf/lib/leon/mfix-ut699/soft/flat/libc.a(lib_a-strcmp.o)
 .debug_info    0x000000000001fb90      0xbf7 /home/fsw/rep/tasa/lib/bcc-2.2.3-gcc/bin/../lib/gcc/sparc-gaisler-elf/10.2.0/../../../../sparc-gaisler-elf/lib/leon/mfix-ut699/soft/flat/libc.a(lib_a-wcrtomb.o)
 .debug_info    0x0000000000020787      0xb13 /home/fsw/rep/tasa/lib/bcc-2.2.3-gcc/bin/../lib/gcc/sparc-gaisler-elf/10.2.0/../../../../sparc-gaisler-elf/lib/leon/mfix-ut699/soft/flat/libc.a(lib_a-wctomb_r.o)
 .debug_info    0x000000000002129a       0xec /home/fsw/rep/tasa/lib/bcc-2.2.3-gcc/bin/../lib/gcc/sparc-gaisler-elf/10.2.0/../../../../sparc-gaisler-elf/lib/leon/mfix-ut699/soft/flat/libc.a(lib_a-ctype_.o)
 .debug_info    0x0000000000021386       0x26 /home/fsw/rep/tasa/lib/bcc-2.2.3-gcc/bin/../sparc-gaisler-elf/bsp/leon3/leon/mfix-ut699/soft/flat/libbcc.a(_exit.S.o)
 .debug_info    0x00000000000213ac      0x12f /home/fsw/rep/tasa/lib/bcc-2.2.3-gcc/bin/../sparc-gaisler-elf/bsp/leon3/leon/mfix-ut699/soft/flat/libbcc.a(read.c.o)
 .debug_info    0x00000000000214db      0x138 /home/fsw/rep/tasa/lib/bcc-2.2.3-gcc/bin/../sparc-gaisler-elf/bsp/leon3/leon/mfix-ut699/soft/flat/libbcc.a(sbrk.c.o)
 .debug_info    0x0000000000021613       0xbd /home/fsw/rep/tasa/lib/bcc-2.2.3-gcc/bin/../sparc-gaisler-elf/bsp/leon3/leon/mfix-ut699/soft/flat/libbcc.a(heap.c.o)
 .debug_info    0x00000000000216d0      0x154 /home/fsw/rep/tasa/lib/bcc-2.2.3-gcc/bin/../sparc-gaisler-elf/bsp/leon3/leon/mfix-ut699/soft/flat/libbcc.a(write.c.o)
 .debug_info    0x0000000000021824       0x26 /home/fsw/rep/tasa/lib/bcc-2.2.3-gcc/bin/../sparc-gaisler-elf/bsp/leon3/leon/mfix-ut699/soft/flat/libbcc.a(stubs.S.o)
 .debug_info    0x000000000002184a      0x1a7 /home/fsw/rep/tasa/lib/bcc-2.2.3-gcc/bin/../sparc-gaisler-elf/bsp/leon3/leon/mfix-ut699/soft/flat/libbcc.a(con_apbuart.c.o)
 .debug_info    0x00000000000219f1      0x3b4 /home/fsw/rep/tasa/lib/bcc-2.2.3-gcc/bin/../lib/gcc/sparc-gaisler-elf/10.2.0/leon/mfix-ut699/soft/flat/libgcc.a(_udivdi3.o)
 .debug_info    0x0000000000021da5      0x3c7 /home/fsw/rep/tasa/lib/bcc-2.2.3-gcc/bin/../lib/gcc/sparc-gaisler-elf/10.2.0/leon/mfix-ut699/soft/flat/libgcc.a(_umoddi3.o)
 .debug_info    0x000000000002216c      0x726 /home/fsw/rep/tasa/lib/bcc-2.2.3-gcc/bin/../lib/gcc/sparc-gaisler-elf/10.2.0/leon/mfix-ut699/soft/flat/libgcc.a(_addsub_df.o)
 .debug_info    0x0000000000022892      0x553 /home/fsw/rep/tasa/lib/bcc-2.2.3-gcc/bin/../lib/gcc/sparc-gaisler-elf/10.2.0/leon/mfix-ut699/soft/flat/libgcc.a(_mul_df.o)
 .debug_info    0x0000000000022de5      0x42d /home/fsw/rep/tasa/lib/bcc-2.2.3-gcc/bin/../lib/gcc/sparc-gaisler-elf/10.2.0/leon/mfix-ut699/soft/flat/libgcc.a(_div_df.o)
 .debug_info    0x0000000000023212      0x317 /home/fsw/rep/tasa/lib/bcc-2.2.3-gcc/bin/../lib/gcc/sparc-gaisler-elf/10.2.0/leon/mfix-ut699/soft/flat/libgcc.a(_eq_df.o)
 .debug_info    0x0000000000023529      0x317 /home/fsw/rep/tasa/lib/bcc-2.2.3-gcc/bin/../lib/gcc/sparc-gaisler-elf/10.2.0/leon/mfix-ut699/soft/flat/libgcc.a(_ne_df.o)
 .debug_info    0x0000000000023840      0x317 /home/fsw/rep/tasa/lib/bcc-2.2.3-gcc/bin/../lib/gcc/sparc-gaisler-elf/10.2.0/leon/mfix-ut699/soft/flat/libgcc.a(_gt_df.o)
 .debug_info    0x0000000000023b57      0x317 /home/fsw/rep/tasa/lib/bcc-2.2.3-gcc/bin/../lib/gcc/sparc-gaisler-elf/10.2.0/leon/mfix-ut699/soft/flat/libgcc.a(_lt_df.o)
 .debug_info    0x0000000000023e6e      0x317 /home/fsw/rep/tasa/lib/bcc-2.2.3-gcc/bin/../lib/gcc/sparc-gaisler-elf/10.2.0/leon/mfix-ut699/soft/flat/libgcc.a(_le_df.o)
 .debug_info    0x0000000000024185      0x2f0 /home/fsw/rep/tasa/lib/bcc-2.2.3-gcc/bin/../lib/gcc/sparc-gaisler-elf/10.2.0/leon/mfix-ut699/soft/flat/libgcc.a(_unord_df.o)
 .debug_info    0x0000000000024475      0x275 /home/fsw/rep/tasa/lib/bcc-2.2.3-gcc/bin/../lib/gcc/sparc-gaisler-elf/10.2.0/leon/mfix-ut699/soft/flat/libgcc.a(_si_to_df.o)
 .debug_info    0x00000000000246ea      0x2c9 /home/fsw/rep/tasa/lib/bcc-2.2.3-gcc/bin/../lib/gcc/sparc-gaisler-elf/10.2.0/leon/mfix-ut699/soft/flat/libgcc.a(_df_to_si.o)
 .debug_info    0x00000000000249b3      0x168 /home/fsw/rep/tasa/lib/bcc-2.2.3-gcc/bin/../lib/gcc/sparc-gaisler-elf/10.2.0/leon/mfix-ut699/soft/flat/libgcc.a(_thenan_df.o)
 .debug_info    0x0000000000024b1b      0x263 /home/fsw/rep/tasa/lib/bcc-2.2.3-gcc/bin/../lib/gcc/sparc-gaisler-elf/10.2.0/leon/mfix-ut699/soft/flat/libgcc.a(_usi_to_df.o)
 .debug_info    0x0000000000024d7e       0xc9 /home/fsw/rep/tasa/lib/bcc-2.2.3-gcc/bin/../lib/gcc/sparc-gaisler-elf/10.2.0/leon/mfix-ut699/soft/flat/libgcc.a(_clz.o)
 .debug_info    0x0000000000024e47      0x13a /home/fsw/rep/tasa/lib/bcc-2.2.3-gcc/bin/../lib/gcc/sparc-gaisler-elf/10.2.0/leon/mfix-ut699/soft/flat/libgcc.a(_clzsi2.o)
 .debug_info    0x0000000000024f81      0x2da /home/fsw/rep/tasa/lib/bcc-2.2.3-gcc/bin/../lib/gcc/sparc-gaisler-elf/10.2.0/leon/mfix-ut699/soft/flat/libgcc.a(_pack_df.o)
 .debug_info    0x000000000002525b      0x229 /home/fsw/rep/tasa/lib/bcc-2.2.3-gcc/bin/../lib/gcc/sparc-gaisler-elf/10.2.0/leon/mfix-ut699/soft/flat/libgcc.a(_unpack_df.o)
 .debug_info    0x0000000000025484      0x23e /home/fsw/rep/tasa/lib/bcc-2.2.3-gcc/bin/../lib/gcc/sparc-gaisler-elf/10.2.0/leon/mfix-ut699/soft/flat/libgcc.a(_fpcmp_parts_df.o)

.debug_abbrev   0x0000000000000000     0x9684
 *(.debug_abbrev)
 .debug_abbrev  0x0000000000000000       0x14 /home/fsw/rep/tasa/lib/bcc-2.2.3-gcc/bin/../sparc-gaisler-elf/bsp/leon3/leon/mfix-ut699/soft/flat/trap_table_mvt_tn0018.S.o
 .debug_abbrev  0x0000000000000014       0x14 /home/fsw/rep/tasa/lib/bcc-2.2.3-gcc/bin/../sparc-gaisler-elf/bsp/leon3/leon/mfix-ut699/soft/flat/crt0.S.o
 .debug_abbrev  0x0000000000000028       0xe8 /tmp/ccK56PDv.o
 .debug_abbrev  0x0000000000000110       0x14 /home/fsw/rep/tasa/lib/bcc-2.2.3-gcc/bin/../sparc-gaisler-elf/bsp/leon3/leon/mfix-ut699/soft/flat/libbcc.a(reset_trap_mvt.S.o)
 .debug_abbrev  0x0000000000000124       0x14 /home/fsw/rep/tasa/lib/bcc-2.2.3-gcc/bin/../sparc-gaisler-elf/bsp/leon3/leon/mfix-ut699/soft/flat/libbcc.a(sw_trap_set_pil.S.o)
 .debug_abbrev  0x0000000000000138       0x14 /home/fsw/rep/tasa/lib/bcc-2.2.3-gcc/bin/../sparc-gaisler-elf/bsp/leon3/leon/mfix-ut699/soft/flat/libbcc.a(init.S.o)
 .debug_abbrev  0x000000000000014c       0x14 /home/fsw/rep/tasa/lib/bcc-2.2.3-gcc/bin/../sparc-gaisler-elf/bsp/leon3/leon/mfix-ut699/soft/flat/libbcc.a(leon_info.S.o)
 .debug_abbrev  0x0000000000000160       0x14 /home/fsw/rep/tasa/lib/bcc-2.2.3-gcc/bin/../sparc-gaisler-elf/bsp/leon3/leon/mfix-ut699/soft/flat/libbcc.a(dwzero.S.o)
 .debug_abbrev  0x0000000000000174       0x87 /home/fsw/rep/tasa/lib/bcc-2.2.3-gcc/bin/../sparc-gaisler-elf/bsp/leon3/leon/mfix-ut699/soft/flat/libbcc.a(copy_data.c.o)
 .debug_abbrev  0x00000000000001fb       0x70 /home/fsw/rep/tasa/lib/bcc-2.2.3-gcc/bin/../sparc-gaisler-elf/bsp/leon3/leon/mfix-ut699/soft/flat/libbcc.a(argv.c.o)
 .debug_abbrev  0x000000000000026b       0x14 /home/fsw/rep/tasa/lib/bcc-2.2.3-gcc/bin/../sparc-gaisler-elf/bsp/leon3/leon/mfix-ut699/soft/flat/libbcc.a(interrupt_trap_flat_tn0018.S.o)
 .debug_abbrev  0x000000000000027f      0x132 /home/fsw/rep/tasa/lib/bcc-2.2.3-gcc/bin/../sparc-gaisler-elf/bsp/leon3/leon/mfix-ut699/soft/flat/libbcc.a(int_irqmp_get_source.c.o)
 .debug_abbrev  0x00000000000003b1      0x16d /home/fsw/rep/tasa/lib/bcc-2.2.3-gcc/bin/../sparc-gaisler-elf/bsp/leon3/leon/mfix-ut699/soft/flat/libbcc.a(int_irqmp_mp.c.o)
 .debug_abbrev  0x000000000000051e      0x218 /home/fsw/rep/tasa/lib/bcc-2.2.3-gcc/bin/../sparc-gaisler-elf/bsp/leon3/leon/mfix-ut699/soft/flat/libbcc.a(int_irqmp_init.c.o)
 .debug_abbrev  0x0000000000000736       0xc8 /home/fsw/rep/tasa/lib/bcc-2.2.3-gcc/bin/../sparc-gaisler-elf/bsp/leon3/leon/mfix-ut699/soft/flat/libbcc.a(con_apbuart_init.c.o)
 .debug_abbrev  0x00000000000007fe      0x115 /home/fsw/rep/tasa/lib/bcc-2.2.3-gcc/bin/../sparc-gaisler-elf/bsp/leon3/leon/mfix-ut699/soft/flat/libbcc.a(timer_gptimer_init.c.o)
 .debug_abbrev  0x0000000000000913       0xad /home/fsw/rep/tasa/lib/bcc-2.2.3-gcc/bin/../sparc-gaisler-elf/bsp/leon3/leon/mfix-ut699/soft/flat/libbcc.a(isr.c.o)
 .debug_abbrev  0x00000000000009c0       0x85 /home/fsw/rep/tasa/lib/bcc-2.2.3-gcc/bin/../sparc-gaisler-elf/bsp/leon3/leon/mfix-ut699/soft/flat/libbcc.a(int_nest.c.o)
 .debug_abbrev  0x0000000000000a45      0x2e4 /home/fsw/rep/tasa/lib/bcc-2.2.3-gcc/bin/../sparc-gaisler-elf/bsp/leon3/leon/mfix-ut699/soft/flat/libbcc.a(ambapp.c.o)
 .debug_abbrev  0x0000000000000d29      0x129 /home/fsw/rep/tasa/lib/bcc-2.2.3-gcc/bin/../sparc-gaisler-elf/bsp/leon3/leon/mfix-ut699/soft/flat/libbcc.a(ambapp_findfirst_fn.c.o)
 .debug_abbrev  0x0000000000000e52       0x57 /home/fsw/rep/tasa/lib/bcc-2.2.3-gcc/bin/../sparc-gaisler-elf/bsp/leon3/leon/mfix-ut699/soft/flat/libbcc.a(int_irqmp_handle.c.o)
 .debug_abbrev  0x0000000000000ea9       0x57 /home/fsw/rep/tasa/lib/bcc-2.2.3-gcc/bin/../sparc-gaisler-elf/bsp/leon3/leon/mfix-ut699/soft/flat/libbcc.a(con_handle.c.o)
 .debug_abbrev  0x0000000000000f00       0x57 /home/fsw/rep/tasa/lib/bcc-2.2.3-gcc/bin/../sparc-gaisler-elf/bsp/leon3/leon/mfix-ut699/soft/flat/libbcc.a(timer_handle.c.o)
 .debug_abbrev  0x0000000000000f57       0xb7 /home/fsw/rep/tasa/lib/bcc-2.2.3-gcc/bin/../lib/gcc/sparc-gaisler-elf/10.2.0/../../../../sparc-gaisler-elf/lib/leon/mfix-ut699/soft/flat/libc.a(lib_a-atexit.o)
 .debug_abbrev  0x000000000000100e      0x1a5 /home/fsw/rep/tasa/lib/bcc-2.2.3-gcc/bin/../lib/gcc/sparc-gaisler-elf/10.2.0/../../../../sparc-gaisler-elf/lib/leon/mfix-ut699/soft/flat/libc.a(lib_a-exit.o)
 .debug_abbrev  0x00000000000011b3      0x151 /home/fsw/rep/tasa/lib/bcc-2.2.3-gcc/bin/../lib/gcc/sparc-gaisler-elf/10.2.0/../../../../sparc-gaisler-elf/lib/leon/mfix-ut699/soft/flat/libc.a(lib_a-impure.o)
 .debug_abbrev  0x0000000000001304       0xc7 /home/fsw/rep/tasa/lib/bcc-2.2.3-gcc/bin/../lib/gcc/sparc-gaisler-elf/10.2.0/../../../../sparc-gaisler-elf/lib/leon/mfix-ut699/soft/flat/libc.a(lib_a-memcpy.o)
 .debug_abbrev  0x00000000000013cb      0x21a /home/fsw/rep/tasa/lib/bcc-2.2.3-gcc/bin/../lib/gcc/sparc-gaisler-elf/10.2.0/../../../../sparc-gaisler-elf/lib/leon/mfix-ut699/soft/flat/libc.a(lib_a-printf.o)
 .debug_abbrev  0x00000000000015e5      0x215 /home/fsw/rep/tasa/lib/bcc-2.2.3-gcc/bin/../lib/gcc/sparc-gaisler-elf/10.2.0/../../../../sparc-gaisler-elf/lib/leon/mfix-ut699/soft/flat/libc.a(lib_a-putchar.o)
 .debug_abbrev  0x00000000000017fa      0x252 /home/fsw/rep/tasa/lib/bcc-2.2.3-gcc/bin/../lib/gcc/sparc-gaisler-elf/10.2.0/../../../../sparc-gaisler-elf/lib/leon/mfix-ut699/soft/flat/libc.a(lib_a-puts.o)
 .debug_abbrev  0x0000000000001a4c       0x8f /home/fsw/rep/tasa/lib/bcc-2.2.3-gcc/bin/../lib/gcc/sparc-gaisler-elf/10.2.0/../../../../sparc-gaisler-elf/lib/leon/mfix-ut699/soft/flat/libc.a(lib_a-strlen.o)
 .debug_abbrev  0x0000000000001adb      0x406 /home/fsw/rep/tasa/lib/bcc-2.2.3-gcc/bin/../lib/gcc/sparc-gaisler-elf/10.2.0/../../../../sparc-gaisler-elf/lib/leon/mfix-ut699/soft/flat/libc.a(lib_a-vfprintf.o)
 .debug_abbrev  0x0000000000001ee1      0x1d4 /home/fsw/rep/tasa/lib/bcc-2.2.3-gcc/bin/../lib/gcc/sparc-gaisler-elf/10.2.0/../../../../sparc-gaisler-elf/lib/leon/mfix-ut699/soft/flat/libc.a(lib_a-wsetup.o)
 .debug_abbrev  0x00000000000020b5      0x1b2 /home/fsw/rep/tasa/lib/bcc-2.2.3-gcc/bin/../lib/gcc/sparc-gaisler-elf/10.2.0/../../../../sparc-gaisler-elf/lib/leon/mfix-ut699/soft/flat/libc.a(lib_a-__atexit.o)
 .debug_abbrev  0x0000000000002267      0x1a0 /home/fsw/rep/tasa/lib/bcc-2.2.3-gcc/bin/../lib/gcc/sparc-gaisler-elf/10.2.0/../../../../sparc-gaisler-elf/lib/leon/mfix-ut699/soft/flat/libc.a(lib_a-__call_atexit.o)
 .debug_abbrev  0x0000000000002407      0x2d5 /home/fsw/rep/tasa/lib/bcc-2.2.3-gcc/bin/../lib/gcc/sparc-gaisler-elf/10.2.0/../../../../sparc-gaisler-elf/lib/leon/mfix-ut699/soft/flat/libc.a(lib_a-dtoa.o)
 .debug_abbrev  0x00000000000026dc      0x2cc /home/fsw/rep/tasa/lib/bcc-2.2.3-gcc/bin/../lib/gcc/sparc-gaisler-elf/10.2.0/../../../../sparc-gaisler-elf/lib/leon/mfix-ut699/soft/flat/libc.a(lib_a-fflush.o)
 .debug_abbrev  0x00000000000029a8      0x339 /home/fsw/rep/tasa/lib/bcc-2.2.3-gcc/bin/../lib/gcc/sparc-gaisler-elf/10.2.0/../../../../sparc-gaisler-elf/lib/leon/mfix-ut699/soft/flat/libc.a(lib_a-findfp.o)
 .debug_abbrev  0x0000000000002ce1      0x239 /home/fsw/rep/tasa/lib/bcc-2.2.3-gcc/bin/../lib/gcc/sparc-gaisler-elf/10.2.0/../../../../sparc-gaisler-elf/lib/leon/mfix-ut699/soft/flat/libc.a(lib_a-freer.o)
 .debug_abbrev  0x0000000000002f1a      0x1f4 /home/fsw/rep/tasa/lib/bcc-2.2.3-gcc/bin/../lib/gcc/sparc-gaisler-elf/10.2.0/../../../../sparc-gaisler-elf/lib/leon/mfix-ut699/soft/flat/libc.a(lib_a-fvwrite.o)
 .debug_abbrev  0x000000000000310e      0x197 /home/fsw/rep/tasa/lib/bcc-2.2.3-gcc/bin/../lib/gcc/sparc-gaisler-elf/10.2.0/../../../../sparc-gaisler-elf/lib/leon/mfix-ut699/soft/flat/libc.a(lib_a-fwalk.o)
 .debug_abbrev  0x00000000000032a5      0x24b /home/fsw/rep/tasa/lib/bcc-2.2.3-gcc/bin/../lib/gcc/sparc-gaisler-elf/10.2.0/../../../../sparc-gaisler-elf/lib/leon/mfix-ut699/soft/flat/libc.a(lib_a-localeconv.o)
 .debug_abbrev  0x00000000000034f0      0x278 /home/fsw/rep/tasa/lib/bcc-2.2.3-gcc/bin/../lib/gcc/sparc-gaisler-elf/10.2.0/../../../../sparc-gaisler-elf/lib/leon/mfix-ut699/soft/flat/libc.a(lib_a-makebuf.o)
 .debug_abbrev  0x0000000000003768      0x1b6 /home/fsw/rep/tasa/lib/bcc-2.2.3-gcc/bin/../lib/gcc/sparc-gaisler-elf/10.2.0/../../../../sparc-gaisler-elf/lib/leon/mfix-ut699/soft/flat/libc.a(lib_a-malloc.o)
 .debug_abbrev  0x000000000000391e      0x27e /home/fsw/rep/tasa/lib/bcc-2.2.3-gcc/bin/../lib/gcc/sparc-gaisler-elf/10.2.0/../../../../sparc-gaisler-elf/lib/leon/mfix-ut699/soft/flat/libc.a(lib_a-mallocr.o)
 .debug_abbrev  0x0000000000003b9c       0xd4 /home/fsw/rep/tasa/lib/bcc-2.2.3-gcc/bin/../lib/gcc/sparc-gaisler-elf/10.2.0/../../../../sparc-gaisler-elf/lib/leon/mfix-ut699/soft/flat/libc.a(lib_a-memchr.o)
 .debug_abbrev  0x0000000000003c70       0xc0 /home/fsw/rep/tasa/lib/bcc-2.2.3-gcc/bin/../lib/gcc/sparc-gaisler-elf/10.2.0/../../../../sparc-gaisler-elf/lib/leon/mfix-ut699/soft/flat/libc.a(lib_a-memmove.o)
 .debug_abbrev  0x0000000000003d30       0xb4 /home/fsw/rep/tasa/lib/bcc-2.2.3-gcc/bin/../lib/gcc/sparc-gaisler-elf/10.2.0/../../../../sparc-gaisler-elf/lib/leon/mfix-ut699/soft/flat/libc.a(lib_a-memset.o)
 .debug_abbrev  0x0000000000003de4      0x174 /home/fsw/rep/tasa/lib/bcc-2.2.3-gcc/bin/../lib/gcc/sparc-gaisler-elf/10.2.0/../../../../sparc-gaisler-elf/lib/leon/mfix-ut699/soft/flat/libc.a(lib_a-mlock.o)
 .debug_abbrev  0x0000000000003f58      0x446 /home/fsw/rep/tasa/lib/bcc-2.2.3-gcc/bin/../lib/gcc/sparc-gaisler-elf/10.2.0/../../../../sparc-gaisler-elf/lib/leon/mfix-ut699/soft/flat/libc.a(lib_a-mprec.o)
 .debug_abbrev  0x000000000000439e      0x260 /home/fsw/rep/tasa/lib/bcc-2.2.3-gcc/bin/../lib/gcc/sparc-gaisler-elf/10.2.0/../../../../sparc-gaisler-elf/lib/leon/mfix-ut699/soft/flat/libc.a(lib_a-putc.o)
 .debug_abbrev  0x00000000000045fe      0x224 /home/fsw/rep/tasa/lib/bcc-2.2.3-gcc/bin/../lib/gcc/sparc-gaisler-elf/10.2.0/../../../../sparc-gaisler-elf/lib/leon/mfix-ut699/soft/flat/libc.a(lib_a-reallocr.o)
 .debug_abbrev  0x0000000000004822      0x15f /home/fsw/rep/tasa/lib/bcc-2.2.3-gcc/bin/../lib/gcc/sparc-gaisler-elf/10.2.0/../../../../sparc-gaisler-elf/lib/leon/mfix-ut699/soft/flat/libc.a(lib_a-s_frexp.o)
 .debug_abbrev  0x0000000000004981      0x1d6 /home/fsw/rep/tasa/lib/bcc-2.2.3-gcc/bin/../lib/gcc/sparc-gaisler-elf/10.2.0/../../../../sparc-gaisler-elf/lib/leon/mfix-ut699/soft/flat/libc.a(lib_a-sbrkr.o)
 .debug_abbrev  0x0000000000004b57      0x208 /home/fsw/rep/tasa/lib/bcc-2.2.3-gcc/bin/../lib/gcc/sparc-gaisler-elf/10.2.0/../../../../sparc-gaisler-elf/lib/leon/mfix-ut699/soft/flat/libc.a(lib_a-stdio.o)
 .debug_abbrev  0x0000000000004d5f       0xbb /home/fsw/rep/tasa/lib/bcc-2.2.3-gcc/bin/../lib/gcc/sparc-gaisler-elf/10.2.0/../../../../sparc-gaisler-elf/lib/leon/mfix-ut699/soft/flat/libc.a(lib_a-strncpy.o)
 .debug_abbrev  0x0000000000004e1a      0x3e5 /home/fsw/rep/tasa/lib/bcc-2.2.3-gcc/bin/../lib/gcc/sparc-gaisler-elf/10.2.0/../../../../sparc-gaisler-elf/lib/leon/mfix-ut699/soft/flat/libc.a(lib_a-vfiprintf.o)
 .debug_abbrev  0x00000000000051ff      0x25b /home/fsw/rep/tasa/lib/bcc-2.2.3-gcc/bin/../lib/gcc/sparc-gaisler-elf/10.2.0/../../../../sparc-gaisler-elf/lib/leon/mfix-ut699/soft/flat/libc.a(lib_a-wbuf.o)
 .debug_abbrev  0x000000000000545a      0x1b0 /home/fsw/rep/tasa/lib/bcc-2.2.3-gcc/bin/../lib/gcc/sparc-gaisler-elf/10.2.0/../../../../sparc-gaisler-elf/lib/leon/mfix-ut699/soft/flat/libc.a(lib_a-writer.o)
 .debug_abbrev  0x000000000000560a      0x1da /home/fsw/rep/tasa/lib/bcc-2.2.3-gcc/bin/../lib/gcc/sparc-gaisler-elf/10.2.0/../../../../sparc-gaisler-elf/lib/leon/mfix-ut699/soft/flat/libc.a(lib_a-callocr.o)
 .debug_abbrev  0x00000000000057e4      0x1ab /home/fsw/rep/tasa/lib/bcc-2.2.3-gcc/bin/../lib/gcc/sparc-gaisler-elf/10.2.0/../../../../sparc-gaisler-elf/lib/leon/mfix-ut699/soft/flat/libc.a(lib_a-closer.o)
 .debug_abbrev  0x000000000000598f      0x27e /home/fsw/rep/tasa/lib/bcc-2.2.3-gcc/bin/../lib/gcc/sparc-gaisler-elf/10.2.0/../../../../sparc-gaisler-elf/lib/leon/mfix-ut699/soft/flat/libc.a(lib_a-fclose.o)
 .debug_abbrev  0x0000000000005c0d      0x2c3 /home/fsw/rep/tasa/lib/bcc-2.2.3-gcc/bin/../lib/gcc/sparc-gaisler-elf/10.2.0/../../../../sparc-gaisler-elf/lib/leon/mfix-ut699/soft/flat/libc.a(lib_a-fputwc.o)
 .debug_abbrev  0x0000000000005ed0      0x1bf /home/fsw/rep/tasa/lib/bcc-2.2.3-gcc/bin/../lib/gcc/sparc-gaisler-elf/10.2.0/../../../../sparc-gaisler-elf/lib/leon/mfix-ut699/soft/flat/libc.a(lib_a-fstatr.o)
 .debug_abbrev  0x000000000000608f      0x1ab /home/fsw/rep/tasa/lib/bcc-2.2.3-gcc/bin/../lib/gcc/sparc-gaisler-elf/10.2.0/../../../../sparc-gaisler-elf/lib/leon/mfix-ut699/soft/flat/libc.a(lib_a-isattyr.o)
 .debug_abbrev  0x000000000000623a      0x2b6 /home/fsw/rep/tasa/lib/bcc-2.2.3-gcc/bin/../lib/gcc/sparc-gaisler-elf/10.2.0/../../../../sparc-gaisler-elf/lib/leon/mfix-ut699/soft/flat/libc.a(lib_a-locale.o)
 .debug_abbrev  0x00000000000064f0      0x1bf /home/fsw/rep/tasa/lib/bcc-2.2.3-gcc/bin/../lib/gcc/sparc-gaisler-elf/10.2.0/../../../../sparc-gaisler-elf/lib/leon/mfix-ut699/soft/flat/libc.a(lib_a-lseekr.o)
 .debug_abbrev  0x00000000000066af      0x266 /home/fsw/rep/tasa/lib/bcc-2.2.3-gcc/bin/../lib/gcc/sparc-gaisler-elf/10.2.0/../../../../sparc-gaisler-elf/lib/leon/mfix-ut699/soft/flat/libc.a(lib_a-mbtowc_r.o)
 .debug_abbrev  0x0000000000006915      0x1ab /home/fsw/rep/tasa/lib/bcc-2.2.3-gcc/bin/../lib/gcc/sparc-gaisler-elf/10.2.0/../../../../sparc-gaisler-elf/lib/leon/mfix-ut699/soft/flat/libc.a(lib_a-readr.o)
 .debug_abbrev  0x0000000000006ac0      0x279 /home/fsw/rep/tasa/lib/bcc-2.2.3-gcc/bin/../lib/gcc/sparc-gaisler-elf/10.2.0/../../../../sparc-gaisler-elf/lib/leon/mfix-ut699/soft/flat/libc.a(lib_a-reent.o)
 .debug_abbrev  0x0000000000006d39       0x80 /home/fsw/rep/tasa/lib/bcc-2.2.3-gcc/bin/../lib/gcc/sparc-gaisler-elf/10.2.0/../../../../sparc-gaisler-elf/lib/leon/mfix-ut699/soft/flat/libc.a(lib_a-strcmp.o)
 .debug_abbrev  0x0000000000006db9      0x233 /home/fsw/rep/tasa/lib/bcc-2.2.3-gcc/bin/../lib/gcc/sparc-gaisler-elf/10.2.0/../../../../sparc-gaisler-elf/lib/leon/mfix-ut699/soft/flat/libc.a(lib_a-wcrtomb.o)
 .debug_abbrev  0x0000000000006fec      0x24e /home/fsw/rep/tasa/lib/bcc-2.2.3-gcc/bin/../lib/gcc/sparc-gaisler-elf/10.2.0/../../../../sparc-gaisler-elf/lib/leon/mfix-ut699/soft/flat/libc.a(lib_a-wctomb_r.o)
 .debug_abbrev  0x000000000000723a       0x73 /home/fsw/rep/tasa/lib/bcc-2.2.3-gcc/bin/../lib/gcc/sparc-gaisler-elf/10.2.0/../../../../sparc-gaisler-elf/lib/leon/mfix-ut699/soft/flat/libc.a(lib_a-ctype_.o)
 .debug_abbrev  0x00000000000072ad       0x14 /home/fsw/rep/tasa/lib/bcc-2.2.3-gcc/bin/../sparc-gaisler-elf/bsp/leon3/leon/mfix-ut699/soft/flat/libbcc.a(_exit.S.o)
 .debug_abbrev  0x00000000000072c1       0xc8 /home/fsw/rep/tasa/lib/bcc-2.2.3-gcc/bin/../sparc-gaisler-elf/bsp/leon3/leon/mfix-ut699/soft/flat/libbcc.a(read.c.o)
 .debug_abbrev  0x0000000000007389       0xc9 /home/fsw/rep/tasa/lib/bcc-2.2.3-gcc/bin/../sparc-gaisler-elf/bsp/leon3/leon/mfix-ut699/soft/flat/libbcc.a(sbrk.c.o)
 .debug_abbrev  0x0000000000007452       0x60 /home/fsw/rep/tasa/lib/bcc-2.2.3-gcc/bin/../sparc-gaisler-elf/bsp/leon3/leon/mfix-ut699/soft/flat/libbcc.a(heap.c.o)
 .debug_abbrev  0x00000000000074b2      0x102 /home/fsw/rep/tasa/lib/bcc-2.2.3-gcc/bin/../sparc-gaisler-elf/bsp/leon3/leon/mfix-ut699/soft/flat/libbcc.a(write.c.o)
 .debug_abbrev  0x00000000000075b4       0x14 /home/fsw/rep/tasa/lib/bcc-2.2.3-gcc/bin/../sparc-gaisler-elf/bsp/leon3/leon/mfix-ut699/soft/flat/libbcc.a(stubs.S.o)
 .debug_abbrev  0x00000000000075c8      0x13f /home/fsw/rep/tasa/lib/bcc-2.2.3-gcc/bin/../sparc-gaisler-elf/bsp/leon3/leon/mfix-ut699/soft/flat/libbcc.a(con_apbuart.c.o)
 .debug_abbrev  0x0000000000007707      0x1a5 /home/fsw/rep/tasa/lib/bcc-2.2.3-gcc/bin/../lib/gcc/sparc-gaisler-elf/10.2.0/leon/mfix-ut699/soft/flat/libgcc.a(_udivdi3.o)
 .debug_abbrev  0x00000000000078ac      0x1b9 /home/fsw/rep/tasa/lib/bcc-2.2.3-gcc/bin/../lib/gcc/sparc-gaisler-elf/10.2.0/leon/mfix-ut699/soft/flat/libgcc.a(_umoddi3.o)
 .debug_abbrev  0x0000000000007a65      0x257 /home/fsw/rep/tasa/lib/bcc-2.2.3-gcc/bin/../lib/gcc/sparc-gaisler-elf/10.2.0/leon/mfix-ut699/soft/flat/libgcc.a(_addsub_df.o)
 .debug_abbrev  0x0000000000007cbc      0x26d /home/fsw/rep/tasa/lib/bcc-2.2.3-gcc/bin/../lib/gcc/sparc-gaisler-elf/10.2.0/leon/mfix-ut699/soft/flat/libgcc.a(_mul_df.o)
 .debug_abbrev  0x0000000000007f29      0x263 /home/fsw/rep/tasa/lib/bcc-2.2.3-gcc/bin/../lib/gcc/sparc-gaisler-elf/10.2.0/leon/mfix-ut699/soft/flat/libgcc.a(_div_df.o)
 .debug_abbrev  0x000000000000818c      0x195 /home/fsw/rep/tasa/lib/bcc-2.2.3-gcc/bin/../lib/gcc/sparc-gaisler-elf/10.2.0/leon/mfix-ut699/soft/flat/libgcc.a(_eq_df.o)
 .debug_abbrev  0x0000000000008321      0x195 /home/fsw/rep/tasa/lib/bcc-2.2.3-gcc/bin/../lib/gcc/sparc-gaisler-elf/10.2.0/leon/mfix-ut699/soft/flat/libgcc.a(_ne_df.o)
 .debug_abbrev  0x00000000000084b6      0x195 /home/fsw/rep/tasa/lib/bcc-2.2.3-gcc/bin/../lib/gcc/sparc-gaisler-elf/10.2.0/leon/mfix-ut699/soft/flat/libgcc.a(_gt_df.o)
 .debug_abbrev  0x000000000000864b      0x195 /home/fsw/rep/tasa/lib/bcc-2.2.3-gcc/bin/../lib/gcc/sparc-gaisler-elf/10.2.0/leon/mfix-ut699/soft/flat/libgcc.a(_lt_df.o)
 .debug_abbrev  0x00000000000087e0      0x195 /home/fsw/rep/tasa/lib/bcc-2.2.3-gcc/bin/../lib/gcc/sparc-gaisler-elf/10.2.0/leon/mfix-ut699/soft/flat/libgcc.a(_le_df.o)
 .debug_abbrev  0x0000000000008975      0x195 /home/fsw/rep/tasa/lib/bcc-2.2.3-gcc/bin/../lib/gcc/sparc-gaisler-elf/10.2.0/leon/mfix-ut699/soft/flat/libgcc.a(_unord_df.o)
 .debug_abbrev  0x0000000000008b0a      0x1ba /home/fsw/rep/tasa/lib/bcc-2.2.3-gcc/bin/../lib/gcc/sparc-gaisler-elf/10.2.0/leon/mfix-ut699/soft/flat/libgcc.a(_si_to_df.o)
 .debug_abbrev  0x0000000000008cc4      0x19c /home/fsw/rep/tasa/lib/bcc-2.2.3-gcc/bin/../lib/gcc/sparc-gaisler-elf/10.2.0/leon/mfix-ut699/soft/flat/libgcc.a(_df_to_si.o)
 .debug_abbrev  0x0000000000008e60       0xca /home/fsw/rep/tasa/lib/bcc-2.2.3-gcc/bin/../lib/gcc/sparc-gaisler-elf/10.2.0/leon/mfix-ut699/soft/flat/libgcc.a(_thenan_df.o)
 .debug_abbrev  0x0000000000008f2a      0x1ce /home/fsw/rep/tasa/lib/bcc-2.2.3-gcc/bin/../lib/gcc/sparc-gaisler-elf/10.2.0/leon/mfix-ut699/soft/flat/libgcc.a(_usi_to_df.o)
 .debug_abbrev  0x00000000000090f8       0x70 /home/fsw/rep/tasa/lib/bcc-2.2.3-gcc/bin/../lib/gcc/sparc-gaisler-elf/10.2.0/leon/mfix-ut699/soft/flat/libgcc.a(_clz.o)
 .debug_abbrev  0x0000000000009168       0xbf /home/fsw/rep/tasa/lib/bcc-2.2.3-gcc/bin/../lib/gcc/sparc-gaisler-elf/10.2.0/leon/mfix-ut699/soft/flat/libgcc.a(_clzsi2.o)
 .debug_abbrev  0x0000000000009227      0x1b7 /home/fsw/rep/tasa/lib/bcc-2.2.3-gcc/bin/../lib/gcc/sparc-gaisler-elf/10.2.0/leon/mfix-ut699/soft/flat/libgcc.a(_pack_df.o)
 .debug_abbrev  0x00000000000093de      0x130 /home/fsw/rep/tasa/lib/bcc-2.2.3-gcc/bin/../lib/gcc/sparc-gaisler-elf/10.2.0/leon/mfix-ut699/soft/flat/libgcc.a(_unpack_df.o)
 .debug_abbrev  0x000000000000950e      0x176 /home/fsw/rep/tasa/lib/bcc-2.2.3-gcc/bin/../lib/gcc/sparc-gaisler-elf/10.2.0/leon/mfix-ut699/soft/flat/libgcc.a(_fpcmp_parts_df.o)

.debug_line     0x0000000000000000    0x15463
 *(.debug_line)
 .debug_line    0x0000000000000000       0xda /home/fsw/rep/tasa/lib/bcc-2.2.3-gcc/bin/../sparc-gaisler-elf/bsp/leon3/leon/mfix-ut699/soft/flat/trap_table_mvt_tn0018.S.o
 .debug_line    0x00000000000000da       0x88 /home/fsw/rep/tasa/lib/bcc-2.2.3-gcc/bin/../sparc-gaisler-elf/bsp/leon3/leon/mfix-ut699/soft/flat/crt0.S.o
 .debug_line    0x0000000000000162      0x1ae /tmp/ccK56PDv.o
 .debug_line    0x0000000000000310       0x8c /home/fsw/rep/tasa/lib/bcc-2.2.3-gcc/bin/../sparc-gaisler-elf/bsp/leon3/leon/mfix-ut699/soft/flat/libbcc.a(reset_trap_mvt.S.o)
 .debug_line    0x000000000000039c       0x75 /home/fsw/rep/tasa/lib/bcc-2.2.3-gcc/bin/../sparc-gaisler-elf/bsp/leon3/leon/mfix-ut699/soft/flat/libbcc.a(sw_trap_set_pil.S.o)
 .debug_line    0x0000000000000411       0x5c /home/fsw/rep/tasa/lib/bcc-2.2.3-gcc/bin/../sparc-gaisler-elf/bsp/leon3/leon/mfix-ut699/soft/flat/libbcc.a(init.S.o)
 .debug_line    0x000000000000046d       0x84 /home/fsw/rep/tasa/lib/bcc-2.2.3-gcc/bin/../sparc-gaisler-elf/bsp/leon3/leon/mfix-ut699/soft/flat/libbcc.a(leon_info.S.o)
 .debug_line    0x00000000000004f1       0x67 /home/fsw/rep/tasa/lib/bcc-2.2.3-gcc/bin/../sparc-gaisler-elf/bsp/leon3/leon/mfix-ut699/soft/flat/libbcc.a(dwzero.S.o)
 .debug_line    0x0000000000000558      0x1e2 /home/fsw/rep/tasa/lib/bcc-2.2.3-gcc/bin/../sparc-gaisler-elf/bsp/leon3/leon/mfix-ut699/soft/flat/libbcc.a(copy_data.c.o)
 .debug_line    0x000000000000073a       0x8c /home/fsw/rep/tasa/lib/bcc-2.2.3-gcc/bin/../sparc-gaisler-elf/bsp/leon3/leon/mfix-ut699/soft/flat/libbcc.a(argv.c.o)
 .debug_line    0x00000000000007c6       0xcb /home/fsw/rep/tasa/lib/bcc-2.2.3-gcc/bin/../sparc-gaisler-elf/bsp/leon3/leon/mfix-ut699/soft/flat/libbcc.a(interrupt_trap_flat_tn0018.S.o)
 .debug_line    0x0000000000000891      0x2a6 /home/fsw/rep/tasa/lib/bcc-2.2.3-gcc/bin/../sparc-gaisler-elf/bsp/leon3/leon/mfix-ut699/soft/flat/libbcc.a(int_irqmp_get_source.c.o)
 .debug_line    0x0000000000000b37      0x319 /home/fsw/rep/tasa/lib/bcc-2.2.3-gcc/bin/../sparc-gaisler-elf/bsp/leon3/leon/mfix-ut699/soft/flat/libbcc.a(int_irqmp_mp.c.o)
 .debug_line    0x0000000000000e50      0x49d /home/fsw/rep/tasa/lib/bcc-2.2.3-gcc/bin/../sparc-gaisler-elf/bsp/leon3/leon/mfix-ut699/soft/flat/libbcc.a(int_irqmp_init.c.o)
 .debug_line    0x00000000000012ed      0x260 /home/fsw/rep/tasa/lib/bcc-2.2.3-gcc/bin/../sparc-gaisler-elf/bsp/leon3/leon/mfix-ut699/soft/flat/libbcc.a(con_apbuart_init.c.o)
 .debug_line    0x000000000000154d      0x285 /home/fsw/rep/tasa/lib/bcc-2.2.3-gcc/bin/../sparc-gaisler-elf/bsp/leon3/leon/mfix-ut699/soft/flat/libbcc.a(timer_gptimer_init.c.o)
 .debug_line    0x00000000000017d2       0x93 /home/fsw/rep/tasa/lib/bcc-2.2.3-gcc/bin/../sparc-gaisler-elf/bsp/leon3/leon/mfix-ut699/soft/flat/libbcc.a(isr.c.o)
 .debug_line    0x0000000000001865      0x1c2 /home/fsw/rep/tasa/lib/bcc-2.2.3-gcc/bin/../sparc-gaisler-elf/bsp/leon3/leon/mfix-ut699/soft/flat/libbcc.a(int_nest.c.o)
 .debug_line    0x0000000000001a27      0x895 /home/fsw/rep/tasa/lib/bcc-2.2.3-gcc/bin/../sparc-gaisler-elf/bsp/leon3/leon/mfix-ut699/soft/flat/libbcc.a(ambapp.c.o)
 .debug_line    0x00000000000022bc      0x284 /home/fsw/rep/tasa/lib/bcc-2.2.3-gcc/bin/../sparc-gaisler-elf/bsp/leon3/leon/mfix-ut699/soft/flat/libbcc.a(ambapp_findfirst_fn.c.o)
 .debug_line    0x0000000000002540      0x201 /home/fsw/rep/tasa/lib/bcc-2.2.3-gcc/bin/../sparc-gaisler-elf/bsp/leon3/leon/mfix-ut699/soft/flat/libbcc.a(int_irqmp_handle.c.o)
 .debug_line    0x0000000000002741      0x1f9 /home/fsw/rep/tasa/lib/bcc-2.2.3-gcc/bin/../sparc-gaisler-elf/bsp/leon3/leon/mfix-ut699/soft/flat/libbcc.a(con_handle.c.o)
 .debug_line    0x000000000000293a      0x1f9 /home/fsw/rep/tasa/lib/bcc-2.2.3-gcc/bin/../sparc-gaisler-elf/bsp/leon3/leon/mfix-ut699/soft/flat/libbcc.a(timer_handle.c.o)
 .debug_line    0x0000000000002b33       0xd3 /home/fsw/rep/tasa/lib/bcc-2.2.3-gcc/bin/../lib/gcc/sparc-gaisler-elf/10.2.0/../../../../sparc-gaisler-elf/lib/leon/mfix-ut699/soft/flat/libc.a(lib_a-atexit.o)
 .debug_line    0x0000000000002c06      0x20a /home/fsw/rep/tasa/lib/bcc-2.2.3-gcc/bin/../lib/gcc/sparc-gaisler-elf/10.2.0/../../../../sparc-gaisler-elf/lib/leon/mfix-ut699/soft/flat/libc.a(lib_a-exit.o)
 .debug_line    0x0000000000002e10      0x16e /home/fsw/rep/tasa/lib/bcc-2.2.3-gcc/bin/../lib/gcc/sparc-gaisler-elf/10.2.0/../../../../sparc-gaisler-elf/lib/leon/mfix-ut699/soft/flat/libc.a(lib_a-impure.o)
 .debug_line    0x0000000000002f7e      0x290 /home/fsw/rep/tasa/lib/bcc-2.2.3-gcc/bin/../lib/gcc/sparc-gaisler-elf/10.2.0/../../../../sparc-gaisler-elf/lib/leon/mfix-ut699/soft/flat/libc.a(lib_a-memcpy.o)
 .debug_line    0x000000000000320e      0x35c /home/fsw/rep/tasa/lib/bcc-2.2.3-gcc/bin/../lib/gcc/sparc-gaisler-elf/10.2.0/../../../../sparc-gaisler-elf/lib/leon/mfix-ut699/soft/flat/libc.a(lib_a-printf.o)
 .debug_line    0x000000000000356a      0x2d6 /home/fsw/rep/tasa/lib/bcc-2.2.3-gcc/bin/../lib/gcc/sparc-gaisler-elf/10.2.0/../../../../sparc-gaisler-elf/lib/leon/mfix-ut699/soft/flat/libc.a(lib_a-putchar.o)
 .debug_line    0x0000000000003840      0x415 /home/fsw/rep/tasa/lib/bcc-2.2.3-gcc/bin/../lib/gcc/sparc-gaisler-elf/10.2.0/../../../../sparc-gaisler-elf/lib/leon/mfix-ut699/soft/flat/libc.a(lib_a-puts.o)
 .debug_line    0x0000000000003c55      0x1d3 /home/fsw/rep/tasa/lib/bcc-2.2.3-gcc/bin/../lib/gcc/sparc-gaisler-elf/10.2.0/../../../../sparc-gaisler-elf/lib/leon/mfix-ut699/soft/flat/libc.a(lib_a-strlen.o)
 .debug_line    0x0000000000003e28     0x1f86 /home/fsw/rep/tasa/lib/bcc-2.2.3-gcc/bin/../lib/gcc/sparc-gaisler-elf/10.2.0/../../../../sparc-gaisler-elf/lib/leon/mfix-ut699/soft/flat/libc.a(lib_a-vfprintf.o)
 .debug_line    0x0000000000005dae      0x3c0 /home/fsw/rep/tasa/lib/bcc-2.2.3-gcc/bin/../lib/gcc/sparc-gaisler-elf/10.2.0/../../../../sparc-gaisler-elf/lib/leon/mfix-ut699/soft/flat/libc.a(lib_a-wsetup.o)
 .debug_line    0x000000000000616e      0x23f /home/fsw/rep/tasa/lib/bcc-2.2.3-gcc/bin/../lib/gcc/sparc-gaisler-elf/10.2.0/../../../../sparc-gaisler-elf/lib/leon/mfix-ut699/soft/flat/libc.a(lib_a-__atexit.o)
 .debug_line    0x00000000000063ad      0x343 /home/fsw/rep/tasa/lib/bcc-2.2.3-gcc/bin/../lib/gcc/sparc-gaisler-elf/10.2.0/../../../../sparc-gaisler-elf/lib/leon/mfix-ut699/soft/flat/libc.a(lib_a-__call_atexit.o)
 .debug_line    0x00000000000066f0     0x13e8 /home/fsw/rep/tasa/lib/bcc-2.2.3-gcc/bin/../lib/gcc/sparc-gaisler-elf/10.2.0/../../../../sparc-gaisler-elf/lib/leon/mfix-ut699/soft/flat/libc.a(lib_a-dtoa.o)
 .debug_line    0x0000000000007ad8      0x560 /home/fsw/rep/tasa/lib/bcc-2.2.3-gcc/bin/../lib/gcc/sparc-gaisler-elf/10.2.0/../../../../sparc-gaisler-elf/lib/leon/mfix-ut699/soft/flat/libc.a(lib_a-fflush.o)
 .debug_line    0x0000000000008038      0x5e7 /home/fsw/rep/tasa/lib/bcc-2.2.3-gcc/bin/../lib/gcc/sparc-gaisler-elf/10.2.0/../../../../sparc-gaisler-elf/lib/leon/mfix-ut699/soft/flat/libc.a(lib_a-findfp.o)
 .debug_line    0x000000000000861f      0x587 /home/fsw/rep/tasa/lib/bcc-2.2.3-gcc/bin/../lib/gcc/sparc-gaisler-elf/10.2.0/../../../../sparc-gaisler-elf/lib/leon/mfix-ut699/soft/flat/libc.a(lib_a-freer.o)
 .debug_line    0x0000000000008ba6      0x64d /home/fsw/rep/tasa/lib/bcc-2.2.3-gcc/bin/../lib/gcc/sparc-gaisler-elf/10.2.0/../../../../sparc-gaisler-elf/lib/leon/mfix-ut699/soft/flat/libc.a(lib_a-fvwrite.o)
 .debug_line    0x00000000000091f3      0x306 /home/fsw/rep/tasa/lib/bcc-2.2.3-gcc/bin/../lib/gcc/sparc-gaisler-elf/10.2.0/../../../../sparc-gaisler-elf/lib/leon/mfix-ut699/soft/flat/libc.a(lib_a-fwalk.o)
 .debug_line    0x00000000000094f9      0x2bd /home/fsw/rep/tasa/lib/bcc-2.2.3-gcc/bin/../lib/gcc/sparc-gaisler-elf/10.2.0/../../../../sparc-gaisler-elf/lib/leon/mfix-ut699/soft/flat/libc.a(lib_a-localeconv.o)
 .debug_line    0x00000000000097b6      0x3ed /home/fsw/rep/tasa/lib/bcc-2.2.3-gcc/bin/../lib/gcc/sparc-gaisler-elf/10.2.0/../../../../sparc-gaisler-elf/lib/leon/mfix-ut699/soft/flat/libc.a(lib_a-makebuf.o)
 .debug_line    0x0000000000009ba3      0x1ea /home/fsw/rep/tasa/lib/bcc-2.2.3-gcc/bin/../lib/gcc/sparc-gaisler-elf/10.2.0/../../../../sparc-gaisler-elf/lib/leon/mfix-ut699/soft/flat/libc.a(lib_a-malloc.o)
 .debug_line    0x0000000000009d8d      0x881 /home/fsw/rep/tasa/lib/bcc-2.2.3-gcc/bin/../lib/gcc/sparc-gaisler-elf/10.2.0/../../../../sparc-gaisler-elf/lib/leon/mfix-ut699/soft/flat/libc.a(lib_a-mallocr.o)
 .debug_line    0x000000000000a60e      0x230 /home/fsw/rep/tasa/lib/bcc-2.2.3-gcc/bin/../lib/gcc/sparc-gaisler-elf/10.2.0/../../../../sparc-gaisler-elf/lib/leon/mfix-ut699/soft/flat/libc.a(lib_a-memchr.o)
 .debug_line    0x000000000000a83e      0x2d1 /home/fsw/rep/tasa/lib/bcc-2.2.3-gcc/bin/../lib/gcc/sparc-gaisler-elf/10.2.0/../../../../sparc-gaisler-elf/lib/leon/mfix-ut699/soft/flat/libc.a(lib_a-memmove.o)
 .debug_line    0x000000000000ab0f      0x291 /home/fsw/rep/tasa/lib/bcc-2.2.3-gcc/bin/../lib/gcc/sparc-gaisler-elf/10.2.0/../../../../sparc-gaisler-elf/lib/leon/mfix-ut699/soft/flat/libc.a(lib_a-memset.o)
 .debug_line    0x000000000000ada0      0x180 /home/fsw/rep/tasa/lib/bcc-2.2.3-gcc/bin/../lib/gcc/sparc-gaisler-elf/10.2.0/../../../../sparc-gaisler-elf/lib/leon/mfix-ut699/soft/flat/libc.a(lib_a-mlock.o)
 .debug_line    0x000000000000af20     0x1b85 /home/fsw/rep/tasa/lib/bcc-2.2.3-gcc/bin/../lib/gcc/sparc-gaisler-elf/10.2.0/../../../../sparc-gaisler-elf/lib/leon/mfix-ut699/soft/flat/libc.a(lib_a-mprec.o)
 .debug_line    0x000000000000caa5      0x39e /home/fsw/rep/tasa/lib/bcc-2.2.3-gcc/bin/../lib/gcc/sparc-gaisler-elf/10.2.0/../../../../sparc-gaisler-elf/lib/leon/mfix-ut699/soft/flat/libc.a(lib_a-putc.o)
 .debug_line    0x000000000000ce43      0x73c /home/fsw/rep/tasa/lib/bcc-2.2.3-gcc/bin/../lib/gcc/sparc-gaisler-elf/10.2.0/../../../../sparc-gaisler-elf/lib/leon/mfix-ut699/soft/flat/libc.a(lib_a-reallocr.o)
 .debug_line    0x000000000000d57f      0x1ef /home/fsw/rep/tasa/lib/bcc-2.2.3-gcc/bin/../lib/gcc/sparc-gaisler-elf/10.2.0/../../../../sparc-gaisler-elf/lib/leon/mfix-ut699/soft/flat/libc.a(lib_a-s_frexp.o)
 .debug_line    0x000000000000d76e      0x1fe /home/fsw/rep/tasa/lib/bcc-2.2.3-gcc/bin/../lib/gcc/sparc-gaisler-elf/10.2.0/../../../../sparc-gaisler-elf/lib/leon/mfix-ut699/soft/flat/libc.a(lib_a-sbrkr.o)
 .debug_line    0x000000000000d96c      0x2ee /home/fsw/rep/tasa/lib/bcc-2.2.3-gcc/bin/../lib/gcc/sparc-gaisler-elf/10.2.0/../../../../sparc-gaisler-elf/lib/leon/mfix-ut699/soft/flat/libc.a(lib_a-stdio.o)
 .debug_line    0x000000000000dc5a      0x29f /home/fsw/rep/tasa/lib/bcc-2.2.3-gcc/bin/../lib/gcc/sparc-gaisler-elf/10.2.0/../../../../sparc-gaisler-elf/lib/leon/mfix-ut699/soft/flat/libc.a(lib_a-strncpy.o)
 .debug_line    0x000000000000def9     0x1bc3 /home/fsw/rep/tasa/lib/bcc-2.2.3-gcc/bin/../lib/gcc/sparc-gaisler-elf/10.2.0/../../../../sparc-gaisler-elf/lib/leon/mfix-ut699/soft/flat/libc.a(lib_a-vfiprintf.o)
 .debug_line    0x000000000000fabc      0x453 /home/fsw/rep/tasa/lib/bcc-2.2.3-gcc/bin/../lib/gcc/sparc-gaisler-elf/10.2.0/../../../../sparc-gaisler-elf/lib/leon/mfix-ut699/soft/flat/libc.a(lib_a-wbuf.o)
 .debug_line    0x000000000000ff0f      0x20f /home/fsw/rep/tasa/lib/bcc-2.2.3-gcc/bin/../lib/gcc/sparc-gaisler-elf/10.2.0/../../../../sparc-gaisler-elf/lib/leon/mfix-ut699/soft/flat/libc.a(lib_a-writer.o)
 .debug_line    0x000000000001011e      0x259 /home/fsw/rep/tasa/lib/bcc-2.2.3-gcc/bin/../lib/gcc/sparc-gaisler-elf/10.2.0/../../../../sparc-gaisler-elf/lib/leon/mfix-ut699/soft/flat/libc.a(lib_a-callocr.o)
 .debug_line    0x0000000000010377      0x20a /home/fsw/rep/tasa/lib/bcc-2.2.3-gcc/bin/../lib/gcc/sparc-gaisler-elf/10.2.0/../../../../sparc-gaisler-elf/lib/leon/mfix-ut699/soft/flat/libc.a(lib_a-closer.o)
 .debug_line    0x0000000000010581      0x42a /home/fsw/rep/tasa/lib/bcc-2.2.3-gcc/bin/../lib/gcc/sparc-gaisler-elf/10.2.0/../../../../sparc-gaisler-elf/lib/leon/mfix-ut699/soft/flat/libc.a(lib_a-fclose.o)
 .debug_line    0x00000000000109ab      0x39e /home/fsw/rep/tasa/lib/bcc-2.2.3-gcc/bin/../lib/gcc/sparc-gaisler-elf/10.2.0/../../../../sparc-gaisler-elf/lib/leon/mfix-ut699/soft/flat/libc.a(lib_a-fputwc.o)
 .debug_line    0x0000000000010d49      0x221 /home/fsw/rep/tasa/lib/bcc-2.2.3-gcc/bin/../lib/gcc/sparc-gaisler-elf/10.2.0/../../../../sparc-gaisler-elf/lib/leon/mfix-ut699/soft/flat/libc.a(lib_a-fstatr.o)
 .debug_line    0x0000000000010f6a      0x20b /home/fsw/rep/tasa/lib/bcc-2.2.3-gcc/bin/../lib/gcc/sparc-gaisler-elf/10.2.0/../../../../sparc-gaisler-elf/lib/leon/mfix-ut699/soft/flat/libc.a(lib_a-isattyr.o)
 .debug_line    0x0000000000011175      0x364 /home/fsw/rep/tasa/lib/bcc-2.2.3-gcc/bin/../lib/gcc/sparc-gaisler-elf/10.2.0/../../../../sparc-gaisler-elf/lib/leon/mfix-ut699/soft/flat/libc.a(lib_a-locale.o)
 .debug_line    0x00000000000114d9      0x20f /home/fsw/rep/tasa/lib/bcc-2.2.3-gcc/bin/../lib/gcc/sparc-gaisler-elf/10.2.0/../../../../sparc-gaisler-elf/lib/leon/mfix-ut699/soft/flat/libc.a(lib_a-lseekr.o)
 .debug_line    0x00000000000116e8      0x2d2 /home/fsw/rep/tasa/lib/bcc-2.2.3-gcc/bin/../lib/gcc/sparc-gaisler-elf/10.2.0/../../../../sparc-gaisler-elf/lib/leon/mfix-ut699/soft/flat/libc.a(lib_a-mbtowc_r.o)
 .debug_line    0x00000000000119ba      0x20e /home/fsw/rep/tasa/lib/bcc-2.2.3-gcc/bin/../lib/gcc/sparc-gaisler-elf/10.2.0/../../../../sparc-gaisler-elf/lib/leon/mfix-ut699/soft/flat/libc.a(lib_a-readr.o)
 .debug_line    0x0000000000011bc8      0x442 /home/fsw/rep/tasa/lib/bcc-2.2.3-gcc/bin/../lib/gcc/sparc-gaisler-elf/10.2.0/../../../../sparc-gaisler-elf/lib/leon/mfix-ut699/soft/flat/libc.a(lib_a-reent.o)
 .debug_line    0x000000000001200a      0x155 /home/fsw/rep/tasa/lib/bcc-2.2.3-gcc/bin/../lib/gcc/sparc-gaisler-elf/10.2.0/../../../../sparc-gaisler-elf/lib/leon/mfix-ut699/soft/flat/libc.a(lib_a-strcmp.o)
 .debug_line    0x000000000001215f      0x39b /home/fsw/rep/tasa/lib/bcc-2.2.3-gcc/bin/../lib/gcc/sparc-gaisler-elf/10.2.0/../../../../sparc-gaisler-elf/lib/leon/mfix-ut699/soft/flat/libc.a(lib_a-wcrtomb.o)
 .debug_line    0x00000000000124fa      0x2ba /home/fsw/rep/tasa/lib/bcc-2.2.3-gcc/bin/../lib/gcc/sparc-gaisler-elf/10.2.0/../../../../sparc-gaisler-elf/lib/leon/mfix-ut699/soft/flat/libc.a(lib_a-wctomb_r.o)
 .debug_line    0x00000000000127b4       0xb6 /home/fsw/rep/tasa/lib/bcc-2.2.3-gcc/bin/../lib/gcc/sparc-gaisler-elf/10.2.0/../../../../sparc-gaisler-elf/lib/leon/mfix-ut699/soft/flat/libc.a(lib_a-ctype_.o)
 .debug_line    0x000000000001286a       0x5f /home/fsw/rep/tasa/lib/bcc-2.2.3-gcc/bin/../sparc-gaisler-elf/bsp/leon3/leon/mfix-ut699/soft/flat/libbcc.a(_exit.S.o)
 .debug_line    0x00000000000128c9      0x261 /home/fsw/rep/tasa/lib/bcc-2.2.3-gcc/bin/../sparc-gaisler-elf/bsp/leon3/leon/mfix-ut699/soft/flat/libbcc.a(read.c.o)
 .debug_line    0x0000000000012b2a      0x32e /home/fsw/rep/tasa/lib/bcc-2.2.3-gcc/bin/../sparc-gaisler-elf/bsp/leon3/leon/mfix-ut699/soft/flat/libbcc.a(sbrk.c.o)
 .debug_line    0x0000000000012e58      0x1eb /home/fsw/rep/tasa/lib/bcc-2.2.3-gcc/bin/../sparc-gaisler-elf/bsp/leon3/leon/mfix-ut699/soft/flat/libbcc.a(heap.c.o)
 .debug_line    0x0000000000013043      0x282 /home/fsw/rep/tasa/lib/bcc-2.2.3-gcc/bin/../sparc-gaisler-elf/bsp/leon3/leon/mfix-ut699/soft/flat/libbcc.a(write.c.o)
 .debug_line    0x00000000000132c5       0x68 /home/fsw/rep/tasa/lib/bcc-2.2.3-gcc/bin/../sparc-gaisler-elf/bsp/leon3/leon/mfix-ut699/soft/flat/libbcc.a(stubs.S.o)
 .debug_line    0x000000000001332d      0x325 /home/fsw/rep/tasa/lib/bcc-2.2.3-gcc/bin/../sparc-gaisler-elf/bsp/leon3/leon/mfix-ut699/soft/flat/libbcc.a(con_apbuart.c.o)
 .debug_line    0x0000000000013652      0x16d /home/fsw/rep/tasa/lib/bcc-2.2.3-gcc/bin/../lib/gcc/sparc-gaisler-elf/10.2.0/leon/mfix-ut699/soft/flat/libgcc.a(_udivdi3.o)
 .debug_line    0x00000000000137bf      0x1e3 /home/fsw/rep/tasa/lib/bcc-2.2.3-gcc/bin/../lib/gcc/sparc-gaisler-elf/10.2.0/leon/mfix-ut699/soft/flat/libgcc.a(_umoddi3.o)
 .debug_line    0x00000000000139a2      0x636 /home/fsw/rep/tasa/lib/bcc-2.2.3-gcc/bin/../lib/gcc/sparc-gaisler-elf/10.2.0/leon/mfix-ut699/soft/flat/libgcc.a(_addsub_df.o)
 .debug_line    0x0000000000013fd8      0x2f4 /home/fsw/rep/tasa/lib/bcc-2.2.3-gcc/bin/../lib/gcc/sparc-gaisler-elf/10.2.0/leon/mfix-ut699/soft/flat/libgcc.a(_mul_df.o)
 .debug_line    0x00000000000142cc      0x25c /home/fsw/rep/tasa/lib/bcc-2.2.3-gcc/bin/../lib/gcc/sparc-gaisler-elf/10.2.0/leon/mfix-ut699/soft/flat/libgcc.a(_div_df.o)
 .debug_line    0x0000000000014528       0xbe /home/fsw/rep/tasa/lib/bcc-2.2.3-gcc/bin/../lib/gcc/sparc-gaisler-elf/10.2.0/leon/mfix-ut699/soft/flat/libgcc.a(_eq_df.o)
 .debug_line    0x00000000000145e6       0xbe /home/fsw/rep/tasa/lib/bcc-2.2.3-gcc/bin/../lib/gcc/sparc-gaisler-elf/10.2.0/leon/mfix-ut699/soft/flat/libgcc.a(_ne_df.o)
 .debug_line    0x00000000000146a4       0xbe /home/fsw/rep/tasa/lib/bcc-2.2.3-gcc/bin/../lib/gcc/sparc-gaisler-elf/10.2.0/leon/mfix-ut699/soft/flat/libgcc.a(_gt_df.o)
 .debug_line    0x0000000000014762       0xbe /home/fsw/rep/tasa/lib/bcc-2.2.3-gcc/bin/../lib/gcc/sparc-gaisler-elf/10.2.0/leon/mfix-ut699/soft/flat/libgcc.a(_lt_df.o)
 .debug_line    0x0000000000014820       0xbe /home/fsw/rep/tasa/lib/bcc-2.2.3-gcc/bin/../lib/gcc/sparc-gaisler-elf/10.2.0/leon/mfix-ut699/soft/flat/libgcc.a(_le_df.o)
 .debug_line    0x00000000000148de       0xbf /home/fsw/rep/tasa/lib/bcc-2.2.3-gcc/bin/../lib/gcc/sparc-gaisler-elf/10.2.0/leon/mfix-ut699/soft/flat/libgcc.a(_unord_df.o)
 .debug_line    0x000000000001499d      0x109 /home/fsw/rep/tasa/lib/bcc-2.2.3-gcc/bin/../lib/gcc/sparc-gaisler-elf/10.2.0/leon/mfix-ut699/soft/flat/libgcc.a(_si_to_df.o)
 .debug_line    0x0000000000014aa6       0xfc /home/fsw/rep/tasa/lib/bcc-2.2.3-gcc/bin/../lib/gcc/sparc-gaisler-elf/10.2.0/leon/mfix-ut699/soft/flat/libgcc.a(_df_to_si.o)
 .debug_line    0x0000000000014ba2       0x61 /home/fsw/rep/tasa/lib/bcc-2.2.3-gcc/bin/../lib/gcc/sparc-gaisler-elf/10.2.0/leon/mfix-ut699/soft/flat/libgcc.a(_thenan_df.o)
 .debug_line    0x0000000000014c03       0xe1 /home/fsw/rep/tasa/lib/bcc-2.2.3-gcc/bin/../lib/gcc/sparc-gaisler-elf/10.2.0/leon/mfix-ut699/soft/flat/libgcc.a(_usi_to_df.o)
 .debug_line    0x0000000000014ce4       0x63 /home/fsw/rep/tasa/lib/bcc-2.2.3-gcc/bin/../lib/gcc/sparc-gaisler-elf/10.2.0/leon/mfix-ut699/soft/flat/libgcc.a(_clz.o)
 .debug_line    0x0000000000014d47       0xd4 /home/fsw/rep/tasa/lib/bcc-2.2.3-gcc/bin/../lib/gcc/sparc-gaisler-elf/10.2.0/leon/mfix-ut699/soft/flat/libgcc.a(_clzsi2.o)
 .debug_line    0x0000000000014e1b      0x2fd /home/fsw/rep/tasa/lib/bcc-2.2.3-gcc/bin/../lib/gcc/sparc-gaisler-elf/10.2.0/leon/mfix-ut699/soft/flat/libgcc.a(_pack_df.o)
 .debug_line    0x0000000000015118      0x17e /home/fsw/rep/tasa/lib/bcc-2.2.3-gcc/bin/../lib/gcc/sparc-gaisler-elf/10.2.0/leon/mfix-ut699/soft/flat/libgcc.a(_unpack_df.o)
 .debug_line    0x0000000000015296      0x1cd /home/fsw/rep/tasa/lib/bcc-2.2.3-gcc/bin/../lib/gcc/sparc-gaisler-elf/10.2.0/leon/mfix-ut699/soft/flat/libgcc.a(_fpcmp_parts_df.o)

.debug_frame    0x0000000000000000     0x1754
 *(.debug_frame)
 .debug_frame   0x0000000000000000       0x34 /tmp/ccK56PDv.o
 .debug_frame   0x0000000000000034       0x2c /home/fsw/rep/tasa/lib/bcc-2.2.3-gcc/bin/../sparc-gaisler-elf/bsp/leon3/leon/mfix-ut699/soft/flat/libbcc.a(copy_data.c.o)
 .debug_frame   0x0000000000000060       0x20 /home/fsw/rep/tasa/lib/bcc-2.2.3-gcc/bin/../sparc-gaisler-elf/bsp/leon3/leon/mfix-ut699/soft/flat/libbcc.a(int_irqmp_get_source.c.o)
 .debug_frame   0x0000000000000080       0x40 /home/fsw/rep/tasa/lib/bcc-2.2.3-gcc/bin/../sparc-gaisler-elf/bsp/leon3/leon/mfix-ut699/soft/flat/libbcc.a(int_irqmp_mp.c.o)
 .debug_frame   0x00000000000000c0       0x30 /home/fsw/rep/tasa/lib/bcc-2.2.3-gcc/bin/../sparc-gaisler-elf/bsp/leon3/leon/mfix-ut699/soft/flat/libbcc.a(int_irqmp_init.c.o)
 .debug_frame   0x00000000000000f0       0x30 /home/fsw/rep/tasa/lib/bcc-2.2.3-gcc/bin/../sparc-gaisler-elf/bsp/leon3/leon/mfix-ut699/soft/flat/libbcc.a(con_apbuart_init.c.o)
 .debug_frame   0x0000000000000120       0x30 /home/fsw/rep/tasa/lib/bcc-2.2.3-gcc/bin/../sparc-gaisler-elf/bsp/leon3/leon/mfix-ut699/soft/flat/libbcc.a(timer_gptimer_init.c.o)
 .debug_frame   0x0000000000000150       0xa4 /home/fsw/rep/tasa/lib/bcc-2.2.3-gcc/bin/../sparc-gaisler-elf/bsp/leon3/leon/mfix-ut699/soft/flat/libbcc.a(ambapp.c.o)
 .debug_frame   0x00000000000001f4       0x30 /home/fsw/rep/tasa/lib/bcc-2.2.3-gcc/bin/../sparc-gaisler-elf/bsp/leon3/leon/mfix-ut699/soft/flat/libbcc.a(ambapp_findfirst_fn.c.o)
 .debug_frame   0x0000000000000224       0x20 /home/fsw/rep/tasa/lib/bcc-2.2.3-gcc/bin/../lib/gcc/sparc-gaisler-elf/10.2.0/../../../../sparc-gaisler-elf/lib/leon/mfix-ut699/soft/flat/libc.a(lib_a-atexit.o)
 .debug_frame   0x0000000000000244       0x30 /home/fsw/rep/tasa/lib/bcc-2.2.3-gcc/bin/../lib/gcc/sparc-gaisler-elf/10.2.0/../../../../sparc-gaisler-elf/lib/leon/mfix-ut699/soft/flat/libc.a(lib_a-exit.o)
 .debug_frame   0x0000000000000274       0x2c /home/fsw/rep/tasa/lib/bcc-2.2.3-gcc/bin/../lib/gcc/sparc-gaisler-elf/10.2.0/../../../../sparc-gaisler-elf/lib/leon/mfix-ut699/soft/flat/libc.a(lib_a-memcpy.o)
 .debug_frame   0x00000000000002a0       0x4c /home/fsw/rep/tasa/lib/bcc-2.2.3-gcc/bin/../lib/gcc/sparc-gaisler-elf/10.2.0/../../../../sparc-gaisler-elf/lib/leon/mfix-ut699/soft/flat/libc.a(lib_a-printf.o)
 .debug_frame   0x00000000000002ec       0x50 /home/fsw/rep/tasa/lib/bcc-2.2.3-gcc/bin/../lib/gcc/sparc-gaisler-elf/10.2.0/../../../../sparc-gaisler-elf/lib/leon/mfix-ut699/soft/flat/libc.a(lib_a-putchar.o)
 .debug_frame   0x000000000000033c       0x58 /home/fsw/rep/tasa/lib/bcc-2.2.3-gcc/bin/../lib/gcc/sparc-gaisler-elf/10.2.0/../../../../sparc-gaisler-elf/lib/leon/mfix-ut699/soft/flat/libc.a(lib_a-puts.o)
 .debug_frame   0x0000000000000394       0x2c /home/fsw/rep/tasa/lib/bcc-2.2.3-gcc/bin/../lib/gcc/sparc-gaisler-elf/10.2.0/../../../../sparc-gaisler-elf/lib/leon/mfix-ut699/soft/flat/libc.a(lib_a-strlen.o)
 .debug_frame   0x00000000000003c0       0x94 /home/fsw/rep/tasa/lib/bcc-2.2.3-gcc/bin/../lib/gcc/sparc-gaisler-elf/10.2.0/../../../../sparc-gaisler-elf/lib/leon/mfix-ut699/soft/flat/libc.a(lib_a-vfprintf.o)
 .debug_frame   0x0000000000000454       0x34 /home/fsw/rep/tasa/lib/bcc-2.2.3-gcc/bin/../lib/gcc/sparc-gaisler-elf/10.2.0/../../../../sparc-gaisler-elf/lib/leon/mfix-ut699/soft/flat/libc.a(lib_a-wsetup.o)
 .debug_frame   0x0000000000000488       0x40 /home/fsw/rep/tasa/lib/bcc-2.2.3-gcc/bin/../lib/gcc/sparc-gaisler-elf/10.2.0/../../../../sparc-gaisler-elf/lib/leon/mfix-ut699/soft/flat/libc.a(lib_a-__atexit.o)
 .debug_frame   0x00000000000004c8       0x58 /home/fsw/rep/tasa/lib/bcc-2.2.3-gcc/bin/../lib/gcc/sparc-gaisler-elf/10.2.0/../../../../sparc-gaisler-elf/lib/leon/mfix-ut699/soft/flat/libc.a(lib_a-__call_atexit.o)
 .debug_frame   0x0000000000000520       0x94 /home/fsw/rep/tasa/lib/bcc-2.2.3-gcc/bin/../lib/gcc/sparc-gaisler-elf/10.2.0/../../../../sparc-gaisler-elf/lib/leon/mfix-ut699/soft/flat/libc.a(lib_a-dtoa.o)
 .debug_frame   0x00000000000005b4       0x74 /home/fsw/rep/tasa/lib/bcc-2.2.3-gcc/bin/../lib/gcc/sparc-gaisler-elf/10.2.0/../../../../sparc-gaisler-elf/lib/leon/mfix-ut699/soft/flat/libc.a(lib_a-fflush.o)
 .debug_frame   0x0000000000000628       0xc0 /home/fsw/rep/tasa/lib/bcc-2.2.3-gcc/bin/../lib/gcc/sparc-gaisler-elf/10.2.0/../../../../sparc-gaisler-elf/lib/leon/mfix-ut699/soft/flat/libc.a(lib_a-findfp.o)
 .debug_frame   0x00000000000006e8       0x5c /home/fsw/rep/tasa/lib/bcc-2.2.3-gcc/bin/../lib/gcc/sparc-gaisler-elf/10.2.0/../../../../sparc-gaisler-elf/lib/leon/mfix-ut699/soft/flat/libc.a(lib_a-freer.o)
 .debug_frame   0x0000000000000744       0x4c /home/fsw/rep/tasa/lib/bcc-2.2.3-gcc/bin/../lib/gcc/sparc-gaisler-elf/10.2.0/../../../../sparc-gaisler-elf/lib/leon/mfix-ut699/soft/flat/libc.a(lib_a-fvwrite.o)
 .debug_frame   0x0000000000000790       0x6c /home/fsw/rep/tasa/lib/bcc-2.2.3-gcc/bin/../lib/gcc/sparc-gaisler-elf/10.2.0/../../../../sparc-gaisler-elf/lib/leon/mfix-ut699/soft/flat/libc.a(lib_a-fwalk.o)
 .debug_frame   0x00000000000007fc       0x40 /home/fsw/rep/tasa/lib/bcc-2.2.3-gcc/bin/../lib/gcc/sparc-gaisler-elf/10.2.0/../../../../sparc-gaisler-elf/lib/leon/mfix-ut699/soft/flat/libc.a(lib_a-localeconv.o)
 .debug_frame   0x000000000000083c       0x64 /home/fsw/rep/tasa/lib/bcc-2.2.3-gcc/bin/../lib/gcc/sparc-gaisler-elf/10.2.0/../../../../sparc-gaisler-elf/lib/leon/mfix-ut699/soft/flat/libc.a(lib_a-makebuf.o)
 .debug_frame   0x00000000000008a0       0x30 /home/fsw/rep/tasa/lib/bcc-2.2.3-gcc/bin/../lib/gcc/sparc-gaisler-elf/10.2.0/../../../../sparc-gaisler-elf/lib/leon/mfix-ut699/soft/flat/libc.a(lib_a-malloc.o)
 .debug_frame   0x00000000000008d0       0x48 /home/fsw/rep/tasa/lib/bcc-2.2.3-gcc/bin/../lib/gcc/sparc-gaisler-elf/10.2.0/../../../../sparc-gaisler-elf/lib/leon/mfix-ut699/soft/flat/libc.a(lib_a-mallocr.o)
 .debug_frame   0x0000000000000918       0x2c /home/fsw/rep/tasa/lib/bcc-2.2.3-gcc/bin/../lib/gcc/sparc-gaisler-elf/10.2.0/../../../../sparc-gaisler-elf/lib/leon/mfix-ut699/soft/flat/libc.a(lib_a-memchr.o)
 .debug_frame   0x0000000000000944       0x2c /home/fsw/rep/tasa/lib/bcc-2.2.3-gcc/bin/../lib/gcc/sparc-gaisler-elf/10.2.0/../../../../sparc-gaisler-elf/lib/leon/mfix-ut699/soft/flat/libc.a(lib_a-memmove.o)
 .debug_frame   0x0000000000000970       0x2c /home/fsw/rep/tasa/lib/bcc-2.2.3-gcc/bin/../lib/gcc/sparc-gaisler-elf/10.2.0/../../../../sparc-gaisler-elf/lib/leon/mfix-ut699/soft/flat/libc.a(lib_a-memset.o)
 .debug_frame   0x000000000000099c       0x30 /home/fsw/rep/tasa/lib/bcc-2.2.3-gcc/bin/../lib/gcc/sparc-gaisler-elf/10.2.0/../../../../sparc-gaisler-elf/lib/leon/mfix-ut699/soft/flat/libc.a(lib_a-mlock.o)
 .debug_frame   0x00000000000009cc      0x2b0 /home/fsw/rep/tasa/lib/bcc-2.2.3-gcc/bin/../lib/gcc/sparc-gaisler-elf/10.2.0/../../../../sparc-gaisler-elf/lib/leon/mfix-ut699/soft/flat/libc.a(lib_a-mprec.o)
 .debug_frame   0x0000000000000c7c       0x54 /home/fsw/rep/tasa/lib/bcc-2.2.3-gcc/bin/../lib/gcc/sparc-gaisler-elf/10.2.0/../../../../sparc-gaisler-elf/lib/leon/mfix-ut699/soft/flat/libc.a(lib_a-putc.o)
 .debug_frame   0x0000000000000cd0       0x48 /home/fsw/rep/tasa/lib/bcc-2.2.3-gcc/bin/../lib/gcc/sparc-gaisler-elf/10.2.0/../../../../sparc-gaisler-elf/lib/leon/mfix-ut699/soft/flat/libc.a(lib_a-reallocr.o)
 .debug_frame   0x0000000000000d18       0x30 /home/fsw/rep/tasa/lib/bcc-2.2.3-gcc/bin/../lib/gcc/sparc-gaisler-elf/10.2.0/../../../../sparc-gaisler-elf/lib/leon/mfix-ut699/soft/flat/libc.a(lib_a-s_frexp.o)
 .debug_frame   0x0000000000000d48       0x34 /home/fsw/rep/tasa/lib/bcc-2.2.3-gcc/bin/../lib/gcc/sparc-gaisler-elf/10.2.0/../../../../sparc-gaisler-elf/lib/leon/mfix-ut699/soft/flat/libc.a(lib_a-sbrkr.o)
 .debug_frame   0x0000000000000d7c       0x98 /home/fsw/rep/tasa/lib/bcc-2.2.3-gcc/bin/../lib/gcc/sparc-gaisler-elf/10.2.0/../../../../sparc-gaisler-elf/lib/leon/mfix-ut699/soft/flat/libc.a(lib_a-stdio.o)
 .debug_frame   0x0000000000000e14       0x2c /home/fsw/rep/tasa/lib/bcc-2.2.3-gcc/bin/../lib/gcc/sparc-gaisler-elf/10.2.0/../../../../sparc-gaisler-elf/lib/leon/mfix-ut699/soft/flat/libc.a(lib_a-strncpy.o)
 .debug_frame   0x0000000000000e40       0xcc /home/fsw/rep/tasa/lib/bcc-2.2.3-gcc/bin/../lib/gcc/sparc-gaisler-elf/10.2.0/../../../../sparc-gaisler-elf/lib/leon/mfix-ut699/soft/flat/libc.a(lib_a-vfiprintf.o)
 .debug_frame   0x0000000000000f0c       0x60 /home/fsw/rep/tasa/lib/bcc-2.2.3-gcc/bin/../lib/gcc/sparc-gaisler-elf/10.2.0/../../../../sparc-gaisler-elf/lib/leon/mfix-ut699/soft/flat/libc.a(lib_a-wbuf.o)
 .debug_frame   0x0000000000000f6c       0x34 /home/fsw/rep/tasa/lib/bcc-2.2.3-gcc/bin/../lib/gcc/sparc-gaisler-elf/10.2.0/../../../../sparc-gaisler-elf/lib/leon/mfix-ut699/soft/flat/libc.a(lib_a-writer.o)
 .debug_frame   0x0000000000000fa0       0x30 /home/fsw/rep/tasa/lib/bcc-2.2.3-gcc/bin/../lib/gcc/sparc-gaisler-elf/10.2.0/../../../../sparc-gaisler-elf/lib/leon/mfix-ut699/soft/flat/libc.a(lib_a-callocr.o)
 .debug_frame   0x0000000000000fd0       0x34 /home/fsw/rep/tasa/lib/bcc-2.2.3-gcc/bin/../lib/gcc/sparc-gaisler-elf/10.2.0/../../../../sparc-gaisler-elf/lib/leon/mfix-ut699/soft/flat/libc.a(lib_a-closer.o)
 .debug_frame   0x0000000000001004       0x5c /home/fsw/rep/tasa/lib/bcc-2.2.3-gcc/bin/../lib/gcc/sparc-gaisler-elf/10.2.0/../../../../sparc-gaisler-elf/lib/leon/mfix-ut699/soft/flat/libc.a(lib_a-fclose.o)
 .debug_frame   0x0000000000001060       0x68 /home/fsw/rep/tasa/lib/bcc-2.2.3-gcc/bin/../lib/gcc/sparc-gaisler-elf/10.2.0/../../../../sparc-gaisler-elf/lib/leon/mfix-ut699/soft/flat/libc.a(lib_a-fputwc.o)
 .debug_frame   0x00000000000010c8       0x34 /home/fsw/rep/tasa/lib/bcc-2.2.3-gcc/bin/../lib/gcc/sparc-gaisler-elf/10.2.0/../../../../sparc-gaisler-elf/lib/leon/mfix-ut699/soft/flat/libc.a(lib_a-fstatr.o)
 .debug_frame   0x00000000000010fc       0x34 /home/fsw/rep/tasa/lib/bcc-2.2.3-gcc/bin/../lib/gcc/sparc-gaisler-elf/10.2.0/../../../../sparc-gaisler-elf/lib/leon/mfix-ut699/soft/flat/libc.a(lib_a-isattyr.o)
 .debug_frame   0x0000000000001130       0x88 /home/fsw/rep/tasa/lib/bcc-2.2.3-gcc/bin/../lib/gcc/sparc-gaisler-elf/10.2.0/../../../../sparc-gaisler-elf/lib/leon/mfix-ut699/soft/flat/libc.a(lib_a-locale.o)
 .debug_frame   0x00000000000011b8       0x34 /home/fsw/rep/tasa/lib/bcc-2.2.3-gcc/bin/../lib/gcc/sparc-gaisler-elf/10.2.0/../../../../sparc-gaisler-elf/lib/leon/mfix-ut699/soft/flat/libc.a(lib_a-lseekr.o)
 .debug_frame   0x00000000000011ec       0x40 /home/fsw/rep/tasa/lib/bcc-2.2.3-gcc/bin/../lib/gcc/sparc-gaisler-elf/10.2.0/../../../../sparc-gaisler-elf/lib/leon/mfix-ut699/soft/flat/libc.a(lib_a-mbtowc_r.o)
 .debug_frame   0x000000000000122c       0x34 /home/fsw/rep/tasa/lib/bcc-2.2.3-gcc/bin/../lib/gcc/sparc-gaisler-elf/10.2.0/../../../../sparc-gaisler-elf/lib/leon/mfix-ut699/soft/flat/libc.a(lib_a-readr.o)
 .debug_frame   0x0000000000001260       0x74 /home/fsw/rep/tasa/lib/bcc-2.2.3-gcc/bin/../lib/gcc/sparc-gaisler-elf/10.2.0/../../../../sparc-gaisler-elf/lib/leon/mfix-ut699/soft/flat/libc.a(lib_a-reent.o)
 .debug_frame   0x00000000000012d4       0x20 /home/fsw/rep/tasa/lib/bcc-2.2.3-gcc/bin/../lib/gcc/sparc-gaisler-elf/10.2.0/../../../../sparc-gaisler-elf/lib/leon/mfix-ut699/soft/flat/libc.a(lib_a-strcmp.o)
 .debug_frame   0x00000000000012f4       0x50 /home/fsw/rep/tasa/lib/bcc-2.2.3-gcc/bin/../lib/gcc/sparc-gaisler-elf/10.2.0/../../../../sparc-gaisler-elf/lib/leon/mfix-ut699/soft/flat/libc.a(lib_a-wcrtomb.o)
 .debug_frame   0x0000000000001344       0x3c /home/fsw/rep/tasa/lib/bcc-2.2.3-gcc/bin/../lib/gcc/sparc-gaisler-elf/10.2.0/../../../../sparc-gaisler-elf/lib/leon/mfix-ut699/soft/flat/libc.a(lib_a-wctomb_r.o)
 .debug_frame   0x0000000000001380       0x38 /home/fsw/rep/tasa/lib/bcc-2.2.3-gcc/bin/../sparc-gaisler-elf/bsp/leon3/leon/mfix-ut699/soft/flat/libbcc.a(read.c.o)
 .debug_frame   0x00000000000013b8       0x2c /home/fsw/rep/tasa/lib/bcc-2.2.3-gcc/bin/../sparc-gaisler-elf/bsp/leon3/leon/mfix-ut699/soft/flat/libbcc.a(sbrk.c.o)
 .debug_frame   0x00000000000013e4       0x38 /home/fsw/rep/tasa/lib/bcc-2.2.3-gcc/bin/../sparc-gaisler-elf/bsp/leon3/leon/mfix-ut699/soft/flat/libbcc.a(write.c.o)
 .debug_frame   0x000000000000141c       0x30 /home/fsw/rep/tasa/lib/bcc-2.2.3-gcc/bin/../sparc-gaisler-elf/bsp/leon3/leon/mfix-ut699/soft/flat/libbcc.a(con_apbuart.c.o)
 .debug_frame   0x000000000000144c       0x54 /home/fsw/rep/tasa/lib/bcc-2.2.3-gcc/bin/../lib/gcc/sparc-gaisler-elf/10.2.0/leon/mfix-ut699/soft/flat/libgcc.a(_addsub_df.o)
 .debug_frame   0x00000000000014a0       0x3c /home/fsw/rep/tasa/lib/bcc-2.2.3-gcc/bin/../lib/gcc/sparc-gaisler-elf/10.2.0/leon/mfix-ut699/soft/flat/libgcc.a(_mul_df.o)
 .debug_frame   0x00000000000014dc       0x3c /home/fsw/rep/tasa/lib/bcc-2.2.3-gcc/bin/../lib/gcc/sparc-gaisler-elf/10.2.0/leon/mfix-ut699/soft/flat/libgcc.a(_div_df.o)
 .debug_frame   0x0000000000001518       0x2c /home/fsw/rep/tasa/lib/bcc-2.2.3-gcc/bin/../lib/gcc/sparc-gaisler-elf/10.2.0/leon/mfix-ut699/soft/flat/libgcc.a(_eq_df.o)
 .debug_frame   0x0000000000001544       0x2c /home/fsw/rep/tasa/lib/bcc-2.2.3-gcc/bin/../lib/gcc/sparc-gaisler-elf/10.2.0/leon/mfix-ut699/soft/flat/libgcc.a(_ne_df.o)
 .debug_frame   0x0000000000001570       0x2c /home/fsw/rep/tasa/lib/bcc-2.2.3-gcc/bin/../lib/gcc/sparc-gaisler-elf/10.2.0/leon/mfix-ut699/soft/flat/libgcc.a(_gt_df.o)
 .debug_frame   0x000000000000159c       0x2c /home/fsw/rep/tasa/lib/bcc-2.2.3-gcc/bin/../lib/gcc/sparc-gaisler-elf/10.2.0/leon/mfix-ut699/soft/flat/libgcc.a(_lt_df.o)
 .debug_frame   0x00000000000015c8       0x2c /home/fsw/rep/tasa/lib/bcc-2.2.3-gcc/bin/../lib/gcc/sparc-gaisler-elf/10.2.0/leon/mfix-ut699/soft/flat/libgcc.a(_le_df.o)
 .debug_frame   0x00000000000015f4       0x2c /home/fsw/rep/tasa/lib/bcc-2.2.3-gcc/bin/../lib/gcc/sparc-gaisler-elf/10.2.0/leon/mfix-ut699/soft/flat/libgcc.a(_unord_df.o)
 .debug_frame   0x0000000000001620       0x30 /home/fsw/rep/tasa/lib/bcc-2.2.3-gcc/bin/../lib/gcc/sparc-gaisler-elf/10.2.0/leon/mfix-ut699/soft/flat/libgcc.a(_si_to_df.o)
 .debug_frame   0x0000000000001650       0x2c /home/fsw/rep/tasa/lib/bcc-2.2.3-gcc/bin/../lib/gcc/sparc-gaisler-elf/10.2.0/leon/mfix-ut699/soft/flat/libgcc.a(_df_to_si.o)
 .debug_frame   0x000000000000167c       0x30 /home/fsw/rep/tasa/lib/bcc-2.2.3-gcc/bin/../lib/gcc/sparc-gaisler-elf/10.2.0/leon/mfix-ut699/soft/flat/libgcc.a(_usi_to_df.o)
 .debug_frame   0x00000000000016ac       0x20 /home/fsw/rep/tasa/lib/bcc-2.2.3-gcc/bin/../lib/gcc/sparc-gaisler-elf/10.2.0/leon/mfix-ut699/soft/flat/libgcc.a(_clzsi2.o)
 .debug_frame   0x00000000000016cc       0x30 /home/fsw/rep/tasa/lib/bcc-2.2.3-gcc/bin/../lib/gcc/sparc-gaisler-elf/10.2.0/leon/mfix-ut699/soft/flat/libgcc.a(_pack_df.o)
 .debug_frame   0x00000000000016fc       0x2c /home/fsw/rep/tasa/lib/bcc-2.2.3-gcc/bin/../lib/gcc/sparc-gaisler-elf/10.2.0/leon/mfix-ut699/soft/flat/libgcc.a(_unpack_df.o)
 .debug_frame   0x0000000000001728       0x2c /home/fsw/rep/tasa/lib/bcc-2.2.3-gcc/bin/../lib/gcc/sparc-gaisler-elf/10.2.0/leon/mfix-ut699/soft/flat/libgcc.a(_fpcmp_parts_df.o)

.debug_str      0x0000000000000000     0x35a9
 *(.debug_str)
 .debug_str     0x0000000000000000       0xb3 /home/fsw/rep/tasa/lib/bcc-2.2.3-gcc/bin/../sparc-gaisler-elf/bsp/leon3/leon/mfix-ut699/soft/flat/trap_table_mvt_tn0018.S.o
 .debug_str     0x00000000000000b3       0x2c /home/fsw/rep/tasa/lib/bcc-2.2.3-gcc/bin/../sparc-gaisler-elf/bsp/leon3/leon/mfix-ut699/soft/flat/crt0.S.o
                                         0xa4 (size before relaxing)
 .debug_str     0x00000000000000df      0x132 /tmp/ccK56PDv.o
                                        0x18a (size before relaxing)
 .debug_str     0x0000000000000211       0x3b /home/fsw/rep/tasa/lib/bcc-2.2.3-gcc/bin/../sparc-gaisler-elf/bsp/leon3/leon/mfix-ut699/soft/flat/libbcc.a(reset_trap_mvt.S.o)
                                         0xb3 (size before relaxing)
 .debug_str     0x000000000000024c       0x3c /home/fsw/rep/tasa/lib/bcc-2.2.3-gcc/bin/../sparc-gaisler-elf/bsp/leon3/leon/mfix-ut699/soft/flat/libbcc.a(sw_trap_set_pil.S.o)
                                         0xb4 (size before relaxing)
 .debug_str     0x0000000000000288       0x2c /home/fsw/rep/tasa/lib/bcc-2.2.3-gcc/bin/../sparc-gaisler-elf/bsp/leon3/leon/mfix-ut699/soft/flat/libbcc.a(init.S.o)
                                         0xa4 (size before relaxing)
 .debug_str     0x00000000000002b4       0x31 /home/fsw/rep/tasa/lib/bcc-2.2.3-gcc/bin/../sparc-gaisler-elf/bsp/leon3/leon/mfix-ut699/soft/flat/libbcc.a(leon_info.S.o)
                                         0xa9 (size before relaxing)
 .debug_str     0x00000000000002e5       0x2e /home/fsw/rep/tasa/lib/bcc-2.2.3-gcc/bin/../sparc-gaisler-elf/bsp/leon3/leon/mfix-ut699/soft/flat/libbcc.a(dwzero.S.o)
                                         0xa6 (size before relaxing)
 .debug_str     0x0000000000000313       0xcc /home/fsw/rep/tasa/lib/bcc-2.2.3-gcc/bin/../sparc-gaisler-elf/bsp/leon3/leon/mfix-ut699/soft/flat/libbcc.a(copy_data.c.o)
                                        0x1c5 (size before relaxing)
 .debug_str     0x00000000000003df       0x4e /home/fsw/rep/tasa/lib/bcc-2.2.3-gcc/bin/../sparc-gaisler-elf/bsp/leon3/leon/mfix-ut699/soft/flat/libbcc.a(argv.c.o)
                                        0x19a (size before relaxing)
 .debug_str     0x000000000000042d       0x40 /home/fsw/rep/tasa/lib/bcc-2.2.3-gcc/bin/../sparc-gaisler-elf/bsp/leon3/leon/mfix-ut699/soft/flat/libbcc.a(interrupt_trap_flat_tn0018.S.o)
                                         0xb8 (size before relaxing)
 .debug_str     0x000000000000046d      0x17b /home/fsw/rep/tasa/lib/bcc-2.2.3-gcc/bin/../sparc-gaisler-elf/bsp/leon3/leon/mfix-ut699/soft/flat/libbcc.a(int_irqmp_get_source.c.o)
                                        0x2e7 (size before relaxing)
 .debug_str     0x00000000000005e8       0x93 /home/fsw/rep/tasa/lib/bcc-2.2.3-gcc/bin/../sparc-gaisler-elf/bsp/leon3/leon/mfix-ut699/soft/flat/libbcc.a(int_irqmp_mp.c.o)
                                        0x324 (size before relaxing)
 .debug_str     0x000000000000067b       0xf3 /home/fsw/rep/tasa/lib/bcc-2.2.3-gcc/bin/../sparc-gaisler-elf/bsp/leon3/leon/mfix-ut699/soft/flat/libbcc.a(int_irqmp_init.c.o)
                                        0x3b9 (size before relaxing)
 .debug_str     0x000000000000076e       0x60 /home/fsw/rep/tasa/lib/bcc-2.2.3-gcc/bin/../sparc-gaisler-elf/bsp/leon3/leon/mfix-ut699/soft/flat/libbcc.a(con_apbuart_init.c.o)
                                        0x1f6 (size before relaxing)
 .debug_str     0x00000000000007ce       0x7a /home/fsw/rep/tasa/lib/bcc-2.2.3-gcc/bin/../sparc-gaisler-elf/bsp/leon3/leon/mfix-ut699/soft/flat/libbcc.a(timer_gptimer_init.c.o)
                                        0x25a (size before relaxing)
 .debug_str     0x0000000000000848       0x59 /home/fsw/rep/tasa/lib/bcc-2.2.3-gcc/bin/../sparc-gaisler-elf/bsp/leon3/leon/mfix-ut699/soft/flat/libbcc.a(isr.c.o)
                                        0x1ac (size before relaxing)
 .debug_str     0x00000000000008a1       0x6d /home/fsw/rep/tasa/lib/bcc-2.2.3-gcc/bin/../sparc-gaisler-elf/bsp/leon3/leon/mfix-ut699/soft/flat/libbcc.a(int_nest.c.o)
                                        0x1c6 (size before relaxing)
 .debug_str     0x000000000000090e       0xfc /home/fsw/rep/tasa/lib/bcc-2.2.3-gcc/bin/../sparc-gaisler-elf/bsp/leon3/leon/mfix-ut699/soft/flat/libbcc.a(ambapp.c.o)
                                        0x2cd (size before relaxing)
 .debug_str     0x0000000000000a0a       0x6b /home/fsw/rep/tasa/lib/bcc-2.2.3-gcc/bin/../sparc-gaisler-elf/bsp/leon3/leon/mfix-ut699/soft/flat/libbcc.a(ambapp_findfirst_fn.c.o)
                                        0x268 (size before relaxing)
 .debug_str     0x0000000000000a75       0x42 /home/fsw/rep/tasa/lib/bcc-2.2.3-gcc/bin/../sparc-gaisler-elf/bsp/leon3/leon/mfix-ut699/soft/flat/libbcc.a(int_irqmp_handle.c.o)
                                        0x1f0 (size before relaxing)
 .debug_str     0x0000000000000ab7       0x3a /home/fsw/rep/tasa/lib/bcc-2.2.3-gcc/bin/../sparc-gaisler-elf/bsp/leon3/leon/mfix-ut699/soft/flat/libbcc.a(con_handle.c.o)
                                        0x1ab (size before relaxing)
 .debug_str     0x0000000000000af1       0x3a /home/fsw/rep/tasa/lib/bcc-2.2.3-gcc/bin/../sparc-gaisler-elf/bsp/leon3/leon/mfix-ut699/soft/flat/libbcc.a(timer_handle.c.o)
                                        0x1c3 (size before relaxing)
 .debug_str     0x0000000000000b2b      0x1b9 /home/fsw/rep/tasa/lib/bcc-2.2.3-gcc/bin/../lib/gcc/sparc-gaisler-elf/10.2.0/../../../../sparc-gaisler-elf/lib/leon/mfix-ut699/soft/flat/libc.a(lib_a-atexit.o)
                                        0x249 (size before relaxing)
 .debug_str     0x0000000000000ce4      0x341 /home/fsw/rep/tasa/lib/bcc-2.2.3-gcc/bin/../lib/gcc/sparc-gaisler-elf/10.2.0/../../../../sparc-gaisler-elf/lib/leon/mfix-ut699/soft/flat/libc.a(lib_a-exit.o)
                                        0x567 (size before relaxing)
 .debug_str     0x0000000000001025      0x140 /home/fsw/rep/tasa/lib/bcc-2.2.3-gcc/bin/../lib/gcc/sparc-gaisler-elf/10.2.0/../../../../sparc-gaisler-elf/lib/leon/mfix-ut699/soft/flat/libc.a(lib_a-impure.o)
                                        0x59d (size before relaxing)
 .debug_str     0x0000000000001165      0x11e /home/fsw/rep/tasa/lib/bcc-2.2.3-gcc/bin/../lib/gcc/sparc-gaisler-elf/10.2.0/../../../../sparc-gaisler-elf/lib/leon/mfix-ut699/soft/flat/libc.a(lib_a-memcpy.o)
                                        0x233 (size before relaxing)
 .debug_str     0x0000000000001283      0x134 /home/fsw/rep/tasa/lib/bcc-2.2.3-gcc/bin/../lib/gcc/sparc-gaisler-elf/10.2.0/../../../../sparc-gaisler-elf/lib/leon/mfix-ut699/soft/flat/libc.a(lib_a-printf.o)
                                        0x58d (size before relaxing)
 .debug_str     0x00000000000013b7       0x57 /home/fsw/rep/tasa/lib/bcc-2.2.3-gcc/bin/../lib/gcc/sparc-gaisler-elf/10.2.0/../../../../sparc-gaisler-elf/lib/leon/mfix-ut699/soft/flat/libc.a(lib_a-putchar.o)
                                        0x569 (size before relaxing)
 .debug_str     0x000000000000140e       0xa9 /home/fsw/rep/tasa/lib/bcc-2.2.3-gcc/bin/../lib/gcc/sparc-gaisler-elf/10.2.0/../../../../sparc-gaisler-elf/lib/leon/mfix-ut699/soft/flat/libc.a(lib_a-puts.o)
                                        0x604 (size before relaxing)
 .debug_str     0x00000000000014b7       0x51 /home/fsw/rep/tasa/lib/bcc-2.2.3-gcc/bin/../lib/gcc/sparc-gaisler-elf/10.2.0/../../../../sparc-gaisler-elf/lib/leon/mfix-ut699/soft/flat/libc.a(lib_a-strlen.o)
                                        0x21f (size before relaxing)
 .debug_str     0x0000000000001508      0x403 /home/fsw/rep/tasa/lib/bcc-2.2.3-gcc/bin/../lib/gcc/sparc-gaisler-elf/10.2.0/../../../../sparc-gaisler-elf/lib/leon/mfix-ut699/soft/flat/libc.a(lib_a-vfprintf.o)
                                        0xa8f (size before relaxing)
 .debug_str     0x000000000000190b       0x50 /home/fsw/rep/tasa/lib/bcc-2.2.3-gcc/bin/../lib/gcc/sparc-gaisler-elf/10.2.0/../../../../sparc-gaisler-elf/lib/leon/mfix-ut699/soft/flat/libc.a(lib_a-wsetup.o)
                                        0x5bc (size before relaxing)
 .debug_str     0x000000000000195b       0xbc /home/fsw/rep/tasa/lib/bcc-2.2.3-gcc/bin/../lib/gcc/sparc-gaisler-elf/10.2.0/../../../../sparc-gaisler-elf/lib/leon/mfix-ut699/soft/flat/libc.a(lib_a-__atexit.o)
                                        0x2e8 (size before relaxing)
 .debug_str     0x0000000000001a17       0x67 /home/fsw/rep/tasa/lib/bcc-2.2.3-gcc/bin/../lib/gcc/sparc-gaisler-elf/10.2.0/../../../../sparc-gaisler-elf/lib/leon/mfix-ut699/soft/flat/libc.a(lib_a-__call_atexit.o)
                                        0x2b5 (size before relaxing)
 .debug_str     0x0000000000001a7e      0x180 /home/fsw/rep/tasa/lib/bcc-2.2.3-gcc/bin/../lib/gcc/sparc-gaisler-elf/10.2.0/../../../../sparc-gaisler-elf/lib/leon/mfix-ut699/soft/flat/libc.a(lib_a-dtoa.o)
                                        0x8f2 (size before relaxing)
 .debug_str     0x0000000000001bfe       0x73 /home/fsw/rep/tasa/lib/bcc-2.2.3-gcc/bin/../lib/gcc/sparc-gaisler-elf/10.2.0/../../../../sparc-gaisler-elf/lib/leon/mfix-ut699/soft/flat/libc.a(lib_a-fflush.o)
                                        0x5fd (size before relaxing)
 .debug_str     0x0000000000001c71      0x100 /home/fsw/rep/tasa/lib/bcc-2.2.3-gcc/bin/../lib/gcc/sparc-gaisler-elf/10.2.0/../../../../sparc-gaisler-elf/lib/leon/mfix-ut699/soft/flat/libc.a(lib_a-findfp.o)
                                        0x693 (size before relaxing)
 .debug_str     0x0000000000001d71      0x182 /home/fsw/rep/tasa/lib/bcc-2.2.3-gcc/bin/../lib/gcc/sparc-gaisler-elf/10.2.0/../../../../sparc-gaisler-elf/lib/leon/mfix-ut699/soft/flat/libc.a(lib_a-freer.o)
                                        0x6ad (size before relaxing)
 .debug_str     0x0000000000001ef3       0x75 /home/fsw/rep/tasa/lib/bcc-2.2.3-gcc/bin/../lib/gcc/sparc-gaisler-elf/10.2.0/../../../../sparc-gaisler-elf/lib/leon/mfix-ut699/soft/flat/libc.a(lib_a-fvwrite.o)
                                        0x5f0 (size before relaxing)
 .debug_str     0x0000000000001f68       0x58 /home/fsw/rep/tasa/lib/bcc-2.2.3-gcc/bin/../lib/gcc/sparc-gaisler-elf/10.2.0/../../../../sparc-gaisler-elf/lib/leon/mfix-ut699/soft/flat/libc.a(lib_a-fwalk.o)
                                        0x563 (size before relaxing)
 .debug_str     0x0000000000001fc0      0x15d /home/fsw/rep/tasa/lib/bcc-2.2.3-gcc/bin/../lib/gcc/sparc-gaisler-elf/10.2.0/../../../../sparc-gaisler-elf/lib/leon/mfix-ut699/soft/flat/libc.a(lib_a-localeconv.o)
                                        0x79f (size before relaxing)
 .debug_str     0x000000000000211d      0x16a /home/fsw/rep/tasa/lib/bcc-2.2.3-gcc/bin/../lib/gcc/sparc-gaisler-elf/10.2.0/../../../../sparc-gaisler-elf/lib/leon/mfix-ut699/soft/flat/libc.a(lib_a-makebuf.o)
                                        0x6cd (size before relaxing)
 .debug_str     0x0000000000002287       0x50 /home/fsw/rep/tasa/lib/bcc-2.2.3-gcc/bin/../lib/gcc/sparc-gaisler-elf/10.2.0/../../../../sparc-gaisler-elf/lib/leon/mfix-ut699/soft/flat/libc.a(lib_a-malloc.o)
                                        0x572 (size before relaxing)
 .debug_str     0x00000000000022d7       0xdf /home/fsw/rep/tasa/lib/bcc-2.2.3-gcc/bin/../lib/gcc/sparc-gaisler-elf/10.2.0/../../../../sparc-gaisler-elf/lib/leon/mfix-ut699/soft/flat/libc.a(lib_a-mallocr.o)
                                        0x763 (size before relaxing)
 .debug_str     0x00000000000023b6       0x52 /home/fsw/rep/tasa/lib/bcc-2.2.3-gcc/bin/../lib/gcc/sparc-gaisler-elf/10.2.0/../../../../sparc-gaisler-elf/lib/leon/mfix-ut699/soft/flat/libc.a(lib_a-memchr.o)
                                        0x226 (size before relaxing)
 .debug_str     0x0000000000002408       0x4e /home/fsw/rep/tasa/lib/bcc-2.2.3-gcc/bin/../lib/gcc/sparc-gaisler-elf/10.2.0/../../../../sparc-gaisler-elf/lib/leon/mfix-ut699/soft/flat/libc.a(lib_a-memmove.o)
                                        0x23f (size before relaxing)
 .debug_str     0x0000000000002456       0x4b /home/fsw/rep/tasa/lib/bcc-2.2.3-gcc/bin/../lib/gcc/sparc-gaisler-elf/10.2.0/../../../../sparc-gaisler-elf/lib/leon/mfix-ut699/soft/flat/libc.a(lib_a-memset.o)
                                        0x220 (size before relaxing)
 .debug_str     0x00000000000024a1       0x43 /home/fsw/rep/tasa/lib/bcc-2.2.3-gcc/bin/../lib/gcc/sparc-gaisler-elf/10.2.0/../../../../sparc-gaisler-elf/lib/leon/mfix-ut699/soft/flat/libc.a(lib_a-mlock.o)
                                        0x552 (size before relaxing)
 .debug_str     0x00000000000024e4       0xae /home/fsw/rep/tasa/lib/bcc-2.2.3-gcc/bin/../lib/gcc/sparc-gaisler-elf/10.2.0/../../../../sparc-gaisler-elf/lib/leon/mfix-ut699/soft/flat/libc.a(lib_a-mprec.o)
                                        0x84e (size before relaxing)
 .debug_str     0x0000000000002592       0x5a /home/fsw/rep/tasa/lib/bcc-2.2.3-gcc/bin/../lib/gcc/sparc-gaisler-elf/10.2.0/../../../../sparc-gaisler-elf/lib/leon/mfix-ut699/soft/flat/libc.a(lib_a-putc.o)
                                        0x5cc (size before relaxing)
 .debug_str     0x00000000000025ec       0x4e /home/fsw/rep/tasa/lib/bcc-2.2.3-gcc/bin/../lib/gcc/sparc-gaisler-elf/10.2.0/../../../../sparc-gaisler-elf/lib/leon/mfix-ut699/soft/flat/libc.a(lib_a-reallocr.o)
                                        0x63f (size before relaxing)
 .debug_str     0x000000000000263a      0x12f /home/fsw/rep/tasa/lib/bcc-2.2.3-gcc/bin/../lib/gcc/sparc-gaisler-elf/10.2.0/../../../../sparc-gaisler-elf/lib/leon/mfix-ut699/soft/flat/libc.a(lib_a-s_frexp.o)
                                        0x269 (size before relaxing)
 .debug_str     0x0000000000002769       0x56 /home/fsw/rep/tasa/lib/bcc-2.2.3-gcc/bin/../lib/gcc/sparc-gaisler-elf/10.2.0/../../../../sparc-gaisler-elf/lib/leon/mfix-ut699/soft/flat/libc.a(lib_a-sbrkr.o)
                                        0x554 (size before relaxing)
 .debug_str     0x00000000000027bf       0xa2 /home/fsw/rep/tasa/lib/bcc-2.2.3-gcc/bin/../lib/gcc/sparc-gaisler-elf/10.2.0/../../../../sparc-gaisler-elf/lib/leon/mfix-ut699/soft/flat/libc.a(lib_a-stdio.o)
                                        0x5b2 (size before relaxing)
 .debug_str     0x0000000000002861       0x45 /home/fsw/rep/tasa/lib/bcc-2.2.3-gcc/bin/../lib/gcc/sparc-gaisler-elf/10.2.0/../../../../sparc-gaisler-elf/lib/leon/mfix-ut699/soft/flat/libc.a(lib_a-strncpy.o)
                                        0x236 (size before relaxing)
 .debug_str     0x00000000000028a6       0x21 /home/fsw/rep/tasa/lib/bcc-2.2.3-gcc/bin/../lib/gcc/sparc-gaisler-elf/10.2.0/../../../../sparc-gaisler-elf/lib/leon/mfix-ut699/soft/flat/libc.a(lib_a-vfiprintf.o)
                                        0x988 (size before relaxing)
 .debug_str     0x00000000000028c7       0x49 /home/fsw/rep/tasa/lib/bcc-2.2.3-gcc/bin/../lib/gcc/sparc-gaisler-elf/10.2.0/../../../../sparc-gaisler-elf/lib/leon/mfix-ut699/soft/flat/libc.a(lib_a-wbuf.o)
                                        0x5c1 (size before relaxing)
 .debug_str     0x0000000000002910       0x43 /home/fsw/rep/tasa/lib/bcc-2.2.3-gcc/bin/../lib/gcc/sparc-gaisler-elf/10.2.0/../../../../sparc-gaisler-elf/lib/leon/mfix-ut699/soft/flat/libc.a(lib_a-writer.o)
                                        0x558 (size before relaxing)
 .debug_str     0x0000000000002953        0xf /home/fsw/rep/tasa/lib/bcc-2.2.3-gcc/bin/../lib/gcc/sparc-gaisler-elf/10.2.0/../../../../sparc-gaisler-elf/lib/leon/mfix-ut699/soft/flat/libc.a(lib_a-callocr.o)
                                        0x597 (size before relaxing)
 .debug_str     0x0000000000002962       0x43 /home/fsw/rep/tasa/lib/bcc-2.2.3-gcc/bin/../lib/gcc/sparc-gaisler-elf/10.2.0/../../../../sparc-gaisler-elf/lib/leon/mfix-ut699/soft/flat/libc.a(lib_a-closer.o)
                                        0x548 (size before relaxing)
 .debug_str     0x00000000000029a5       0x54 /home/fsw/rep/tasa/lib/bcc-2.2.3-gcc/bin/../lib/gcc/sparc-gaisler-elf/10.2.0/../../../../sparc-gaisler-elf/lib/leon/mfix-ut699/soft/flat/libc.a(lib_a-fclose.o)
                                        0x5c4 (size before relaxing)
 .debug_str     0x00000000000029f9       0x6b /home/fsw/rep/tasa/lib/bcc-2.2.3-gcc/bin/../lib/gcc/sparc-gaisler-elf/10.2.0/../../../../sparc-gaisler-elf/lib/leon/mfix-ut699/soft/flat/libc.a(lib_a-fputwc.o)
                                        0x602 (size before relaxing)
 .debug_str     0x0000000000002a64       0x49 /home/fsw/rep/tasa/lib/bcc-2.2.3-gcc/bin/../lib/gcc/sparc-gaisler-elf/10.2.0/../../../../sparc-gaisler-elf/lib/leon/mfix-ut699/soft/flat/libc.a(lib_a-fstatr.o)
                                        0x681 (size before relaxing)
 .debug_str     0x0000000000002aad       0x4b /home/fsw/rep/tasa/lib/bcc-2.2.3-gcc/bin/../lib/gcc/sparc-gaisler-elf/10.2.0/../../../../sparc-gaisler-elf/lib/leon/mfix-ut699/soft/flat/libc.a(lib_a-isattyr.o)
                                        0x54b (size before relaxing)
 .debug_str     0x0000000000002af8       0xa8 /home/fsw/rep/tasa/lib/bcc-2.2.3-gcc/bin/../lib/gcc/sparc-gaisler-elf/10.2.0/../../../../sparc-gaisler-elf/lib/leon/mfix-ut699/soft/flat/libc.a(lib_a-locale.o)
                                        0x7d7 (size before relaxing)
 .debug_str     0x0000000000002ba0       0x49 /home/fsw/rep/tasa/lib/bcc-2.2.3-gcc/bin/../lib/gcc/sparc-gaisler-elf/10.2.0/../../../../sparc-gaisler-elf/lib/leon/mfix-ut699/soft/flat/libc.a(lib_a-lseekr.o)
                                        0x54f (size before relaxing)
 .debug_str     0x0000000000002be9       0x65 /home/fsw/rep/tasa/lib/bcc-2.2.3-gcc/bin/../lib/gcc/sparc-gaisler-elf/10.2.0/../../../../sparc-gaisler-elf/lib/leon/mfix-ut699/soft/flat/libc.a(lib_a-mbtowc_r.o)
                                        0x78d (size before relaxing)
 .debug_str     0x0000000000002c4e       0x42 /home/fsw/rep/tasa/lib/bcc-2.2.3-gcc/bin/../lib/gcc/sparc-gaisler-elf/10.2.0/../../../../sparc-gaisler-elf/lib/leon/mfix-ut699/soft/flat/libc.a(lib_a-readr.o)
                                        0x555 (size before relaxing)
 .debug_str     0x0000000000002c90       0x6e /home/fsw/rep/tasa/lib/bcc-2.2.3-gcc/bin/../lib/gcc/sparc-gaisler-elf/10.2.0/../../../../sparc-gaisler-elf/lib/leon/mfix-ut699/soft/flat/libc.a(lib_a-reent.o)
                                        0x57d (size before relaxing)
 .debug_str     0x0000000000002cfe       0x44 /home/fsw/rep/tasa/lib/bcc-2.2.3-gcc/bin/../lib/gcc/sparc-gaisler-elf/10.2.0/../../../../sparc-gaisler-elf/lib/leon/mfix-ut699/soft/flat/libc.a(lib_a-strcmp.o)
                                        0x205 (size before relaxing)
 .debug_str     0x0000000000002d42       0x54 /home/fsw/rep/tasa/lib/bcc-2.2.3-gcc/bin/../lib/gcc/sparc-gaisler-elf/10.2.0/../../../../sparc-gaisler-elf/lib/leon/mfix-ut699/soft/flat/libc.a(lib_a-wcrtomb.o)
                                        0x779 (size before relaxing)
 .debug_str     0x0000000000002d96       0x66 /home/fsw/rep/tasa/lib/bcc-2.2.3-gcc/bin/../lib/gcc/sparc-gaisler-elf/10.2.0/../../../../sparc-gaisler-elf/lib/leon/mfix-ut699/soft/flat/libc.a(lib_a-wctomb_r.o)
                                        0x786 (size before relaxing)
 .debug_str     0x0000000000002dfc       0xfd /home/fsw/rep/tasa/lib/bcc-2.2.3-gcc/bin/../lib/gcc/sparc-gaisler-elf/10.2.0/../../../../sparc-gaisler-elf/lib/leon/mfix-ut699/soft/flat/libc.a(lib_a-ctype_.o)
                                        0x20d (size before relaxing)
 .debug_str     0x0000000000002ef9       0x2d /home/fsw/rep/tasa/lib/bcc-2.2.3-gcc/bin/../sparc-gaisler-elf/bsp/leon3/leon/mfix-ut699/soft/flat/libbcc.a(_exit.S.o)
                                         0xa5 (size before relaxing)
 .debug_str     0x0000000000002f26       0x3d /home/fsw/rep/tasa/lib/bcc-2.2.3-gcc/bin/../sparc-gaisler-elf/bsp/leon3/leon/mfix-ut699/soft/flat/libbcc.a(read.c.o)
                                        0x19b (size before relaxing)
 .debug_str     0x0000000000002f63       0x9d /home/fsw/rep/tasa/lib/bcc-2.2.3-gcc/bin/../sparc-gaisler-elf/bsp/leon3/leon/mfix-ut699/soft/flat/libbcc.a(sbrk.c.o)
                                        0x20f (size before relaxing)
 .debug_str     0x0000000000003000       0x2c /home/fsw/rep/tasa/lib/bcc-2.2.3-gcc/bin/../sparc-gaisler-elf/bsp/leon3/leon/mfix-ut699/soft/flat/libbcc.a(heap.c.o)
                                        0x1a8 (size before relaxing)
 .debug_str     0x000000000000302c       0x3f /home/fsw/rep/tasa/lib/bcc-2.2.3-gcc/bin/../sparc-gaisler-elf/bsp/leon3/leon/mfix-ut699/soft/flat/libbcc.a(write.c.o)
                                        0x19e (size before relaxing)
 .debug_str     0x000000000000306b       0x33 /home/fsw/rep/tasa/lib/bcc-2.2.3-gcc/bin/../sparc-gaisler-elf/bsp/leon3/leon/mfix-ut699/soft/flat/libbcc.a(stubs.S.o)
                                         0xab (size before relaxing)
 .debug_str     0x000000000000309e       0x89 /home/fsw/rep/tasa/lib/bcc-2.2.3-gcc/bin/../sparc-gaisler-elf/bsp/leon3/leon/mfix-ut699/soft/flat/libbcc.a(con_apbuart.c.o)
                                        0x22c (size before relaxing)
 .debug_str     0x0000000000003127      0x1ee /home/fsw/rep/tasa/lib/bcc-2.2.3-gcc/bin/../lib/gcc/sparc-gaisler-elf/10.2.0/leon/mfix-ut699/soft/flat/libgcc.a(_udivdi3.o)
                                        0x296 (size before relaxing)
 .debug_str     0x0000000000003315      0x296 /home/fsw/rep/tasa/lib/bcc-2.2.3-gcc/bin/../lib/gcc/sparc-gaisler-elf/10.2.0/leon/mfix-ut699/soft/flat/libgcc.a(_umoddi3.o)
 .debug_str     0x0000000000003315      0x1f7 /home/fsw/rep/tasa/lib/bcc-2.2.3-gcc/bin/../lib/gcc/sparc-gaisler-elf/10.2.0/leon/mfix-ut699/soft/flat/libgcc.a(_addsub_df.o)
                                        0x360 (size before relaxing)
 .debug_str     0x000000000000350c       0x37 /home/fsw/rep/tasa/lib/bcc-2.2.3-gcc/bin/../lib/gcc/sparc-gaisler-elf/10.2.0/leon/mfix-ut699/soft/flat/libgcc.a(_mul_df.o)
                                        0x332 (size before relaxing)
 .debug_str     0x0000000000003543       0x2c /home/fsw/rep/tasa/lib/bcc-2.2.3-gcc/bin/../lib/gcc/sparc-gaisler-elf/10.2.0/leon/mfix-ut699/soft/flat/libgcc.a(_div_df.o)
                                        0x322 (size before relaxing)
 .debug_str     0x000000000000356f       0x18 /home/fsw/rep/tasa/lib/bcc-2.2.3-gcc/bin/../lib/gcc/sparc-gaisler-elf/10.2.0/leon/mfix-ut699/soft/flat/libgcc.a(_eq_df.o)
                                        0x2e3 (size before relaxing)
 .debug_str     0x0000000000003587      0x2e3 /home/fsw/rep/tasa/lib/bcc-2.2.3-gcc/bin/../lib/gcc/sparc-gaisler-elf/10.2.0/leon/mfix-ut699/soft/flat/libgcc.a(_ne_df.o)
 .debug_str     0x0000000000003587      0x2e3 /home/fsw/rep/tasa/lib/bcc-2.2.3-gcc/bin/../lib/gcc/sparc-gaisler-elf/10.2.0/leon/mfix-ut699/soft/flat/libgcc.a(_gt_df.o)
 .debug_str     0x0000000000003587      0x2e3 /home/fsw/rep/tasa/lib/bcc-2.2.3-gcc/bin/../lib/gcc/sparc-gaisler-elf/10.2.0/leon/mfix-ut699/soft/flat/libgcc.a(_lt_df.o)
 .debug_str     0x0000000000003587      0x2e3 /home/fsw/rep/tasa/lib/bcc-2.2.3-gcc/bin/../lib/gcc/sparc-gaisler-elf/10.2.0/leon/mfix-ut699/soft/flat/libgcc.a(_le_df.o)
 .debug_str     0x0000000000003587      0x2d6 /home/fsw/rep/tasa/lib/bcc-2.2.3-gcc/bin/../lib/gcc/sparc-gaisler-elf/10.2.0/leon/mfix-ut699/soft/flat/libgcc.a(_unord_df.o)
 .debug_str     0x0000000000003587       0x15 /home/fsw/rep/tasa/lib/bcc-2.2.3-gcc/bin/../lib/gcc/sparc-gaisler-elf/10.2.0/leon/mfix-ut699/soft/flat/libgcc.a(_si_to_df.o)
                                        0x2be (size before relaxing)
 .debug_str     0x000000000000359c      0x2db /home/fsw/rep/tasa/lib/bcc-2.2.3-gcc/bin/../lib/gcc/sparc-gaisler-elf/10.2.0/leon/mfix-ut699/soft/flat/libgcc.a(_df_to_si.o)
 .debug_str     0x000000000000359c      0x27d /home/fsw/rep/tasa/lib/bcc-2.2.3-gcc/bin/../lib/gcc/sparc-gaisler-elf/10.2.0/leon/mfix-ut699/soft/flat/libgcc.a(_thenan_df.o)
 .debug_str     0x000000000000359c        0x6 /home/fsw/rep/tasa/lib/bcc-2.2.3-gcc/bin/../lib/gcc/sparc-gaisler-elf/10.2.0/leon/mfix-ut699/soft/flat/libgcc.a(_usi_to_df.o)
                                        0x2ba (size before relaxing)
 .debug_str     0x00000000000035a2      0x223 /home/fsw/rep/tasa/lib/bcc-2.2.3-gcc/bin/../lib/gcc/sparc-gaisler-elf/10.2.0/leon/mfix-ut699/soft/flat/libgcc.a(_clz.o)
 .debug_str     0x00000000000035a2      0x240 /home/fsw/rep/tasa/lib/bcc-2.2.3-gcc/bin/../lib/gcc/sparc-gaisler-elf/10.2.0/leon/mfix-ut699/soft/flat/libgcc.a(_clzsi2.o)
 .debug_str     0x00000000000035a2        0x7 /home/fsw/rep/tasa/lib/bcc-2.2.3-gcc/bin/../lib/gcc/sparc-gaisler-elf/10.2.0/leon/mfix-ut699/soft/flat/libgcc.a(_pack_df.o)
                                        0x2cf (size before relaxing)
 .debug_str     0x00000000000035a9      0x2b1 /home/fsw/rep/tasa/lib/bcc-2.2.3-gcc/bin/../lib/gcc/sparc-gaisler-elf/10.2.0/leon/mfix-ut699/soft/flat/libgcc.a(_unpack_df.o)
 .debug_str     0x00000000000035a9      0x294 /home/fsw/rep/tasa/lib/bcc-2.2.3-gcc/bin/../lib/gcc/sparc-gaisler-elf/10.2.0/leon/mfix-ut699/soft/flat/libgcc.a(_fpcmp_parts_df.o)

.debug_loc      0x0000000000000000    0x1a87c
 *(.debug_loc)
 .debug_loc     0x0000000000000000       0x51 /tmp/ccK56PDv.o
 .debug_loc     0x0000000000000051       0x58 /home/fsw/rep/tasa/lib/bcc-2.2.3-gcc/bin/../sparc-gaisler-elf/bsp/leon3/leon/mfix-ut699/soft/flat/libbcc.a(int_irqmp_get_source.c.o)
 .debug_loc     0x00000000000000a9       0xdf /home/fsw/rep/tasa/lib/bcc-2.2.3-gcc/bin/../sparc-gaisler-elf/bsp/leon3/leon/mfix-ut699/soft/flat/libbcc.a(int_irqmp_mp.c.o)
 .debug_loc     0x0000000000000188      0x2e7 /home/fsw/rep/tasa/lib/bcc-2.2.3-gcc/bin/../sparc-gaisler-elf/bsp/leon3/leon/mfix-ut699/soft/flat/libbcc.a(int_irqmp_init.c.o)
 .debug_loc     0x000000000000046f      0xcda /home/fsw/rep/tasa/lib/bcc-2.2.3-gcc/bin/../sparc-gaisler-elf/bsp/leon3/leon/mfix-ut699/soft/flat/libbcc.a(ambapp.c.o)
 .debug_loc     0x0000000000001149      0x2c0 /home/fsw/rep/tasa/lib/bcc-2.2.3-gcc/bin/../sparc-gaisler-elf/bsp/leon3/leon/mfix-ut699/soft/flat/libbcc.a(ambapp_findfirst_fn.c.o)
 .debug_loc     0x0000000000001409       0x32 /home/fsw/rep/tasa/lib/bcc-2.2.3-gcc/bin/../lib/gcc/sparc-gaisler-elf/10.2.0/../../../../sparc-gaisler-elf/lib/leon/mfix-ut699/soft/flat/libc.a(lib_a-atexit.o)
 .debug_loc     0x000000000000143b       0x22 /home/fsw/rep/tasa/lib/bcc-2.2.3-gcc/bin/../lib/gcc/sparc-gaisler-elf/10.2.0/../../../../sparc-gaisler-elf/lib/leon/mfix-ut699/soft/flat/libc.a(lib_a-exit.o)
 .debug_loc     0x000000000000145d      0x499 /home/fsw/rep/tasa/lib/bcc-2.2.3-gcc/bin/../lib/gcc/sparc-gaisler-elf/10.2.0/../../../../sparc-gaisler-elf/lib/leon/mfix-ut699/soft/flat/libc.a(lib_a-memcpy.o)
 .debug_loc     0x00000000000018f6      0x198 /home/fsw/rep/tasa/lib/bcc-2.2.3-gcc/bin/../lib/gcc/sparc-gaisler-elf/10.2.0/../../../../sparc-gaisler-elf/lib/leon/mfix-ut699/soft/flat/libc.a(lib_a-printf.o)
 .debug_loc     0x0000000000001a8e      0x15b /home/fsw/rep/tasa/lib/bcc-2.2.3-gcc/bin/../lib/gcc/sparc-gaisler-elf/10.2.0/../../../../sparc-gaisler-elf/lib/leon/mfix-ut699/soft/flat/libc.a(lib_a-putchar.o)
 .debug_loc     0x0000000000001be9      0x260 /home/fsw/rep/tasa/lib/bcc-2.2.3-gcc/bin/../lib/gcc/sparc-gaisler-elf/10.2.0/../../../../sparc-gaisler-elf/lib/leon/mfix-ut699/soft/flat/libc.a(lib_a-puts.o)
 .debug_loc     0x0000000000001e49       0x76 /home/fsw/rep/tasa/lib/bcc-2.2.3-gcc/bin/../lib/gcc/sparc-gaisler-elf/10.2.0/../../../../sparc-gaisler-elf/lib/leon/mfix-ut699/soft/flat/libc.a(lib_a-strlen.o)
 .debug_loc     0x0000000000001ebf     0x4c63 /home/fsw/rep/tasa/lib/bcc-2.2.3-gcc/bin/../lib/gcc/sparc-gaisler-elf/10.2.0/../../../../sparc-gaisler-elf/lib/leon/mfix-ut699/soft/flat/libc.a(lib_a-vfprintf.o)
 .debug_loc     0x0000000000006b22       0xaa /home/fsw/rep/tasa/lib/bcc-2.2.3-gcc/bin/../lib/gcc/sparc-gaisler-elf/10.2.0/../../../../sparc-gaisler-elf/lib/leon/mfix-ut699/soft/flat/libc.a(lib_a-wsetup.o)
 .debug_loc     0x0000000000006bcc      0x213 /home/fsw/rep/tasa/lib/bcc-2.2.3-gcc/bin/../lib/gcc/sparc-gaisler-elf/10.2.0/../../../../sparc-gaisler-elf/lib/leon/mfix-ut699/soft/flat/libc.a(lib_a-__atexit.o)
 .debug_loc     0x0000000000006ddf      0x2cd /home/fsw/rep/tasa/lib/bcc-2.2.3-gcc/bin/../lib/gcc/sparc-gaisler-elf/10.2.0/../../../../sparc-gaisler-elf/lib/leon/mfix-ut699/soft/flat/libc.a(lib_a-__call_atexit.o)
 .debug_loc     0x00000000000070ac     0x2b1e /home/fsw/rep/tasa/lib/bcc-2.2.3-gcc/bin/../lib/gcc/sparc-gaisler-elf/10.2.0/../../../../sparc-gaisler-elf/lib/leon/mfix-ut699/soft/flat/libc.a(lib_a-dtoa.o)
 .debug_loc     0x0000000000009bca      0x4bf /home/fsw/rep/tasa/lib/bcc-2.2.3-gcc/bin/../lib/gcc/sparc-gaisler-elf/10.2.0/../../../../sparc-gaisler-elf/lib/leon/mfix-ut699/soft/flat/libc.a(lib_a-fflush.o)
 .debug_loc     0x000000000000a089      0x326 /home/fsw/rep/tasa/lib/bcc-2.2.3-gcc/bin/../lib/gcc/sparc-gaisler-elf/10.2.0/../../../../sparc-gaisler-elf/lib/leon/mfix-ut699/soft/flat/libc.a(lib_a-findfp.o)
 .debug_loc     0x000000000000a3af      0x67f /home/fsw/rep/tasa/lib/bcc-2.2.3-gcc/bin/../lib/gcc/sparc-gaisler-elf/10.2.0/../../../../sparc-gaisler-elf/lib/leon/mfix-ut699/soft/flat/libc.a(lib_a-freer.o)
 .debug_loc     0x000000000000aa2e      0x615 /home/fsw/rep/tasa/lib/bcc-2.2.3-gcc/bin/../lib/gcc/sparc-gaisler-elf/10.2.0/../../../../sparc-gaisler-elf/lib/leon/mfix-ut699/soft/flat/libc.a(lib_a-fvwrite.o)
 .debug_loc     0x000000000000b043      0x1c9 /home/fsw/rep/tasa/lib/bcc-2.2.3-gcc/bin/../lib/gcc/sparc-gaisler-elf/10.2.0/../../../../sparc-gaisler-elf/lib/leon/mfix-ut699/soft/flat/libc.a(lib_a-fwalk.o)
 .debug_loc     0x000000000000b20c      0x103 /home/fsw/rep/tasa/lib/bcc-2.2.3-gcc/bin/../lib/gcc/sparc-gaisler-elf/10.2.0/../../../../sparc-gaisler-elf/lib/leon/mfix-ut699/soft/flat/libc.a(lib_a-localeconv.o)
 .debug_loc     0x000000000000b30f      0x499 /home/fsw/rep/tasa/lib/bcc-2.2.3-gcc/bin/../lib/gcc/sparc-gaisler-elf/10.2.0/../../../../sparc-gaisler-elf/lib/leon/mfix-ut699/soft/flat/libc.a(lib_a-makebuf.o)
 .debug_loc     0x000000000000b7a8       0x64 /home/fsw/rep/tasa/lib/bcc-2.2.3-gcc/bin/../lib/gcc/sparc-gaisler-elf/10.2.0/../../../../sparc-gaisler-elf/lib/leon/mfix-ut699/soft/flat/libc.a(lib_a-malloc.o)
 .debug_loc     0x000000000000b80c      0xd72 /home/fsw/rep/tasa/lib/bcc-2.2.3-gcc/bin/../lib/gcc/sparc-gaisler-elf/10.2.0/../../../../sparc-gaisler-elf/lib/leon/mfix-ut699/soft/flat/libc.a(lib_a-mallocr.o)
 .debug_loc     0x000000000000c57e      0x191 /home/fsw/rep/tasa/lib/bcc-2.2.3-gcc/bin/../lib/gcc/sparc-gaisler-elf/10.2.0/../../../../sparc-gaisler-elf/lib/leon/mfix-ut699/soft/flat/libc.a(lib_a-memchr.o)
 .debug_loc     0x000000000000c70f      0x4ee /home/fsw/rep/tasa/lib/bcc-2.2.3-gcc/bin/../lib/gcc/sparc-gaisler-elf/10.2.0/../../../../sparc-gaisler-elf/lib/leon/mfix-ut699/soft/flat/libc.a(lib_a-memmove.o)
 .debug_loc     0x000000000000cbfd      0x245 /home/fsw/rep/tasa/lib/bcc-2.2.3-gcc/bin/../lib/gcc/sparc-gaisler-elf/10.2.0/../../../../sparc-gaisler-elf/lib/leon/mfix-ut699/soft/flat/libc.a(lib_a-memset.o)
 .debug_loc     0x000000000000ce42     0x2fc8 /home/fsw/rep/tasa/lib/bcc-2.2.3-gcc/bin/../lib/gcc/sparc-gaisler-elf/10.2.0/../../../../sparc-gaisler-elf/lib/leon/mfix-ut699/soft/flat/libc.a(lib_a-mprec.o)
 .debug_loc     0x000000000000fe0a      0x42f /home/fsw/rep/tasa/lib/bcc-2.2.3-gcc/bin/../lib/gcc/sparc-gaisler-elf/10.2.0/../../../../sparc-gaisler-elf/lib/leon/mfix-ut699/soft/flat/libc.a(lib_a-putc.o)
 .debug_loc     0x0000000000010239     0x1187 /home/fsw/rep/tasa/lib/bcc-2.2.3-gcc/bin/../lib/gcc/sparc-gaisler-elf/10.2.0/../../../../sparc-gaisler-elf/lib/leon/mfix-ut699/soft/flat/libc.a(lib_a-reallocr.o)
 .debug_loc     0x00000000000113c0       0xfe /home/fsw/rep/tasa/lib/bcc-2.2.3-gcc/bin/../lib/gcc/sparc-gaisler-elf/10.2.0/../../../../sparc-gaisler-elf/lib/leon/mfix-ut699/soft/flat/libc.a(lib_a-s_frexp.o)
 .debug_loc     0x00000000000114be       0x5c /home/fsw/rep/tasa/lib/bcc-2.2.3-gcc/bin/../lib/gcc/sparc-gaisler-elf/10.2.0/../../../../sparc-gaisler-elf/lib/leon/mfix-ut699/soft/flat/libc.a(lib_a-sbrkr.o)
 .debug_loc     0x000000000001151a      0x410 /home/fsw/rep/tasa/lib/bcc-2.2.3-gcc/bin/../lib/gcc/sparc-gaisler-elf/10.2.0/../../../../sparc-gaisler-elf/lib/leon/mfix-ut699/soft/flat/libc.a(lib_a-stdio.o)
 .debug_loc     0x000000000001192a      0x26b /home/fsw/rep/tasa/lib/bcc-2.2.3-gcc/bin/../lib/gcc/sparc-gaisler-elf/10.2.0/../../../../sparc-gaisler-elf/lib/leon/mfix-ut699/soft/flat/libc.a(lib_a-strncpy.o)
 .debug_loc     0x0000000000011b95     0x4021 /home/fsw/rep/tasa/lib/bcc-2.2.3-gcc/bin/../lib/gcc/sparc-gaisler-elf/10.2.0/../../../../sparc-gaisler-elf/lib/leon/mfix-ut699/soft/flat/libc.a(lib_a-vfiprintf.o)
 .debug_loc     0x0000000000015bb6      0x32a /home/fsw/rep/tasa/lib/bcc-2.2.3-gcc/bin/../lib/gcc/sparc-gaisler-elf/10.2.0/../../../../sparc-gaisler-elf/lib/leon/mfix-ut699/soft/flat/libc.a(lib_a-wbuf.o)
 .debug_loc     0x0000000000015ee0       0xc0 /home/fsw/rep/tasa/lib/bcc-2.2.3-gcc/bin/../lib/gcc/sparc-gaisler-elf/10.2.0/../../../../sparc-gaisler-elf/lib/leon/mfix-ut699/soft/flat/libc.a(lib_a-writer.o)
 .debug_loc     0x0000000000015fa0      0x206 /home/fsw/rep/tasa/lib/bcc-2.2.3-gcc/bin/../lib/gcc/sparc-gaisler-elf/10.2.0/../../../../sparc-gaisler-elf/lib/leon/mfix-ut699/soft/flat/libc.a(lib_a-callocr.o)
 .debug_loc     0x00000000000161a6       0x5c /home/fsw/rep/tasa/lib/bcc-2.2.3-gcc/bin/../lib/gcc/sparc-gaisler-elf/10.2.0/../../../../sparc-gaisler-elf/lib/leon/mfix-ut699/soft/flat/libc.a(lib_a-closer.o)
 .debug_loc     0x0000000000016202      0x248 /home/fsw/rep/tasa/lib/bcc-2.2.3-gcc/bin/../lib/gcc/sparc-gaisler-elf/10.2.0/../../../../sparc-gaisler-elf/lib/leon/mfix-ut699/soft/flat/libc.a(lib_a-fclose.o)
 .debug_loc     0x000000000001644a      0x3d3 /home/fsw/rep/tasa/lib/bcc-2.2.3-gcc/bin/../lib/gcc/sparc-gaisler-elf/10.2.0/../../../../sparc-gaisler-elf/lib/leon/mfix-ut699/soft/flat/libc.a(lib_a-fputwc.o)
 .debug_loc     0x000000000001681d       0x8e /home/fsw/rep/tasa/lib/bcc-2.2.3-gcc/bin/../lib/gcc/sparc-gaisler-elf/10.2.0/../../../../sparc-gaisler-elf/lib/leon/mfix-ut699/soft/flat/libc.a(lib_a-fstatr.o)
 .debug_loc     0x00000000000168ab       0x5c /home/fsw/rep/tasa/lib/bcc-2.2.3-gcc/bin/../lib/gcc/sparc-gaisler-elf/10.2.0/../../../../sparc-gaisler-elf/lib/leon/mfix-ut699/soft/flat/libc.a(lib_a-isattyr.o)
 .debug_loc     0x0000000000016907      0x20c /home/fsw/rep/tasa/lib/bcc-2.2.3-gcc/bin/../lib/gcc/sparc-gaisler-elf/10.2.0/../../../../sparc-gaisler-elf/lib/leon/mfix-ut699/soft/flat/libc.a(lib_a-locale.o)
 .debug_loc     0x0000000000016b13       0xc0 /home/fsw/rep/tasa/lib/bcc-2.2.3-gcc/bin/../lib/gcc/sparc-gaisler-elf/10.2.0/../../../../sparc-gaisler-elf/lib/leon/mfix-ut699/soft/flat/libc.a(lib_a-lseekr.o)
 .debug_loc     0x0000000000016bd3      0x1c3 /home/fsw/rep/tasa/lib/bcc-2.2.3-gcc/bin/../lib/gcc/sparc-gaisler-elf/10.2.0/../../../../sparc-gaisler-elf/lib/leon/mfix-ut699/soft/flat/libc.a(lib_a-mbtowc_r.o)
 .debug_loc     0x0000000000016d96       0xc0 /home/fsw/rep/tasa/lib/bcc-2.2.3-gcc/bin/../lib/gcc/sparc-gaisler-elf/10.2.0/../../../../sparc-gaisler-elf/lib/leon/mfix-ut699/soft/flat/libc.a(lib_a-readr.o)
 .debug_loc     0x0000000000016e56      0x320 /home/fsw/rep/tasa/lib/bcc-2.2.3-gcc/bin/../lib/gcc/sparc-gaisler-elf/10.2.0/../../../../sparc-gaisler-elf/lib/leon/mfix-ut699/soft/flat/libc.a(lib_a-reent.o)
 .debug_loc     0x0000000000017176       0xc2 /home/fsw/rep/tasa/lib/bcc-2.2.3-gcc/bin/../lib/gcc/sparc-gaisler-elf/10.2.0/../../../../sparc-gaisler-elf/lib/leon/mfix-ut699/soft/flat/libc.a(lib_a-strcmp.o)
 .debug_loc     0x0000000000017238      0x2f1 /home/fsw/rep/tasa/lib/bcc-2.2.3-gcc/bin/../lib/gcc/sparc-gaisler-elf/10.2.0/../../../../sparc-gaisler-elf/lib/leon/mfix-ut699/soft/flat/libc.a(lib_a-wcrtomb.o)
 .debug_loc     0x0000000000017529      0x13f /home/fsw/rep/tasa/lib/bcc-2.2.3-gcc/bin/../lib/gcc/sparc-gaisler-elf/10.2.0/../../../../sparc-gaisler-elf/lib/leon/mfix-ut699/soft/flat/libc.a(lib_a-wctomb_r.o)
 .debug_loc     0x0000000000017668      0x140 /home/fsw/rep/tasa/lib/bcc-2.2.3-gcc/bin/../sparc-gaisler-elf/bsp/leon3/leon/mfix-ut699/soft/flat/libbcc.a(read.c.o)
 .debug_loc     0x00000000000177a8       0x69 /home/fsw/rep/tasa/lib/bcc-2.2.3-gcc/bin/../sparc-gaisler-elf/bsp/leon3/leon/mfix-ut699/soft/flat/libbcc.a(sbrk.c.o)
 .debug_loc     0x0000000000017811       0xd9 /home/fsw/rep/tasa/lib/bcc-2.2.3-gcc/bin/../sparc-gaisler-elf/bsp/leon3/leon/mfix-ut699/soft/flat/libbcc.a(write.c.o)
 .debug_loc     0x00000000000178ea       0xa7 /home/fsw/rep/tasa/lib/bcc-2.2.3-gcc/bin/../sparc-gaisler-elf/bsp/leon3/leon/mfix-ut699/soft/flat/libbcc.a(con_apbuart.c.o)
 .debug_loc     0x0000000000017991      0x508 /home/fsw/rep/tasa/lib/bcc-2.2.3-gcc/bin/../lib/gcc/sparc-gaisler-elf/10.2.0/leon/mfix-ut699/soft/flat/libgcc.a(_udivdi3.o)
 .debug_loc     0x0000000000017e99      0x58f /home/fsw/rep/tasa/lib/bcc-2.2.3-gcc/bin/../lib/gcc/sparc-gaisler-elf/10.2.0/leon/mfix-ut699/soft/flat/libgcc.a(_umoddi3.o)
 .debug_loc     0x0000000000018428      0xefb /home/fsw/rep/tasa/lib/bcc-2.2.3-gcc/bin/../lib/gcc/sparc-gaisler-elf/10.2.0/leon/mfix-ut699/soft/flat/libgcc.a(_addsub_df.o)
 .debug_loc     0x0000000000019323      0x655 /home/fsw/rep/tasa/lib/bcc-2.2.3-gcc/bin/../lib/gcc/sparc-gaisler-elf/10.2.0/leon/mfix-ut699/soft/flat/libgcc.a(_mul_df.o)
 .debug_loc     0x0000000000019978      0x2f2 /home/fsw/rep/tasa/lib/bcc-2.2.3-gcc/bin/../lib/gcc/sparc-gaisler-elf/10.2.0/leon/mfix-ut699/soft/flat/libgcc.a(_div_df.o)
 .debug_loc     0x0000000000019c6a       0x86 /home/fsw/rep/tasa/lib/bcc-2.2.3-gcc/bin/../lib/gcc/sparc-gaisler-elf/10.2.0/leon/mfix-ut699/soft/flat/libgcc.a(_eq_df.o)
 .debug_loc     0x0000000000019cf0       0x86 /home/fsw/rep/tasa/lib/bcc-2.2.3-gcc/bin/../lib/gcc/sparc-gaisler-elf/10.2.0/leon/mfix-ut699/soft/flat/libgcc.a(_ne_df.o)
 .debug_loc     0x0000000000019d76       0x86 /home/fsw/rep/tasa/lib/bcc-2.2.3-gcc/bin/../lib/gcc/sparc-gaisler-elf/10.2.0/leon/mfix-ut699/soft/flat/libgcc.a(_gt_df.o)
 .debug_loc     0x0000000000019dfc       0x86 /home/fsw/rep/tasa/lib/bcc-2.2.3-gcc/bin/../lib/gcc/sparc-gaisler-elf/10.2.0/leon/mfix-ut699/soft/flat/libgcc.a(_lt_df.o)
 .debug_loc     0x0000000000019e82       0x86 /home/fsw/rep/tasa/lib/bcc-2.2.3-gcc/bin/../lib/gcc/sparc-gaisler-elf/10.2.0/leon/mfix-ut699/soft/flat/libgcc.a(_le_df.o)
 .debug_loc     0x0000000000019f08       0x86 /home/fsw/rep/tasa/lib/bcc-2.2.3-gcc/bin/../lib/gcc/sparc-gaisler-elf/10.2.0/leon/mfix-ut699/soft/flat/libgcc.a(_unord_df.o)
 .debug_loc     0x0000000000019f8e       0xc8 /home/fsw/rep/tasa/lib/bcc-2.2.3-gcc/bin/../lib/gcc/sparc-gaisler-elf/10.2.0/leon/mfix-ut699/soft/flat/libgcc.a(_si_to_df.o)
 .debug_loc     0x000000000001a056       0x58 /home/fsw/rep/tasa/lib/bcc-2.2.3-gcc/bin/../lib/gcc/sparc-gaisler-elf/10.2.0/leon/mfix-ut699/soft/flat/libgcc.a(_df_to_si.o)
 .debug_loc     0x000000000001a0ae       0x93 /home/fsw/rep/tasa/lib/bcc-2.2.3-gcc/bin/../lib/gcc/sparc-gaisler-elf/10.2.0/leon/mfix-ut699/soft/flat/libgcc.a(_usi_to_df.o)
 .debug_loc     0x000000000001a141       0xbe /home/fsw/rep/tasa/lib/bcc-2.2.3-gcc/bin/../lib/gcc/sparc-gaisler-elf/10.2.0/leon/mfix-ut699/soft/flat/libgcc.a(_clzsi2.o)
 .debug_loc     0x000000000001a1ff      0x41e /home/fsw/rep/tasa/lib/bcc-2.2.3-gcc/bin/../lib/gcc/sparc-gaisler-elf/10.2.0/leon/mfix-ut699/soft/flat/libgcc.a(_pack_df.o)
 .debug_loc     0x000000000001a61d      0x145 /home/fsw/rep/tasa/lib/bcc-2.2.3-gcc/bin/../lib/gcc/sparc-gaisler-elf/10.2.0/leon/mfix-ut699/soft/flat/libgcc.a(_unpack_df.o)
 .debug_loc     0x000000000001a762      0x11a /home/fsw/rep/tasa/lib/bcc-2.2.3-gcc/bin/../lib/gcc/sparc-gaisler-elf/10.2.0/leon/mfix-ut699/soft/flat/libgcc.a(_fpcmp_parts_df.o)

.comment        0x0000000000000000       0x19
 .comment       0x0000000000000000       0x19 /home/fsw/rep/tasa/lib/bcc-2.2.3-gcc/bin/../lib/gcc/sparc-gaisler-elf/10.2.0/leon/mfix-ut699/soft/flat/crtbegin.o
                                         0x1a (size before relaxing)
 .comment       0x0000000000000019       0x1a /tmp/ccK56PDv.o
 .comment       0x0000000000000019       0x1a /home/fsw/rep/tasa/lib/bcc-2.2.3-gcc/bin/../sparc-gaisler-elf/bsp/leon3/leon/mfix-ut699/soft/flat/libbcc.a(copy_data.c.o)
 .comment       0x0000000000000019       0x1a /home/fsw/rep/tasa/lib/bcc-2.2.3-gcc/bin/../sparc-gaisler-elf/bsp/leon3/leon/mfix-ut699/soft/flat/libbcc.a(argv.c.o)
 .comment       0x0000000000000019       0x1a /home/fsw/rep/tasa/lib/bcc-2.2.3-gcc/bin/../sparc-gaisler-elf/bsp/leon3/leon/mfix-ut699/soft/flat/libbcc.a(int_irqmp_get_source.c.o)
 .comment       0x0000000000000019       0x1a /home/fsw/rep/tasa/lib/bcc-2.2.3-gcc/bin/../sparc-gaisler-elf/bsp/leon3/leon/mfix-ut699/soft/flat/libbcc.a(int_irqmp_mp.c.o)
 .comment       0x0000000000000019       0x1a /home/fsw/rep/tasa/lib/bcc-2.2.3-gcc/bin/../sparc-gaisler-elf/bsp/leon3/leon/mfix-ut699/soft/flat/libbcc.a(int_irqmp_init.c.o)
 .comment       0x0000000000000019       0x1a /home/fsw/rep/tasa/lib/bcc-2.2.3-gcc/bin/../sparc-gaisler-elf/bsp/leon3/leon/mfix-ut699/soft/flat/libbcc.a(con_apbuart_init.c.o)
 .comment       0x0000000000000019       0x1a /home/fsw/rep/tasa/lib/bcc-2.2.3-gcc/bin/../sparc-gaisler-elf/bsp/leon3/leon/mfix-ut699/soft/flat/libbcc.a(timer_gptimer_init.c.o)
 .comment       0x0000000000000019       0x1a /home/fsw/rep/tasa/lib/bcc-2.2.3-gcc/bin/../sparc-gaisler-elf/bsp/leon3/leon/mfix-ut699/soft/flat/libbcc.a(isr.c.o)
 .comment       0x0000000000000019       0x1a /home/fsw/rep/tasa/lib/bcc-2.2.3-gcc/bin/../sparc-gaisler-elf/bsp/leon3/leon/mfix-ut699/soft/flat/libbcc.a(int_nest.c.o)
 .comment       0x0000000000000019       0x1a /home/fsw/rep/tasa/lib/bcc-2.2.3-gcc/bin/../sparc-gaisler-elf/bsp/leon3/leon/mfix-ut699/soft/flat/libbcc.a(ambapp.c.o)
 .comment       0x0000000000000019       0x1a /home/fsw/rep/tasa/lib/bcc-2.2.3-gcc/bin/../sparc-gaisler-elf/bsp/leon3/leon/mfix-ut699/soft/flat/libbcc.a(ambapp_findfirst_fn.c.o)
 .comment       0x0000000000000019       0x1a /home/fsw/rep/tasa/lib/bcc-2.2.3-gcc/bin/../sparc-gaisler-elf/bsp/leon3/leon/mfix-ut699/soft/flat/libbcc.a(int_irqmp_handle.c.o)
 .comment       0x0000000000000019       0x1a /home/fsw/rep/tasa/lib/bcc-2.2.3-gcc/bin/../sparc-gaisler-elf/bsp/leon3/leon/mfix-ut699/soft/flat/libbcc.a(con_handle.c.o)
 .comment       0x0000000000000019       0x1a /home/fsw/rep/tasa/lib/bcc-2.2.3-gcc/bin/../sparc-gaisler-elf/bsp/leon3/leon/mfix-ut699/soft/flat/libbcc.a(timer_handle.c.o)
 .comment       0x0000000000000019       0x1a /home/fsw/rep/tasa/lib/bcc-2.2.3-gcc/bin/../lib/gcc/sparc-gaisler-elf/10.2.0/../../../../sparc-gaisler-elf/lib/leon/mfix-ut699/soft/flat/libc.a(lib_a-atexit.o)
 .comment       0x0000000000000019       0x1a /home/fsw/rep/tasa/lib/bcc-2.2.3-gcc/bin/../lib/gcc/sparc-gaisler-elf/10.2.0/../../../../sparc-gaisler-elf/lib/leon/mfix-ut699/soft/flat/libc.a(lib_a-exit.o)
 .comment       0x0000000000000019       0x1a /home/fsw/rep/tasa/lib/bcc-2.2.3-gcc/bin/../lib/gcc/sparc-gaisler-elf/10.2.0/../../../../sparc-gaisler-elf/lib/leon/mfix-ut699/soft/flat/libc.a(lib_a-impure.o)
 .comment       0x0000000000000019       0x1a /home/fsw/rep/tasa/lib/bcc-2.2.3-gcc/bin/../lib/gcc/sparc-gaisler-elf/10.2.0/../../../../sparc-gaisler-elf/lib/leon/mfix-ut699/soft/flat/libc.a(lib_a-memcpy.o)
 .comment       0x0000000000000019       0x1a /home/fsw/rep/tasa/lib/bcc-2.2.3-gcc/bin/../lib/gcc/sparc-gaisler-elf/10.2.0/../../../../sparc-gaisler-elf/lib/leon/mfix-ut699/soft/flat/libc.a(lib_a-printf.o)
 .comment       0x0000000000000019       0x1a /home/fsw/rep/tasa/lib/bcc-2.2.3-gcc/bin/../lib/gcc/sparc-gaisler-elf/10.2.0/../../../../sparc-gaisler-elf/lib/leon/mfix-ut699/soft/flat/libc.a(lib_a-putchar.o)
 .comment       0x0000000000000019       0x1a /home/fsw/rep/tasa/lib/bcc-2.2.3-gcc/bin/../lib/gcc/sparc-gaisler-elf/10.2.0/../../../../sparc-gaisler-elf/lib/leon/mfix-ut699/soft/flat/libc.a(lib_a-puts.o)
 .comment       0x0000000000000019       0x1a /home/fsw/rep/tasa/lib/bcc-2.2.3-gcc/bin/../lib/gcc/sparc-gaisler-elf/10.2.0/../../../../sparc-gaisler-elf/lib/leon/mfix-ut699/soft/flat/libc.a(lib_a-strlen.o)
 .comment       0x0000000000000019       0x1a /home/fsw/rep/tasa/lib/bcc-2.2.3-gcc/bin/../lib/gcc/sparc-gaisler-elf/10.2.0/../../../../sparc-gaisler-elf/lib/leon/mfix-ut699/soft/flat/libc.a(lib_a-vfprintf.o)
 .comment       0x0000000000000019       0x1a /home/fsw/rep/tasa/lib/bcc-2.2.3-gcc/bin/../lib/gcc/sparc-gaisler-elf/10.2.0/../../../../sparc-gaisler-elf/lib/leon/mfix-ut699/soft/flat/libc.a(lib_a-wsetup.o)
 .comment       0x0000000000000019       0x1a /home/fsw/rep/tasa/lib/bcc-2.2.3-gcc/bin/../lib/gcc/sparc-gaisler-elf/10.2.0/../../../../sparc-gaisler-elf/lib/leon/mfix-ut699/soft/flat/libc.a(lib_a-__atexit.o)
 .comment       0x0000000000000019       0x1a /home/fsw/rep/tasa/lib/bcc-2.2.3-gcc/bin/../lib/gcc/sparc-gaisler-elf/10.2.0/../../../../sparc-gaisler-elf/lib/leon/mfix-ut699/soft/flat/libc.a(lib_a-__call_atexit.o)
 .comment       0x0000000000000019       0x1a /home/fsw/rep/tasa/lib/bcc-2.2.3-gcc/bin/../lib/gcc/sparc-gaisler-elf/10.2.0/../../../../sparc-gaisler-elf/lib/leon/mfix-ut699/soft/flat/libc.a(lib_a-dtoa.o)
 .comment       0x0000000000000019       0x1a /home/fsw/rep/tasa/lib/bcc-2.2.3-gcc/bin/../lib/gcc/sparc-gaisler-elf/10.2.0/../../../../sparc-gaisler-elf/lib/leon/mfix-ut699/soft/flat/libc.a(lib_a-fflush.o)
 .comment       0x0000000000000019       0x1a /home/fsw/rep/tasa/lib/bcc-2.2.3-gcc/bin/../lib/gcc/sparc-gaisler-elf/10.2.0/../../../../sparc-gaisler-elf/lib/leon/mfix-ut699/soft/flat/libc.a(lib_a-findfp.o)
 .comment       0x0000000000000019       0x1a /home/fsw/rep/tasa/lib/bcc-2.2.3-gcc/bin/../lib/gcc/sparc-gaisler-elf/10.2.0/../../../../sparc-gaisler-elf/lib/leon/mfix-ut699/soft/flat/libc.a(lib_a-freer.o)
 .comment       0x0000000000000019       0x1a /home/fsw/rep/tasa/lib/bcc-2.2.3-gcc/bin/../lib/gcc/sparc-gaisler-elf/10.2.0/../../../../sparc-gaisler-elf/lib/leon/mfix-ut699/soft/flat/libc.a(lib_a-fvwrite.o)
 .comment       0x0000000000000019       0x1a /home/fsw/rep/tasa/lib/bcc-2.2.3-gcc/bin/../lib/gcc/sparc-gaisler-elf/10.2.0/../../../../sparc-gaisler-elf/lib/leon/mfix-ut699/soft/flat/libc.a(lib_a-fwalk.o)
 .comment       0x0000000000000019       0x1a /home/fsw/rep/tasa/lib/bcc-2.2.3-gcc/bin/../lib/gcc/sparc-gaisler-elf/10.2.0/../../../../sparc-gaisler-elf/lib/leon/mfix-ut699/soft/flat/libc.a(lib_a-localeconv.o)
 .comment       0x0000000000000019       0x1a /home/fsw/rep/tasa/lib/bcc-2.2.3-gcc/bin/../lib/gcc/sparc-gaisler-elf/10.2.0/../../../../sparc-gaisler-elf/lib/leon/mfix-ut699/soft/flat/libc.a(lib_a-makebuf.o)
 .comment       0x0000000000000019       0x1a /home/fsw/rep/tasa/lib/bcc-2.2.3-gcc/bin/../lib/gcc/sparc-gaisler-elf/10.2.0/../../../../sparc-gaisler-elf/lib/leon/mfix-ut699/soft/flat/libc.a(lib_a-malloc.o)
 .comment       0x0000000000000019       0x1a /home/fsw/rep/tasa/lib/bcc-2.2.3-gcc/bin/../lib/gcc/sparc-gaisler-elf/10.2.0/../../../../sparc-gaisler-elf/lib/leon/mfix-ut699/soft/flat/libc.a(lib_a-mallocr.o)
 .comment       0x0000000000000019       0x1a /home/fsw/rep/tasa/lib/bcc-2.2.3-gcc/bin/../lib/gcc/sparc-gaisler-elf/10.2.0/../../../../sparc-gaisler-elf/lib/leon/mfix-ut699/soft/flat/libc.a(lib_a-memchr.o)
 .comment       0x0000000000000019       0x1a /home/fsw/rep/tasa/lib/bcc-2.2.3-gcc/bin/../lib/gcc/sparc-gaisler-elf/10.2.0/../../../../sparc-gaisler-elf/lib/leon/mfix-ut699/soft/flat/libc.a(lib_a-memmove.o)
 .comment       0x0000000000000019       0x1a /home/fsw/rep/tasa/lib/bcc-2.2.3-gcc/bin/../lib/gcc/sparc-gaisler-elf/10.2.0/../../../../sparc-gaisler-elf/lib/leon/mfix-ut699/soft/flat/libc.a(lib_a-memset.o)
 .comment       0x0000000000000019       0x1a /home/fsw/rep/tasa/lib/bcc-2.2.3-gcc/bin/../lib/gcc/sparc-gaisler-elf/10.2.0/../../../../sparc-gaisler-elf/lib/leon/mfix-ut699/soft/flat/libc.a(lib_a-mlock.o)
 .comment       0x0000000000000019       0x1a /home/fsw/rep/tasa/lib/bcc-2.2.3-gcc/bin/../lib/gcc/sparc-gaisler-elf/10.2.0/../../../../sparc-gaisler-elf/lib/leon/mfix-ut699/soft/flat/libc.a(lib_a-mprec.o)
 .comment       0x0000000000000019       0x1a /home/fsw/rep/tasa/lib/bcc-2.2.3-gcc/bin/../lib/gcc/sparc-gaisler-elf/10.2.0/../../../../sparc-gaisler-elf/lib/leon/mfix-ut699/soft/flat/libc.a(lib_a-putc.o)
 .comment       0x0000000000000019       0x1a /home/fsw/rep/tasa/lib/bcc-2.2.3-gcc/bin/../lib/gcc/sparc-gaisler-elf/10.2.0/../../../../sparc-gaisler-elf/lib/leon/mfix-ut699/soft/flat/libc.a(lib_a-reallocr.o)
 .comment       0x0000000000000019       0x1a /home/fsw/rep/tasa/lib/bcc-2.2.3-gcc/bin/../lib/gcc/sparc-gaisler-elf/10.2.0/../../../../sparc-gaisler-elf/lib/leon/mfix-ut699/soft/flat/libc.a(lib_a-s_frexp.o)
 .comment       0x0000000000000019       0x1a /home/fsw/rep/tasa/lib/bcc-2.2.3-gcc/bin/../lib/gcc/sparc-gaisler-elf/10.2.0/../../../../sparc-gaisler-elf/lib/leon/mfix-ut699/soft/flat/libc.a(lib_a-sbrkr.o)
 .comment       0x0000000000000019       0x1a /home/fsw/rep/tasa/lib/bcc-2.2.3-gcc/bin/../lib/gcc/sparc-gaisler-elf/10.2.0/../../../../sparc-gaisler-elf/lib/leon/mfix-ut699/soft/flat/libc.a(lib_a-stdio.o)
 .comment       0x0000000000000019       0x1a /home/fsw/rep/tasa/lib/bcc-2.2.3-gcc/bin/../lib/gcc/sparc-gaisler-elf/10.2.0/../../../../sparc-gaisler-elf/lib/leon/mfix-ut699/soft/flat/libc.a(lib_a-strncpy.o)
 .comment       0x0000000000000019       0x1a /home/fsw/rep/tasa/lib/bcc-2.2.3-gcc/bin/../lib/gcc/sparc-gaisler-elf/10.2.0/../../../../sparc-gaisler-elf/lib/leon/mfix-ut699/soft/flat/libc.a(lib_a-vfiprintf.o)
 .comment       0x0000000000000019       0x1a /home/fsw/rep/tasa/lib/bcc-2.2.3-gcc/bin/../lib/gcc/sparc-gaisler-elf/10.2.0/../../../../sparc-gaisler-elf/lib/leon/mfix-ut699/soft/flat/libc.a(lib_a-wbuf.o)
 .comment       0x0000000000000019       0x1a /home/fsw/rep/tasa/lib/bcc-2.2.3-gcc/bin/../lib/gcc/sparc-gaisler-elf/10.2.0/../../../../sparc-gaisler-elf/lib/leon/mfix-ut699/soft/flat/libc.a(lib_a-writer.o)
 .comment       0x0000000000000019       0x1a /home/fsw/rep/tasa/lib/bcc-2.2.3-gcc/bin/../lib/gcc/sparc-gaisler-elf/10.2.0/../../../../sparc-gaisler-elf/lib/leon/mfix-ut699/soft/flat/libc.a(lib_a-callocr.o)
 .comment       0x0000000000000019       0x1a /home/fsw/rep/tasa/lib/bcc-2.2.3-gcc/bin/../lib/gcc/sparc-gaisler-elf/10.2.0/../../../../sparc-gaisler-elf/lib/leon/mfix-ut699/soft/flat/libc.a(lib_a-closer.o)
 .comment       0x0000000000000019       0x1a /home/fsw/rep/tasa/lib/bcc-2.2.3-gcc/bin/../lib/gcc/sparc-gaisler-elf/10.2.0/../../../../sparc-gaisler-elf/lib/leon/mfix-ut699/soft/flat/libc.a(lib_a-fclose.o)
 .comment       0x0000000000000019       0x1a /home/fsw/rep/tasa/lib/bcc-2.2.3-gcc/bin/../lib/gcc/sparc-gaisler-elf/10.2.0/../../../../sparc-gaisler-elf/lib/leon/mfix-ut699/soft/flat/libc.a(lib_a-fputwc.o)
 .comment       0x0000000000000019       0x1a /home/fsw/rep/tasa/lib/bcc-2.2.3-gcc/bin/../lib/gcc/sparc-gaisler-elf/10.2.0/../../../../sparc-gaisler-elf/lib/leon/mfix-ut699/soft/flat/libc.a(lib_a-fstatr.o)
 .comment       0x0000000000000019       0x1a /home/fsw/rep/tasa/lib/bcc-2.2.3-gcc/bin/../lib/gcc/sparc-gaisler-elf/10.2.0/../../../../sparc-gaisler-elf/lib/leon/mfix-ut699/soft/flat/libc.a(lib_a-isattyr.o)
 .comment       0x0000000000000019       0x1a /home/fsw/rep/tasa/lib/bcc-2.2.3-gcc/bin/../lib/gcc/sparc-gaisler-elf/10.2.0/../../../../sparc-gaisler-elf/lib/leon/mfix-ut699/soft/flat/libc.a(lib_a-locale.o)
 .comment       0x0000000000000019       0x1a /home/fsw/rep/tasa/lib/bcc-2.2.3-gcc/bin/../lib/gcc/sparc-gaisler-elf/10.2.0/../../../../sparc-gaisler-elf/lib/leon/mfix-ut699/soft/flat/libc.a(lib_a-lseekr.o)
 .comment       0x0000000000000019       0x1a /home/fsw/rep/tasa/lib/bcc-2.2.3-gcc/bin/../lib/gcc/sparc-gaisler-elf/10.2.0/../../../../sparc-gaisler-elf/lib/leon/mfix-ut699/soft/flat/libc.a(lib_a-mbtowc_r.o)
 .comment       0x0000000000000019       0x1a /home/fsw/rep/tasa/lib/bcc-2.2.3-gcc/bin/../lib/gcc/sparc-gaisler-elf/10.2.0/../../../../sparc-gaisler-elf/lib/leon/mfix-ut699/soft/flat/libc.a(lib_a-readr.o)
 .comment       0x0000000000000019       0x1a /home/fsw/rep/tasa/lib/bcc-2.2.3-gcc/bin/../lib/gcc/sparc-gaisler-elf/10.2.0/../../../../sparc-gaisler-elf/lib/leon/mfix-ut699/soft/flat/libc.a(lib_a-reent.o)
 .comment       0x0000000000000019       0x1a /home/fsw/rep/tasa/lib/bcc-2.2.3-gcc/bin/../lib/gcc/sparc-gaisler-elf/10.2.0/../../../../sparc-gaisler-elf/lib/leon/mfix-ut699/soft/flat/libc.a(lib_a-strcmp.o)
 .comment       0x0000000000000019       0x1a /home/fsw/rep/tasa/lib/bcc-2.2.3-gcc/bin/../lib/gcc/sparc-gaisler-elf/10.2.0/../../../../sparc-gaisler-elf/lib/leon/mfix-ut699/soft/flat/libc.a(lib_a-wcrtomb.o)
 .comment       0x0000000000000019       0x1a /home/fsw/rep/tasa/lib/bcc-2.2.3-gcc/bin/../lib/gcc/sparc-gaisler-elf/10.2.0/../../../../sparc-gaisler-elf/lib/leon/mfix-ut699/soft/flat/libc.a(lib_a-wctomb_r.o)
 .comment       0x0000000000000019       0x1a /home/fsw/rep/tasa/lib/bcc-2.2.3-gcc/bin/../lib/gcc/sparc-gaisler-elf/10.2.0/../../../../sparc-gaisler-elf/lib/leon/mfix-ut699/soft/flat/libc.a(lib_a-ctype_.o)
 .comment       0x0000000000000019       0x1a /home/fsw/rep/tasa/lib/bcc-2.2.3-gcc/bin/../sparc-gaisler-elf/bsp/leon3/leon/mfix-ut699/soft/flat/libbcc.a(read.c.o)
 .comment       0x0000000000000019       0x1a /home/fsw/rep/tasa/lib/bcc-2.2.3-gcc/bin/../sparc-gaisler-elf/bsp/leon3/leon/mfix-ut699/soft/flat/libbcc.a(sbrk.c.o)
 .comment       0x0000000000000019       0x1a /home/fsw/rep/tasa/lib/bcc-2.2.3-gcc/bin/../sparc-gaisler-elf/bsp/leon3/leon/mfix-ut699/soft/flat/libbcc.a(heap.c.o)
 .comment       0x0000000000000019       0x1a /home/fsw/rep/tasa/lib/bcc-2.2.3-gcc/bin/../sparc-gaisler-elf/bsp/leon3/leon/mfix-ut699/soft/flat/libbcc.a(write.c.o)
 .comment       0x0000000000000019       0x1a /home/fsw/rep/tasa/lib/bcc-2.2.3-gcc/bin/../sparc-gaisler-elf/bsp/leon3/leon/mfix-ut699/soft/flat/libbcc.a(con_apbuart.c.o)
 .comment       0x0000000000000019       0x1a /home/fsw/rep/tasa/lib/bcc-2.2.3-gcc/bin/../lib/gcc/sparc-gaisler-elf/10.2.0/leon/mfix-ut699/soft/flat/libgcc.a(_udivdi3.o)
 .comment       0x0000000000000019       0x1a /home/fsw/rep/tasa/lib/bcc-2.2.3-gcc/bin/../lib/gcc/sparc-gaisler-elf/10.2.0/leon/mfix-ut699/soft/flat/libgcc.a(_umoddi3.o)
 .comment       0x0000000000000019       0x1a /home/fsw/rep/tasa/lib/bcc-2.2.3-gcc/bin/../lib/gcc/sparc-gaisler-elf/10.2.0/leon/mfix-ut699/soft/flat/libgcc.a(_addsub_df.o)
 .comment       0x0000000000000019       0x1a /home/fsw/rep/tasa/lib/bcc-2.2.3-gcc/bin/../lib/gcc/sparc-gaisler-elf/10.2.0/leon/mfix-ut699/soft/flat/libgcc.a(_mul_df.o)
 .comment       0x0000000000000019       0x1a /home/fsw/rep/tasa/lib/bcc-2.2.3-gcc/bin/../lib/gcc/sparc-gaisler-elf/10.2.0/leon/mfix-ut699/soft/flat/libgcc.a(_div_df.o)
 .comment       0x0000000000000019       0x1a /home/fsw/rep/tasa/lib/bcc-2.2.3-gcc/bin/../lib/gcc/sparc-gaisler-elf/10.2.0/leon/mfix-ut699/soft/flat/libgcc.a(_eq_df.o)
 .comment       0x0000000000000019       0x1a /home/fsw/rep/tasa/lib/bcc-2.2.3-gcc/bin/../lib/gcc/sparc-gaisler-elf/10.2.0/leon/mfix-ut699/soft/flat/libgcc.a(_ne_df.o)
 .comment       0x0000000000000019       0x1a /home/fsw/rep/tasa/lib/bcc-2.2.3-gcc/bin/../lib/gcc/sparc-gaisler-elf/10.2.0/leon/mfix-ut699/soft/flat/libgcc.a(_gt_df.o)
 .comment       0x0000000000000019       0x1a /home/fsw/rep/tasa/lib/bcc-2.2.3-gcc/bin/../lib/gcc/sparc-gaisler-elf/10.2.0/leon/mfix-ut699/soft/flat/libgcc.a(_lt_df.o)
 .comment       0x0000000000000019       0x1a /home/fsw/rep/tasa/lib/bcc-2.2.3-gcc/bin/../lib/gcc/sparc-gaisler-elf/10.2.0/leon/mfix-ut699/soft/flat/libgcc.a(_le_df.o)
 .comment       0x0000000000000019       0x1a /home/fsw/rep/tasa/lib/bcc-2.2.3-gcc/bin/../lib/gcc/sparc-gaisler-elf/10.2.0/leon/mfix-ut699/soft/flat/libgcc.a(_unord_df.o)
 .comment       0x0000000000000019       0x1a /home/fsw/rep/tasa/lib/bcc-2.2.3-gcc/bin/../lib/gcc/sparc-gaisler-elf/10.2.0/leon/mfix-ut699/soft/flat/libgcc.a(_si_to_df.o)
 .comment       0x0000000000000019       0x1a /home/fsw/rep/tasa/lib/bcc-2.2.3-gcc/bin/../lib/gcc/sparc-gaisler-elf/10.2.0/leon/mfix-ut699/soft/flat/libgcc.a(_df_to_si.o)
 .comment       0x0000000000000019       0x1a /home/fsw/rep/tasa/lib/bcc-2.2.3-gcc/bin/../lib/gcc/sparc-gaisler-elf/10.2.0/leon/mfix-ut699/soft/flat/libgcc.a(_thenan_df.o)
 .comment       0x0000000000000019       0x1a /home/fsw/rep/tasa/lib/bcc-2.2.3-gcc/bin/../lib/gcc/sparc-gaisler-elf/10.2.0/leon/mfix-ut699/soft/flat/libgcc.a(_usi_to_df.o)
 .comment       0x0000000000000019       0x1a /home/fsw/rep/tasa/lib/bcc-2.2.3-gcc/bin/../lib/gcc/sparc-gaisler-elf/10.2.0/leon/mfix-ut699/soft/flat/libgcc.a(_clz.o)
 .comment       0x0000000000000019       0x1a /home/fsw/rep/tasa/lib/bcc-2.2.3-gcc/bin/../lib/gcc/sparc-gaisler-elf/10.2.0/leon/mfix-ut699/soft/flat/libgcc.a(_clzsi2.o)
 .comment       0x0000000000000019       0x1a /home/fsw/rep/tasa/lib/bcc-2.2.3-gcc/bin/../lib/gcc/sparc-gaisler-elf/10.2.0/leon/mfix-ut699/soft/flat/libgcc.a(_pack_df.o)
 .comment       0x0000000000000019       0x1a /home/fsw/rep/tasa/lib/bcc-2.2.3-gcc/bin/../lib/gcc/sparc-gaisler-elf/10.2.0/leon/mfix-ut699/soft/flat/libgcc.a(_unpack_df.o)
 .comment       0x0000000000000019       0x1a /home/fsw/rep/tasa/lib/bcc-2.2.3-gcc/bin/../lib/gcc/sparc-gaisler-elf/10.2.0/leon/mfix-ut699/soft/flat/libgcc.a(_fpcmp_parts_df.o)
 .comment       0x0000000000000019       0x1a /home/fsw/rep/tasa/lib/bcc-2.2.3-gcc/bin/../lib/gcc/sparc-gaisler-elf/10.2.0/leon/mfix-ut699/soft/flat/crtend.o

.gnu.attributes
                0x0000000000000000       0x10
 .gnu.attributes
                0x0000000000000000       0x10 /home/fsw/rep/tasa/lib/bcc-2.2.3-gcc/bin/../lib/gcc/sparc-gaisler-elf/10.2.0/../../../../sparc-gaisler-elf/lib/leon/mfix-ut699/soft/flat/libc.a(lib_a-vfprintf.o)
 .gnu.attributes
                0x0000000000000010       0x10 /home/fsw/rep/tasa/lib/bcc-2.2.3-gcc/bin/../lib/gcc/sparc-gaisler-elf/10.2.0/../../../../sparc-gaisler-elf/lib/leon/mfix-ut699/soft/flat/libc.a(lib_a-dtoa.o)
 .gnu.attributes
                0x0000000000000020       0x10 /home/fsw/rep/tasa/lib/bcc-2.2.3-gcc/bin/../lib/gcc/sparc-gaisler-elf/10.2.0/../../../../sparc-gaisler-elf/lib/leon/mfix-ut699/soft/flat/libc.a(lib_a-findfp.o)
 .gnu.attributes
                0x0000000000000030       0x10 /home/fsw/rep/tasa/lib/bcc-2.2.3-gcc/bin/../lib/gcc/sparc-gaisler-elf/10.2.0/../../../../sparc-gaisler-elf/lib/leon/mfix-ut699/soft/flat/libc.a(lib_a-fvwrite.o)
 .gnu.attributes
                0x0000000000000040       0x10 /home/fsw/rep/tasa/lib/bcc-2.2.3-gcc/bin/../lib/gcc/sparc-gaisler-elf/10.2.0/../../../../sparc-gaisler-elf/lib/leon/mfix-ut699/soft/flat/libc.a(lib_a-mprec.o)
 .gnu.attributes
                0x0000000000000050       0x10 /home/fsw/rep/tasa/lib/bcc-2.2.3-gcc/bin/../lib/gcc/sparc-gaisler-elf/10.2.0/../../../../sparc-gaisler-elf/lib/leon/mfix-ut699/soft/flat/libc.a(lib_a-callocr.o)
 .gnu.attributes
                0x0000000000000060       0x10 /home/fsw/rep/tasa/lib/bcc-2.2.3-gcc/bin/../lib/gcc/sparc-gaisler-elf/10.2.0/leon/mfix-ut699/soft/flat/libgcc.a(_udivdi3.o)
 .gnu.attributes
                0x0000000000000070       0x10 /home/fsw/rep/tasa/lib/bcc-2.2.3-gcc/bin/../lib/gcc/sparc-gaisler-elf/10.2.0/leon/mfix-ut699/soft/flat/libgcc.a(_umoddi3.o)
 .gnu.attributes
                0x0000000000000080       0x10 /home/fsw/rep/tasa/lib/bcc-2.2.3-gcc/bin/../lib/gcc/sparc-gaisler-elf/10.2.0/leon/mfix-ut699/soft/flat/libgcc.a(_mul_df.o)

.debug_macinfo
 *(.debug_macinfo)

.debug_weaknames
 *(.debug_weaknames)

.debug_funcnames
 *(.debug_funcnames)

.debug_typenames
 *(.debug_typenames)

.debug_varnames
 *(.debug_varnames)
LOAD /home/fsw/rep/tasa/lib/bcc-2.2.3-gcc/bin/../lib/gcc/sparc-gaisler-elf/10.2.0/leon/mfix-ut699/soft/flat/libgcc.a
START GROUP
LOAD /home/fsw/rep/tasa/lib/bcc-2.2.3-gcc/bin/../sparc-gaisler-elf/bsp/leon3/leon/mfix-ut699/soft/flat/libbcc.a
LOAD /home/fsw/rep/tasa/lib/bcc-2.2.3-gcc/bin/../lib/gcc/sparc-gaisler-elf/10.2.0/leon/mfix-ut699/soft/flat/libatomic.a
LOAD /home/fsw/rep/tasa/lib/bcc-2.2.3-gcc/bin/../lib/gcc/sparc-gaisler-elf/10.2.0/../../../../sparc-gaisler-elf/lib/leon/mfix-ut699/soft/flat/libc.a
END GROUP
LOAD /home/fsw/rep/tasa/lib/bcc-2.2.3-gcc/bin/../lib/gcc/sparc-gaisler-elf/10.2.0/leon/mfix-ut699/soft/flat/libgcc.a
LOAD /home/fsw/rep/tasa/lib/bcc-2.2.3-gcc/bin/../lib/gcc/sparc-gaisler-elf/10.2.0/leon/mfix-ut699/soft/flat/crtend.o
LOAD /home/fsw/rep/tasa/lib/bcc-2.2.3-gcc/bin/../lib/gcc/sparc-gaisler-elf/10.2.0/leon/mfix-ut699/soft/flat/crtn.o
OUTPUT(bin/leon3/leon/mfix-ut699/soft/flat/bcc_amp0.elf elf32-sparc)

.debug_ranges   0x0000000000000000     0x1c78
 .debug_ranges  0x0000000000000000       0x10 /tmp/ccK56PDv.o
 .debug_ranges  0x0000000000000010       0x80 /home/fsw/rep/tasa/lib/bcc-2.2.3-gcc/bin/../sparc-gaisler-elf/bsp/leon3/leon/mfix-ut699/soft/flat/libbcc.a(int_irqmp_init.c.o)
 .debug_ranges  0x0000000000000090      0x168 /home/fsw/rep/tasa/lib/bcc-2.2.3-gcc/bin/../sparc-gaisler-elf/bsp/leon3/leon/mfix-ut699/soft/flat/libbcc.a(ambapp.c.o)
 .debug_ranges  0x00000000000001f8       0x18 /home/fsw/rep/tasa/lib/bcc-2.2.3-gcc/bin/../sparc-gaisler-elf/bsp/leon3/leon/mfix-ut699/soft/flat/libbcc.a(ambapp_findfirst_fn.c.o)
 .debug_ranges  0x0000000000000210       0x70 /home/fsw/rep/tasa/lib/bcc-2.2.3-gcc/bin/../lib/gcc/sparc-gaisler-elf/10.2.0/../../../../sparc-gaisler-elf/lib/leon/mfix-ut699/soft/flat/libc.a(lib_a-puts.o)
 .debug_ranges  0x0000000000000280      0x260 /home/fsw/rep/tasa/lib/bcc-2.2.3-gcc/bin/../lib/gcc/sparc-gaisler-elf/10.2.0/../../../../sparc-gaisler-elf/lib/leon/mfix-ut699/soft/flat/libc.a(lib_a-vfprintf.o)
 .debug_ranges  0x00000000000004e0       0x40 /home/fsw/rep/tasa/lib/bcc-2.2.3-gcc/bin/../lib/gcc/sparc-gaisler-elf/10.2.0/../../../../sparc-gaisler-elf/lib/leon/mfix-ut699/soft/flat/libc.a(lib_a-wsetup.o)
 .debug_ranges  0x0000000000000520       0x50 /home/fsw/rep/tasa/lib/bcc-2.2.3-gcc/bin/../lib/gcc/sparc-gaisler-elf/10.2.0/../../../../sparc-gaisler-elf/lib/leon/mfix-ut699/soft/flat/libc.a(lib_a-__call_atexit.o)
 .debug_ranges  0x0000000000000570       0x18 /home/fsw/rep/tasa/lib/bcc-2.2.3-gcc/bin/../lib/gcc/sparc-gaisler-elf/10.2.0/../../../../sparc-gaisler-elf/lib/leon/mfix-ut699/soft/flat/libc.a(lib_a-dtoa.o)
 .debug_ranges  0x0000000000000588       0xa8 /home/fsw/rep/tasa/lib/bcc-2.2.3-gcc/bin/../lib/gcc/sparc-gaisler-elf/10.2.0/../../../../sparc-gaisler-elf/lib/leon/mfix-ut699/soft/flat/libc.a(lib_a-fflush.o)
 .debug_ranges  0x0000000000000630      0x100 /home/fsw/rep/tasa/lib/bcc-2.2.3-gcc/bin/../lib/gcc/sparc-gaisler-elf/10.2.0/../../../../sparc-gaisler-elf/lib/leon/mfix-ut699/soft/flat/libc.a(lib_a-findfp.o)
 .debug_ranges  0x0000000000000730       0x48 /home/fsw/rep/tasa/lib/bcc-2.2.3-gcc/bin/../lib/gcc/sparc-gaisler-elf/10.2.0/../../../../sparc-gaisler-elf/lib/leon/mfix-ut699/soft/flat/libc.a(lib_a-fvwrite.o)
 .debug_ranges  0x0000000000000778       0x70 /home/fsw/rep/tasa/lib/bcc-2.2.3-gcc/bin/../lib/gcc/sparc-gaisler-elf/10.2.0/../../../../sparc-gaisler-elf/lib/leon/mfix-ut699/soft/flat/libc.a(lib_a-localeconv.o)
 .debug_ranges  0x00000000000007e8       0x68 /home/fsw/rep/tasa/lib/bcc-2.2.3-gcc/bin/../lib/gcc/sparc-gaisler-elf/10.2.0/../../../../sparc-gaisler-elf/lib/leon/mfix-ut699/soft/flat/libc.a(lib_a-makebuf.o)
 .debug_ranges  0x0000000000000850       0x38 /home/fsw/rep/tasa/lib/bcc-2.2.3-gcc/bin/../lib/gcc/sparc-gaisler-elf/10.2.0/../../../../sparc-gaisler-elf/lib/leon/mfix-ut699/soft/flat/libc.a(lib_a-mallocr.o)
 .debug_ranges  0x0000000000000888      0x3e8 /home/fsw/rep/tasa/lib/bcc-2.2.3-gcc/bin/../lib/gcc/sparc-gaisler-elf/10.2.0/../../../../sparc-gaisler-elf/lib/leon/mfix-ut699/soft/flat/libc.a(lib_a-mprec.o)
 .debug_ranges  0x0000000000000c70       0x90 /home/fsw/rep/tasa/lib/bcc-2.2.3-gcc/bin/../lib/gcc/sparc-gaisler-elf/10.2.0/../../../../sparc-gaisler-elf/lib/leon/mfix-ut699/soft/flat/libc.a(lib_a-putc.o)
 .debug_ranges  0x0000000000000d00      0x178 /home/fsw/rep/tasa/lib/bcc-2.2.3-gcc/bin/../lib/gcc/sparc-gaisler-elf/10.2.0/../../../../sparc-gaisler-elf/lib/leon/mfix-ut699/soft/flat/libc.a(lib_a-reallocr.o)
 .debug_ranges  0x0000000000000e78       0x30 /home/fsw/rep/tasa/lib/bcc-2.2.3-gcc/bin/../lib/gcc/sparc-gaisler-elf/10.2.0/../../../../sparc-gaisler-elf/lib/leon/mfix-ut699/soft/flat/libc.a(lib_a-s_frexp.o)
 .debug_ranges  0x0000000000000ea8      0x710 /home/fsw/rep/tasa/lib/bcc-2.2.3-gcc/bin/../lib/gcc/sparc-gaisler-elf/10.2.0/../../../../sparc-gaisler-elf/lib/leon/mfix-ut699/soft/flat/libc.a(lib_a-vfiprintf.o)
 .debug_ranges  0x00000000000015b8       0x90 /home/fsw/rep/tasa/lib/bcc-2.2.3-gcc/bin/../lib/gcc/sparc-gaisler-elf/10.2.0/../../../../sparc-gaisler-elf/lib/leon/mfix-ut699/soft/flat/libc.a(lib_a-wbuf.o)
 .debug_ranges  0x0000000000001648       0x40 /home/fsw/rep/tasa/lib/bcc-2.2.3-gcc/bin/../lib/gcc/sparc-gaisler-elf/10.2.0/../../../../sparc-gaisler-elf/lib/leon/mfix-ut699/soft/flat/libc.a(lib_a-callocr.o)
 .debug_ranges  0x0000000000001688       0x90 /home/fsw/rep/tasa/lib/bcc-2.2.3-gcc/bin/../lib/gcc/sparc-gaisler-elf/10.2.0/../../../../sparc-gaisler-elf/lib/leon/mfix-ut699/soft/flat/libc.a(lib_a-fclose.o)
 .debug_ranges  0x0000000000001718       0x58 /home/fsw/rep/tasa/lib/bcc-2.2.3-gcc/bin/../lib/gcc/sparc-gaisler-elf/10.2.0/../../../../sparc-gaisler-elf/lib/leon/mfix-ut699/soft/flat/libc.a(lib_a-fputwc.o)
 .debug_ranges  0x0000000000001770       0x50 /home/fsw/rep/tasa/lib/bcc-2.2.3-gcc/bin/../lib/gcc/sparc-gaisler-elf/10.2.0/../../../../sparc-gaisler-elf/lib/leon/mfix-ut699/soft/flat/libc.a(lib_a-locale.o)
 .debug_ranges  0x00000000000017c0       0x28 /home/fsw/rep/tasa/lib/bcc-2.2.3-gcc/bin/../lib/gcc/sparc-gaisler-elf/10.2.0/../../../../sparc-gaisler-elf/lib/leon/mfix-ut699/soft/flat/libc.a(lib_a-mbtowc_r.o)
 .debug_ranges  0x00000000000017e8       0x28 /home/fsw/rep/tasa/lib/bcc-2.2.3-gcc/bin/../lib/gcc/sparc-gaisler-elf/10.2.0/../../../../sparc-gaisler-elf/lib/leon/mfix-ut699/soft/flat/libc.a(lib_a-reent.o)
 .debug_ranges  0x0000000000001810       0x40 /home/fsw/rep/tasa/lib/bcc-2.2.3-gcc/bin/../lib/gcc/sparc-gaisler-elf/10.2.0/../../../../sparc-gaisler-elf/lib/leon/mfix-ut699/soft/flat/libc.a(lib_a-wcrtomb.o)
 .debug_ranges  0x0000000000001850       0x28 /home/fsw/rep/tasa/lib/bcc-2.2.3-gcc/bin/../lib/gcc/sparc-gaisler-elf/10.2.0/../../../../sparc-gaisler-elf/lib/leon/mfix-ut699/soft/flat/libc.a(lib_a-wctomb_r.o)
 .debug_ranges  0x0000000000001878       0x18 /home/fsw/rep/tasa/lib/bcc-2.2.3-gcc/bin/../sparc-gaisler-elf/bsp/leon3/leon/mfix-ut699/soft/flat/libbcc.a(read.c.o)
 .debug_ranges  0x0000000000001890       0x18 /home/fsw/rep/tasa/lib/bcc-2.2.3-gcc/bin/../sparc-gaisler-elf/bsp/leon3/leon/mfix-ut699/soft/flat/libbcc.a(write.c.o)
 .debug_ranges  0x00000000000018a8       0x50 /home/fsw/rep/tasa/lib/bcc-2.2.3-gcc/bin/../lib/gcc/sparc-gaisler-elf/10.2.0/leon/mfix-ut699/soft/flat/libgcc.a(_udivdi3.o)
 .debug_ranges  0x00000000000018f8       0x58 /home/fsw/rep/tasa/lib/bcc-2.2.3-gcc/bin/../lib/gcc/sparc-gaisler-elf/10.2.0/leon/mfix-ut699/soft/flat/libgcc.a(_umoddi3.o)
 .debug_ranges  0x0000000000001950      0x170 /home/fsw/rep/tasa/lib/bcc-2.2.3-gcc/bin/../lib/gcc/sparc-gaisler-elf/10.2.0/leon/mfix-ut699/soft/flat/libgcc.a(_addsub_df.o)
 .debug_ranges  0x0000000000001ac0       0x80 /home/fsw/rep/tasa/lib/bcc-2.2.3-gcc/bin/../lib/gcc/sparc-gaisler-elf/10.2.0/leon/mfix-ut699/soft/flat/libgcc.a(_mul_df.o)
 .debug_ranges  0x0000000000001b40       0x58 /home/fsw/rep/tasa/lib/bcc-2.2.3-gcc/bin/../lib/gcc/sparc-gaisler-elf/10.2.0/leon/mfix-ut699/soft/flat/libgcc.a(_div_df.o)
 .debug_ranges  0x0000000000001b98       0x18 /home/fsw/rep/tasa/lib/bcc-2.2.3-gcc/bin/../lib/gcc/sparc-gaisler-elf/10.2.0/leon/mfix-ut699/soft/flat/libgcc.a(_usi_to_df.o)
 .debug_ranges  0x0000000000001bb0       0x30 /home/fsw/rep/tasa/lib/bcc-2.2.3-gcc/bin/../lib/gcc/sparc-gaisler-elf/10.2.0/leon/mfix-ut699/soft/flat/libgcc.a(_clzsi2.o)
 .debug_ranges  0x0000000000001be0       0x80 /home/fsw/rep/tasa/lib/bcc-2.2.3-gcc/bin/../lib/gcc/sparc-gaisler-elf/10.2.0/leon/mfix-ut699/soft/flat/libgcc.a(_pack_df.o)
 .debug_ranges  0x0000000000001c60       0x18 /home/fsw/rep/tasa/lib/bcc-2.2.3-gcc/bin/../lib/gcc/sparc-gaisler-elf/10.2.0/leon/mfix-ut699/soft/flat/libgcc.a(_fpcmp_parts_df.o)
