Archive member included to satisfy reference by file (symbol)

/home/fsw/rep/tasa/lib/bcc-2.2.3-gcc/bin/../sparc-gaisler-elf/bsp/gr712rc/leon3/mfix-gr712rc/soft/libbcc.a(reset_trap_mvt.S.o)
                              /home/fsw/rep/tasa/lib/bcc-2.2.3-gcc/bin/../sparc-gaisler-elf/bsp/gr712rc/leon3/mfix-gr712rc/soft/trap_table_mvt_tn0018.S.o (__bcc_trap_reset_mvt)
/home/fsw/rep/tasa/lib/bcc-2.2.3-gcc/bin/../sparc-gaisler-elf/bsp/gr712rc/leon3/mfix-gr712rc/soft/libbcc.a(window_trap.S.o)
                              /home/fsw/rep/tasa/lib/bcc-2.2.3-gcc/bin/../sparc-gaisler-elf/bsp/gr712rc/leon3/mfix-gr712rc/soft/trap_table_mvt_tn0018.S.o (__bcc_trap_window_overflow)
/home/fsw/rep/tasa/lib/bcc-2.2.3-gcc/bin/../sparc-gaisler-elf/bsp/gr712rc/leon3/mfix-gr712rc/soft/libbcc.a(flush_windows_trap.S.o)
                              /home/fsw/rep/tasa/lib/bcc-2.2.3-gcc/bin/../sparc-gaisler-elf/bsp/gr712rc/leon3/mfix-gr712rc/soft/trap_table_mvt_tn0018.S.o (__bcc_trap_flush_windows)
/home/fsw/rep/tasa/lib/bcc-2.2.3-gcc/bin/../sparc-gaisler-elf/bsp/gr712rc/leon3/mfix-gr712rc/soft/libbcc.a(sw_trap_set_pil.S.o)
                              /home/fsw/rep/tasa/lib/bcc-2.2.3-gcc/bin/../sparc-gaisler-elf/bsp/gr712rc/leon3/mfix-gr712rc/soft/trap_table_mvt_tn0018.S.o (__bcc_trap_sw_set_pil)
/home/fsw/rep/tasa/lib/bcc-2.2.3-gcc/bin/../sparc-gaisler-elf/bsp/gr712rc/leon3/mfix-gr712rc/soft/libbcc.a(init.S.o)
                              /home/fsw/rep/tasa/lib/bcc-2.2.3-gcc/bin/../sparc-gaisler-elf/bsp/gr712rc/leon3/mfix-gr712rc/soft/libbcc.a(reset_trap_mvt.S.o) (__bcc_init40)
/home/fsw/rep/tasa/lib/bcc-2.2.3-gcc/bin/../sparc-gaisler-elf/bsp/gr712rc/leon3/mfix-gr712rc/soft/libbcc.a(leon_info.S.o)
                              /home/fsw/rep/tasa/lib/bcc-2.2.3-gcc/bin/../sparc-gaisler-elf/bsp/gr712rc/leon3/mfix-gr712rc/soft/crt0.S.o (__bcc_get_leon_info)
/home/fsw/rep/tasa/lib/bcc-2.2.3-gcc/bin/../sparc-gaisler-elf/bsp/gr712rc/leon3/mfix-gr712rc/soft/libbcc.a(dwzero.S.o)
                              /home/fsw/rep/tasa/lib/bcc-2.2.3-gcc/bin/../sparc-gaisler-elf/bsp/gr712rc/leon3/mfix-gr712rc/soft/crt0.S.o (bcc_dwzero)
/home/fsw/rep/tasa/lib/bcc-2.2.3-gcc/bin/../sparc-gaisler-elf/bsp/gr712rc/leon3/mfix-gr712rc/soft/libbcc.a(copy_data.c.o)
                              /home/fsw/rep/tasa/lib/bcc-2.2.3-gcc/bin/../sparc-gaisler-elf/bsp/gr712rc/leon3/mfix-gr712rc/soft/crt0.S.o (__bcc_copy_data)
/home/fsw/rep/tasa/lib/bcc-2.2.3-gcc/bin/../sparc-gaisler-elf/bsp/gr712rc/leon3/mfix-gr712rc/soft/libbcc.a(argv.c.o)
                              /home/fsw/rep/tasa/lib/bcc-2.2.3-gcc/bin/../sparc-gaisler-elf/bsp/gr712rc/leon3/mfix-gr712rc/soft/crt0.S.o (__bcc_argvp)
/home/fsw/rep/tasa/lib/bcc-2.2.3-gcc/bin/../sparc-gaisler-elf/bsp/gr712rc/leon3/mfix-gr712rc/soft/libbcc.a(interrupt_trap_tn0018.S.o)
                              /home/fsw/rep/tasa/lib/bcc-2.2.3-gcc/bin/../sparc-gaisler-elf/bsp/gr712rc/leon3/mfix-gr712rc/soft/trap_table_mvt_tn0018.S.o (__bcc_trap_interrupt_tn0018)
/home/fsw/rep/tasa/lib/bcc-2.2.3-gcc/bin/../sparc-gaisler-elf/bsp/gr712rc/leon3/mfix-gr712rc/soft/libbcc.a(int_irqmp_get_source.c.o)
                              /home/fsw/rep/tasa/lib/bcc-2.2.3-gcc/bin/../sparc-gaisler-elf/bsp/gr712rc/leon3/mfix-gr712rc/soft/libbcc.a(interrupt_trap_tn0018.S.o) (__bcc_int_get_source)
/home/fsw/rep/tasa/lib/bcc-2.2.3-gcc/bin/../sparc-gaisler-elf/bsp/gr712rc/leon3/mfix-gr712rc/soft/libbcc.a(int_irqmp_mp.c.o)
                              /tmp/ccucSNOv.o (bcc_get_cpu_count)
/home/fsw/rep/tasa/lib/bcc-2.2.3-gcc/bin/../sparc-gaisler-elf/bsp/gr712rc/leon3/mfix-gr712rc/soft/libbcc.a(int_irqmp_init.c.o)
                              /home/fsw/rep/tasa/lib/bcc-2.2.3-gcc/bin/../sparc-gaisler-elf/bsp/gr712rc/leon3/mfix-gr712rc/soft/crt0.S.o (__bcc_int_init)
/home/fsw/rep/tasa/lib/bcc-2.2.3-gcc/bin/../sparc-gaisler-elf/bsp/gr712rc/leon3/mfix-gr712rc/soft/libbcc.a(con_apbuart_init.c.o)
                              /home/fsw/rep/tasa/lib/bcc-2.2.3-gcc/bin/../sparc-gaisler-elf/bsp/gr712rc/leon3/mfix-gr712rc/soft/crt0.S.o (__bcc_con_init)
/home/fsw/rep/tasa/lib/bcc-2.2.3-gcc/bin/../sparc-gaisler-elf/bsp/gr712rc/leon3/mfix-gr712rc/soft/libbcc.a(timer_gptimer_init.c.o)
                              /home/fsw/rep/tasa/lib/bcc-2.2.3-gcc/bin/../sparc-gaisler-elf/bsp/gr712rc/leon3/mfix-gr712rc/soft/crt0.S.o (__bcc_timer_init)
/home/fsw/rep/tasa/lib/bcc-2.2.3-gcc/bin/../sparc-gaisler-elf/bsp/gr712rc/leon3/mfix-gr712rc/soft/libbcc.a(isr.c.o)
                              /home/fsw/rep/tasa/lib/bcc-2.2.3-gcc/bin/../sparc-gaisler-elf/bsp/gr712rc/leon3/mfix-gr712rc/soft/libbcc.a(interrupt_trap_tn0018.S.o) (__bcc_isr_list)
/home/fsw/rep/tasa/lib/bcc-2.2.3-gcc/bin/../sparc-gaisler-elf/bsp/gr712rc/leon3/mfix-gr712rc/soft/libbcc.a(int_nest.c.o)
                              /home/fsw/rep/tasa/lib/bcc-2.2.3-gcc/bin/../sparc-gaisler-elf/bsp/gr712rc/leon3/mfix-gr712rc/soft/libbcc.a(interrupt_trap_tn0018.S.o) (__bcc_int_nest)
/home/fsw/rep/tasa/lib/bcc-2.2.3-gcc/bin/../sparc-gaisler-elf/bsp/gr712rc/leon3/mfix-gr712rc/soft/libbcc.a(int_irqmp_handle.c.o)
                              /home/fsw/rep/tasa/lib/bcc-2.2.3-gcc/bin/../sparc-gaisler-elf/bsp/gr712rc/leon3/mfix-gr712rc/soft/libbcc.a(int_irqmp_get_source.c.o) (__bcc_int_irqmp_eirq)
/home/fsw/rep/tasa/lib/bcc-2.2.3-gcc/bin/../lib/gcc/sparc-gaisler-elf/10.2.0/../../../../sparc-gaisler-elf/lib/leon3/mfix-gr712rc/soft/libc.a(lib_a-atexit.o)
                              /home/fsw/rep/tasa/lib/bcc-2.2.3-gcc/bin/../sparc-gaisler-elf/bsp/gr712rc/leon3/mfix-gr712rc/soft/crt0.S.o (atexit)
/home/fsw/rep/tasa/lib/bcc-2.2.3-gcc/bin/../lib/gcc/sparc-gaisler-elf/10.2.0/../../../../sparc-gaisler-elf/lib/leon3/mfix-gr712rc/soft/libc.a(lib_a-exit.o)
                              /home/fsw/rep/tasa/lib/bcc-2.2.3-gcc/bin/../sparc-gaisler-elf/bsp/gr712rc/leon3/mfix-gr712rc/soft/crt0.S.o (exit)
/home/fsw/rep/tasa/lib/bcc-2.2.3-gcc/bin/../lib/gcc/sparc-gaisler-elf/10.2.0/../../../../sparc-gaisler-elf/lib/leon3/mfix-gr712rc/soft/libc.a(lib_a-impure.o)
                              /home/fsw/rep/tasa/lib/bcc-2.2.3-gcc/bin/../lib/gcc/sparc-gaisler-elf/10.2.0/../../../../sparc-gaisler-elf/lib/leon3/mfix-gr712rc/soft/libc.a(lib_a-exit.o) (_global_impure_ptr)
/home/fsw/rep/tasa/lib/bcc-2.2.3-gcc/bin/../lib/gcc/sparc-gaisler-elf/10.2.0/../../../../sparc-gaisler-elf/lib/leon3/mfix-gr712rc/soft/libc.a(lib_a-printf.o)
                              /tmp/ccucSNOv.o (printf)
/home/fsw/rep/tasa/lib/bcc-2.2.3-gcc/bin/../lib/gcc/sparc-gaisler-elf/10.2.0/../../../../sparc-gaisler-elf/lib/leon3/mfix-gr712rc/soft/libc.a(lib_a-putchar.o)
                              /tmp/ccucSNOv.o (putchar)
/home/fsw/rep/tasa/lib/bcc-2.2.3-gcc/bin/../lib/gcc/sparc-gaisler-elf/10.2.0/../../../../sparc-gaisler-elf/lib/leon3/mfix-gr712rc/soft/libc.a(lib_a-puts.o)
                              /tmp/ccucSNOv.o (puts)
/home/fsw/rep/tasa/lib/bcc-2.2.3-gcc/bin/../lib/gcc/sparc-gaisler-elf/10.2.0/../../../../sparc-gaisler-elf/lib/leon3/mfix-gr712rc/soft/libc.a(lib_a-strlen.o)
                              /home/fsw/rep/tasa/lib/bcc-2.2.3-gcc/bin/../lib/gcc/sparc-gaisler-elf/10.2.0/../../../../sparc-gaisler-elf/lib/leon3/mfix-gr712rc/soft/libc.a(lib_a-puts.o) (strlen)
/home/fsw/rep/tasa/lib/bcc-2.2.3-gcc/bin/../lib/gcc/sparc-gaisler-elf/10.2.0/../../../../sparc-gaisler-elf/lib/leon3/mfix-gr712rc/soft/libc.a(lib_a-vfprintf.o)
                              /home/fsw/rep/tasa/lib/bcc-2.2.3-gcc/bin/../lib/gcc/sparc-gaisler-elf/10.2.0/../../../../sparc-gaisler-elf/lib/leon3/mfix-gr712rc/soft/libc.a(lib_a-printf.o) (_vfprintf_r)
/home/fsw/rep/tasa/lib/bcc-2.2.3-gcc/bin/../lib/gcc/sparc-gaisler-elf/10.2.0/../../../../sparc-gaisler-elf/lib/leon3/mfix-gr712rc/soft/libc.a(lib_a-wsetup.o)
                              /home/fsw/rep/tasa/lib/bcc-2.2.3-gcc/bin/../lib/gcc/sparc-gaisler-elf/10.2.0/../../../../sparc-gaisler-elf/lib/leon3/mfix-gr712rc/soft/libc.a(lib_a-vfprintf.o) (__swsetup_r)
/home/fsw/rep/tasa/lib/bcc-2.2.3-gcc/bin/../lib/gcc/sparc-gaisler-elf/10.2.0/../../../../sparc-gaisler-elf/lib/leon3/mfix-gr712rc/soft/libc.a(lib_a-__atexit.o)
                              /home/fsw/rep/tasa/lib/bcc-2.2.3-gcc/bin/../lib/gcc/sparc-gaisler-elf/10.2.0/../../../../sparc-gaisler-elf/lib/leon3/mfix-gr712rc/soft/libc.a(lib_a-atexit.o) (__register_exitproc)
/home/fsw/rep/tasa/lib/bcc-2.2.3-gcc/bin/../lib/gcc/sparc-gaisler-elf/10.2.0/../../../../sparc-gaisler-elf/lib/leon3/mfix-gr712rc/soft/libc.a(lib_a-__call_atexit.o)
                              /home/fsw/rep/tasa/lib/bcc-2.2.3-gcc/bin/../lib/gcc/sparc-gaisler-elf/10.2.0/../../../../sparc-gaisler-elf/lib/leon3/mfix-gr712rc/soft/libc.a(lib_a-exit.o) (__call_exitprocs)
/home/fsw/rep/tasa/lib/bcc-2.2.3-gcc/bin/../lib/gcc/sparc-gaisler-elf/10.2.0/../../../../sparc-gaisler-elf/lib/leon3/mfix-gr712rc/soft/libc.a(lib_a-dtoa.o)
                              /home/fsw/rep/tasa/lib/bcc-2.2.3-gcc/bin/../lib/gcc/sparc-gaisler-elf/10.2.0/../../../../sparc-gaisler-elf/lib/leon3/mfix-gr712rc/soft/libc.a(lib_a-vfprintf.o) (_dtoa_r)
/home/fsw/rep/tasa/lib/bcc-2.2.3-gcc/bin/../lib/gcc/sparc-gaisler-elf/10.2.0/../../../../sparc-gaisler-elf/lib/leon3/mfix-gr712rc/soft/libc.a(lib_a-fflush.o)
                              /home/fsw/rep/tasa/lib/bcc-2.2.3-gcc/bin/../lib/gcc/sparc-gaisler-elf/10.2.0/../../../../sparc-gaisler-elf/lib/leon3/mfix-gr712rc/soft/libc.a(lib_a-vfprintf.o) (_fflush_r)
/home/fsw/rep/tasa/lib/bcc-2.2.3-gcc/bin/../lib/gcc/sparc-gaisler-elf/10.2.0/../../../../sparc-gaisler-elf/lib/leon3/mfix-gr712rc/soft/libc.a(lib_a-findfp.o)
                              /home/fsw/rep/tasa/lib/bcc-2.2.3-gcc/bin/../lib/gcc/sparc-gaisler-elf/10.2.0/../../../../sparc-gaisler-elf/lib/leon3/mfix-gr712rc/soft/libc.a(lib_a-printf.o) (__sinit)
/home/fsw/rep/tasa/lib/bcc-2.2.3-gcc/bin/../lib/gcc/sparc-gaisler-elf/10.2.0/../../../../sparc-gaisler-elf/lib/leon3/mfix-gr712rc/soft/libc.a(lib_a-freer.o)
                              /home/fsw/rep/tasa/lib/bcc-2.2.3-gcc/bin/../lib/gcc/sparc-gaisler-elf/10.2.0/../../../../sparc-gaisler-elf/lib/leon3/mfix-gr712rc/soft/libc.a(lib_a-vfprintf.o) (_free_r)
/home/fsw/rep/tasa/lib/bcc-2.2.3-gcc/bin/../lib/gcc/sparc-gaisler-elf/10.2.0/../../../../sparc-gaisler-elf/lib/leon3/mfix-gr712rc/soft/libc.a(lib_a-fvwrite.o)
                              /home/fsw/rep/tasa/lib/bcc-2.2.3-gcc/bin/../lib/gcc/sparc-gaisler-elf/10.2.0/../../../../sparc-gaisler-elf/lib/leon3/mfix-gr712rc/soft/libc.a(lib_a-puts.o) (__sfvwrite_r)
/home/fsw/rep/tasa/lib/bcc-2.2.3-gcc/bin/../lib/gcc/sparc-gaisler-elf/10.2.0/../../../../sparc-gaisler-elf/lib/leon3/mfix-gr712rc/soft/libc.a(lib_a-fwalk.o)
                              /home/fsw/rep/tasa/lib/bcc-2.2.3-gcc/bin/../lib/gcc/sparc-gaisler-elf/10.2.0/../../../../sparc-gaisler-elf/lib/leon3/mfix-gr712rc/soft/libc.a(lib_a-fflush.o) (_fwalk_reent)
/home/fsw/rep/tasa/lib/bcc-2.2.3-gcc/bin/../lib/gcc/sparc-gaisler-elf/10.2.0/../../../../sparc-gaisler-elf/lib/leon3/mfix-gr712rc/soft/libc.a(lib_a-localeconv.o)
                              /home/fsw/rep/tasa/lib/bcc-2.2.3-gcc/bin/../lib/gcc/sparc-gaisler-elf/10.2.0/../../../../sparc-gaisler-elf/lib/leon3/mfix-gr712rc/soft/libc.a(lib_a-vfprintf.o) (_localeconv_r)
/home/fsw/rep/tasa/lib/bcc-2.2.3-gcc/bin/../lib/gcc/sparc-gaisler-elf/10.2.0/../../../../sparc-gaisler-elf/lib/leon3/mfix-gr712rc/soft/libc.a(lib_a-makebuf.o)
                              /home/fsw/rep/tasa/lib/bcc-2.2.3-gcc/bin/../lib/gcc/sparc-gaisler-elf/10.2.0/../../../../sparc-gaisler-elf/lib/leon3/mfix-gr712rc/soft/libc.a(lib_a-wsetup.o) (__smakebuf_r)
/home/fsw/rep/tasa/lib/bcc-2.2.3-gcc/bin/../lib/gcc/sparc-gaisler-elf/10.2.0/../../../../sparc-gaisler-elf/lib/leon3/mfix-gr712rc/soft/libc.a(lib_a-malloc.o)
                              /home/fsw/rep/tasa/lib/bcc-2.2.3-gcc/bin/../lib/gcc/sparc-gaisler-elf/10.2.0/../../../../sparc-gaisler-elf/lib/leon3/mfix-gr712rc/soft/libc.a(lib_a-dtoa.o) (malloc)
/home/fsw/rep/tasa/lib/bcc-2.2.3-gcc/bin/../lib/gcc/sparc-gaisler-elf/10.2.0/../../../../sparc-gaisler-elf/lib/leon3/mfix-gr712rc/soft/libc.a(lib_a-mallocr.o)
                              /home/fsw/rep/tasa/lib/bcc-2.2.3-gcc/bin/../lib/gcc/sparc-gaisler-elf/10.2.0/../../../../sparc-gaisler-elf/lib/leon3/mfix-gr712rc/soft/libc.a(lib_a-vfprintf.o) (_malloc_r)
/home/fsw/rep/tasa/lib/bcc-2.2.3-gcc/bin/../lib/gcc/sparc-gaisler-elf/10.2.0/../../../../sparc-gaisler-elf/lib/leon3/mfix-gr712rc/soft/libc.a(lib_a-memchr.o)
                              /home/fsw/rep/tasa/lib/bcc-2.2.3-gcc/bin/../lib/gcc/sparc-gaisler-elf/10.2.0/../../../../sparc-gaisler-elf/lib/leon3/mfix-gr712rc/soft/libc.a(lib_a-vfprintf.o) (memchr)
/home/fsw/rep/tasa/lib/bcc-2.2.3-gcc/bin/../lib/gcc/sparc-gaisler-elf/10.2.0/../../../../sparc-gaisler-elf/lib/leon3/mfix-gr712rc/soft/libc.a(lib_a-memcpy.o)
                              /home/fsw/rep/tasa/lib/bcc-2.2.3-gcc/bin/../lib/gcc/sparc-gaisler-elf/10.2.0/../../../../sparc-gaisler-elf/lib/leon3/mfix-gr712rc/soft/libc.a(lib_a-vfprintf.o) (memcpy)
/home/fsw/rep/tasa/lib/bcc-2.2.3-gcc/bin/../lib/gcc/sparc-gaisler-elf/10.2.0/../../../../sparc-gaisler-elf/lib/leon3/mfix-gr712rc/soft/libc.a(lib_a-memmove.o)
                              /home/fsw/rep/tasa/lib/bcc-2.2.3-gcc/bin/../lib/gcc/sparc-gaisler-elf/10.2.0/../../../../sparc-gaisler-elf/lib/leon3/mfix-gr712rc/soft/libc.a(lib_a-fvwrite.o) (memmove)
/home/fsw/rep/tasa/lib/bcc-2.2.3-gcc/bin/../lib/gcc/sparc-gaisler-elf/10.2.0/../../../../sparc-gaisler-elf/lib/leon3/mfix-gr712rc/soft/libc.a(lib_a-memset.o)
                              /home/fsw/rep/tasa/lib/bcc-2.2.3-gcc/bin/../lib/gcc/sparc-gaisler-elf/10.2.0/../../../../sparc-gaisler-elf/lib/leon3/mfix-gr712rc/soft/libc.a(lib_a-findfp.o) (memset)
/home/fsw/rep/tasa/lib/bcc-2.2.3-gcc/bin/../lib/gcc/sparc-gaisler-elf/10.2.0/../../../../sparc-gaisler-elf/lib/leon3/mfix-gr712rc/soft/libc.a(lib_a-mlock.o)
                              /home/fsw/rep/tasa/lib/bcc-2.2.3-gcc/bin/../lib/gcc/sparc-gaisler-elf/10.2.0/../../../../sparc-gaisler-elf/lib/leon3/mfix-gr712rc/soft/libc.a(lib_a-freer.o) (__malloc_lock)
/home/fsw/rep/tasa/lib/bcc-2.2.3-gcc/bin/../lib/gcc/sparc-gaisler-elf/10.2.0/../../../../sparc-gaisler-elf/lib/leon3/mfix-gr712rc/soft/libc.a(lib_a-mprec.o)
                              /home/fsw/rep/tasa/lib/bcc-2.2.3-gcc/bin/../lib/gcc/sparc-gaisler-elf/10.2.0/../../../../sparc-gaisler-elf/lib/leon3/mfix-gr712rc/soft/libc.a(lib_a-dtoa.o) (_Balloc)
/home/fsw/rep/tasa/lib/bcc-2.2.3-gcc/bin/../lib/gcc/sparc-gaisler-elf/10.2.0/../../../../sparc-gaisler-elf/lib/leon3/mfix-gr712rc/soft/libc.a(lib_a-putc.o)
                              /home/fsw/rep/tasa/lib/bcc-2.2.3-gcc/bin/../lib/gcc/sparc-gaisler-elf/10.2.0/../../../../sparc-gaisler-elf/lib/leon3/mfix-gr712rc/soft/libc.a(lib_a-putchar.o) (_putc_r)
/home/fsw/rep/tasa/lib/bcc-2.2.3-gcc/bin/../lib/gcc/sparc-gaisler-elf/10.2.0/../../../../sparc-gaisler-elf/lib/leon3/mfix-gr712rc/soft/libc.a(lib_a-reallocr.o)
                              /home/fsw/rep/tasa/lib/bcc-2.2.3-gcc/bin/../lib/gcc/sparc-gaisler-elf/10.2.0/../../../../sparc-gaisler-elf/lib/leon3/mfix-gr712rc/soft/libc.a(lib_a-fvwrite.o) (_realloc_r)
/home/fsw/rep/tasa/lib/bcc-2.2.3-gcc/bin/../lib/gcc/sparc-gaisler-elf/10.2.0/../../../../sparc-gaisler-elf/lib/leon3/mfix-gr712rc/soft/libc.a(lib_a-s_frexp.o)
                              /home/fsw/rep/tasa/lib/bcc-2.2.3-gcc/bin/../lib/gcc/sparc-gaisler-elf/10.2.0/../../../../sparc-gaisler-elf/lib/leon3/mfix-gr712rc/soft/libc.a(lib_a-vfprintf.o) (frexp)
/home/fsw/rep/tasa/lib/bcc-2.2.3-gcc/bin/../lib/gcc/sparc-gaisler-elf/10.2.0/../../../../sparc-gaisler-elf/lib/leon3/mfix-gr712rc/soft/libc.a(lib_a-sbrkr.o)
                              /home/fsw/rep/tasa/lib/bcc-2.2.3-gcc/bin/../lib/gcc/sparc-gaisler-elf/10.2.0/../../../../sparc-gaisler-elf/lib/leon3/mfix-gr712rc/soft/libc.a(lib_a-freer.o) (_sbrk_r)
/home/fsw/rep/tasa/lib/bcc-2.2.3-gcc/bin/../lib/gcc/sparc-gaisler-elf/10.2.0/../../../../sparc-gaisler-elf/lib/leon3/mfix-gr712rc/soft/libc.a(lib_a-stdio.o)
                              /home/fsw/rep/tasa/lib/bcc-2.2.3-gcc/bin/../lib/gcc/sparc-gaisler-elf/10.2.0/../../../../sparc-gaisler-elf/lib/leon3/mfix-gr712rc/soft/libc.a(lib_a-findfp.o) (__sread)
/home/fsw/rep/tasa/lib/bcc-2.2.3-gcc/bin/../lib/gcc/sparc-gaisler-elf/10.2.0/../../../../sparc-gaisler-elf/lib/leon3/mfix-gr712rc/soft/libc.a(lib_a-strncpy.o)
                              /home/fsw/rep/tasa/lib/bcc-2.2.3-gcc/bin/../lib/gcc/sparc-gaisler-elf/10.2.0/../../../../sparc-gaisler-elf/lib/leon3/mfix-gr712rc/soft/libc.a(lib_a-vfprintf.o) (strncpy)
/home/fsw/rep/tasa/lib/bcc-2.2.3-gcc/bin/../lib/gcc/sparc-gaisler-elf/10.2.0/../../../../sparc-gaisler-elf/lib/leon3/mfix-gr712rc/soft/libc.a(lib_a-vfiprintf.o)
                              /home/fsw/rep/tasa/lib/bcc-2.2.3-gcc/bin/../lib/gcc/sparc-gaisler-elf/10.2.0/../../../../sparc-gaisler-elf/lib/leon3/mfix-gr712rc/soft/libc.a(lib_a-vfprintf.o) (__sprint_r)
/home/fsw/rep/tasa/lib/bcc-2.2.3-gcc/bin/../lib/gcc/sparc-gaisler-elf/10.2.0/../../../../sparc-gaisler-elf/lib/leon3/mfix-gr712rc/soft/libc.a(lib_a-wbuf.o)
                              /home/fsw/rep/tasa/lib/bcc-2.2.3-gcc/bin/../lib/gcc/sparc-gaisler-elf/10.2.0/../../../../sparc-gaisler-elf/lib/leon3/mfix-gr712rc/soft/libc.a(lib_a-putc.o) (__swbuf_r)
/home/fsw/rep/tasa/lib/bcc-2.2.3-gcc/bin/../lib/gcc/sparc-gaisler-elf/10.2.0/../../../../sparc-gaisler-elf/lib/leon3/mfix-gr712rc/soft/libc.a(lib_a-writer.o)
                              /home/fsw/rep/tasa/lib/bcc-2.2.3-gcc/bin/../lib/gcc/sparc-gaisler-elf/10.2.0/../../../../sparc-gaisler-elf/lib/leon3/mfix-gr712rc/soft/libc.a(lib_a-stdio.o) (_write_r)
/home/fsw/rep/tasa/lib/bcc-2.2.3-gcc/bin/../lib/gcc/sparc-gaisler-elf/10.2.0/../../../../sparc-gaisler-elf/lib/leon3/mfix-gr712rc/soft/libc.a(lib_a-callocr.o)
                              /home/fsw/rep/tasa/lib/bcc-2.2.3-gcc/bin/../lib/gcc/sparc-gaisler-elf/10.2.0/../../../../sparc-gaisler-elf/lib/leon3/mfix-gr712rc/soft/libc.a(lib_a-mprec.o) (_calloc_r)
/home/fsw/rep/tasa/lib/bcc-2.2.3-gcc/bin/../lib/gcc/sparc-gaisler-elf/10.2.0/../../../../sparc-gaisler-elf/lib/leon3/mfix-gr712rc/soft/libc.a(lib_a-closer.o)
                              /home/fsw/rep/tasa/lib/bcc-2.2.3-gcc/bin/../lib/gcc/sparc-gaisler-elf/10.2.0/../../../../sparc-gaisler-elf/lib/leon3/mfix-gr712rc/soft/libc.a(lib_a-stdio.o) (_close_r)
/home/fsw/rep/tasa/lib/bcc-2.2.3-gcc/bin/../lib/gcc/sparc-gaisler-elf/10.2.0/../../../../sparc-gaisler-elf/lib/leon3/mfix-gr712rc/soft/libc.a(lib_a-fclose.o)
                              /home/fsw/rep/tasa/lib/bcc-2.2.3-gcc/bin/../lib/gcc/sparc-gaisler-elf/10.2.0/../../../../sparc-gaisler-elf/lib/leon3/mfix-gr712rc/soft/libc.a(lib_a-findfp.o) (_fclose_r)
/home/fsw/rep/tasa/lib/bcc-2.2.3-gcc/bin/../lib/gcc/sparc-gaisler-elf/10.2.0/../../../../sparc-gaisler-elf/lib/leon3/mfix-gr712rc/soft/libc.a(lib_a-fputwc.o)
                              /home/fsw/rep/tasa/lib/bcc-2.2.3-gcc/bin/../lib/gcc/sparc-gaisler-elf/10.2.0/../../../../sparc-gaisler-elf/lib/leon3/mfix-gr712rc/soft/libc.a(lib_a-vfiprintf.o) (_fputwc_r)
/home/fsw/rep/tasa/lib/bcc-2.2.3-gcc/bin/../lib/gcc/sparc-gaisler-elf/10.2.0/../../../../sparc-gaisler-elf/lib/leon3/mfix-gr712rc/soft/libc.a(lib_a-fstatr.o)
                              /home/fsw/rep/tasa/lib/bcc-2.2.3-gcc/bin/../lib/gcc/sparc-gaisler-elf/10.2.0/../../../../sparc-gaisler-elf/lib/leon3/mfix-gr712rc/soft/libc.a(lib_a-makebuf.o) (_fstat_r)
/home/fsw/rep/tasa/lib/bcc-2.2.3-gcc/bin/../lib/gcc/sparc-gaisler-elf/10.2.0/../../../../sparc-gaisler-elf/lib/leon3/mfix-gr712rc/soft/libc.a(lib_a-isattyr.o)
                              /home/fsw/rep/tasa/lib/bcc-2.2.3-gcc/bin/../lib/gcc/sparc-gaisler-elf/10.2.0/../../../../sparc-gaisler-elf/lib/leon3/mfix-gr712rc/soft/libc.a(lib_a-makebuf.o) (_isatty_r)
/home/fsw/rep/tasa/lib/bcc-2.2.3-gcc/bin/../lib/gcc/sparc-gaisler-elf/10.2.0/../../../../sparc-gaisler-elf/lib/leon3/mfix-gr712rc/soft/libc.a(lib_a-locale.o)
                              /home/fsw/rep/tasa/lib/bcc-2.2.3-gcc/bin/../lib/gcc/sparc-gaisler-elf/10.2.0/../../../../sparc-gaisler-elf/lib/leon3/mfix-gr712rc/soft/libc.a(lib_a-fputwc.o) (__locale_mb_cur_max)
/home/fsw/rep/tasa/lib/bcc-2.2.3-gcc/bin/../lib/gcc/sparc-gaisler-elf/10.2.0/../../../../sparc-gaisler-elf/lib/leon3/mfix-gr712rc/soft/libc.a(lib_a-lseekr.o)
                              /home/fsw/rep/tasa/lib/bcc-2.2.3-gcc/bin/../lib/gcc/sparc-gaisler-elf/10.2.0/../../../../sparc-gaisler-elf/lib/leon3/mfix-gr712rc/soft/libc.a(lib_a-stdio.o) (_lseek_r)
/home/fsw/rep/tasa/lib/bcc-2.2.3-gcc/bin/../lib/gcc/sparc-gaisler-elf/10.2.0/../../../../sparc-gaisler-elf/lib/leon3/mfix-gr712rc/soft/libc.a(lib_a-mbtowc_r.o)
                              /home/fsw/rep/tasa/lib/bcc-2.2.3-gcc/bin/../lib/gcc/sparc-gaisler-elf/10.2.0/../../../../sparc-gaisler-elf/lib/leon3/mfix-gr712rc/soft/libc.a(lib_a-locale.o) (__ascii_mbtowc)
/home/fsw/rep/tasa/lib/bcc-2.2.3-gcc/bin/../lib/gcc/sparc-gaisler-elf/10.2.0/../../../../sparc-gaisler-elf/lib/leon3/mfix-gr712rc/soft/libc.a(lib_a-readr.o)
                              /home/fsw/rep/tasa/lib/bcc-2.2.3-gcc/bin/../lib/gcc/sparc-gaisler-elf/10.2.0/../../../../sparc-gaisler-elf/lib/leon3/mfix-gr712rc/soft/libc.a(lib_a-stdio.o) (_read_r)
/home/fsw/rep/tasa/lib/bcc-2.2.3-gcc/bin/../lib/gcc/sparc-gaisler-elf/10.2.0/../../../../sparc-gaisler-elf/lib/leon3/mfix-gr712rc/soft/libc.a(lib_a-reent.o)
                              /home/fsw/rep/tasa/lib/bcc-2.2.3-gcc/bin/../lib/gcc/sparc-gaisler-elf/10.2.0/../../../../sparc-gaisler-elf/lib/leon3/mfix-gr712rc/soft/libc.a(lib_a-sbrkr.o) (errno)
/home/fsw/rep/tasa/lib/bcc-2.2.3-gcc/bin/../lib/gcc/sparc-gaisler-elf/10.2.0/../../../../sparc-gaisler-elf/lib/leon3/mfix-gr712rc/soft/libc.a(lib_a-strcmp.o)
                              /home/fsw/rep/tasa/lib/bcc-2.2.3-gcc/bin/../lib/gcc/sparc-gaisler-elf/10.2.0/../../../../sparc-gaisler-elf/lib/leon3/mfix-gr712rc/soft/libc.a(lib_a-locale.o) (strcmp)
/home/fsw/rep/tasa/lib/bcc-2.2.3-gcc/bin/../lib/gcc/sparc-gaisler-elf/10.2.0/../../../../sparc-gaisler-elf/lib/leon3/mfix-gr712rc/soft/libc.a(lib_a-wcrtomb.o)
                              /home/fsw/rep/tasa/lib/bcc-2.2.3-gcc/bin/../lib/gcc/sparc-gaisler-elf/10.2.0/../../../../sparc-gaisler-elf/lib/leon3/mfix-gr712rc/soft/libc.a(lib_a-fputwc.o) (_wcrtomb_r)
/home/fsw/rep/tasa/lib/bcc-2.2.3-gcc/bin/../lib/gcc/sparc-gaisler-elf/10.2.0/../../../../sparc-gaisler-elf/lib/leon3/mfix-gr712rc/soft/libc.a(lib_a-wctomb_r.o)
                              /home/fsw/rep/tasa/lib/bcc-2.2.3-gcc/bin/../lib/gcc/sparc-gaisler-elf/10.2.0/../../../../sparc-gaisler-elf/lib/leon3/mfix-gr712rc/soft/libc.a(lib_a-locale.o) (__ascii_wctomb)
/home/fsw/rep/tasa/lib/bcc-2.2.3-gcc/bin/../lib/gcc/sparc-gaisler-elf/10.2.0/../../../../sparc-gaisler-elf/lib/leon3/mfix-gr712rc/soft/libc.a(lib_a-ctype_.o)
                              /home/fsw/rep/tasa/lib/bcc-2.2.3-gcc/bin/../lib/gcc/sparc-gaisler-elf/10.2.0/../../../../sparc-gaisler-elf/lib/leon3/mfix-gr712rc/soft/libc.a(lib_a-locale.o) (_ctype_b)
/home/fsw/rep/tasa/lib/bcc-2.2.3-gcc/bin/../sparc-gaisler-elf/bsp/gr712rc/leon3/mfix-gr712rc/soft/libbcc.a(_exit.S.o)
                              /home/fsw/rep/tasa/lib/bcc-2.2.3-gcc/bin/../lib/gcc/sparc-gaisler-elf/10.2.0/../../../../sparc-gaisler-elf/lib/leon3/mfix-gr712rc/soft/libc.a(lib_a-exit.o) (_exit)
/home/fsw/rep/tasa/lib/bcc-2.2.3-gcc/bin/../sparc-gaisler-elf/bsp/gr712rc/leon3/mfix-gr712rc/soft/libbcc.a(read.c.o)
                              /home/fsw/rep/tasa/lib/bcc-2.2.3-gcc/bin/../lib/gcc/sparc-gaisler-elf/10.2.0/../../../../sparc-gaisler-elf/lib/leon3/mfix-gr712rc/soft/libc.a(lib_a-readr.o) (read)
/home/fsw/rep/tasa/lib/bcc-2.2.3-gcc/bin/../sparc-gaisler-elf/bsp/gr712rc/leon3/mfix-gr712rc/soft/libbcc.a(sbrk.c.o)
                              /home/fsw/rep/tasa/lib/bcc-2.2.3-gcc/bin/../lib/gcc/sparc-gaisler-elf/10.2.0/../../../../sparc-gaisler-elf/lib/leon3/mfix-gr712rc/soft/libc.a(lib_a-sbrkr.o) (sbrk)
/home/fsw/rep/tasa/lib/bcc-2.2.3-gcc/bin/../sparc-gaisler-elf/bsp/gr712rc/leon3/mfix-gr712rc/soft/libbcc.a(heap.c.o)
                              /home/fsw/rep/tasa/lib/bcc-2.2.3-gcc/bin/../sparc-gaisler-elf/bsp/gr712rc/leon3/mfix-gr712rc/soft/libbcc.a(sbrk.c.o) (__bcc_heap_max)
/home/fsw/rep/tasa/lib/bcc-2.2.3-gcc/bin/../sparc-gaisler-elf/bsp/gr712rc/leon3/mfix-gr712rc/soft/libbcc.a(write.c.o)
                              /home/fsw/rep/tasa/lib/bcc-2.2.3-gcc/bin/../lib/gcc/sparc-gaisler-elf/10.2.0/../../../../sparc-gaisler-elf/lib/leon3/mfix-gr712rc/soft/libc.a(lib_a-writer.o) (write)
/home/fsw/rep/tasa/lib/bcc-2.2.3-gcc/bin/../sparc-gaisler-elf/bsp/gr712rc/leon3/mfix-gr712rc/soft/libbcc.a(stubs.S.o)
                              /home/fsw/rep/tasa/lib/bcc-2.2.3-gcc/bin/../lib/gcc/sparc-gaisler-elf/10.2.0/../../../../sparc-gaisler-elf/lib/leon3/mfix-gr712rc/soft/libc.a(lib_a-closer.o) (close)
/home/fsw/rep/tasa/lib/bcc-2.2.3-gcc/bin/../sparc-gaisler-elf/bsp/gr712rc/leon3/mfix-gr712rc/soft/libbcc.a(con_apbuart.c.o)
                              /home/fsw/rep/tasa/lib/bcc-2.2.3-gcc/bin/../sparc-gaisler-elf/bsp/gr712rc/leon3/mfix-gr712rc/soft/libbcc.a(write.c.o) (__bcc_con_outbyte)
/home/fsw/rep/tasa/lib/bcc-2.2.3-gcc/bin/../sparc-gaisler-elf/bsp/gr712rc/leon3/mfix-gr712rc/soft/libbcc.a(con_handle.c.o)
                              /home/fsw/rep/tasa/lib/bcc-2.2.3-gcc/bin/../sparc-gaisler-elf/bsp/gr712rc/leon3/mfix-gr712rc/soft/libbcc.a(con_apbuart.c.o) (__bcc_con_handle)
/home/fsw/rep/tasa/lib/bcc-2.2.3-gcc/bin/../lib/gcc/sparc-gaisler-elf/10.2.0/leon3/mfix-gr712rc/soft/libgcc.a(_udivdi3.o)
                              /home/fsw/rep/tasa/lib/bcc-2.2.3-gcc/bin/../lib/gcc/sparc-gaisler-elf/10.2.0/../../../../sparc-gaisler-elf/lib/leon3/mfix-gr712rc/soft/libc.a(lib_a-vfprintf.o) (__udivdi3)
/home/fsw/rep/tasa/lib/bcc-2.2.3-gcc/bin/../lib/gcc/sparc-gaisler-elf/10.2.0/leon3/mfix-gr712rc/soft/libgcc.a(_umoddi3.o)
                              /home/fsw/rep/tasa/lib/bcc-2.2.3-gcc/bin/../lib/gcc/sparc-gaisler-elf/10.2.0/../../../../sparc-gaisler-elf/lib/leon3/mfix-gr712rc/soft/libc.a(lib_a-vfprintf.o) (__umoddi3)
/home/fsw/rep/tasa/lib/bcc-2.2.3-gcc/bin/../lib/gcc/sparc-gaisler-elf/10.2.0/leon3/mfix-gr712rc/soft/libgcc.a(_addsub_df.o)
                              /home/fsw/rep/tasa/lib/bcc-2.2.3-gcc/bin/../lib/gcc/sparc-gaisler-elf/10.2.0/../../../../sparc-gaisler-elf/lib/leon3/mfix-gr712rc/soft/libc.a(lib_a-dtoa.o) (__adddf3)
/home/fsw/rep/tasa/lib/bcc-2.2.3-gcc/bin/../lib/gcc/sparc-gaisler-elf/10.2.0/leon3/mfix-gr712rc/soft/libgcc.a(_mul_df.o)
                              /home/fsw/rep/tasa/lib/bcc-2.2.3-gcc/bin/../lib/gcc/sparc-gaisler-elf/10.2.0/../../../../sparc-gaisler-elf/lib/leon3/mfix-gr712rc/soft/libc.a(lib_a-vfprintf.o) (__muldf3)
/home/fsw/rep/tasa/lib/bcc-2.2.3-gcc/bin/../lib/gcc/sparc-gaisler-elf/10.2.0/leon3/mfix-gr712rc/soft/libgcc.a(_div_df.o)
                              /home/fsw/rep/tasa/lib/bcc-2.2.3-gcc/bin/../lib/gcc/sparc-gaisler-elf/10.2.0/../../../../sparc-gaisler-elf/lib/leon3/mfix-gr712rc/soft/libc.a(lib_a-dtoa.o) (__divdf3)
/home/fsw/rep/tasa/lib/bcc-2.2.3-gcc/bin/../lib/gcc/sparc-gaisler-elf/10.2.0/leon3/mfix-gr712rc/soft/libgcc.a(_eq_df.o)
                              /home/fsw/rep/tasa/lib/bcc-2.2.3-gcc/bin/../lib/gcc/sparc-gaisler-elf/10.2.0/../../../../sparc-gaisler-elf/lib/leon3/mfix-gr712rc/soft/libc.a(lib_a-vfprintf.o) (__eqdf2)
/home/fsw/rep/tasa/lib/bcc-2.2.3-gcc/bin/../lib/gcc/sparc-gaisler-elf/10.2.0/leon3/mfix-gr712rc/soft/libgcc.a(_ne_df.o)
                              /home/fsw/rep/tasa/lib/bcc-2.2.3-gcc/bin/../lib/gcc/sparc-gaisler-elf/10.2.0/../../../../sparc-gaisler-elf/lib/leon3/mfix-gr712rc/soft/libc.a(lib_a-vfprintf.o) (__nedf2)
/home/fsw/rep/tasa/lib/bcc-2.2.3-gcc/bin/../lib/gcc/sparc-gaisler-elf/10.2.0/leon3/mfix-gr712rc/soft/libgcc.a(_gt_df.o)
                              /home/fsw/rep/tasa/lib/bcc-2.2.3-gcc/bin/../lib/gcc/sparc-gaisler-elf/10.2.0/../../../../sparc-gaisler-elf/lib/leon3/mfix-gr712rc/soft/libc.a(lib_a-vfprintf.o) (__gtdf2)
/home/fsw/rep/tasa/lib/bcc-2.2.3-gcc/bin/../lib/gcc/sparc-gaisler-elf/10.2.0/leon3/mfix-gr712rc/soft/libgcc.a(_lt_df.o)
                              /home/fsw/rep/tasa/lib/bcc-2.2.3-gcc/bin/../lib/gcc/sparc-gaisler-elf/10.2.0/../../../../sparc-gaisler-elf/lib/leon3/mfix-gr712rc/soft/libc.a(lib_a-vfprintf.o) (__ltdf2)
/home/fsw/rep/tasa/lib/bcc-2.2.3-gcc/bin/../lib/gcc/sparc-gaisler-elf/10.2.0/leon3/mfix-gr712rc/soft/libgcc.a(_le_df.o)
                              /home/fsw/rep/tasa/lib/bcc-2.2.3-gcc/bin/../lib/gcc/sparc-gaisler-elf/10.2.0/../../../../sparc-gaisler-elf/lib/leon3/mfix-gr712rc/soft/libc.a(lib_a-vfprintf.o) (__ledf2)
/home/fsw/rep/tasa/lib/bcc-2.2.3-gcc/bin/../lib/gcc/sparc-gaisler-elf/10.2.0/leon3/mfix-gr712rc/soft/libgcc.a(_unord_df.o)
                              /home/fsw/rep/tasa/lib/bcc-2.2.3-gcc/bin/../lib/gcc/sparc-gaisler-elf/10.2.0/../../../../sparc-gaisler-elf/lib/leon3/mfix-gr712rc/soft/libc.a(lib_a-vfprintf.o) (__unorddf2)
/home/fsw/rep/tasa/lib/bcc-2.2.3-gcc/bin/../lib/gcc/sparc-gaisler-elf/10.2.0/leon3/mfix-gr712rc/soft/libgcc.a(_si_to_df.o)
                              /home/fsw/rep/tasa/lib/bcc-2.2.3-gcc/bin/../lib/gcc/sparc-gaisler-elf/10.2.0/../../../../sparc-gaisler-elf/lib/leon3/mfix-gr712rc/soft/libc.a(lib_a-vfprintf.o) (__floatsidf)
/home/fsw/rep/tasa/lib/bcc-2.2.3-gcc/bin/../lib/gcc/sparc-gaisler-elf/10.2.0/leon3/mfix-gr712rc/soft/libgcc.a(_df_to_si.o)
                              /home/fsw/rep/tasa/lib/bcc-2.2.3-gcc/bin/../lib/gcc/sparc-gaisler-elf/10.2.0/../../../../sparc-gaisler-elf/lib/leon3/mfix-gr712rc/soft/libc.a(lib_a-vfprintf.o) (__fixdfsi)
/home/fsw/rep/tasa/lib/bcc-2.2.3-gcc/bin/../lib/gcc/sparc-gaisler-elf/10.2.0/leon3/mfix-gr712rc/soft/libgcc.a(_thenan_df.o)
                              /home/fsw/rep/tasa/lib/bcc-2.2.3-gcc/bin/../lib/gcc/sparc-gaisler-elf/10.2.0/leon3/mfix-gr712rc/soft/libgcc.a(_addsub_df.o) (__thenan_df)
/home/fsw/rep/tasa/lib/bcc-2.2.3-gcc/bin/../lib/gcc/sparc-gaisler-elf/10.2.0/leon3/mfix-gr712rc/soft/libgcc.a(_usi_to_df.o)
                              /home/fsw/rep/tasa/lib/bcc-2.2.3-gcc/bin/../lib/gcc/sparc-gaisler-elf/10.2.0/../../../../sparc-gaisler-elf/lib/leon3/mfix-gr712rc/soft/libc.a(lib_a-dtoa.o) (__floatunsidf)
/home/fsw/rep/tasa/lib/bcc-2.2.3-gcc/bin/../lib/gcc/sparc-gaisler-elf/10.2.0/leon3/mfix-gr712rc/soft/libgcc.a(_clz.o)
                              /home/fsw/rep/tasa/lib/bcc-2.2.3-gcc/bin/../lib/gcc/sparc-gaisler-elf/10.2.0/leon3/mfix-gr712rc/soft/libgcc.a(_udivdi3.o) (__clz_tab)
/home/fsw/rep/tasa/lib/bcc-2.2.3-gcc/bin/../lib/gcc/sparc-gaisler-elf/10.2.0/leon3/mfix-gr712rc/soft/libgcc.a(_clzsi2.o)
                              /home/fsw/rep/tasa/lib/bcc-2.2.3-gcc/bin/../lib/gcc/sparc-gaisler-elf/10.2.0/leon3/mfix-gr712rc/soft/libgcc.a(_si_to_df.o) (__clzsi2)
/home/fsw/rep/tasa/lib/bcc-2.2.3-gcc/bin/../lib/gcc/sparc-gaisler-elf/10.2.0/leon3/mfix-gr712rc/soft/libgcc.a(_pack_df.o)
                              /home/fsw/rep/tasa/lib/bcc-2.2.3-gcc/bin/../lib/gcc/sparc-gaisler-elf/10.2.0/leon3/mfix-gr712rc/soft/libgcc.a(_addsub_df.o) (__pack_d)
/home/fsw/rep/tasa/lib/bcc-2.2.3-gcc/bin/../lib/gcc/sparc-gaisler-elf/10.2.0/leon3/mfix-gr712rc/soft/libgcc.a(_unpack_df.o)
                              /home/fsw/rep/tasa/lib/bcc-2.2.3-gcc/bin/../lib/gcc/sparc-gaisler-elf/10.2.0/leon3/mfix-gr712rc/soft/libgcc.a(_addsub_df.o) (__unpack_d)
/home/fsw/rep/tasa/lib/bcc-2.2.3-gcc/bin/../lib/gcc/sparc-gaisler-elf/10.2.0/leon3/mfix-gr712rc/soft/libgcc.a(_fpcmp_parts_df.o)
                              /home/fsw/rep/tasa/lib/bcc-2.2.3-gcc/bin/../lib/gcc/sparc-gaisler-elf/10.2.0/leon3/mfix-gr712rc/soft/libgcc.a(_eq_df.o) (__fpcmp_parts_d)

Memory Configuration

Name             Origin             Length             Attributes
rom              0x0000000000000000 0x0000000020000000
ram              0x0000000040000000 0x0000000040000000
ahbram           0x00000000a0000000 0x0000000000030000
*default*        0x0000000000000000 0xffffffffffffffff

Linker script and memory map

LOAD /home/fsw/rep/tasa/lib/bcc-2.2.3-gcc/bin/../sparc-gaisler-elf/bsp/gr712rc/leon3/mfix-gr712rc/soft/trap_table_mvt_tn0018.S.o
LOAD /home/fsw/rep/tasa/lib/bcc-2.2.3-gcc/bin/../sparc-gaisler-elf/bsp/gr712rc/leon3/mfix-gr712rc/soft/crt0.S.o
LOAD /home/fsw/rep/tasa/lib/bcc-2.2.3-gcc/bin/../lib/gcc/sparc-gaisler-elf/10.2.0/leon3/mfix-gr712rc/soft/crti.o
LOAD /home/fsw/rep/tasa/lib/bcc-2.2.3-gcc/bin/../lib/gcc/sparc-gaisler-elf/10.2.0/leon3/mfix-gr712rc/soft/crtbegin.o
Address of section .text set to 0x40001000
LOAD /tmp/ccucSNOv.o
                0x0000000000000000                PROVIDE (__bcc_cfg_skip_clear_bss = 0x0)

.text           0x0000000040001000    0x100d0
 CREATE_OBJECT_SYMBOLS
                0x0000000040001000                __text_start = .
                0x0000000040001000                . = ALIGN (0x1000)
 *(.text.traptable)
 .text.traptable
                0x0000000040001000     0x1000 /home/fsw/rep/tasa/lib/bcc-2.2.3-gcc/bin/../sparc-gaisler-elf/bsp/gr712rc/leon3/mfix-gr712rc/soft/trap_table_mvt_tn0018.S.o
                0x0000000040001000                __bcc_trap_table
                0x0000000040001000                __bcc_entry_point
 *(.text .text.*)
 .text          0x0000000040002000        0x0 /home/fsw/rep/tasa/lib/bcc-2.2.3-gcc/bin/../sparc-gaisler-elf/bsp/gr712rc/leon3/mfix-gr712rc/soft/trap_table_mvt_tn0018.S.o
 .text          0x0000000040002000       0xc8 /home/fsw/rep/tasa/lib/bcc-2.2.3-gcc/bin/../sparc-gaisler-elf/bsp/gr712rc/leon3/mfix-gr712rc/soft/crt0.S.o
                0x0000000040002000                __bcc_crt0
 .text          0x00000000400020c8        0x0 /home/fsw/rep/tasa/lib/bcc-2.2.3-gcc/bin/../lib/gcc/sparc-gaisler-elf/10.2.0/leon3/mfix-gr712rc/soft/crti.o
 .text          0x00000000400020c8      0x184 /home/fsw/rep/tasa/lib/bcc-2.2.3-gcc/bin/../lib/gcc/sparc-gaisler-elf/10.2.0/leon3/mfix-gr712rc/soft/crtbegin.o
 .text          0x000000004000224c        0x0 /tmp/ccucSNOv.o
 .text.startup  0x000000004000224c      0x1a4 /tmp/ccucSNOv.o
                0x000000004000224c                main
 .text          0x00000000400023f0       0x90 /home/fsw/rep/tasa/lib/bcc-2.2.3-gcc/bin/../sparc-gaisler-elf/bsp/gr712rc/leon3/mfix-gr712rc/soft/libbcc.a(reset_trap_mvt.S.o)
                0x00000000400023f0                __bcc_trap_reset_mvt
 .text          0x0000000040002480       0xb0 /home/fsw/rep/tasa/lib/bcc-2.2.3-gcc/bin/../sparc-gaisler-elf/bsp/gr712rc/leon3/mfix-gr712rc/soft/libbcc.a(window_trap.S.o)
                0x0000000040002480                __bcc_trap_window_overflow
                0x00000000400024d0                __bcc_trap_window_underflow
 .text          0x0000000040002530       0x8c /home/fsw/rep/tasa/lib/bcc-2.2.3-gcc/bin/../sparc-gaisler-elf/bsp/gr712rc/leon3/mfix-gr712rc/soft/libbcc.a(flush_windows_trap.S.o)
                0x0000000040002530                __bcc_trap_flush_windows
 .text          0x00000000400025bc       0x2c /home/fsw/rep/tasa/lib/bcc-2.2.3-gcc/bin/../sparc-gaisler-elf/bsp/gr712rc/leon3/mfix-gr712rc/soft/libbcc.a(sw_trap_set_pil.S.o)
                0x00000000400025bc                __bcc_trap_sw_set_pil
 .text          0x00000000400025e8        0x8 /home/fsw/rep/tasa/lib/bcc-2.2.3-gcc/bin/../sparc-gaisler-elf/bsp/gr712rc/leon3/mfix-gr712rc/soft/libbcc.a(init.S.o)
                0x00000000400025e8                __bcc_init50
                0x00000000400025e8                __bcc_init40
                0x00000000400025e8                __bcc_init70
                0x00000000400025e8                __bcc_init60
 .text          0x00000000400025f0       0x98 /home/fsw/rep/tasa/lib/bcc-2.2.3-gcc/bin/../sparc-gaisler-elf/bsp/gr712rc/leon3/mfix-gr712rc/soft/libbcc.a(leon_info.S.o)
                0x00000000400025f0                __bcc_get_leon_info
                0x0000000040002678                bcc_get_cpuid
 .text          0x0000000040002688       0x2c /home/fsw/rep/tasa/lib/bcc-2.2.3-gcc/bin/../sparc-gaisler-elf/bsp/gr712rc/leon3/mfix-gr712rc/soft/libbcc.a(dwzero.S.o)
                0x0000000040002688                bcc_dwzero
 .text          0x00000000400026b4       0x5c /home/fsw/rep/tasa/lib/bcc-2.2.3-gcc/bin/../sparc-gaisler-elf/bsp/gr712rc/leon3/mfix-gr712rc/soft/libbcc.a(copy_data.c.o)
                0x00000000400026b4                __bcc_copy_data
 .text          0x0000000040002710        0x0 /home/fsw/rep/tasa/lib/bcc-2.2.3-gcc/bin/../sparc-gaisler-elf/bsp/gr712rc/leon3/mfix-gr712rc/soft/libbcc.a(argv.c.o)
 *fill*         0x0000000040002710       0x10 
 .text          0x0000000040002720      0x200 /home/fsw/rep/tasa/lib/bcc-2.2.3-gcc/bin/../sparc-gaisler-elf/bsp/gr712rc/leon3/mfix-gr712rc/soft/libbcc.a(interrupt_trap_tn0018.S.o)
                0x0000000040002720                __bcc_trap_interrupt_svt_tn0018
                0x0000000040002724                __bcc_trap_interrupt_tn0018
 .text          0x0000000040002920       0x48 /home/fsw/rep/tasa/lib/bcc-2.2.3-gcc/bin/../sparc-gaisler-elf/bsp/gr712rc/leon3/mfix-gr712rc/soft/libbcc.a(int_irqmp_get_source.c.o)
                0x0000000040002920                __bcc_int_get_source
 .text          0x0000000040002968       0x9c /home/fsw/rep/tasa/lib/bcc-2.2.3-gcc/bin/../sparc-gaisler-elf/bsp/gr712rc/leon3/mfix-gr712rc/soft/libbcc.a(int_irqmp_mp.c.o)
                0x0000000040002968                bcc_send_interrupt
                0x00000000400029a4                bcc_get_cpu_count
                0x00000000400029d0                bcc_start_processor
 .text          0x0000000040002a04        0x8 /home/fsw/rep/tasa/lib/bcc-2.2.3-gcc/bin/../sparc-gaisler-elf/bsp/gr712rc/leon3/mfix-gr712rc/soft/libbcc.a(int_irqmp_init.c.o)
                0x0000000040002a04                __bcc_int_init
 .text          0x0000000040002a0c        0x8 /home/fsw/rep/tasa/lib/bcc-2.2.3-gcc/bin/../sparc-gaisler-elf/bsp/gr712rc/leon3/mfix-gr712rc/soft/libbcc.a(con_apbuart_init.c.o)
                0x0000000040002a0c                __bcc_con_init
 .text          0x0000000040002a14        0x8 /home/fsw/rep/tasa/lib/bcc-2.2.3-gcc/bin/../sparc-gaisler-elf/bsp/gr712rc/leon3/mfix-gr712rc/soft/libbcc.a(timer_gptimer_init.c.o)
                0x0000000040002a14                __bcc_timer_init
 .text          0x0000000040002a1c        0x0 /home/fsw/rep/tasa/lib/bcc-2.2.3-gcc/bin/../sparc-gaisler-elf/bsp/gr712rc/leon3/mfix-gr712rc/soft/libbcc.a(isr.c.o)
 .text          0x0000000040002a1c        0x0 /home/fsw/rep/tasa/lib/bcc-2.2.3-gcc/bin/../sparc-gaisler-elf/bsp/gr712rc/leon3/mfix-gr712rc/soft/libbcc.a(int_nest.c.o)
 .text          0x0000000040002a1c        0x0 /home/fsw/rep/tasa/lib/bcc-2.2.3-gcc/bin/../sparc-gaisler-elf/bsp/gr712rc/leon3/mfix-gr712rc/soft/libbcc.a(int_irqmp_handle.c.o)
 .text          0x0000000040002a1c       0x1c /home/fsw/rep/tasa/lib/bcc-2.2.3-gcc/bin/../lib/gcc/sparc-gaisler-elf/10.2.0/../../../../sparc-gaisler-elf/lib/leon3/mfix-gr712rc/soft/libc.a(lib_a-atexit.o)
                0x0000000040002a1c                atexit
 .text          0x0000000040002a38       0x3c /home/fsw/rep/tasa/lib/bcc-2.2.3-gcc/bin/../lib/gcc/sparc-gaisler-elf/10.2.0/../../../../sparc-gaisler-elf/lib/leon3/mfix-gr712rc/soft/libc.a(lib_a-exit.o)
                0x0000000040002a38                exit
 .text          0x0000000040002a74        0x0 /home/fsw/rep/tasa/lib/bcc-2.2.3-gcc/bin/../lib/gcc/sparc-gaisler-elf/10.2.0/../../../../sparc-gaisler-elf/lib/leon3/mfix-gr712rc/soft/libc.a(lib_a-impure.o)
 .text          0x0000000040002a74      0x104 /home/fsw/rep/tasa/lib/bcc-2.2.3-gcc/bin/../lib/gcc/sparc-gaisler-elf/10.2.0/../../../../sparc-gaisler-elf/lib/leon3/mfix-gr712rc/soft/libc.a(lib_a-printf.o)
                0x0000000040002a74                _printf_r
                0x0000000040002af0                printf
 .text          0x0000000040002b78       0x88 /home/fsw/rep/tasa/lib/bcc-2.2.3-gcc/bin/../lib/gcc/sparc-gaisler-elf/10.2.0/../../../../sparc-gaisler-elf/lib/leon3/mfix-gr712rc/soft/libc.a(lib_a-putchar.o)
                0x0000000040002b78                _putchar_r
                0x0000000040002bb8                putchar
 .text          0x0000000040002c00      0x270 /home/fsw/rep/tasa/lib/bcc-2.2.3-gcc/bin/../lib/gcc/sparc-gaisler-elf/10.2.0/../../../../sparc-gaisler-elf/lib/leon3/mfix-gr712rc/soft/libc.a(lib_a-puts.o)
                0x0000000040002c00                _puts_r
                0x0000000040002d34                puts
 .text          0x0000000040002e70       0xa8 /home/fsw/rep/tasa/lib/bcc-2.2.3-gcc/bin/../lib/gcc/sparc-gaisler-elf/10.2.0/../../../../sparc-gaisler-elf/lib/leon3/mfix-gr712rc/soft/libc.a(lib_a-strlen.o)
                0x0000000040002e70                strlen
 .text          0x0000000040002f18     0x3030 /home/fsw/rep/tasa/lib/bcc-2.2.3-gcc/bin/../lib/gcc/sparc-gaisler-elf/10.2.0/../../../../sparc-gaisler-elf/lib/leon3/mfix-gr712rc/soft/libc.a(lib_a-vfprintf.o)
                0x0000000040003084                _vfprintf_r
                0x0000000040005e6c                vfprintf
 .text          0x0000000040005f48      0x1cc /home/fsw/rep/tasa/lib/bcc-2.2.3-gcc/bin/../lib/gcc/sparc-gaisler-elf/10.2.0/../../../../sparc-gaisler-elf/lib/leon3/mfix-gr712rc/soft/libc.a(lib_a-wsetup.o)
                0x0000000040005f48                __swsetup_r
 .text          0x0000000040006114      0x170 /home/fsw/rep/tasa/lib/bcc-2.2.3-gcc/bin/../lib/gcc/sparc-gaisler-elf/10.2.0/../../../../sparc-gaisler-elf/lib/leon3/mfix-gr712rc/soft/libc.a(lib_a-__atexit.o)
                0x0000000040006114                __register_exitproc
 .text          0x0000000040006284      0x2bc /home/fsw/rep/tasa/lib/bcc-2.2.3-gcc/bin/../lib/gcc/sparc-gaisler-elf/10.2.0/../../../../sparc-gaisler-elf/lib/leon3/mfix-gr712rc/soft/libc.a(lib_a-__call_atexit.o)
                0x0000000040006284                __call_exitprocs
 .text          0x0000000040006540     0x1938 /home/fsw/rep/tasa/lib/bcc-2.2.3-gcc/bin/../lib/gcc/sparc-gaisler-elf/10.2.0/../../../../sparc-gaisler-elf/lib/leon3/mfix-gr712rc/soft/libc.a(lib_a-dtoa.o)
                0x0000000040006734                _dtoa_r
 .text          0x0000000040007e78      0x3f0 /home/fsw/rep/tasa/lib/bcc-2.2.3-gcc/bin/../lib/gcc/sparc-gaisler-elf/10.2.0/../../../../sparc-gaisler-elf/lib/leon3/mfix-gr712rc/soft/libc.a(lib_a-fflush.o)
                0x0000000040007e78                __sflush_r
                0x00000000400080e8                _fflush_r
                0x0000000040008188                fflush
 .text          0x0000000040008268      0x394 /home/fsw/rep/tasa/lib/bcc-2.2.3-gcc/bin/../lib/gcc/sparc-gaisler-elf/10.2.0/../../../../sparc-gaisler-elf/lib/leon3/mfix-gr712rc/soft/libc.a(lib_a-findfp.o)
                0x0000000040008268                _cleanup_r
                0x000000004000827c                __sfmoreglue
                0x00000000400082c4                __sfp
                0x00000000400085bc                _cleanup
                0x00000000400085d8                __sinit
 .text          0x00000000400085fc      0x424 /home/fsw/rep/tasa/lib/bcc-2.2.3-gcc/bin/../lib/gcc/sparc-gaisler-elf/10.2.0/../../../../sparc-gaisler-elf/lib/leon3/mfix-gr712rc/soft/libc.a(lib_a-freer.o)
                0x00000000400085fc                _malloc_trim_r
                0x00000000400086f0                _free_r
 .text          0x0000000040008a20      0x50c /home/fsw/rep/tasa/lib/bcc-2.2.3-gcc/bin/../lib/gcc/sparc-gaisler-elf/10.2.0/../../../../sparc-gaisler-elf/lib/leon3/mfix-gr712rc/soft/libc.a(lib_a-fvwrite.o)
                0x0000000040008a20                __sfvwrite_r
 .text          0x0000000040008f2c       0xe0 /home/fsw/rep/tasa/lib/bcc-2.2.3-gcc/bin/../lib/gcc/sparc-gaisler-elf/10.2.0/../../../../sparc-gaisler-elf/lib/leon3/mfix-gr712rc/soft/libc.a(lib_a-fwalk.o)
                0x0000000040008f2c                _fwalk
                0x0000000040008f9c                _fwalk_reent
 .text          0x000000004000900c       0x60 /home/fsw/rep/tasa/lib/bcc-2.2.3-gcc/bin/../lib/gcc/sparc-gaisler-elf/10.2.0/../../../../sparc-gaisler-elf/lib/leon3/mfix-gr712rc/soft/libc.a(lib_a-localeconv.o)
                0x000000004000900c                __localeconv_l
                0x0000000040009014                _localeconv_r
                0x0000000040009040                localeconv
 .text          0x000000004000906c      0x1f8 /home/fsw/rep/tasa/lib/bcc-2.2.3-gcc/bin/../lib/gcc/sparc-gaisler-elf/10.2.0/../../../../sparc-gaisler-elf/lib/leon3/mfix-gr712rc/soft/libc.a(lib_a-makebuf.o)
                0x000000004000906c                __smakebuf_r
                0x00000000400091dc                __swhatbuf_r
 .text          0x0000000040009264       0x30 /home/fsw/rep/tasa/lib/bcc-2.2.3-gcc/bin/../lib/gcc/sparc-gaisler-elf/10.2.0/../../../../sparc-gaisler-elf/lib/leon3/mfix-gr712rc/soft/libc.a(lib_a-malloc.o)
                0x0000000040009264                malloc
                0x000000004000927c                free
 .text          0x0000000040009294      0x82c /home/fsw/rep/tasa/lib/bcc-2.2.3-gcc/bin/../lib/gcc/sparc-gaisler-elf/10.2.0/../../../../sparc-gaisler-elf/lib/leon3/mfix-gr712rc/soft/libc.a(lib_a-mallocr.o)
                0x0000000040009294                _malloc_r
 .text          0x0000000040009ac0       0xf8 /home/fsw/rep/tasa/lib/bcc-2.2.3-gcc/bin/../lib/gcc/sparc-gaisler-elf/10.2.0/../../../../sparc-gaisler-elf/lib/leon3/mfix-gr712rc/soft/libc.a(lib_a-memchr.o)
                0x0000000040009ac0                memchr
 .text          0x0000000040009bb8      0x1bc /home/fsw/rep/tasa/lib/bcc-2.2.3-gcc/bin/../lib/gcc/sparc-gaisler-elf/10.2.0/../../../../sparc-gaisler-elf/lib/leon3/mfix-gr712rc/soft/libc.a(lib_a-memcpy.o)
                0x0000000040009bb8                memcpy
 .text          0x0000000040009d74      0x210 /home/fsw/rep/tasa/lib/bcc-2.2.3-gcc/bin/../lib/gcc/sparc-gaisler-elf/10.2.0/../../../../sparc-gaisler-elf/lib/leon3/mfix-gr712rc/soft/libc.a(lib_a-memmove.o)
                0x0000000040009d74                memmove
 .text          0x0000000040009f84      0x134 /home/fsw/rep/tasa/lib/bcc-2.2.3-gcc/bin/../lib/gcc/sparc-gaisler-elf/10.2.0/../../../../sparc-gaisler-elf/lib/leon3/mfix-gr712rc/soft/libc.a(lib_a-memset.o)
                0x0000000040009f84                memset
 .text          0x000000004000a0b8       0x10 /home/fsw/rep/tasa/lib/bcc-2.2.3-gcc/bin/../lib/gcc/sparc-gaisler-elf/10.2.0/../../../../sparc-gaisler-elf/lib/leon3/mfix-gr712rc/soft/libc.a(lib_a-mlock.o)
                0x000000004000a0b8                __malloc_lock
                0x000000004000a0c0                __malloc_unlock
 .text          0x000000004000a0c8     0x16fc /home/fsw/rep/tasa/lib/bcc-2.2.3-gcc/bin/../lib/gcc/sparc-gaisler-elf/10.2.0/../../../../sparc-gaisler-elf/lib/leon3/mfix-gr712rc/soft/libc.a(lib_a-mprec.o)
                0x000000004000a0c8                _Balloc
                0x000000004000a19c                _Bfree
                0x000000004000a200                __multadd
                0x000000004000a318                __s2b
                0x000000004000a404                __hi0bits
                0x000000004000a494                __lo0bits
                0x000000004000a570                __i2b
                0x000000004000a660                __multiply
                0x000000004000a890                __pow5mult
                0x000000004000aa28                __lshift
                0x000000004000abf4                __mcmp
                0x000000004000ac5c                __mdiff
                0x000000004000ae7c                __ulp
                0x000000004000aee4                __b2d
                0x000000004000b078                __d2b
                0x000000004000b454                __ratio
                0x000000004000b65c                _mprec_log10
                0x000000004000b6bc                __copybits
                0x000000004000b740                __any_on
 .text          0x000000004000b7c4      0x1d0 /home/fsw/rep/tasa/lib/bcc-2.2.3-gcc/bin/../lib/gcc/sparc-gaisler-elf/10.2.0/../../../../sparc-gaisler-elf/lib/leon3/mfix-gr712rc/soft/libc.a(lib_a-putc.o)
                0x000000004000b7c4                _putc_r
                0x000000004000b8a4                putc
 .text          0x000000004000b994      0x548 /home/fsw/rep/tasa/lib/bcc-2.2.3-gcc/bin/../lib/gcc/sparc-gaisler-elf/10.2.0/../../../../sparc-gaisler-elf/lib/leon3/mfix-gr712rc/soft/libc.a(lib_a-reallocr.o)
                0x000000004000b994                _realloc_r
 .text          0x000000004000bedc       0x90 /home/fsw/rep/tasa/lib/bcc-2.2.3-gcc/bin/../lib/gcc/sparc-gaisler-elf/10.2.0/../../../../sparc-gaisler-elf/lib/leon3/mfix-gr712rc/soft/libc.a(lib_a-s_frexp.o)
                0x000000004000bedc                frexp
 .text          0x000000004000bf6c       0x40 /home/fsw/rep/tasa/lib/bcc-2.2.3-gcc/bin/../lib/gcc/sparc-gaisler-elf/10.2.0/../../../../sparc-gaisler-elf/lib/leon3/mfix-gr712rc/soft/libc.a(lib_a-sbrkr.o)
                0x000000004000bf6c                _sbrk_r
 .text          0x000000004000bfac      0x118 /home/fsw/rep/tasa/lib/bcc-2.2.3-gcc/bin/../lib/gcc/sparc-gaisler-elf/10.2.0/../../../../sparc-gaisler-elf/lib/leon3/mfix-gr712rc/soft/libc.a(lib_a-stdio.o)
                0x000000004000bfac                __sread
                0x000000004000bff8                __seofread
                0x000000004000c000                __swrite
                0x000000004000c05c                __sseek
                0x000000004000c0b4                __sclose
 .text          0x000000004000c0c4      0x1c0 /home/fsw/rep/tasa/lib/bcc-2.2.3-gcc/bin/../lib/gcc/sparc-gaisler-elf/10.2.0/../../../../sparc-gaisler-elf/lib/leon3/mfix-gr712rc/soft/libc.a(lib_a-strncpy.o)
                0x000000004000c0c4                strncpy
 .text          0x000000004000c284     0x1f74 /home/fsw/rep/tasa/lib/bcc-2.2.3-gcc/bin/../lib/gcc/sparc-gaisler-elf/10.2.0/../../../../sparc-gaisler-elf/lib/leon3/mfix-gr712rc/soft/libc.a(lib_a-vfiprintf.o)
                0x000000004000c3f0                __sprint_r
                0x000000004000c4bc                _vfiprintf_r
                0x000000004000e11c                vfiprintf
 .text          0x000000004000e1f8      0x35c /home/fsw/rep/tasa/lib/bcc-2.2.3-gcc/bin/../lib/gcc/sparc-gaisler-elf/10.2.0/../../../../sparc-gaisler-elf/lib/leon3/mfix-gr712rc/soft/libc.a(lib_a-wbuf.o)
                0x000000004000e1f8                __swbuf_r
                0x000000004000e3a0                __swbuf
 .text          0x000000004000e554       0x48 /home/fsw/rep/tasa/lib/bcc-2.2.3-gcc/bin/../lib/gcc/sparc-gaisler-elf/10.2.0/../../../../sparc-gaisler-elf/lib/leon3/mfix-gr712rc/soft/libc.a(lib_a-writer.o)
                0x000000004000e554                _write_r
 .text          0x000000004000e59c       0x98 /home/fsw/rep/tasa/lib/bcc-2.2.3-gcc/bin/../lib/gcc/sparc-gaisler-elf/10.2.0/../../../../sparc-gaisler-elf/lib/leon3/mfix-gr712rc/soft/libc.a(lib_a-callocr.o)
                0x000000004000e59c                _calloc_r
 .text          0x000000004000e634       0x40 /home/fsw/rep/tasa/lib/bcc-2.2.3-gcc/bin/../lib/gcc/sparc-gaisler-elf/10.2.0/../../../../sparc-gaisler-elf/lib/leon3/mfix-gr712rc/soft/libc.a(lib_a-closer.o)
                0x000000004000e634                _close_r
 .text          0x000000004000e674      0x294 /home/fsw/rep/tasa/lib/bcc-2.2.3-gcc/bin/../lib/gcc/sparc-gaisler-elf/10.2.0/../../../../sparc-gaisler-elf/lib/leon3/mfix-gr712rc/soft/libc.a(lib_a-fclose.o)
                0x000000004000e674                _fclose_r
                0x000000004000e7bc                fclose
 .text          0x000000004000e908      0x1e0 /home/fsw/rep/tasa/lib/bcc-2.2.3-gcc/bin/../lib/gcc/sparc-gaisler-elf/10.2.0/../../../../sparc-gaisler-elf/lib/leon3/mfix-gr712rc/soft/libc.a(lib_a-fputwc.o)
                0x000000004000e908                __fputwc
                0x000000004000e9fc                _fputwc_r
                0x000000004000ea2c                fputwc
 .text          0x000000004000eae8       0x44 /home/fsw/rep/tasa/lib/bcc-2.2.3-gcc/bin/../lib/gcc/sparc-gaisler-elf/10.2.0/../../../../sparc-gaisler-elf/lib/leon3/mfix-gr712rc/soft/libc.a(lib_a-fstatr.o)
                0x000000004000eae8                _fstat_r
 .text          0x000000004000eb2c       0x40 /home/fsw/rep/tasa/lib/bcc-2.2.3-gcc/bin/../lib/gcc/sparc-gaisler-elf/10.2.0/../../../../sparc-gaisler-elf/lib/leon3/mfix-gr712rc/soft/libc.a(lib_a-isattyr.o)
                0x000000004000eb2c                _isatty_r
 .text          0x000000004000eb6c      0x148 /home/fsw/rep/tasa/lib/bcc-2.2.3-gcc/bin/../lib/gcc/sparc-gaisler-elf/10.2.0/../../../../sparc-gaisler-elf/lib/leon3/mfix-gr712rc/soft/libc.a(lib_a-locale.o)
                0x000000004000eb6c                _setlocale_r
                0x000000004000ebe0                __locale_mb_cur_max
                0x000000004000ec0c                __locale_ctype_ptr_l
                0x000000004000ec14                __locale_ctype_ptr
                0x000000004000ec40                setlocale
 .text          0x000000004000ecb4       0x48 /home/fsw/rep/tasa/lib/bcc-2.2.3-gcc/bin/../lib/gcc/sparc-gaisler-elf/10.2.0/../../../../sparc-gaisler-elf/lib/leon3/mfix-gr712rc/soft/libc.a(lib_a-lseekr.o)
                0x000000004000ecb4                _lseek_r
 .text          0x000000004000ecfc       0xb8 /home/fsw/rep/tasa/lib/bcc-2.2.3-gcc/bin/../lib/gcc/sparc-gaisler-elf/10.2.0/../../../../sparc-gaisler-elf/lib/leon3/mfix-gr712rc/soft/libc.a(lib_a-mbtowc_r.o)
                0x000000004000ecfc                _mbtowc_r
                0x000000004000ed60                __ascii_mbtowc
 .text          0x000000004000edb4       0x48 /home/fsw/rep/tasa/lib/bcc-2.2.3-gcc/bin/../lib/gcc/sparc-gaisler-elf/10.2.0/../../../../sparc-gaisler-elf/lib/leon3/mfix-gr712rc/soft/libc.a(lib_a-readr.o)
                0x000000004000edb4                _read_r
 .text          0x000000004000edfc      0x31c /home/fsw/rep/tasa/lib/bcc-2.2.3-gcc/bin/../lib/gcc/sparc-gaisler-elf/10.2.0/../../../../sparc-gaisler-elf/lib/leon3/mfix-gr712rc/soft/libc.a(lib_a-reent.o)
                0x000000004000edfc                cleanup_glue
                0x000000004000ee74                _reclaim_reent
 .text          0x000000004000f118       0xc8 /home/fsw/rep/tasa/lib/bcc-2.2.3-gcc/bin/../lib/gcc/sparc-gaisler-elf/10.2.0/../../../../sparc-gaisler-elf/lib/leon3/mfix-gr712rc/soft/libc.a(lib_a-strcmp.o)
                0x000000004000f118                strcmp
 .text          0x000000004000f1e0      0x140 /home/fsw/rep/tasa/lib/bcc-2.2.3-gcc/bin/../lib/gcc/sparc-gaisler-elf/10.2.0/../../../../sparc-gaisler-elf/lib/leon3/mfix-gr712rc/soft/libc.a(lib_a-wcrtomb.o)
                0x000000004000f1e0                _wcrtomb_r
                0x000000004000f288                wcrtomb
 .text          0x000000004000f320       0x9c /home/fsw/rep/tasa/lib/bcc-2.2.3-gcc/bin/../lib/gcc/sparc-gaisler-elf/10.2.0/../../../../sparc-gaisler-elf/lib/leon3/mfix-gr712rc/soft/libc.a(lib_a-wctomb_r.o)
                0x000000004000f320                _wctomb_r
                0x000000004000f37c                __ascii_wctomb
 .text          0x000000004000f3bc        0x0 /home/fsw/rep/tasa/lib/bcc-2.2.3-gcc/bin/../lib/gcc/sparc-gaisler-elf/10.2.0/../../../../sparc-gaisler-elf/lib/leon3/mfix-gr712rc/soft/libc.a(lib_a-ctype_.o)
 .text          0x000000004000f3bc       0x10 /home/fsw/rep/tasa/lib/bcc-2.2.3-gcc/bin/../sparc-gaisler-elf/bsp/gr712rc/leon3/mfix-gr712rc/soft/libbcc.a(_exit.S.o)
                0x000000004000f3bc                _exit
 .text          0x000000004000f3cc       0x4c /home/fsw/rep/tasa/lib/bcc-2.2.3-gcc/bin/../sparc-gaisler-elf/bsp/gr712rc/leon3/mfix-gr712rc/soft/libbcc.a(read.c.o)
                0x000000004000f3cc                read
 .text          0x000000004000f418       0xb0 /home/fsw/rep/tasa/lib/bcc-2.2.3-gcc/bin/../sparc-gaisler-elf/bsp/gr712rc/leon3/mfix-gr712rc/soft/libbcc.a(sbrk.c.o)
                0x000000004000f418                sbrk
 .text          0x000000004000f4c8        0x0 /home/fsw/rep/tasa/lib/bcc-2.2.3-gcc/bin/../sparc-gaisler-elf/bsp/gr712rc/leon3/mfix-gr712rc/soft/libbcc.a(heap.c.o)
 .text          0x000000004000f4c8       0x64 /home/fsw/rep/tasa/lib/bcc-2.2.3-gcc/bin/../sparc-gaisler-elf/bsp/gr712rc/leon3/mfix-gr712rc/soft/libbcc.a(write.c.o)
                0x000000004000f4c8                write
 .text          0x000000004000f52c       0x20 /home/fsw/rep/tasa/lib/bcc-2.2.3-gcc/bin/../sparc-gaisler-elf/bsp/gr712rc/leon3/mfix-gr712rc/soft/libbcc.a(stubs.S.o)
                0x000000004000f52c                execve
                0x000000004000f52c                lseek
                0x000000004000f52c                fstat
                0x000000004000f52c                kill
                0x000000004000f52c                wait
                0x000000004000f52c                unlink
                0x000000004000f52c                fork
                0x000000004000f52c                stat
                0x000000004000f52c                link
                0x000000004000f52c                open
                0x000000004000f52c                close
                0x000000004000f544                getpid
                0x000000004000f544                isatty
 .text          0x000000004000f54c       0xc4 /home/fsw/rep/tasa/lib/bcc-2.2.3-gcc/bin/../sparc-gaisler-elf/bsp/gr712rc/leon3/mfix-gr712rc/soft/libbcc.a(con_apbuart.c.o)
                0x000000004000f54c                __bcc_con_outbyte
                0x000000004000f5dc                __bcc_con_inbyte
 .text          0x000000004000f610        0x0 /home/fsw/rep/tasa/lib/bcc-2.2.3-gcc/bin/../sparc-gaisler-elf/bsp/gr712rc/leon3/mfix-gr712rc/soft/libbcc.a(con_handle.c.o)
 .text          0x000000004000f610      0x1d0 /home/fsw/rep/tasa/lib/bcc-2.2.3-gcc/bin/../lib/gcc/sparc-gaisler-elf/10.2.0/leon3/mfix-gr712rc/soft/libgcc.a(_udivdi3.o)
                0x000000004000f610                __udivdi3
 .text          0x000000004000f7e0      0x1fc /home/fsw/rep/tasa/lib/bcc-2.2.3-gcc/bin/../lib/gcc/sparc-gaisler-elf/10.2.0/leon3/mfix-gr712rc/soft/libgcc.a(_umoddi3.o)
                0x000000004000f7e0                __umoddi3
 .text          0x000000004000f9dc      0x77c /home/fsw/rep/tasa/lib/bcc-2.2.3-gcc/bin/../lib/gcc/sparc-gaisler-elf/10.2.0/leon3/mfix-gr712rc/soft/libgcc.a(_addsub_df.o)
                0x000000004000f9dc                __adddf3
                0x000000004000fd9c                __subdf3
 .text          0x0000000040010158      0x2dc /home/fsw/rep/tasa/lib/bcc-2.2.3-gcc/bin/../lib/gcc/sparc-gaisler-elf/10.2.0/leon3/mfix-gr712rc/soft/libgcc.a(_mul_df.o)
                0x0000000040010158                __muldf3
 .text          0x0000000040010434      0x200 /home/fsw/rep/tasa/lib/bcc-2.2.3-gcc/bin/../lib/gcc/sparc-gaisler-elf/10.2.0/leon3/mfix-gr712rc/soft/libgcc.a(_div_df.o)
                0x0000000040010434                __divdf3
 .text          0x0000000040010634       0x5c /home/fsw/rep/tasa/lib/bcc-2.2.3-gcc/bin/../lib/gcc/sparc-gaisler-elf/10.2.0/leon3/mfix-gr712rc/soft/libgcc.a(_eq_df.o)
                0x0000000040010634                __eqdf2
 .text          0x0000000040010690       0x5c /home/fsw/rep/tasa/lib/bcc-2.2.3-gcc/bin/../lib/gcc/sparc-gaisler-elf/10.2.0/leon3/mfix-gr712rc/soft/libgcc.a(_ne_df.o)
                0x0000000040010690                __nedf2
 .text          0x00000000400106ec       0x5c /home/fsw/rep/tasa/lib/bcc-2.2.3-gcc/bin/../lib/gcc/sparc-gaisler-elf/10.2.0/leon3/mfix-gr712rc/soft/libgcc.a(_gt_df.o)
                0x00000000400106ec                __gtdf2
 .text          0x0000000040010748       0x5c /home/fsw/rep/tasa/lib/bcc-2.2.3-gcc/bin/../lib/gcc/sparc-gaisler-elf/10.2.0/leon3/mfix-gr712rc/soft/libgcc.a(_lt_df.o)
                0x0000000040010748                __ltdf2
 .text          0x00000000400107a4       0x5c /home/fsw/rep/tasa/lib/bcc-2.2.3-gcc/bin/../lib/gcc/sparc-gaisler-elf/10.2.0/leon3/mfix-gr712rc/soft/libgcc.a(_le_df.o)
                0x00000000400107a4                __ledf2
 .text          0x0000000040010800       0x50 /home/fsw/rep/tasa/lib/bcc-2.2.3-gcc/bin/../lib/gcc/sparc-gaisler-elf/10.2.0/leon3/mfix-gr712rc/soft/libgcc.a(_unord_df.o)
                0x0000000040010800                __unorddf2
 .text          0x0000000040010850       0xdc /home/fsw/rep/tasa/lib/bcc-2.2.3-gcc/bin/../lib/gcc/sparc-gaisler-elf/10.2.0/leon3/mfix-gr712rc/soft/libgcc.a(_si_to_df.o)
                0x0000000040010850                __floatsidf
 .text          0x000000004001092c       0xc8 /home/fsw/rep/tasa/lib/bcc-2.2.3-gcc/bin/../lib/gcc/sparc-gaisler-elf/10.2.0/leon3/mfix-gr712rc/soft/libgcc.a(_df_to_si.o)
                0x000000004001092c                __fixdfsi
 .text          0x00000000400109f4        0x0 /home/fsw/rep/tasa/lib/bcc-2.2.3-gcc/bin/../lib/gcc/sparc-gaisler-elf/10.2.0/leon3/mfix-gr712rc/soft/libgcc.a(_thenan_df.o)
 .text          0x00000000400109f4       0x80 /home/fsw/rep/tasa/lib/bcc-2.2.3-gcc/bin/../lib/gcc/sparc-gaisler-elf/10.2.0/leon3/mfix-gr712rc/soft/libgcc.a(_usi_to_df.o)
                0x00000000400109f4                __floatunsidf
 .text          0x0000000040010a74        0x0 /home/fsw/rep/tasa/lib/bcc-2.2.3-gcc/bin/../lib/gcc/sparc-gaisler-elf/10.2.0/leon3/mfix-gr712rc/soft/libgcc.a(_clz.o)
 .text          0x0000000040010a74       0x94 /home/fsw/rep/tasa/lib/bcc-2.2.3-gcc/bin/../lib/gcc/sparc-gaisler-elf/10.2.0/leon3/mfix-gr712rc/soft/libgcc.a(_clzsi2.o)
                0x0000000040010a74                __clzsi2
 .text          0x0000000040010b08      0x244 /home/fsw/rep/tasa/lib/bcc-2.2.3-gcc/bin/../lib/gcc/sparc-gaisler-elf/10.2.0/leon3/mfix-gr712rc/soft/libgcc.a(_pack_df.o)
                0x0000000040010b08                __pack_d
 .text          0x0000000040010d4c      0x124 /home/fsw/rep/tasa/lib/bcc-2.2.3-gcc/bin/../lib/gcc/sparc-gaisler-elf/10.2.0/leon3/mfix-gr712rc/soft/libgcc.a(_unpack_df.o)
                0x0000000040010d4c                __unpack_d
 .text          0x0000000040010e70      0x158 /home/fsw/rep/tasa/lib/bcc-2.2.3-gcc/bin/../lib/gcc/sparc-gaisler-elf/10.2.0/leon3/mfix-gr712rc/soft/libgcc.a(_fpcmp_parts_df.o)
                0x0000000040010e70                __fpcmp_parts_d
 .text          0x0000000040010fc8       0x48 /home/fsw/rep/tasa/lib/bcc-2.2.3-gcc/bin/../lib/gcc/sparc-gaisler-elf/10.2.0/leon3/mfix-gr712rc/soft/crtend.o
 .text          0x0000000040011010        0x0 /home/fsw/rep/tasa/lib/bcc-2.2.3-gcc/bin/../lib/gcc/sparc-gaisler-elf/10.2.0/leon3/mfix-gr712rc/soft/crtn.o
                0x0000000040011010                . = ALIGN (0x10)
 *(.eh_frame)
 .eh_frame      0x0000000040011010        0x0 /home/fsw/rep/tasa/lib/bcc-2.2.3-gcc/bin/../lib/gcc/sparc-gaisler-elf/10.2.0/leon3/mfix-gr712rc/soft/crtbegin.o
 .eh_frame      0x0000000040011010       0x28 /home/fsw/rep/tasa/lib/bcc-2.2.3-gcc/bin/../lib/gcc/sparc-gaisler-elf/10.2.0/leon3/mfix-gr712rc/soft/libgcc.a(_udivdi3.o)
 .eh_frame      0x0000000040011038       0x2c /home/fsw/rep/tasa/lib/bcc-2.2.3-gcc/bin/../lib/gcc/sparc-gaisler-elf/10.2.0/leon3/mfix-gr712rc/soft/libgcc.a(_umoddi3.o)
 .eh_frame      0x0000000040011064        0x4 /home/fsw/rep/tasa/lib/bcc-2.2.3-gcc/bin/../lib/gcc/sparc-gaisler-elf/10.2.0/leon3/mfix-gr712rc/soft/crtend.o
                0x0000000040011070                . = ALIGN (0x10)
 *fill*         0x0000000040011068        0x8 
 *(.gnu.linkonce.t*)
                0x0000000040011070                ___CTOR_LIST__ = .
                0x0000000040011070        0x4 LONG 0x2 (((___CTOR_END__ - ___CTOR_LIST__) / 0x4) - 0x2)
 *(SORT_BY_NAME(.ctors.*))
 *(.ctors)
 .ctors         0x0000000040011074        0x4 /home/fsw/rep/tasa/lib/bcc-2.2.3-gcc/bin/../lib/gcc/sparc-gaisler-elf/10.2.0/leon3/mfix-gr712rc/soft/crtbegin.o
 .ctors         0x0000000040011078        0x4 /home/fsw/rep/tasa/lib/bcc-2.2.3-gcc/bin/../lib/gcc/sparc-gaisler-elf/10.2.0/leon3/mfix-gr712rc/soft/crtend.o
                0x000000004001107c        0x4 LONG 0x0
                0x0000000040011080                ___CTOR_END__ = .
                0x0000000040011080                ___DTOR_LIST__ = .
                0x0000000040011080        0x4 LONG 0x2 (((___DTOR_END__ - ___DTOR_LIST__) / 0x4) - 0x2)
 *(SORT_BY_NAME(.dtors.*))
 *(.dtors)
 .dtors         0x0000000040011084        0x4 /home/fsw/rep/tasa/lib/bcc-2.2.3-gcc/bin/../lib/gcc/sparc-gaisler-elf/10.2.0/leon3/mfix-gr712rc/soft/crtbegin.o
 .dtors         0x0000000040011088        0x4 /home/fsw/rep/tasa/lib/bcc-2.2.3-gcc/bin/../lib/gcc/sparc-gaisler-elf/10.2.0/leon3/mfix-gr712rc/soft/crtend.o
                0x0000000040011088                __DTOR_END__
                0x000000004001108c        0x4 LONG 0x0
                0x0000000040011090                ___DTOR_END__ = .
 *(.gnu.linkonce*)
 *(.init)
 .init          0x0000000040011090        0x4 /home/fsw/rep/tasa/lib/bcc-2.2.3-gcc/bin/../lib/gcc/sparc-gaisler-elf/10.2.0/leon3/mfix-gr712rc/soft/crti.o
                0x0000000040011090                _init
 .init          0x0000000040011094        0x8 /home/fsw/rep/tasa/lib/bcc-2.2.3-gcc/bin/../lib/gcc/sparc-gaisler-elf/10.2.0/leon3/mfix-gr712rc/soft/crtbegin.o
 .init          0x000000004001109c        0x8 /home/fsw/rep/tasa/lib/bcc-2.2.3-gcc/bin/../lib/gcc/sparc-gaisler-elf/10.2.0/leon3/mfix-gr712rc/soft/crtend.o
 .init          0x00000000400110a4        0xc /home/fsw/rep/tasa/lib/bcc-2.2.3-gcc/bin/../lib/gcc/sparc-gaisler-elf/10.2.0/leon3/mfix-gr712rc/soft/crtn.o
 *(.fini)
 .fini          0x00000000400110b0        0x4 /home/fsw/rep/tasa/lib/bcc-2.2.3-gcc/bin/../lib/gcc/sparc-gaisler-elf/10.2.0/leon3/mfix-gr712rc/soft/crti.o
                0x00000000400110b0                _fini
 .fini          0x00000000400110b4        0x8 /home/fsw/rep/tasa/lib/bcc-2.2.3-gcc/bin/../lib/gcc/sparc-gaisler-elf/10.2.0/leon3/mfix-gr712rc/soft/crtbegin.o
 .fini          0x00000000400110bc        0xc /home/fsw/rep/tasa/lib/bcc-2.2.3-gcc/bin/../lib/gcc/sparc-gaisler-elf/10.2.0/leon3/mfix-gr712rc/soft/crtn.o
 *(.lit)
 *(.shdata)
                0x00000000400110d0                . = ALIGN (0x10)
 *fill*         0x00000000400110c8        0x8 
                0x00000000400110d0                __text_end = .

.gcc_except_table
 *(.gcc_except_table.*)

.rodata         0x00000000400110d0      0x780
                0x00000000400110d0                __rodata_start = .
 *(.rodata*)
 .rodata.str1.8
                0x00000000400110d0       0xff /tmp/ccucSNOv.o
 *fill*         0x00000000400111cf        0x1 
 .rodata        0x00000000400111d0        0x5 /tmp/ccucSNOv.o
 *fill*         0x00000000400111d5        0x3 
 .rodata        0x00000000400111d8        0x4 /home/fsw/rep/tasa/lib/bcc-2.2.3-gcc/bin/../lib/gcc/sparc-gaisler-elf/10.2.0/../../../../sparc-gaisler-elf/lib/leon3/mfix-gr712rc/soft/libc.a(lib_a-impure.o)
                0x00000000400111d8                _global_impure_ptr
 *fill*         0x00000000400111dc        0x4 
 .rodata.str1.8
                0x00000000400111e0        0x2 /home/fsw/rep/tasa/lib/bcc-2.2.3-gcc/bin/../lib/gcc/sparc-gaisler-elf/10.2.0/../../../../sparc-gaisler-elf/lib/leon3/mfix-gr712rc/soft/libc.a(lib_a-puts.o)
 *fill*         0x00000000400111e2        0x6 
 .rodata.str1.8
                0x00000000400111e8       0x5a /home/fsw/rep/tasa/lib/bcc-2.2.3-gcc/bin/../lib/gcc/sparc-gaisler-elf/10.2.0/../../../../sparc-gaisler-elf/lib/leon3/mfix-gr712rc/soft/libc.a(lib_a-vfprintf.o)
 *fill*         0x0000000040011242        0x6 
 .rodata.cst8   0x0000000040011248       0x18 /home/fsw/rep/tasa/lib/bcc-2.2.3-gcc/bin/../lib/gcc/sparc-gaisler-elf/10.2.0/../../../../sparc-gaisler-elf/lib/leon3/mfix-gr712rc/soft/libc.a(lib_a-vfprintf.o)
 .rodata        0x0000000040011260       0x20 /home/fsw/rep/tasa/lib/bcc-2.2.3-gcc/bin/../lib/gcc/sparc-gaisler-elf/10.2.0/../../../../sparc-gaisler-elf/lib/leon3/mfix-gr712rc/soft/libc.a(lib_a-vfprintf.o)
 .rodata.str1.8
                0x0000000040011280       0x14 /home/fsw/rep/tasa/lib/bcc-2.2.3-gcc/bin/../lib/gcc/sparc-gaisler-elf/10.2.0/../../../../sparc-gaisler-elf/lib/leon3/mfix-gr712rc/soft/libc.a(lib_a-dtoa.o)
                                         0x1a (size before relaxing)
 *fill*         0x0000000040011294        0x4 
 .rodata.cst8   0x0000000040011298       0x48 /home/fsw/rep/tasa/lib/bcc-2.2.3-gcc/bin/../lib/gcc/sparc-gaisler-elf/10.2.0/../../../../sparc-gaisler-elf/lib/leon3/mfix-gr712rc/soft/libc.a(lib_a-dtoa.o)
 .rodata        0x00000000400112e0       0x60 /home/fsw/rep/tasa/lib/bcc-2.2.3-gcc/bin/../lib/gcc/sparc-gaisler-elf/10.2.0/../../../../sparc-gaisler-elf/lib/leon3/mfix-gr712rc/soft/libc.a(lib_a-findfp.o)
                0x00000000400112e0                __sf_fake_stderr
                0x0000000040011300                __sf_fake_stdout
                0x0000000040011320                __sf_fake_stdin
 .rodata.cst8   0x0000000040011340       0x10 /home/fsw/rep/tasa/lib/bcc-2.2.3-gcc/bin/../lib/gcc/sparc-gaisler-elf/10.2.0/../../../../sparc-gaisler-elf/lib/leon3/mfix-gr712rc/soft/libc.a(lib_a-mprec.o)
 .rodata        0x0000000040011340      0x128 /home/fsw/rep/tasa/lib/bcc-2.2.3-gcc/bin/../lib/gcc/sparc-gaisler-elf/10.2.0/../../../../sparc-gaisler-elf/lib/leon3/mfix-gr712rc/soft/libc.a(lib_a-mprec.o)
                0x0000000040011350                __mprec_tinytens
                0x0000000040011378                __mprec_bigtens
                0x00000000400113a0                __mprec_tens
 .rodata.cst8   0x0000000040011468        0x8 /home/fsw/rep/tasa/lib/bcc-2.2.3-gcc/bin/../lib/gcc/sparc-gaisler-elf/10.2.0/../../../../sparc-gaisler-elf/lib/leon3/mfix-gr712rc/soft/libc.a(lib_a-s_frexp.o)
 .rodata.str1.8
                0x0000000040011470       0x37 /home/fsw/rep/tasa/lib/bcc-2.2.3-gcc/bin/../lib/gcc/sparc-gaisler-elf/10.2.0/../../../../sparc-gaisler-elf/lib/leon3/mfix-gr712rc/soft/libc.a(lib_a-vfiprintf.o)
 .rodata        0x0000000040011470       0x20 /home/fsw/rep/tasa/lib/bcc-2.2.3-gcc/bin/../lib/gcc/sparc-gaisler-elf/10.2.0/../../../../sparc-gaisler-elf/lib/leon3/mfix-gr712rc/soft/libc.a(lib_a-vfiprintf.o)
 .rodata.str1.8
                0x0000000040011490       0x12 /home/fsw/rep/tasa/lib/bcc-2.2.3-gcc/bin/../lib/gcc/sparc-gaisler-elf/10.2.0/../../../../sparc-gaisler-elf/lib/leon3/mfix-gr712rc/soft/libc.a(lib_a-locale.o)
                                         0x1a (size before relaxing)
 *fill*         0x00000000400114a2        0x6 
 .rodata        0x00000000400114a8      0x288 /home/fsw/rep/tasa/lib/bcc-2.2.3-gcc/bin/../lib/gcc/sparc-gaisler-elf/10.2.0/../../../../sparc-gaisler-elf/lib/leon3/mfix-gr712rc/soft/libc.a(lib_a-ctype_.o)
                0x00000000400114a8                _ctype_
                0x00000000400115b0                _ctype_b
 .rodata.cst8   0x0000000040011730        0x8 /home/fsw/rep/tasa/lib/bcc-2.2.3-gcc/bin/../lib/gcc/sparc-gaisler-elf/10.2.0/leon3/mfix-gr712rc/soft/libgcc.a(_si_to_df.o)
 .rodata        0x0000000040011738       0x18 /home/fsw/rep/tasa/lib/bcc-2.2.3-gcc/bin/../lib/gcc/sparc-gaisler-elf/10.2.0/leon3/mfix-gr712rc/soft/libgcc.a(_thenan_df.o)
                0x0000000040011738                __thenan_df
 .rodata        0x0000000040011750      0x100 /home/fsw/rep/tasa/lib/bcc-2.2.3-gcc/bin/../lib/gcc/sparc-gaisler-elf/10.2.0/leon3/mfix-gr712rc/soft/libgcc.a(_clz.o)
                0x0000000040011750                __clz_tab
 *(.gnu.linkonce.r*)
                0x0000000040011850                . = ALIGN (0x10)
                0x0000000040011850                __rodata_end = .

.rela.dyn       0x0000000040011850        0x0
 .rela.iplt     0x0000000040011850        0x0 /home/fsw/rep/tasa/lib/bcc-2.2.3-gcc/bin/../sparc-gaisler-elf/bsp/gr712rc/leon3/mfix-gr712rc/soft/trap_table_mvt_tn0018.S.o
 .rela.text.traptable
                0x0000000040011850        0x0 /home/fsw/rep/tasa/lib/bcc-2.2.3-gcc/bin/../sparc-gaisler-elf/bsp/gr712rc/leon3/mfix-gr712rc/soft/trap_table_mvt_tn0018.S.o
 .rela.text     0x0000000040011850        0x0 /home/fsw/rep/tasa/lib/bcc-2.2.3-gcc/bin/../sparc-gaisler-elf/bsp/gr712rc/leon3/mfix-gr712rc/soft/trap_table_mvt_tn0018.S.o

.ext.data       0x0000000040011850        0x0
                0x0000000040011850                . = ALIGN (0x8)
                0x0000000040011850                __extdata_start = .
 *(.data.ext)
                0x0000000040011850                . = ALIGN (0x8)
                0x0000000040011850                __extdata_end = .
                0x0000000040011850                __extdata_start_lma = LOADADDR (.ext.data)
                0x0000000000000000                __extdata_size = SIZEOF (.ext.data)

.data           0x0000000040011850      0x618
                0x0000000040011850                . = ALIGN (0x8)
                0x0000000040011850                __data_start = .
 *(.data .data.*)
 .data          0x0000000040011850        0x0 /home/fsw/rep/tasa/lib/bcc-2.2.3-gcc/bin/../sparc-gaisler-elf/bsp/gr712rc/leon3/mfix-gr712rc/soft/trap_table_mvt_tn0018.S.o
 .data          0x0000000040011850        0x0 /home/fsw/rep/tasa/lib/bcc-2.2.3-gcc/bin/../sparc-gaisler-elf/bsp/gr712rc/leon3/mfix-gr712rc/soft/crt0.S.o
 .data          0x0000000040011850        0x0 /home/fsw/rep/tasa/lib/bcc-2.2.3-gcc/bin/../lib/gcc/sparc-gaisler-elf/10.2.0/leon3/mfix-gr712rc/soft/crti.o
 .data          0x0000000040011850        0x4 /home/fsw/rep/tasa/lib/bcc-2.2.3-gcc/bin/../lib/gcc/sparc-gaisler-elf/10.2.0/leon3/mfix-gr712rc/soft/crtbegin.o
                0x0000000040011850                __dso_handle
 .data          0x0000000040011854        0x0 /tmp/ccucSNOv.o
 .data          0x0000000040011854        0x0 /home/fsw/rep/tasa/lib/bcc-2.2.3-gcc/bin/../sparc-gaisler-elf/bsp/gr712rc/leon3/mfix-gr712rc/soft/libbcc.a(reset_trap_mvt.S.o)
 .data          0x0000000040011854        0x0 /home/fsw/rep/tasa/lib/bcc-2.2.3-gcc/bin/../sparc-gaisler-elf/bsp/gr712rc/leon3/mfix-gr712rc/soft/libbcc.a(window_trap.S.o)
 .data          0x0000000040011854        0x0 /home/fsw/rep/tasa/lib/bcc-2.2.3-gcc/bin/../sparc-gaisler-elf/bsp/gr712rc/leon3/mfix-gr712rc/soft/libbcc.a(flush_windows_trap.S.o)
 .data          0x0000000040011854        0x0 /home/fsw/rep/tasa/lib/bcc-2.2.3-gcc/bin/../sparc-gaisler-elf/bsp/gr712rc/leon3/mfix-gr712rc/soft/libbcc.a(sw_trap_set_pil.S.o)
 .data          0x0000000040011854        0x0 /home/fsw/rep/tasa/lib/bcc-2.2.3-gcc/bin/../sparc-gaisler-elf/bsp/gr712rc/leon3/mfix-gr712rc/soft/libbcc.a(init.S.o)
 .data          0x0000000040011854       0x10 /home/fsw/rep/tasa/lib/bcc-2.2.3-gcc/bin/../sparc-gaisler-elf/bsp/gr712rc/leon3/mfix-gr712rc/soft/libbcc.a(leon_info.S.o)
                0x0000000040011854                __bcc_leon_version
                0x0000000040011858                __bcc_nwindows_min1
                0x000000004001185c                __bcc_nwindows
                0x0000000040011860                __bcc_cpuid
 .data          0x0000000040011864        0x0 /home/fsw/rep/tasa/lib/bcc-2.2.3-gcc/bin/../sparc-gaisler-elf/bsp/gr712rc/leon3/mfix-gr712rc/soft/libbcc.a(dwzero.S.o)
 .data          0x0000000040011864        0x0 /home/fsw/rep/tasa/lib/bcc-2.2.3-gcc/bin/../sparc-gaisler-elf/bsp/gr712rc/leon3/mfix-gr712rc/soft/libbcc.a(copy_data.c.o)
 .data          0x0000000040011864        0x4 /home/fsw/rep/tasa/lib/bcc-2.2.3-gcc/bin/../sparc-gaisler-elf/bsp/gr712rc/leon3/mfix-gr712rc/soft/libbcc.a(argv.c.o)
                0x0000000040011864                __bcc_argvp
 .data          0x0000000040011868        0x0 /home/fsw/rep/tasa/lib/bcc-2.2.3-gcc/bin/../sparc-gaisler-elf/bsp/gr712rc/leon3/mfix-gr712rc/soft/libbcc.a(interrupt_trap_tn0018.S.o)
 .data          0x0000000040011868        0x0 /home/fsw/rep/tasa/lib/bcc-2.2.3-gcc/bin/../sparc-gaisler-elf/bsp/gr712rc/leon3/mfix-gr712rc/soft/libbcc.a(int_irqmp_get_source.c.o)
 .data          0x0000000040011868        0x0 /home/fsw/rep/tasa/lib/bcc-2.2.3-gcc/bin/../sparc-gaisler-elf/bsp/gr712rc/leon3/mfix-gr712rc/soft/libbcc.a(int_irqmp_mp.c.o)
 .data          0x0000000040011868        0x0 /home/fsw/rep/tasa/lib/bcc-2.2.3-gcc/bin/../sparc-gaisler-elf/bsp/gr712rc/leon3/mfix-gr712rc/soft/libbcc.a(int_irqmp_init.c.o)
 .data          0x0000000040011868        0x0 /home/fsw/rep/tasa/lib/bcc-2.2.3-gcc/bin/../sparc-gaisler-elf/bsp/gr712rc/leon3/mfix-gr712rc/soft/libbcc.a(con_apbuart_init.c.o)
 .data          0x0000000040011868        0x0 /home/fsw/rep/tasa/lib/bcc-2.2.3-gcc/bin/../sparc-gaisler-elf/bsp/gr712rc/leon3/mfix-gr712rc/soft/libbcc.a(timer_gptimer_init.c.o)
 .data          0x0000000040011868        0x0 /home/fsw/rep/tasa/lib/bcc-2.2.3-gcc/bin/../sparc-gaisler-elf/bsp/gr712rc/leon3/mfix-gr712rc/soft/libbcc.a(isr.c.o)
 .data          0x0000000040011868       0x10 /home/fsw/rep/tasa/lib/bcc-2.2.3-gcc/bin/../sparc-gaisler-elf/bsp/gr712rc/leon3/mfix-gr712rc/soft/libbcc.a(int_nest.c.o)
                0x0000000040011868                __bcc_int_nest
 .data          0x0000000040011878        0x8 /home/fsw/rep/tasa/lib/bcc-2.2.3-gcc/bin/../sparc-gaisler-elf/bsp/gr712rc/leon3/mfix-gr712rc/soft/libbcc.a(int_irqmp_handle.c.o)
                0x0000000040011878                __bcc_int_irqmp_eirq
                0x000000004001187c                __bcc_int_handle
 .data          0x0000000040011880        0x0 /home/fsw/rep/tasa/lib/bcc-2.2.3-gcc/bin/../lib/gcc/sparc-gaisler-elf/10.2.0/../../../../sparc-gaisler-elf/lib/leon3/mfix-gr712rc/soft/libc.a(lib_a-atexit.o)
 .data          0x0000000040011880        0x0 /home/fsw/rep/tasa/lib/bcc-2.2.3-gcc/bin/../lib/gcc/sparc-gaisler-elf/10.2.0/../../../../sparc-gaisler-elf/lib/leon3/mfix-gr712rc/soft/libc.a(lib_a-exit.o)
 .data          0x0000000040011880       0x64 /home/fsw/rep/tasa/lib/bcc-2.2.3-gcc/bin/../lib/gcc/sparc-gaisler-elf/10.2.0/../../../../sparc-gaisler-elf/lib/leon3/mfix-gr712rc/soft/libc.a(lib_a-impure.o)
                0x0000000040011880                _impure_ptr
 .data          0x00000000400118e4        0x0 /home/fsw/rep/tasa/lib/bcc-2.2.3-gcc/bin/../lib/gcc/sparc-gaisler-elf/10.2.0/../../../../sparc-gaisler-elf/lib/leon3/mfix-gr712rc/soft/libc.a(lib_a-printf.o)
 .data          0x00000000400118e4        0x0 /home/fsw/rep/tasa/lib/bcc-2.2.3-gcc/bin/../lib/gcc/sparc-gaisler-elf/10.2.0/../../../../sparc-gaisler-elf/lib/leon3/mfix-gr712rc/soft/libc.a(lib_a-putchar.o)
 .data          0x00000000400118e4        0x0 /home/fsw/rep/tasa/lib/bcc-2.2.3-gcc/bin/../lib/gcc/sparc-gaisler-elf/10.2.0/../../../../sparc-gaisler-elf/lib/leon3/mfix-gr712rc/soft/libc.a(lib_a-puts.o)
 .data          0x00000000400118e4        0x0 /home/fsw/rep/tasa/lib/bcc-2.2.3-gcc/bin/../lib/gcc/sparc-gaisler-elf/10.2.0/../../../../sparc-gaisler-elf/lib/leon3/mfix-gr712rc/soft/libc.a(lib_a-strlen.o)
 .data          0x00000000400118e4        0x0 /home/fsw/rep/tasa/lib/bcc-2.2.3-gcc/bin/../lib/gcc/sparc-gaisler-elf/10.2.0/../../../../sparc-gaisler-elf/lib/leon3/mfix-gr712rc/soft/libc.a(lib_a-vfprintf.o)
 .data          0x00000000400118e4        0x0 /home/fsw/rep/tasa/lib/bcc-2.2.3-gcc/bin/../lib/gcc/sparc-gaisler-elf/10.2.0/../../../../sparc-gaisler-elf/lib/leon3/mfix-gr712rc/soft/libc.a(lib_a-wsetup.o)
 .data          0x00000000400118e4        0x0 /home/fsw/rep/tasa/lib/bcc-2.2.3-gcc/bin/../lib/gcc/sparc-gaisler-elf/10.2.0/../../../../sparc-gaisler-elf/lib/leon3/mfix-gr712rc/soft/libc.a(lib_a-__atexit.o)
 .data          0x00000000400118e4        0x0 /home/fsw/rep/tasa/lib/bcc-2.2.3-gcc/bin/../lib/gcc/sparc-gaisler-elf/10.2.0/../../../../sparc-gaisler-elf/lib/leon3/mfix-gr712rc/soft/libc.a(lib_a-__call_atexit.o)
 .data          0x00000000400118e4        0x0 /home/fsw/rep/tasa/lib/bcc-2.2.3-gcc/bin/../lib/gcc/sparc-gaisler-elf/10.2.0/../../../../sparc-gaisler-elf/lib/leon3/mfix-gr712rc/soft/libc.a(lib_a-dtoa.o)
 .data          0x00000000400118e4        0x0 /home/fsw/rep/tasa/lib/bcc-2.2.3-gcc/bin/../lib/gcc/sparc-gaisler-elf/10.2.0/../../../../sparc-gaisler-elf/lib/leon3/mfix-gr712rc/soft/libc.a(lib_a-fflush.o)
 .data          0x00000000400118e4        0x0 /home/fsw/rep/tasa/lib/bcc-2.2.3-gcc/bin/../lib/gcc/sparc-gaisler-elf/10.2.0/../../../../sparc-gaisler-elf/lib/leon3/mfix-gr712rc/soft/libc.a(lib_a-findfp.o)
 .data          0x00000000400118e4        0x0 /home/fsw/rep/tasa/lib/bcc-2.2.3-gcc/bin/../lib/gcc/sparc-gaisler-elf/10.2.0/../../../../sparc-gaisler-elf/lib/leon3/mfix-gr712rc/soft/libc.a(lib_a-freer.o)
 .data          0x00000000400118e4        0x0 /home/fsw/rep/tasa/lib/bcc-2.2.3-gcc/bin/../lib/gcc/sparc-gaisler-elf/10.2.0/../../../../sparc-gaisler-elf/lib/leon3/mfix-gr712rc/soft/libc.a(lib_a-fvwrite.o)
 .data          0x00000000400118e4        0x0 /home/fsw/rep/tasa/lib/bcc-2.2.3-gcc/bin/../lib/gcc/sparc-gaisler-elf/10.2.0/../../../../sparc-gaisler-elf/lib/leon3/mfix-gr712rc/soft/libc.a(lib_a-fwalk.o)
 .data          0x00000000400118e4        0x0 /home/fsw/rep/tasa/lib/bcc-2.2.3-gcc/bin/../lib/gcc/sparc-gaisler-elf/10.2.0/../../../../sparc-gaisler-elf/lib/leon3/mfix-gr712rc/soft/libc.a(lib_a-localeconv.o)
 .data          0x00000000400118e4        0x0 /home/fsw/rep/tasa/lib/bcc-2.2.3-gcc/bin/../lib/gcc/sparc-gaisler-elf/10.2.0/../../../../sparc-gaisler-elf/lib/leon3/mfix-gr712rc/soft/libc.a(lib_a-makebuf.o)
 .data          0x00000000400118e4        0x0 /home/fsw/rep/tasa/lib/bcc-2.2.3-gcc/bin/../lib/gcc/sparc-gaisler-elf/10.2.0/../../../../sparc-gaisler-elf/lib/leon3/mfix-gr712rc/soft/libc.a(lib_a-malloc.o)
 .data          0x00000000400118e4      0x410 /home/fsw/rep/tasa/lib/bcc-2.2.3-gcc/bin/../lib/gcc/sparc-gaisler-elf/10.2.0/../../../../sparc-gaisler-elf/lib/leon3/mfix-gr712rc/soft/libc.a(lib_a-mallocr.o)
                0x00000000400118e4                __malloc_sbrk_base
                0x00000000400118e8                __malloc_trim_threshold
                0x00000000400118ec                __malloc_av_
 .data          0x0000000040011cf4        0x0 /home/fsw/rep/tasa/lib/bcc-2.2.3-gcc/bin/../lib/gcc/sparc-gaisler-elf/10.2.0/../../../../sparc-gaisler-elf/lib/leon3/mfix-gr712rc/soft/libc.a(lib_a-memchr.o)
 .data          0x0000000040011cf4        0x0 /home/fsw/rep/tasa/lib/bcc-2.2.3-gcc/bin/../lib/gcc/sparc-gaisler-elf/10.2.0/../../../../sparc-gaisler-elf/lib/leon3/mfix-gr712rc/soft/libc.a(lib_a-memcpy.o)
 .data          0x0000000040011cf4        0x0 /home/fsw/rep/tasa/lib/bcc-2.2.3-gcc/bin/../lib/gcc/sparc-gaisler-elf/10.2.0/../../../../sparc-gaisler-elf/lib/leon3/mfix-gr712rc/soft/libc.a(lib_a-memmove.o)
 .data          0x0000000040011cf4        0x0 /home/fsw/rep/tasa/lib/bcc-2.2.3-gcc/bin/../lib/gcc/sparc-gaisler-elf/10.2.0/../../../../sparc-gaisler-elf/lib/leon3/mfix-gr712rc/soft/libc.a(lib_a-memset.o)
 .data          0x0000000040011cf4        0x0 /home/fsw/rep/tasa/lib/bcc-2.2.3-gcc/bin/../lib/gcc/sparc-gaisler-elf/10.2.0/../../../../sparc-gaisler-elf/lib/leon3/mfix-gr712rc/soft/libc.a(lib_a-mlock.o)
 .data          0x0000000040011cf4        0x0 /home/fsw/rep/tasa/lib/bcc-2.2.3-gcc/bin/../lib/gcc/sparc-gaisler-elf/10.2.0/../../../../sparc-gaisler-elf/lib/leon3/mfix-gr712rc/soft/libc.a(lib_a-mprec.o)
 .data          0x0000000040011cf4        0x0 /home/fsw/rep/tasa/lib/bcc-2.2.3-gcc/bin/../lib/gcc/sparc-gaisler-elf/10.2.0/../../../../sparc-gaisler-elf/lib/leon3/mfix-gr712rc/soft/libc.a(lib_a-putc.o)
 .data          0x0000000040011cf4        0x0 /home/fsw/rep/tasa/lib/bcc-2.2.3-gcc/bin/../lib/gcc/sparc-gaisler-elf/10.2.0/../../../../sparc-gaisler-elf/lib/leon3/mfix-gr712rc/soft/libc.a(lib_a-reallocr.o)
 .data          0x0000000040011cf4        0x0 /home/fsw/rep/tasa/lib/bcc-2.2.3-gcc/bin/../lib/gcc/sparc-gaisler-elf/10.2.0/../../../../sparc-gaisler-elf/lib/leon3/mfix-gr712rc/soft/libc.a(lib_a-s_frexp.o)
 .data          0x0000000040011cf4        0x0 /home/fsw/rep/tasa/lib/bcc-2.2.3-gcc/bin/../lib/gcc/sparc-gaisler-elf/10.2.0/../../../../sparc-gaisler-elf/lib/leon3/mfix-gr712rc/soft/libc.a(lib_a-sbrkr.o)
 .data          0x0000000040011cf4        0x0 /home/fsw/rep/tasa/lib/bcc-2.2.3-gcc/bin/../lib/gcc/sparc-gaisler-elf/10.2.0/../../../../sparc-gaisler-elf/lib/leon3/mfix-gr712rc/soft/libc.a(lib_a-stdio.o)
 .data          0x0000000040011cf4        0x0 /home/fsw/rep/tasa/lib/bcc-2.2.3-gcc/bin/../lib/gcc/sparc-gaisler-elf/10.2.0/../../../../sparc-gaisler-elf/lib/leon3/mfix-gr712rc/soft/libc.a(lib_a-strncpy.o)
 .data          0x0000000040011cf4        0x0 /home/fsw/rep/tasa/lib/bcc-2.2.3-gcc/bin/../lib/gcc/sparc-gaisler-elf/10.2.0/../../../../sparc-gaisler-elf/lib/leon3/mfix-gr712rc/soft/libc.a(lib_a-vfiprintf.o)
 .data          0x0000000040011cf4        0x0 /home/fsw/rep/tasa/lib/bcc-2.2.3-gcc/bin/../lib/gcc/sparc-gaisler-elf/10.2.0/../../../../sparc-gaisler-elf/lib/leon3/mfix-gr712rc/soft/libc.a(lib_a-wbuf.o)
 .data          0x0000000040011cf4        0x0 /home/fsw/rep/tasa/lib/bcc-2.2.3-gcc/bin/../lib/gcc/sparc-gaisler-elf/10.2.0/../../../../sparc-gaisler-elf/lib/leon3/mfix-gr712rc/soft/libc.a(lib_a-writer.o)
 .data          0x0000000040011cf4        0x0 /home/fsw/rep/tasa/lib/bcc-2.2.3-gcc/bin/../lib/gcc/sparc-gaisler-elf/10.2.0/../../../../sparc-gaisler-elf/lib/leon3/mfix-gr712rc/soft/libc.a(lib_a-callocr.o)
 .data          0x0000000040011cf4        0x0 /home/fsw/rep/tasa/lib/bcc-2.2.3-gcc/bin/../lib/gcc/sparc-gaisler-elf/10.2.0/../../../../sparc-gaisler-elf/lib/leon3/mfix-gr712rc/soft/libc.a(lib_a-closer.o)
 .data          0x0000000040011cf4        0x0 /home/fsw/rep/tasa/lib/bcc-2.2.3-gcc/bin/../lib/gcc/sparc-gaisler-elf/10.2.0/../../../../sparc-gaisler-elf/lib/leon3/mfix-gr712rc/soft/libc.a(lib_a-fclose.o)
 .data          0x0000000040011cf4        0x0 /home/fsw/rep/tasa/lib/bcc-2.2.3-gcc/bin/../lib/gcc/sparc-gaisler-elf/10.2.0/../../../../sparc-gaisler-elf/lib/leon3/mfix-gr712rc/soft/libc.a(lib_a-fputwc.o)
 .data          0x0000000040011cf4        0x0 /home/fsw/rep/tasa/lib/bcc-2.2.3-gcc/bin/../lib/gcc/sparc-gaisler-elf/10.2.0/../../../../sparc-gaisler-elf/lib/leon3/mfix-gr712rc/soft/libc.a(lib_a-fstatr.o)
 .data          0x0000000040011cf4        0x0 /home/fsw/rep/tasa/lib/bcc-2.2.3-gcc/bin/../lib/gcc/sparc-gaisler-elf/10.2.0/../../../../sparc-gaisler-elf/lib/leon3/mfix-gr712rc/soft/libc.a(lib_a-isattyr.o)
 .data          0x0000000040011cf4      0x16c /home/fsw/rep/tasa/lib/bcc-2.2.3-gcc/bin/../lib/gcc/sparc-gaisler-elf/10.2.0/../../../../sparc-gaisler-elf/lib/leon3/mfix-gr712rc/soft/libc.a(lib_a-locale.o)
                0x0000000040011cf4                __global_locale
 .data          0x0000000040011e60        0x0 /home/fsw/rep/tasa/lib/bcc-2.2.3-gcc/bin/../lib/gcc/sparc-gaisler-elf/10.2.0/../../../../sparc-gaisler-elf/lib/leon3/mfix-gr712rc/soft/libc.a(lib_a-lseekr.o)
 .data          0x0000000040011e60        0x0 /home/fsw/rep/tasa/lib/bcc-2.2.3-gcc/bin/../lib/gcc/sparc-gaisler-elf/10.2.0/../../../../sparc-gaisler-elf/lib/leon3/mfix-gr712rc/soft/libc.a(lib_a-mbtowc_r.o)
 .data          0x0000000040011e60        0x0 /home/fsw/rep/tasa/lib/bcc-2.2.3-gcc/bin/../lib/gcc/sparc-gaisler-elf/10.2.0/../../../../sparc-gaisler-elf/lib/leon3/mfix-gr712rc/soft/libc.a(lib_a-readr.o)
 .data          0x0000000040011e60        0x0 /home/fsw/rep/tasa/lib/bcc-2.2.3-gcc/bin/../lib/gcc/sparc-gaisler-elf/10.2.0/../../../../sparc-gaisler-elf/lib/leon3/mfix-gr712rc/soft/libc.a(lib_a-reent.o)
 .data          0x0000000040011e60        0x0 /home/fsw/rep/tasa/lib/bcc-2.2.3-gcc/bin/../lib/gcc/sparc-gaisler-elf/10.2.0/../../../../sparc-gaisler-elf/lib/leon3/mfix-gr712rc/soft/libc.a(lib_a-strcmp.o)
 .data          0x0000000040011e60        0x0 /home/fsw/rep/tasa/lib/bcc-2.2.3-gcc/bin/../lib/gcc/sparc-gaisler-elf/10.2.0/../../../../sparc-gaisler-elf/lib/leon3/mfix-gr712rc/soft/libc.a(lib_a-wcrtomb.o)
 .data          0x0000000040011e60        0x0 /home/fsw/rep/tasa/lib/bcc-2.2.3-gcc/bin/../lib/gcc/sparc-gaisler-elf/10.2.0/../../../../sparc-gaisler-elf/lib/leon3/mfix-gr712rc/soft/libc.a(lib_a-wctomb_r.o)
 .data          0x0000000040011e60        0x0 /home/fsw/rep/tasa/lib/bcc-2.2.3-gcc/bin/../lib/gcc/sparc-gaisler-elf/10.2.0/../../../../sparc-gaisler-elf/lib/leon3/mfix-gr712rc/soft/libc.a(lib_a-ctype_.o)
 .data          0x0000000040011e60        0x0 /home/fsw/rep/tasa/lib/bcc-2.2.3-gcc/bin/../sparc-gaisler-elf/bsp/gr712rc/leon3/mfix-gr712rc/soft/libbcc.a(_exit.S.o)
 .data          0x0000000040011e60        0x0 /home/fsw/rep/tasa/lib/bcc-2.2.3-gcc/bin/../sparc-gaisler-elf/bsp/gr712rc/leon3/mfix-gr712rc/soft/libbcc.a(read.c.o)
 .data          0x0000000040011e60        0x0 /home/fsw/rep/tasa/lib/bcc-2.2.3-gcc/bin/../sparc-gaisler-elf/bsp/gr712rc/leon3/mfix-gr712rc/soft/libbcc.a(sbrk.c.o)
 .data          0x0000000040011e60        0x0 /home/fsw/rep/tasa/lib/bcc-2.2.3-gcc/bin/../sparc-gaisler-elf/bsp/gr712rc/leon3/mfix-gr712rc/soft/libbcc.a(heap.c.o)
 .data          0x0000000040011e60        0x0 /home/fsw/rep/tasa/lib/bcc-2.2.3-gcc/bin/../sparc-gaisler-elf/bsp/gr712rc/leon3/mfix-gr712rc/soft/libbcc.a(write.c.o)
 .data          0x0000000040011e60        0x0 /home/fsw/rep/tasa/lib/bcc-2.2.3-gcc/bin/../sparc-gaisler-elf/bsp/gr712rc/leon3/mfix-gr712rc/soft/libbcc.a(stubs.S.o)
 .data          0x0000000040011e60        0x0 /home/fsw/rep/tasa/lib/bcc-2.2.3-gcc/bin/../sparc-gaisler-elf/bsp/gr712rc/leon3/mfix-gr712rc/soft/libbcc.a(con_apbuart.c.o)
 .data          0x0000000040011e60        0x4 /home/fsw/rep/tasa/lib/bcc-2.2.3-gcc/bin/../sparc-gaisler-elf/bsp/gr712rc/leon3/mfix-gr712rc/soft/libbcc.a(con_handle.c.o)
                0x0000000040011e60                __bcc_con_handle
 .data          0x0000000040011e64        0x0 /home/fsw/rep/tasa/lib/bcc-2.2.3-gcc/bin/../lib/gcc/sparc-gaisler-elf/10.2.0/leon3/mfix-gr712rc/soft/libgcc.a(_udivdi3.o)
 .data          0x0000000040011e64        0x0 /home/fsw/rep/tasa/lib/bcc-2.2.3-gcc/bin/../lib/gcc/sparc-gaisler-elf/10.2.0/leon3/mfix-gr712rc/soft/libgcc.a(_umoddi3.o)
 .data          0x0000000040011e64        0x0 /home/fsw/rep/tasa/lib/bcc-2.2.3-gcc/bin/../lib/gcc/sparc-gaisler-elf/10.2.0/leon3/mfix-gr712rc/soft/libgcc.a(_addsub_df.o)
 .data          0x0000000040011e64        0x0 /home/fsw/rep/tasa/lib/bcc-2.2.3-gcc/bin/../lib/gcc/sparc-gaisler-elf/10.2.0/leon3/mfix-gr712rc/soft/libgcc.a(_mul_df.o)
 .data          0x0000000040011e64        0x0 /home/fsw/rep/tasa/lib/bcc-2.2.3-gcc/bin/../lib/gcc/sparc-gaisler-elf/10.2.0/leon3/mfix-gr712rc/soft/libgcc.a(_div_df.o)
 .data          0x0000000040011e64        0x0 /home/fsw/rep/tasa/lib/bcc-2.2.3-gcc/bin/../lib/gcc/sparc-gaisler-elf/10.2.0/leon3/mfix-gr712rc/soft/libgcc.a(_eq_df.o)
 .data          0x0000000040011e64        0x0 /home/fsw/rep/tasa/lib/bcc-2.2.3-gcc/bin/../lib/gcc/sparc-gaisler-elf/10.2.0/leon3/mfix-gr712rc/soft/libgcc.a(_ne_df.o)
 .data          0x0000000040011e64        0x0 /home/fsw/rep/tasa/lib/bcc-2.2.3-gcc/bin/../lib/gcc/sparc-gaisler-elf/10.2.0/leon3/mfix-gr712rc/soft/libgcc.a(_gt_df.o)
 .data          0x0000000040011e64        0x0 /home/fsw/rep/tasa/lib/bcc-2.2.3-gcc/bin/../lib/gcc/sparc-gaisler-elf/10.2.0/leon3/mfix-gr712rc/soft/libgcc.a(_lt_df.o)
 .data          0x0000000040011e64        0x0 /home/fsw/rep/tasa/lib/bcc-2.2.3-gcc/bin/../lib/gcc/sparc-gaisler-elf/10.2.0/leon3/mfix-gr712rc/soft/libgcc.a(_le_df.o)
 .data          0x0000000040011e64        0x0 /home/fsw/rep/tasa/lib/bcc-2.2.3-gcc/bin/../lib/gcc/sparc-gaisler-elf/10.2.0/leon3/mfix-gr712rc/soft/libgcc.a(_unord_df.o)
 .data          0x0000000040011e64        0x0 /home/fsw/rep/tasa/lib/bcc-2.2.3-gcc/bin/../lib/gcc/sparc-gaisler-elf/10.2.0/leon3/mfix-gr712rc/soft/libgcc.a(_si_to_df.o)
 .data          0x0000000040011e64        0x0 /home/fsw/rep/tasa/lib/bcc-2.2.3-gcc/bin/../lib/gcc/sparc-gaisler-elf/10.2.0/leon3/mfix-gr712rc/soft/libgcc.a(_df_to_si.o)
 .data          0x0000000040011e64        0x0 /home/fsw/rep/tasa/lib/bcc-2.2.3-gcc/bin/../lib/gcc/sparc-gaisler-elf/10.2.0/leon3/mfix-gr712rc/soft/libgcc.a(_thenan_df.o)
 .data          0x0000000040011e64        0x0 /home/fsw/rep/tasa/lib/bcc-2.2.3-gcc/bin/../lib/gcc/sparc-gaisler-elf/10.2.0/leon3/mfix-gr712rc/soft/libgcc.a(_usi_to_df.o)
 .data          0x0000000040011e64        0x0 /home/fsw/rep/tasa/lib/bcc-2.2.3-gcc/bin/../lib/gcc/sparc-gaisler-elf/10.2.0/leon3/mfix-gr712rc/soft/libgcc.a(_clz.o)
 .data          0x0000000040011e64        0x0 /home/fsw/rep/tasa/lib/bcc-2.2.3-gcc/bin/../lib/gcc/sparc-gaisler-elf/10.2.0/leon3/mfix-gr712rc/soft/libgcc.a(_clzsi2.o)
 .data          0x0000000040011e64        0x0 /home/fsw/rep/tasa/lib/bcc-2.2.3-gcc/bin/../lib/gcc/sparc-gaisler-elf/10.2.0/leon3/mfix-gr712rc/soft/libgcc.a(_pack_df.o)
 .data          0x0000000040011e64        0x0 /home/fsw/rep/tasa/lib/bcc-2.2.3-gcc/bin/../lib/gcc/sparc-gaisler-elf/10.2.0/leon3/mfix-gr712rc/soft/libgcc.a(_unpack_df.o)
 .data          0x0000000040011e64        0x0 /home/fsw/rep/tasa/lib/bcc-2.2.3-gcc/bin/../lib/gcc/sparc-gaisler-elf/10.2.0/leon3/mfix-gr712rc/soft/libgcc.a(_fpcmp_parts_df.o)
 .data          0x0000000040011e64        0x0 /home/fsw/rep/tasa/lib/bcc-2.2.3-gcc/bin/../lib/gcc/sparc-gaisler-elf/10.2.0/leon3/mfix-gr712rc/soft/crtend.o
 .data          0x0000000040011e64        0x0 /home/fsw/rep/tasa/lib/bcc-2.2.3-gcc/bin/../lib/gcc/sparc-gaisler-elf/10.2.0/leon3/mfix-gr712rc/soft/crtn.o
                0x0000000040011e68                . = ALIGN (0x8)
 *fill*         0x0000000040011e64        0x4 
                0x0000000040011e68                __data_end = .
                0x0000000040011850                __data_start_lma = LOADADDR (.data)
                0x0000000000000618                __data_size = SIZEOF (.data)

.iplt           0x0000000040011e68        0x0
 .iplt          0x0000000040011e68        0x0 /home/fsw/rep/tasa/lib/bcc-2.2.3-gcc/bin/../sparc-gaisler-elf/bsp/gr712rc/leon3/mfix-gr712rc/soft/trap_table_mvt_tn0018.S.o

.tm_clone_table
                0x0000000040011e68        0x0
 .tm_clone_table
                0x0000000040011e68        0x0 /home/fsw/rep/tasa/lib/bcc-2.2.3-gcc/bin/../lib/gcc/sparc-gaisler-elf/10.2.0/leon3/mfix-gr712rc/soft/crtbegin.o
 .tm_clone_table
                0x0000000040011e68        0x0 /home/fsw/rep/tasa/lib/bcc-2.2.3-gcc/bin/../lib/gcc/sparc-gaisler-elf/10.2.0/leon3/mfix-gr712rc/soft/crtend.o

.bss            0x0000000040011e68      0x1a8
                0x0000000040011e68                . = ALIGN (0x8)
                0x0000000040011e68                __bss_start = .
 *(.bss .bss.*)
 .bss           0x0000000040011e68        0x0 /home/fsw/rep/tasa/lib/bcc-2.2.3-gcc/bin/../sparc-gaisler-elf/bsp/gr712rc/leon3/mfix-gr712rc/soft/trap_table_mvt_tn0018.S.o
 .bss           0x0000000040011e68        0x4 /home/fsw/rep/tasa/lib/bcc-2.2.3-gcc/bin/../sparc-gaisler-elf/bsp/gr712rc/leon3/mfix-gr712rc/soft/crt0.S.o
                0x0000000040011e68                __bcc_sp_at_entry
 .bss           0x0000000040011e6c        0x0 /home/fsw/rep/tasa/lib/bcc-2.2.3-gcc/bin/../lib/gcc/sparc-gaisler-elf/10.2.0/leon3/mfix-gr712rc/soft/crti.o
 .bss           0x0000000040011e6c       0x20 /home/fsw/rep/tasa/lib/bcc-2.2.3-gcc/bin/../lib/gcc/sparc-gaisler-elf/10.2.0/leon3/mfix-gr712rc/soft/crtbegin.o
 .bss           0x0000000040011e8c        0x0 /tmp/ccucSNOv.o
 .bss           0x0000000040011e8c        0x0 /home/fsw/rep/tasa/lib/bcc-2.2.3-gcc/bin/../sparc-gaisler-elf/bsp/gr712rc/leon3/mfix-gr712rc/soft/libbcc.a(reset_trap_mvt.S.o)
 .bss           0x0000000040011e8c        0x0 /home/fsw/rep/tasa/lib/bcc-2.2.3-gcc/bin/../sparc-gaisler-elf/bsp/gr712rc/leon3/mfix-gr712rc/soft/libbcc.a(window_trap.S.o)
 *fill*         0x0000000040011e8c        0x4 
 .bss           0x0000000040011e90       0x14 /home/fsw/rep/tasa/lib/bcc-2.2.3-gcc/bin/../sparc-gaisler-elf/bsp/gr712rc/leon3/mfix-gr712rc/soft/libbcc.a(flush_windows_trap.S.o)
 .bss           0x0000000040011ea4        0x0 /home/fsw/rep/tasa/lib/bcc-2.2.3-gcc/bin/../sparc-gaisler-elf/bsp/gr712rc/leon3/mfix-gr712rc/soft/libbcc.a(sw_trap_set_pil.S.o)
 .bss           0x0000000040011ea4        0x0 /home/fsw/rep/tasa/lib/bcc-2.2.3-gcc/bin/../sparc-gaisler-elf/bsp/gr712rc/leon3/mfix-gr712rc/soft/libbcc.a(init.S.o)
 .bss           0x0000000040011ea4        0x0 /home/fsw/rep/tasa/lib/bcc-2.2.3-gcc/bin/../sparc-gaisler-elf/bsp/gr712rc/leon3/mfix-gr712rc/soft/libbcc.a(leon_info.S.o)
 .bss           0x0000000040011ea4        0x0 /home/fsw/rep/tasa/lib/bcc-2.2.3-gcc/bin/../sparc-gaisler-elf/bsp/gr712rc/leon3/mfix-gr712rc/soft/libbcc.a(dwzero.S.o)
 .bss           0x0000000040011ea4        0x0 /home/fsw/rep/tasa/lib/bcc-2.2.3-gcc/bin/../sparc-gaisler-elf/bsp/gr712rc/leon3/mfix-gr712rc/soft/libbcc.a(copy_data.c.o)
 .bss           0x0000000040011ea4        0x8 /home/fsw/rep/tasa/lib/bcc-2.2.3-gcc/bin/../sparc-gaisler-elf/bsp/gr712rc/leon3/mfix-gr712rc/soft/libbcc.a(argv.c.o)
                0x0000000040011ea8                __bcc_argc
 .bss           0x0000000040011eac        0x0 /home/fsw/rep/tasa/lib/bcc-2.2.3-gcc/bin/../sparc-gaisler-elf/bsp/gr712rc/leon3/mfix-gr712rc/soft/libbcc.a(interrupt_trap_tn0018.S.o)
 .bss           0x0000000040011eac        0x0 /home/fsw/rep/tasa/lib/bcc-2.2.3-gcc/bin/../sparc-gaisler-elf/bsp/gr712rc/leon3/mfix-gr712rc/soft/libbcc.a(int_irqmp_get_source.c.o)
 .bss           0x0000000040011eac        0x0 /home/fsw/rep/tasa/lib/bcc-2.2.3-gcc/bin/../sparc-gaisler-elf/bsp/gr712rc/leon3/mfix-gr712rc/soft/libbcc.a(int_irqmp_mp.c.o)
 .bss           0x0000000040011eac        0x0 /home/fsw/rep/tasa/lib/bcc-2.2.3-gcc/bin/../sparc-gaisler-elf/bsp/gr712rc/leon3/mfix-gr712rc/soft/libbcc.a(int_irqmp_init.c.o)
 .bss           0x0000000040011eac        0x0 /home/fsw/rep/tasa/lib/bcc-2.2.3-gcc/bin/../sparc-gaisler-elf/bsp/gr712rc/leon3/mfix-gr712rc/soft/libbcc.a(con_apbuart_init.c.o)
 .bss           0x0000000040011eac        0x0 /home/fsw/rep/tasa/lib/bcc-2.2.3-gcc/bin/../sparc-gaisler-elf/bsp/gr712rc/leon3/mfix-gr712rc/soft/libbcc.a(timer_gptimer_init.c.o)
 .bss           0x0000000040011eac       0x80 /home/fsw/rep/tasa/lib/bcc-2.2.3-gcc/bin/../sparc-gaisler-elf/bsp/gr712rc/leon3/mfix-gr712rc/soft/libbcc.a(isr.c.o)
                0x0000000040011eac                __bcc_isr_list
 .bss           0x0000000040011f2c        0x0 /home/fsw/rep/tasa/lib/bcc-2.2.3-gcc/bin/../sparc-gaisler-elf/bsp/gr712rc/leon3/mfix-gr712rc/soft/libbcc.a(int_nest.c.o)
 .bss           0x0000000040011f2c        0x8 /home/fsw/rep/tasa/lib/bcc-2.2.3-gcc/bin/../sparc-gaisler-elf/bsp/gr712rc/leon3/mfix-gr712rc/soft/libbcc.a(int_irqmp_handle.c.o)
                0x0000000040011f2c                __bcc_int_irqmp_nts
                0x0000000040011f30                __bcc_int_irqmp_map
 .bss           0x0000000040011f34        0x0 /home/fsw/rep/tasa/lib/bcc-2.2.3-gcc/bin/../lib/gcc/sparc-gaisler-elf/10.2.0/../../../../sparc-gaisler-elf/lib/leon3/mfix-gr712rc/soft/libc.a(lib_a-atexit.o)
 .bss           0x0000000040011f34        0x0 /home/fsw/rep/tasa/lib/bcc-2.2.3-gcc/bin/../lib/gcc/sparc-gaisler-elf/10.2.0/../../../../sparc-gaisler-elf/lib/leon3/mfix-gr712rc/soft/libc.a(lib_a-exit.o)
 .bss           0x0000000040011f34        0x0 /home/fsw/rep/tasa/lib/bcc-2.2.3-gcc/bin/../lib/gcc/sparc-gaisler-elf/10.2.0/../../../../sparc-gaisler-elf/lib/leon3/mfix-gr712rc/soft/libc.a(lib_a-impure.o)
 .bss           0x0000000040011f34        0x0 /home/fsw/rep/tasa/lib/bcc-2.2.3-gcc/bin/../lib/gcc/sparc-gaisler-elf/10.2.0/../../../../sparc-gaisler-elf/lib/leon3/mfix-gr712rc/soft/libc.a(lib_a-printf.o)
 .bss           0x0000000040011f34        0x0 /home/fsw/rep/tasa/lib/bcc-2.2.3-gcc/bin/../lib/gcc/sparc-gaisler-elf/10.2.0/../../../../sparc-gaisler-elf/lib/leon3/mfix-gr712rc/soft/libc.a(lib_a-putchar.o)
 .bss           0x0000000040011f34        0x0 /home/fsw/rep/tasa/lib/bcc-2.2.3-gcc/bin/../lib/gcc/sparc-gaisler-elf/10.2.0/../../../../sparc-gaisler-elf/lib/leon3/mfix-gr712rc/soft/libc.a(lib_a-puts.o)
 .bss           0x0000000040011f34        0x0 /home/fsw/rep/tasa/lib/bcc-2.2.3-gcc/bin/../lib/gcc/sparc-gaisler-elf/10.2.0/../../../../sparc-gaisler-elf/lib/leon3/mfix-gr712rc/soft/libc.a(lib_a-strlen.o)
 .bss           0x0000000040011f34        0x0 /home/fsw/rep/tasa/lib/bcc-2.2.3-gcc/bin/../lib/gcc/sparc-gaisler-elf/10.2.0/../../../../sparc-gaisler-elf/lib/leon3/mfix-gr712rc/soft/libc.a(lib_a-vfprintf.o)
 .bss           0x0000000040011f34        0x0 /home/fsw/rep/tasa/lib/bcc-2.2.3-gcc/bin/../lib/gcc/sparc-gaisler-elf/10.2.0/../../../../sparc-gaisler-elf/lib/leon3/mfix-gr712rc/soft/libc.a(lib_a-wsetup.o)
 .bss           0x0000000040011f34       0x8c /home/fsw/rep/tasa/lib/bcc-2.2.3-gcc/bin/../lib/gcc/sparc-gaisler-elf/10.2.0/../../../../sparc-gaisler-elf/lib/leon3/mfix-gr712rc/soft/libc.a(lib_a-__atexit.o)
 .bss           0x0000000040011fc0        0x4 /home/fsw/rep/tasa/lib/bcc-2.2.3-gcc/bin/../lib/gcc/sparc-gaisler-elf/10.2.0/../../../../sparc-gaisler-elf/lib/leon3/mfix-gr712rc/soft/libc.a(lib_a-__call_atexit.o)
                0x0000000040011fc0                _global_atexit
 .bss           0x0000000040011fc4        0x0 /home/fsw/rep/tasa/lib/bcc-2.2.3-gcc/bin/../lib/gcc/sparc-gaisler-elf/10.2.0/../../../../sparc-gaisler-elf/lib/leon3/mfix-gr712rc/soft/libc.a(lib_a-dtoa.o)
 .bss           0x0000000040011fc4        0x0 /home/fsw/rep/tasa/lib/bcc-2.2.3-gcc/bin/../lib/gcc/sparc-gaisler-elf/10.2.0/../../../../sparc-gaisler-elf/lib/leon3/mfix-gr712rc/soft/libc.a(lib_a-fflush.o)
 .bss           0x0000000040011fc4        0x0 /home/fsw/rep/tasa/lib/bcc-2.2.3-gcc/bin/../lib/gcc/sparc-gaisler-elf/10.2.0/../../../../sparc-gaisler-elf/lib/leon3/mfix-gr712rc/soft/libc.a(lib_a-findfp.o)
 .bss           0x0000000040011fc4        0x0 /home/fsw/rep/tasa/lib/bcc-2.2.3-gcc/bin/../lib/gcc/sparc-gaisler-elf/10.2.0/../../../../sparc-gaisler-elf/lib/leon3/mfix-gr712rc/soft/libc.a(lib_a-freer.o)
 .bss           0x0000000040011fc4        0x0 /home/fsw/rep/tasa/lib/bcc-2.2.3-gcc/bin/../lib/gcc/sparc-gaisler-elf/10.2.0/../../../../sparc-gaisler-elf/lib/leon3/mfix-gr712rc/soft/libc.a(lib_a-fvwrite.o)
 .bss           0x0000000040011fc4        0x0 /home/fsw/rep/tasa/lib/bcc-2.2.3-gcc/bin/../lib/gcc/sparc-gaisler-elf/10.2.0/../../../../sparc-gaisler-elf/lib/leon3/mfix-gr712rc/soft/libc.a(lib_a-fwalk.o)
 .bss           0x0000000040011fc4        0x0 /home/fsw/rep/tasa/lib/bcc-2.2.3-gcc/bin/../lib/gcc/sparc-gaisler-elf/10.2.0/../../../../sparc-gaisler-elf/lib/leon3/mfix-gr712rc/soft/libc.a(lib_a-localeconv.o)
 .bss           0x0000000040011fc4        0x0 /home/fsw/rep/tasa/lib/bcc-2.2.3-gcc/bin/../lib/gcc/sparc-gaisler-elf/10.2.0/../../../../sparc-gaisler-elf/lib/leon3/mfix-gr712rc/soft/libc.a(lib_a-makebuf.o)
 .bss           0x0000000040011fc4        0x0 /home/fsw/rep/tasa/lib/bcc-2.2.3-gcc/bin/../lib/gcc/sparc-gaisler-elf/10.2.0/../../../../sparc-gaisler-elf/lib/leon3/mfix-gr712rc/soft/libc.a(lib_a-malloc.o)
 .bss           0x0000000040011fc4       0x34 /home/fsw/rep/tasa/lib/bcc-2.2.3-gcc/bin/../lib/gcc/sparc-gaisler-elf/10.2.0/../../../../sparc-gaisler-elf/lib/leon3/mfix-gr712rc/soft/libc.a(lib_a-mallocr.o)
                0x0000000040011fc4                __malloc_current_mallinfo
                0x0000000040011fec                __malloc_max_total_mem
                0x0000000040011ff0                __malloc_max_sbrked_mem
                0x0000000040011ff4                __malloc_top_pad
 .bss           0x0000000040011ff8        0x0 /home/fsw/rep/tasa/lib/bcc-2.2.3-gcc/bin/../lib/gcc/sparc-gaisler-elf/10.2.0/../../../../sparc-gaisler-elf/lib/leon3/mfix-gr712rc/soft/libc.a(lib_a-memchr.o)
 .bss           0x0000000040011ff8        0x0 /home/fsw/rep/tasa/lib/bcc-2.2.3-gcc/bin/../lib/gcc/sparc-gaisler-elf/10.2.0/../../../../sparc-gaisler-elf/lib/leon3/mfix-gr712rc/soft/libc.a(lib_a-memcpy.o)
 .bss           0x0000000040011ff8        0x0 /home/fsw/rep/tasa/lib/bcc-2.2.3-gcc/bin/../lib/gcc/sparc-gaisler-elf/10.2.0/../../../../sparc-gaisler-elf/lib/leon3/mfix-gr712rc/soft/libc.a(lib_a-memmove.o)
 .bss           0x0000000040011ff8        0x0 /home/fsw/rep/tasa/lib/bcc-2.2.3-gcc/bin/../lib/gcc/sparc-gaisler-elf/10.2.0/../../../../sparc-gaisler-elf/lib/leon3/mfix-gr712rc/soft/libc.a(lib_a-memset.o)
 .bss           0x0000000040011ff8        0x0 /home/fsw/rep/tasa/lib/bcc-2.2.3-gcc/bin/../lib/gcc/sparc-gaisler-elf/10.2.0/../../../../sparc-gaisler-elf/lib/leon3/mfix-gr712rc/soft/libc.a(lib_a-mlock.o)
 .bss           0x0000000040011ff8        0x0 /home/fsw/rep/tasa/lib/bcc-2.2.3-gcc/bin/../lib/gcc/sparc-gaisler-elf/10.2.0/../../../../sparc-gaisler-elf/lib/leon3/mfix-gr712rc/soft/libc.a(lib_a-mprec.o)
 .bss           0x0000000040011ff8        0x0 /home/fsw/rep/tasa/lib/bcc-2.2.3-gcc/bin/../lib/gcc/sparc-gaisler-elf/10.2.0/../../../../sparc-gaisler-elf/lib/leon3/mfix-gr712rc/soft/libc.a(lib_a-putc.o)
 .bss           0x0000000040011ff8        0x0 /home/fsw/rep/tasa/lib/bcc-2.2.3-gcc/bin/../lib/gcc/sparc-gaisler-elf/10.2.0/../../../../sparc-gaisler-elf/lib/leon3/mfix-gr712rc/soft/libc.a(lib_a-reallocr.o)
 .bss           0x0000000040011ff8        0x0 /home/fsw/rep/tasa/lib/bcc-2.2.3-gcc/bin/../lib/gcc/sparc-gaisler-elf/10.2.0/../../../../sparc-gaisler-elf/lib/leon3/mfix-gr712rc/soft/libc.a(lib_a-s_frexp.o)
 .bss           0x0000000040011ff8        0x0 /home/fsw/rep/tasa/lib/bcc-2.2.3-gcc/bin/../lib/gcc/sparc-gaisler-elf/10.2.0/../../../../sparc-gaisler-elf/lib/leon3/mfix-gr712rc/soft/libc.a(lib_a-sbrkr.o)
 .bss           0x0000000040011ff8        0x0 /home/fsw/rep/tasa/lib/bcc-2.2.3-gcc/bin/../lib/gcc/sparc-gaisler-elf/10.2.0/../../../../sparc-gaisler-elf/lib/leon3/mfix-gr712rc/soft/libc.a(lib_a-stdio.o)
 .bss           0x0000000040011ff8        0x0 /home/fsw/rep/tasa/lib/bcc-2.2.3-gcc/bin/../lib/gcc/sparc-gaisler-elf/10.2.0/../../../../sparc-gaisler-elf/lib/leon3/mfix-gr712rc/soft/libc.a(lib_a-strncpy.o)
 .bss           0x0000000040011ff8        0x0 /home/fsw/rep/tasa/lib/bcc-2.2.3-gcc/bin/../lib/gcc/sparc-gaisler-elf/10.2.0/../../../../sparc-gaisler-elf/lib/leon3/mfix-gr712rc/soft/libc.a(lib_a-vfiprintf.o)
 .bss           0x0000000040011ff8        0x0 /home/fsw/rep/tasa/lib/bcc-2.2.3-gcc/bin/../lib/gcc/sparc-gaisler-elf/10.2.0/../../../../sparc-gaisler-elf/lib/leon3/mfix-gr712rc/soft/libc.a(lib_a-wbuf.o)
 .bss           0x0000000040011ff8        0x0 /home/fsw/rep/tasa/lib/bcc-2.2.3-gcc/bin/../lib/gcc/sparc-gaisler-elf/10.2.0/../../../../sparc-gaisler-elf/lib/leon3/mfix-gr712rc/soft/libc.a(lib_a-writer.o)
 .bss           0x0000000040011ff8        0x0 /home/fsw/rep/tasa/lib/bcc-2.2.3-gcc/bin/../lib/gcc/sparc-gaisler-elf/10.2.0/../../../../sparc-gaisler-elf/lib/leon3/mfix-gr712rc/soft/libc.a(lib_a-callocr.o)
 .bss           0x0000000040011ff8        0x0 /home/fsw/rep/tasa/lib/bcc-2.2.3-gcc/bin/../lib/gcc/sparc-gaisler-elf/10.2.0/../../../../sparc-gaisler-elf/lib/leon3/mfix-gr712rc/soft/libc.a(lib_a-closer.o)
 .bss           0x0000000040011ff8        0x0 /home/fsw/rep/tasa/lib/bcc-2.2.3-gcc/bin/../lib/gcc/sparc-gaisler-elf/10.2.0/../../../../sparc-gaisler-elf/lib/leon3/mfix-gr712rc/soft/libc.a(lib_a-fclose.o)
 .bss           0x0000000040011ff8        0x0 /home/fsw/rep/tasa/lib/bcc-2.2.3-gcc/bin/../lib/gcc/sparc-gaisler-elf/10.2.0/../../../../sparc-gaisler-elf/lib/leon3/mfix-gr712rc/soft/libc.a(lib_a-fputwc.o)
 .bss           0x0000000040011ff8        0x0 /home/fsw/rep/tasa/lib/bcc-2.2.3-gcc/bin/../lib/gcc/sparc-gaisler-elf/10.2.0/../../../../sparc-gaisler-elf/lib/leon3/mfix-gr712rc/soft/libc.a(lib_a-fstatr.o)
 .bss           0x0000000040011ff8        0x0 /home/fsw/rep/tasa/lib/bcc-2.2.3-gcc/bin/../lib/gcc/sparc-gaisler-elf/10.2.0/../../../../sparc-gaisler-elf/lib/leon3/mfix-gr712rc/soft/libc.a(lib_a-isattyr.o)
 .bss           0x0000000040011ff8        0x4 /home/fsw/rep/tasa/lib/bcc-2.2.3-gcc/bin/../lib/gcc/sparc-gaisler-elf/10.2.0/../../../../sparc-gaisler-elf/lib/leon3/mfix-gr712rc/soft/libc.a(lib_a-locale.o)
                0x0000000040011ff8                _PathLocale
 .bss           0x0000000040011ffc        0x0 /home/fsw/rep/tasa/lib/bcc-2.2.3-gcc/bin/../lib/gcc/sparc-gaisler-elf/10.2.0/../../../../sparc-gaisler-elf/lib/leon3/mfix-gr712rc/soft/libc.a(lib_a-lseekr.o)
 .bss           0x0000000040011ffc        0x0 /home/fsw/rep/tasa/lib/bcc-2.2.3-gcc/bin/../lib/gcc/sparc-gaisler-elf/10.2.0/../../../../sparc-gaisler-elf/lib/leon3/mfix-gr712rc/soft/libc.a(lib_a-mbtowc_r.o)
 .bss           0x0000000040011ffc        0x0 /home/fsw/rep/tasa/lib/bcc-2.2.3-gcc/bin/../lib/gcc/sparc-gaisler-elf/10.2.0/../../../../sparc-gaisler-elf/lib/leon3/mfix-gr712rc/soft/libc.a(lib_a-readr.o)
 .bss           0x0000000040011ffc        0x4 /home/fsw/rep/tasa/lib/bcc-2.2.3-gcc/bin/../lib/gcc/sparc-gaisler-elf/10.2.0/../../../../sparc-gaisler-elf/lib/leon3/mfix-gr712rc/soft/libc.a(lib_a-reent.o)
                0x0000000040011ffc                errno
 .bss           0x0000000040012000        0x0 /home/fsw/rep/tasa/lib/bcc-2.2.3-gcc/bin/../lib/gcc/sparc-gaisler-elf/10.2.0/../../../../sparc-gaisler-elf/lib/leon3/mfix-gr712rc/soft/libc.a(lib_a-strcmp.o)
 .bss           0x0000000040012000        0x0 /home/fsw/rep/tasa/lib/bcc-2.2.3-gcc/bin/../lib/gcc/sparc-gaisler-elf/10.2.0/../../../../sparc-gaisler-elf/lib/leon3/mfix-gr712rc/soft/libc.a(lib_a-wcrtomb.o)
 .bss           0x0000000040012000        0x0 /home/fsw/rep/tasa/lib/bcc-2.2.3-gcc/bin/../lib/gcc/sparc-gaisler-elf/10.2.0/../../../../sparc-gaisler-elf/lib/leon3/mfix-gr712rc/soft/libc.a(lib_a-wctomb_r.o)
 .bss           0x0000000040012000        0x0 /home/fsw/rep/tasa/lib/bcc-2.2.3-gcc/bin/../lib/gcc/sparc-gaisler-elf/10.2.0/../../../../sparc-gaisler-elf/lib/leon3/mfix-gr712rc/soft/libc.a(lib_a-ctype_.o)
 .bss           0x0000000040012000        0x0 /home/fsw/rep/tasa/lib/bcc-2.2.3-gcc/bin/../sparc-gaisler-elf/bsp/gr712rc/leon3/mfix-gr712rc/soft/libbcc.a(_exit.S.o)
 .bss           0x0000000040012000        0x0 /home/fsw/rep/tasa/lib/bcc-2.2.3-gcc/bin/../sparc-gaisler-elf/bsp/gr712rc/leon3/mfix-gr712rc/soft/libbcc.a(read.c.o)
 .bss           0x0000000040012000        0x4 /home/fsw/rep/tasa/lib/bcc-2.2.3-gcc/bin/../sparc-gaisler-elf/bsp/gr712rc/leon3/mfix-gr712rc/soft/libbcc.a(sbrk.c.o)
 .bss           0x0000000040012004        0x8 /home/fsw/rep/tasa/lib/bcc-2.2.3-gcc/bin/../sparc-gaisler-elf/bsp/gr712rc/leon3/mfix-gr712rc/soft/libbcc.a(heap.c.o)
                0x0000000040012004                __bcc_heap_max
                0x0000000040012008                __bcc_heap_min
 .bss           0x000000004001200c        0x0 /home/fsw/rep/tasa/lib/bcc-2.2.3-gcc/bin/../sparc-gaisler-elf/bsp/gr712rc/leon3/mfix-gr712rc/soft/libbcc.a(write.c.o)
 .bss           0x000000004001200c        0x0 /home/fsw/rep/tasa/lib/bcc-2.2.3-gcc/bin/../sparc-gaisler-elf/bsp/gr712rc/leon3/mfix-gr712rc/soft/libbcc.a(stubs.S.o)
 .bss           0x000000004001200c        0x4 /home/fsw/rep/tasa/lib/bcc-2.2.3-gcc/bin/../sparc-gaisler-elf/bsp/gr712rc/leon3/mfix-gr712rc/soft/libbcc.a(con_apbuart.c.o)
 .bss           0x0000000040012010        0x0 /home/fsw/rep/tasa/lib/bcc-2.2.3-gcc/bin/../sparc-gaisler-elf/bsp/gr712rc/leon3/mfix-gr712rc/soft/libbcc.a(con_handle.c.o)
 .bss           0x0000000040012010        0x0 /home/fsw/rep/tasa/lib/bcc-2.2.3-gcc/bin/../lib/gcc/sparc-gaisler-elf/10.2.0/leon3/mfix-gr712rc/soft/libgcc.a(_udivdi3.o)
 .bss           0x0000000040012010        0x0 /home/fsw/rep/tasa/lib/bcc-2.2.3-gcc/bin/../lib/gcc/sparc-gaisler-elf/10.2.0/leon3/mfix-gr712rc/soft/libgcc.a(_umoddi3.o)
 .bss           0x0000000040012010        0x0 /home/fsw/rep/tasa/lib/bcc-2.2.3-gcc/bin/../lib/gcc/sparc-gaisler-elf/10.2.0/leon3/mfix-gr712rc/soft/libgcc.a(_addsub_df.o)
 .bss           0x0000000040012010        0x0 /home/fsw/rep/tasa/lib/bcc-2.2.3-gcc/bin/../lib/gcc/sparc-gaisler-elf/10.2.0/leon3/mfix-gr712rc/soft/libgcc.a(_mul_df.o)
 .bss           0x0000000040012010        0x0 /home/fsw/rep/tasa/lib/bcc-2.2.3-gcc/bin/../lib/gcc/sparc-gaisler-elf/10.2.0/leon3/mfix-gr712rc/soft/libgcc.a(_div_df.o)
 .bss           0x0000000040012010        0x0 /home/fsw/rep/tasa/lib/bcc-2.2.3-gcc/bin/../lib/gcc/sparc-gaisler-elf/10.2.0/leon3/mfix-gr712rc/soft/libgcc.a(_eq_df.o)
 .bss           0x0000000040012010        0x0 /home/fsw/rep/tasa/lib/bcc-2.2.3-gcc/bin/../lib/gcc/sparc-gaisler-elf/10.2.0/leon3/mfix-gr712rc/soft/libgcc.a(_ne_df.o)
 .bss           0x0000000040012010        0x0 /home/fsw/rep/tasa/lib/bcc-2.2.3-gcc/bin/../lib/gcc/sparc-gaisler-elf/10.2.0/leon3/mfix-gr712rc/soft/libgcc.a(_gt_df.o)
 .bss           0x0000000040012010        0x0 /home/fsw/rep/tasa/lib/bcc-2.2.3-gcc/bin/../lib/gcc/sparc-gaisler-elf/10.2.0/leon3/mfix-gr712rc/soft/libgcc.a(_lt_df.o)
 .bss           0x0000000040012010        0x0 /home/fsw/rep/tasa/lib/bcc-2.2.3-gcc/bin/../lib/gcc/sparc-gaisler-elf/10.2.0/leon3/mfix-gr712rc/soft/libgcc.a(_le_df.o)
 .bss           0x0000000040012010        0x0 /home/fsw/rep/tasa/lib/bcc-2.2.3-gcc/bin/../lib/gcc/sparc-gaisler-elf/10.2.0/leon3/mfix-gr712rc/soft/libgcc.a(_unord_df.o)
 .bss           0x0000000040012010        0x0 /home/fsw/rep/tasa/lib/bcc-2.2.3-gcc/bin/../lib/gcc/sparc-gaisler-elf/10.2.0/leon3/mfix-gr712rc/soft/libgcc.a(_si_to_df.o)
 .bss           0x0000000040012010        0x0 /home/fsw/rep/tasa/lib/bcc-2.2.3-gcc/bin/../lib/gcc/sparc-gaisler-elf/10.2.0/leon3/mfix-gr712rc/soft/libgcc.a(_df_to_si.o)
 .bss           0x0000000040012010        0x0 /home/fsw/rep/tasa/lib/bcc-2.2.3-gcc/bin/../lib/gcc/sparc-gaisler-elf/10.2.0/leon3/mfix-gr712rc/soft/libgcc.a(_thenan_df.o)
 .bss           0x0000000040012010        0x0 /home/fsw/rep/tasa/lib/bcc-2.2.3-gcc/bin/../lib/gcc/sparc-gaisler-elf/10.2.0/leon3/mfix-gr712rc/soft/libgcc.a(_usi_to_df.o)
 .bss           0x0000000040012010        0x0 /home/fsw/rep/tasa/lib/bcc-2.2.3-gcc/bin/../lib/gcc/sparc-gaisler-elf/10.2.0/leon3/mfix-gr712rc/soft/libgcc.a(_clz.o)
 .bss           0x0000000040012010        0x0 /home/fsw/rep/tasa/lib/bcc-2.2.3-gcc/bin/../lib/gcc/sparc-gaisler-elf/10.2.0/leon3/mfix-gr712rc/soft/libgcc.a(_clzsi2.o)
 .bss           0x0000000040012010        0x0 /home/fsw/rep/tasa/lib/bcc-2.2.3-gcc/bin/../lib/gcc/sparc-gaisler-elf/10.2.0/leon3/mfix-gr712rc/soft/libgcc.a(_pack_df.o)
 .bss           0x0000000040012010        0x0 /home/fsw/rep/tasa/lib/bcc-2.2.3-gcc/bin/../lib/gcc/sparc-gaisler-elf/10.2.0/leon3/mfix-gr712rc/soft/libgcc.a(_unpack_df.o)
 .bss           0x0000000040012010        0x0 /home/fsw/rep/tasa/lib/bcc-2.2.3-gcc/bin/../lib/gcc/sparc-gaisler-elf/10.2.0/leon3/mfix-gr712rc/soft/libgcc.a(_fpcmp_parts_df.o)
 .bss           0x0000000040012010        0x0 /home/fsw/rep/tasa/lib/bcc-2.2.3-gcc/bin/../lib/gcc/sparc-gaisler-elf/10.2.0/leon3/mfix-gr712rc/soft/crtend.o
 .bss           0x0000000040012010        0x0 /home/fsw/rep/tasa/lib/bcc-2.2.3-gcc/bin/../lib/gcc/sparc-gaisler-elf/10.2.0/leon3/mfix-gr712rc/soft/crtn.o
 *(COMMON)
                0x0000000040012010                . = ALIGN (0x8)
                0x0000000040012010                __bss_end = .
                0x0000000040012010                __heap_min = .
                0x0000000040012010                . = ALIGN (0x8)

.jcr
 *(.jcr)

.stab
 *(.stab)

.stabstr
 *(.stabstr)

.debug
 *(.debug)

.line
 *(.line)

.debug_srcinfo
 *(.debug_srcinfo)

.debug_sfnames
 *(.debug_sfnames)

.debug_aranges  0x0000000000000000      0xc30
 *(.debug_aranges)
 .debug_aranges
                0x0000000000000000       0x20 /home/fsw/rep/tasa/lib/bcc-2.2.3-gcc/bin/../sparc-gaisler-elf/bsp/gr712rc/leon3/mfix-gr712rc/soft/trap_table_mvt_tn0018.S.o
 .debug_aranges
                0x0000000000000020       0x20 /home/fsw/rep/tasa/lib/bcc-2.2.3-gcc/bin/../sparc-gaisler-elf/bsp/gr712rc/leon3/mfix-gr712rc/soft/crt0.S.o
 .debug_aranges
                0x0000000000000040       0x20 /tmp/ccucSNOv.o
 .debug_aranges
                0x0000000000000060       0x20 /home/fsw/rep/tasa/lib/bcc-2.2.3-gcc/bin/../sparc-gaisler-elf/bsp/gr712rc/leon3/mfix-gr712rc/soft/libbcc.a(reset_trap_mvt.S.o)
 .debug_aranges
                0x0000000000000080       0x20 /home/fsw/rep/tasa/lib/bcc-2.2.3-gcc/bin/../sparc-gaisler-elf/bsp/gr712rc/leon3/mfix-gr712rc/soft/libbcc.a(window_trap.S.o)
 .debug_aranges
                0x00000000000000a0       0x20 /home/fsw/rep/tasa/lib/bcc-2.2.3-gcc/bin/../sparc-gaisler-elf/bsp/gr712rc/leon3/mfix-gr712rc/soft/libbcc.a(flush_windows_trap.S.o)
 .debug_aranges
                0x00000000000000c0       0x20 /home/fsw/rep/tasa/lib/bcc-2.2.3-gcc/bin/../sparc-gaisler-elf/bsp/gr712rc/leon3/mfix-gr712rc/soft/libbcc.a(sw_trap_set_pil.S.o)
 .debug_aranges
                0x00000000000000e0       0x20 /home/fsw/rep/tasa/lib/bcc-2.2.3-gcc/bin/../sparc-gaisler-elf/bsp/gr712rc/leon3/mfix-gr712rc/soft/libbcc.a(init.S.o)
 .debug_aranges
                0x0000000000000100       0x20 /home/fsw/rep/tasa/lib/bcc-2.2.3-gcc/bin/../sparc-gaisler-elf/bsp/gr712rc/leon3/mfix-gr712rc/soft/libbcc.a(leon_info.S.o)
 .debug_aranges
                0x0000000000000120       0x20 /home/fsw/rep/tasa/lib/bcc-2.2.3-gcc/bin/../sparc-gaisler-elf/bsp/gr712rc/leon3/mfix-gr712rc/soft/libbcc.a(dwzero.S.o)
 .debug_aranges
                0x0000000000000140       0x20 /home/fsw/rep/tasa/lib/bcc-2.2.3-gcc/bin/../sparc-gaisler-elf/bsp/gr712rc/leon3/mfix-gr712rc/soft/libbcc.a(copy_data.c.o)
 .debug_aranges
                0x0000000000000160       0x18 /home/fsw/rep/tasa/lib/bcc-2.2.3-gcc/bin/../sparc-gaisler-elf/bsp/gr712rc/leon3/mfix-gr712rc/soft/libbcc.a(argv.c.o)
 .debug_aranges
                0x0000000000000178       0x20 /home/fsw/rep/tasa/lib/bcc-2.2.3-gcc/bin/../sparc-gaisler-elf/bsp/gr712rc/leon3/mfix-gr712rc/soft/libbcc.a(interrupt_trap_tn0018.S.o)
 .debug_aranges
                0x0000000000000198       0x20 /home/fsw/rep/tasa/lib/bcc-2.2.3-gcc/bin/../sparc-gaisler-elf/bsp/gr712rc/leon3/mfix-gr712rc/soft/libbcc.a(int_irqmp_get_source.c.o)
 .debug_aranges
                0x00000000000001b8       0x20 /home/fsw/rep/tasa/lib/bcc-2.2.3-gcc/bin/../sparc-gaisler-elf/bsp/gr712rc/leon3/mfix-gr712rc/soft/libbcc.a(int_irqmp_mp.c.o)
 .debug_aranges
                0x00000000000001d8       0x20 /home/fsw/rep/tasa/lib/bcc-2.2.3-gcc/bin/../sparc-gaisler-elf/bsp/gr712rc/leon3/mfix-gr712rc/soft/libbcc.a(int_irqmp_init.c.o)
 .debug_aranges
                0x00000000000001f8       0x20 /home/fsw/rep/tasa/lib/bcc-2.2.3-gcc/bin/../sparc-gaisler-elf/bsp/gr712rc/leon3/mfix-gr712rc/soft/libbcc.a(con_apbuart_init.c.o)
 .debug_aranges
                0x0000000000000218       0x20 /home/fsw/rep/tasa/lib/bcc-2.2.3-gcc/bin/../sparc-gaisler-elf/bsp/gr712rc/leon3/mfix-gr712rc/soft/libbcc.a(timer_gptimer_init.c.o)
 .debug_aranges
                0x0000000000000238       0x18 /home/fsw/rep/tasa/lib/bcc-2.2.3-gcc/bin/../sparc-gaisler-elf/bsp/gr712rc/leon3/mfix-gr712rc/soft/libbcc.a(isr.c.o)
 .debug_aranges
                0x0000000000000250       0x18 /home/fsw/rep/tasa/lib/bcc-2.2.3-gcc/bin/../sparc-gaisler-elf/bsp/gr712rc/leon3/mfix-gr712rc/soft/libbcc.a(int_nest.c.o)
 .debug_aranges
                0x0000000000000268       0x18 /home/fsw/rep/tasa/lib/bcc-2.2.3-gcc/bin/../sparc-gaisler-elf/bsp/gr712rc/leon3/mfix-gr712rc/soft/libbcc.a(int_irqmp_handle.c.o)
 .debug_aranges
                0x0000000000000280       0x20 /home/fsw/rep/tasa/lib/bcc-2.2.3-gcc/bin/../lib/gcc/sparc-gaisler-elf/10.2.0/../../../../sparc-gaisler-elf/lib/leon3/mfix-gr712rc/soft/libc.a(lib_a-atexit.o)
 .debug_aranges
                0x00000000000002a0       0x20 /home/fsw/rep/tasa/lib/bcc-2.2.3-gcc/bin/../lib/gcc/sparc-gaisler-elf/10.2.0/../../../../sparc-gaisler-elf/lib/leon3/mfix-gr712rc/soft/libc.a(lib_a-exit.o)
 .debug_aranges
                0x00000000000002c0       0x18 /home/fsw/rep/tasa/lib/bcc-2.2.3-gcc/bin/../lib/gcc/sparc-gaisler-elf/10.2.0/../../../../sparc-gaisler-elf/lib/leon3/mfix-gr712rc/soft/libc.a(lib_a-impure.o)
 .debug_aranges
                0x00000000000002d8       0x20 /home/fsw/rep/tasa/lib/bcc-2.2.3-gcc/bin/../lib/gcc/sparc-gaisler-elf/10.2.0/../../../../sparc-gaisler-elf/lib/leon3/mfix-gr712rc/soft/libc.a(lib_a-printf.o)
 .debug_aranges
                0x00000000000002f8       0x20 /home/fsw/rep/tasa/lib/bcc-2.2.3-gcc/bin/../lib/gcc/sparc-gaisler-elf/10.2.0/../../../../sparc-gaisler-elf/lib/leon3/mfix-gr712rc/soft/libc.a(lib_a-putchar.o)
 .debug_aranges
                0x0000000000000318       0x20 /home/fsw/rep/tasa/lib/bcc-2.2.3-gcc/bin/../lib/gcc/sparc-gaisler-elf/10.2.0/../../../../sparc-gaisler-elf/lib/leon3/mfix-gr712rc/soft/libc.a(lib_a-puts.o)
 .debug_aranges
                0x0000000000000338       0x20 /home/fsw/rep/tasa/lib/bcc-2.2.3-gcc/bin/../lib/gcc/sparc-gaisler-elf/10.2.0/../../../../sparc-gaisler-elf/lib/leon3/mfix-gr712rc/soft/libc.a(lib_a-strlen.o)
 .debug_aranges
                0x0000000000000358       0x20 /home/fsw/rep/tasa/lib/bcc-2.2.3-gcc/bin/../lib/gcc/sparc-gaisler-elf/10.2.0/../../../../sparc-gaisler-elf/lib/leon3/mfix-gr712rc/soft/libc.a(lib_a-vfprintf.o)
 .debug_aranges
                0x0000000000000378       0x20 /home/fsw/rep/tasa/lib/bcc-2.2.3-gcc/bin/../lib/gcc/sparc-gaisler-elf/10.2.0/../../../../sparc-gaisler-elf/lib/leon3/mfix-gr712rc/soft/libc.a(lib_a-wsetup.o)
 .debug_aranges
                0x0000000000000398       0x20 /home/fsw/rep/tasa/lib/bcc-2.2.3-gcc/bin/../lib/gcc/sparc-gaisler-elf/10.2.0/../../../../sparc-gaisler-elf/lib/leon3/mfix-gr712rc/soft/libc.a(lib_a-__atexit.o)
 .debug_aranges
                0x00000000000003b8       0x20 /home/fsw/rep/tasa/lib/bcc-2.2.3-gcc/bin/../lib/gcc/sparc-gaisler-elf/10.2.0/../../../../sparc-gaisler-elf/lib/leon3/mfix-gr712rc/soft/libc.a(lib_a-__call_atexit.o)
 .debug_aranges
                0x00000000000003d8       0x20 /home/fsw/rep/tasa/lib/bcc-2.2.3-gcc/bin/../lib/gcc/sparc-gaisler-elf/10.2.0/../../../../sparc-gaisler-elf/lib/leon3/mfix-gr712rc/soft/libc.a(lib_a-dtoa.o)
 .debug_aranges
                0x00000000000003f8       0x20 /home/fsw/rep/tasa/lib/bcc-2.2.3-gcc/bin/../lib/gcc/sparc-gaisler-elf/10.2.0/../../../../sparc-gaisler-elf/lib/leon3/mfix-gr712rc/soft/libc.a(lib_a-fflush.o)
 .debug_aranges
                0x0000000000000418       0x20 /home/fsw/rep/tasa/lib/bcc-2.2.3-gcc/bin/../lib/gcc/sparc-gaisler-elf/10.2.0/../../../../sparc-gaisler-elf/lib/leon3/mfix-gr712rc/soft/libc.a(lib_a-findfp.o)
 .debug_aranges
                0x0000000000000438       0x20 /home/fsw/rep/tasa/lib/bcc-2.2.3-gcc/bin/../lib/gcc/sparc-gaisler-elf/10.2.0/../../../../sparc-gaisler-elf/lib/leon3/mfix-gr712rc/soft/libc.a(lib_a-freer.o)
 .debug_aranges
                0x0000000000000458       0x20 /home/fsw/rep/tasa/lib/bcc-2.2.3-gcc/bin/../lib/gcc/sparc-gaisler-elf/10.2.0/../../../../sparc-gaisler-elf/lib/leon3/mfix-gr712rc/soft/libc.a(lib_a-fvwrite.o)
 .debug_aranges
                0x0000000000000478       0x20 /home/fsw/rep/tasa/lib/bcc-2.2.3-gcc/bin/../lib/gcc/sparc-gaisler-elf/10.2.0/../../../../sparc-gaisler-elf/lib/leon3/mfix-gr712rc/soft/libc.a(lib_a-fwalk.o)
 .debug_aranges
                0x0000000000000498       0x20 /home/fsw/rep/tasa/lib/bcc-2.2.3-gcc/bin/../lib/gcc/sparc-gaisler-elf/10.2.0/../../../../sparc-gaisler-elf/lib/leon3/mfix-gr712rc/soft/libc.a(lib_a-localeconv.o)
 .debug_aranges
                0x00000000000004b8       0x20 /home/fsw/rep/tasa/lib/bcc-2.2.3-gcc/bin/../lib/gcc/sparc-gaisler-elf/10.2.0/../../../../sparc-gaisler-elf/lib/leon3/mfix-gr712rc/soft/libc.a(lib_a-makebuf.o)
 .debug_aranges
                0x00000000000004d8       0x20 /home/fsw/rep/tasa/lib/bcc-2.2.3-gcc/bin/../lib/gcc/sparc-gaisler-elf/10.2.0/../../../../sparc-gaisler-elf/lib/leon3/mfix-gr712rc/soft/libc.a(lib_a-malloc.o)
 .debug_aranges
                0x00000000000004f8       0x20 /home/fsw/rep/tasa/lib/bcc-2.2.3-gcc/bin/../lib/gcc/sparc-gaisler-elf/10.2.0/../../../../sparc-gaisler-elf/lib/leon3/mfix-gr712rc/soft/libc.a(lib_a-mallocr.o)
 .debug_aranges
                0x0000000000000518       0x20 /home/fsw/rep/tasa/lib/bcc-2.2.3-gcc/bin/../lib/gcc/sparc-gaisler-elf/10.2.0/../../../../sparc-gaisler-elf/lib/leon3/mfix-gr712rc/soft/libc.a(lib_a-memchr.o)
 .debug_aranges
                0x0000000000000538       0x20 /home/fsw/rep/tasa/lib/bcc-2.2.3-gcc/bin/../lib/gcc/sparc-gaisler-elf/10.2.0/../../../../sparc-gaisler-elf/lib/leon3/mfix-gr712rc/soft/libc.a(lib_a-memcpy.o)
 .debug_aranges
                0x0000000000000558       0x20 /home/fsw/rep/tasa/lib/bcc-2.2.3-gcc/bin/../lib/gcc/sparc-gaisler-elf/10.2.0/../../../../sparc-gaisler-elf/lib/leon3/mfix-gr712rc/soft/libc.a(lib_a-memmove.o)
 .debug_aranges
                0x0000000000000578       0x20 /home/fsw/rep/tasa/lib/bcc-2.2.3-gcc/bin/../lib/gcc/sparc-gaisler-elf/10.2.0/../../../../sparc-gaisler-elf/lib/leon3/mfix-gr712rc/soft/libc.a(lib_a-memset.o)
 .debug_aranges
                0x0000000000000598       0x20 /home/fsw/rep/tasa/lib/bcc-2.2.3-gcc/bin/../lib/gcc/sparc-gaisler-elf/10.2.0/../../../../sparc-gaisler-elf/lib/leon3/mfix-gr712rc/soft/libc.a(lib_a-mlock.o)
 .debug_aranges
                0x00000000000005b8       0x20 /home/fsw/rep/tasa/lib/bcc-2.2.3-gcc/bin/../lib/gcc/sparc-gaisler-elf/10.2.0/../../../../sparc-gaisler-elf/lib/leon3/mfix-gr712rc/soft/libc.a(lib_a-mprec.o)
 .debug_aranges
                0x00000000000005d8       0x20 /home/fsw/rep/tasa/lib/bcc-2.2.3-gcc/bin/../lib/gcc/sparc-gaisler-elf/10.2.0/../../../../sparc-gaisler-elf/lib/leon3/mfix-gr712rc/soft/libc.a(lib_a-putc.o)
 .debug_aranges
                0x00000000000005f8       0x20 /home/fsw/rep/tasa/lib/bcc-2.2.3-gcc/bin/../lib/gcc/sparc-gaisler-elf/10.2.0/../../../../sparc-gaisler-elf/lib/leon3/mfix-gr712rc/soft/libc.a(lib_a-reallocr.o)
 .debug_aranges
                0x0000000000000618       0x20 /home/fsw/rep/tasa/lib/bcc-2.2.3-gcc/bin/../lib/gcc/sparc-gaisler-elf/10.2.0/../../../../sparc-gaisler-elf/lib/leon3/mfix-gr712rc/soft/libc.a(lib_a-s_frexp.o)
 .debug_aranges
                0x0000000000000638       0x20 /home/fsw/rep/tasa/lib/bcc-2.2.3-gcc/bin/../lib/gcc/sparc-gaisler-elf/10.2.0/../../../../sparc-gaisler-elf/lib/leon3/mfix-gr712rc/soft/libc.a(lib_a-sbrkr.o)
 .debug_aranges
                0x0000000000000658       0x20 /home/fsw/rep/tasa/lib/bcc-2.2.3-gcc/bin/../lib/gcc/sparc-gaisler-elf/10.2.0/../../../../sparc-gaisler-elf/lib/leon3/mfix-gr712rc/soft/libc.a(lib_a-stdio.o)
 .debug_aranges
                0x0000000000000678       0x20 /home/fsw/rep/tasa/lib/bcc-2.2.3-gcc/bin/../lib/gcc/sparc-gaisler-elf/10.2.0/../../../../sparc-gaisler-elf/lib/leon3/mfix-gr712rc/soft/libc.a(lib_a-strncpy.o)
 .debug_aranges
                0x0000000000000698       0x20 /home/fsw/rep/tasa/lib/bcc-2.2.3-gcc/bin/../lib/gcc/sparc-gaisler-elf/10.2.0/../../../../sparc-gaisler-elf/lib/leon3/mfix-gr712rc/soft/libc.a(lib_a-vfiprintf.o)
 .debug_aranges
                0x00000000000006b8       0x20 /home/fsw/rep/tasa/lib/bcc-2.2.3-gcc/bin/../lib/gcc/sparc-gaisler-elf/10.2.0/../../../../sparc-gaisler-elf/lib/leon3/mfix-gr712rc/soft/libc.a(lib_a-wbuf.o)
 .debug_aranges
                0x00000000000006d8       0x20 /home/fsw/rep/tasa/lib/bcc-2.2.3-gcc/bin/../lib/gcc/sparc-gaisler-elf/10.2.0/../../../../sparc-gaisler-elf/lib/leon3/mfix-gr712rc/soft/libc.a(lib_a-writer.o)
 .debug_aranges
                0x00000000000006f8       0x20 /home/fsw/rep/tasa/lib/bcc-2.2.3-gcc/bin/../lib/gcc/sparc-gaisler-elf/10.2.0/../../../../sparc-gaisler-elf/lib/leon3/mfix-gr712rc/soft/libc.a(lib_a-callocr.o)
 .debug_aranges
                0x0000000000000718       0x20 /home/fsw/rep/tasa/lib/bcc-2.2.3-gcc/bin/../lib/gcc/sparc-gaisler-elf/10.2.0/../../../../sparc-gaisler-elf/lib/leon3/mfix-gr712rc/soft/libc.a(lib_a-closer.o)
 .debug_aranges
                0x0000000000000738       0x20 /home/fsw/rep/tasa/lib/bcc-2.2.3-gcc/bin/../lib/gcc/sparc-gaisler-elf/10.2.0/../../../../sparc-gaisler-elf/lib/leon3/mfix-gr712rc/soft/libc.a(lib_a-fclose.o)
 .debug_aranges
                0x0000000000000758       0x20 /home/fsw/rep/tasa/lib/bcc-2.2.3-gcc/bin/../lib/gcc/sparc-gaisler-elf/10.2.0/../../../../sparc-gaisler-elf/lib/leon3/mfix-gr712rc/soft/libc.a(lib_a-fputwc.o)
 .debug_aranges
                0x0000000000000778       0x20 /home/fsw/rep/tasa/lib/bcc-2.2.3-gcc/bin/../lib/gcc/sparc-gaisler-elf/10.2.0/../../../../sparc-gaisler-elf/lib/leon3/mfix-gr712rc/soft/libc.a(lib_a-fstatr.o)
 .debug_aranges
                0x0000000000000798       0x20 /home/fsw/rep/tasa/lib/bcc-2.2.3-gcc/bin/../lib/gcc/sparc-gaisler-elf/10.2.0/../../../../sparc-gaisler-elf/lib/leon3/mfix-gr712rc/soft/libc.a(lib_a-isattyr.o)
 .debug_aranges
                0x00000000000007b8       0x20 /home/fsw/rep/tasa/lib/bcc-2.2.3-gcc/bin/../lib/gcc/sparc-gaisler-elf/10.2.0/../../../../sparc-gaisler-elf/lib/leon3/mfix-gr712rc/soft/libc.a(lib_a-locale.o)
 .debug_aranges
                0x00000000000007d8       0x20 /home/fsw/rep/tasa/lib/bcc-2.2.3-gcc/bin/../lib/gcc/sparc-gaisler-elf/10.2.0/../../../../sparc-gaisler-elf/lib/leon3/mfix-gr712rc/soft/libc.a(lib_a-lseekr.o)
 .debug_aranges
                0x00000000000007f8       0x20 /home/fsw/rep/tasa/lib/bcc-2.2.3-gcc/bin/../lib/gcc/sparc-gaisler-elf/10.2.0/../../../../sparc-gaisler-elf/lib/leon3/mfix-gr712rc/soft/libc.a(lib_a-mbtowc_r.o)
 .debug_aranges
                0x0000000000000818       0x20 /home/fsw/rep/tasa/lib/bcc-2.2.3-gcc/bin/../lib/gcc/sparc-gaisler-elf/10.2.0/../../../../sparc-gaisler-elf/lib/leon3/mfix-gr712rc/soft/libc.a(lib_a-readr.o)
 .debug_aranges
                0x0000000000000838       0x20 /home/fsw/rep/tasa/lib/bcc-2.2.3-gcc/bin/../lib/gcc/sparc-gaisler-elf/10.2.0/../../../../sparc-gaisler-elf/lib/leon3/mfix-gr712rc/soft/libc.a(lib_a-reent.o)
 .debug_aranges
                0x0000000000000858       0x20 /home/fsw/rep/tasa/lib/bcc-2.2.3-gcc/bin/../lib/gcc/sparc-gaisler-elf/10.2.0/../../../../sparc-gaisler-elf/lib/leon3/mfix-gr712rc/soft/libc.a(lib_a-strcmp.o)
 .debug_aranges
                0x0000000000000878       0x20 /home/fsw/rep/tasa/lib/bcc-2.2.3-gcc/bin/../lib/gcc/sparc-gaisler-elf/10.2.0/../../../../sparc-gaisler-elf/lib/leon3/mfix-gr712rc/soft/libc.a(lib_a-wcrtomb.o)
 .debug_aranges
                0x0000000000000898       0x20 /home/fsw/rep/tasa/lib/bcc-2.2.3-gcc/bin/../lib/gcc/sparc-gaisler-elf/10.2.0/../../../../sparc-gaisler-elf/lib/leon3/mfix-gr712rc/soft/libc.a(lib_a-wctomb_r.o)
 .debug_aranges
                0x00000000000008b8       0x18 /home/fsw/rep/tasa/lib/bcc-2.2.3-gcc/bin/../lib/gcc/sparc-gaisler-elf/10.2.0/../../../../sparc-gaisler-elf/lib/leon3/mfix-gr712rc/soft/libc.a(lib_a-ctype_.o)
 .debug_aranges
                0x00000000000008d0       0x20 /home/fsw/rep/tasa/lib/bcc-2.2.3-gcc/bin/../sparc-gaisler-elf/bsp/gr712rc/leon3/mfix-gr712rc/soft/libbcc.a(_exit.S.o)
 .debug_aranges
                0x00000000000008f0       0x20 /home/fsw/rep/tasa/lib/bcc-2.2.3-gcc/bin/../sparc-gaisler-elf/bsp/gr712rc/leon3/mfix-gr712rc/soft/libbcc.a(read.c.o)
 .debug_aranges
                0x0000000000000910       0x20 /home/fsw/rep/tasa/lib/bcc-2.2.3-gcc/bin/../sparc-gaisler-elf/bsp/gr712rc/leon3/mfix-gr712rc/soft/libbcc.a(sbrk.c.o)
 .debug_aranges
                0x0000000000000930       0x18 /home/fsw/rep/tasa/lib/bcc-2.2.3-gcc/bin/../sparc-gaisler-elf/bsp/gr712rc/leon3/mfix-gr712rc/soft/libbcc.a(heap.c.o)
 .debug_aranges
                0x0000000000000948       0x20 /home/fsw/rep/tasa/lib/bcc-2.2.3-gcc/bin/../sparc-gaisler-elf/bsp/gr712rc/leon3/mfix-gr712rc/soft/libbcc.a(write.c.o)
 .debug_aranges
                0x0000000000000968       0x20 /home/fsw/rep/tasa/lib/bcc-2.2.3-gcc/bin/../sparc-gaisler-elf/bsp/gr712rc/leon3/mfix-gr712rc/soft/libbcc.a(stubs.S.o)
 .debug_aranges
                0x0000000000000988       0x20 /home/fsw/rep/tasa/lib/bcc-2.2.3-gcc/bin/../sparc-gaisler-elf/bsp/gr712rc/leon3/mfix-gr712rc/soft/libbcc.a(con_apbuart.c.o)
 .debug_aranges
                0x00000000000009a8       0x18 /home/fsw/rep/tasa/lib/bcc-2.2.3-gcc/bin/../sparc-gaisler-elf/bsp/gr712rc/leon3/mfix-gr712rc/soft/libbcc.a(con_handle.c.o)
 .debug_aranges
                0x00000000000009c0       0x20 /home/fsw/rep/tasa/lib/bcc-2.2.3-gcc/bin/../lib/gcc/sparc-gaisler-elf/10.2.0/leon3/mfix-gr712rc/soft/libgcc.a(_udivdi3.o)
 .debug_aranges
                0x00000000000009e0       0x20 /home/fsw/rep/tasa/lib/bcc-2.2.3-gcc/bin/../lib/gcc/sparc-gaisler-elf/10.2.0/leon3/mfix-gr712rc/soft/libgcc.a(_umoddi3.o)
 .debug_aranges
                0x0000000000000a00       0x20 /home/fsw/rep/tasa/lib/bcc-2.2.3-gcc/bin/../lib/gcc/sparc-gaisler-elf/10.2.0/leon3/mfix-gr712rc/soft/libgcc.a(_addsub_df.o)
 .debug_aranges
                0x0000000000000a20       0x20 /home/fsw/rep/tasa/lib/bcc-2.2.3-gcc/bin/../lib/gcc/sparc-gaisler-elf/10.2.0/leon3/mfix-gr712rc/soft/libgcc.a(_mul_df.o)
 .debug_aranges
                0x0000000000000a40       0x20 /home/fsw/rep/tasa/lib/bcc-2.2.3-gcc/bin/../lib/gcc/sparc-gaisler-elf/10.2.0/leon3/mfix-gr712rc/soft/libgcc.a(_div_df.o)
 .debug_aranges
                0x0000000000000a60       0x20 /home/fsw/rep/tasa/lib/bcc-2.2.3-gcc/bin/../lib/gcc/sparc-gaisler-elf/10.2.0/leon3/mfix-gr712rc/soft/libgcc.a(_eq_df.o)
 .debug_aranges
                0x0000000000000a80       0x20 /home/fsw/rep/tasa/lib/bcc-2.2.3-gcc/bin/../lib/gcc/sparc-gaisler-elf/10.2.0/leon3/mfix-gr712rc/soft/libgcc.a(_ne_df.o)
 .debug_aranges
                0x0000000000000aa0       0x20 /home/fsw/rep/tasa/lib/bcc-2.2.3-gcc/bin/../lib/gcc/sparc-gaisler-elf/10.2.0/leon3/mfix-gr712rc/soft/libgcc.a(_gt_df.o)
 .debug_aranges
                0x0000000000000ac0       0x20 /home/fsw/rep/tasa/lib/bcc-2.2.3-gcc/bin/../lib/gcc/sparc-gaisler-elf/10.2.0/leon3/mfix-gr712rc/soft/libgcc.a(_lt_df.o)
 .debug_aranges
                0x0000000000000ae0       0x20 /home/fsw/rep/tasa/lib/bcc-2.2.3-gcc/bin/../lib/gcc/sparc-gaisler-elf/10.2.0/leon3/mfix-gr712rc/soft/libgcc.a(_le_df.o)
 .debug_aranges
                0x0000000000000b00       0x20 /home/fsw/rep/tasa/lib/bcc-2.2.3-gcc/bin/../lib/gcc/sparc-gaisler-elf/10.2.0/leon3/mfix-gr712rc/soft/libgcc.a(_unord_df.o)
 .debug_aranges
                0x0000000000000b20       0x20 /home/fsw/rep/tasa/lib/bcc-2.2.3-gcc/bin/../lib/gcc/sparc-gaisler-elf/10.2.0/leon3/mfix-gr712rc/soft/libgcc.a(_si_to_df.o)
 .debug_aranges
                0x0000000000000b40       0x20 /home/fsw/rep/tasa/lib/bcc-2.2.3-gcc/bin/../lib/gcc/sparc-gaisler-elf/10.2.0/leon3/mfix-gr712rc/soft/libgcc.a(_df_to_si.o)
 .debug_aranges
                0x0000000000000b60       0x18 /home/fsw/rep/tasa/lib/bcc-2.2.3-gcc/bin/../lib/gcc/sparc-gaisler-elf/10.2.0/leon3/mfix-gr712rc/soft/libgcc.a(_thenan_df.o)
 .debug_aranges
                0x0000000000000b78       0x20 /home/fsw/rep/tasa/lib/bcc-2.2.3-gcc/bin/../lib/gcc/sparc-gaisler-elf/10.2.0/leon3/mfix-gr712rc/soft/libgcc.a(_usi_to_df.o)
 .debug_aranges
                0x0000000000000b98       0x18 /home/fsw/rep/tasa/lib/bcc-2.2.3-gcc/bin/../lib/gcc/sparc-gaisler-elf/10.2.0/leon3/mfix-gr712rc/soft/libgcc.a(_clz.o)
 .debug_aranges
                0x0000000000000bb0       0x20 /home/fsw/rep/tasa/lib/bcc-2.2.3-gcc/bin/../lib/gcc/sparc-gaisler-elf/10.2.0/leon3/mfix-gr712rc/soft/libgcc.a(_clzsi2.o)
 .debug_aranges
                0x0000000000000bd0       0x20 /home/fsw/rep/tasa/lib/bcc-2.2.3-gcc/bin/../lib/gcc/sparc-gaisler-elf/10.2.0/leon3/mfix-gr712rc/soft/libgcc.a(_pack_df.o)
 .debug_aranges
                0x0000000000000bf0       0x20 /home/fsw/rep/tasa/lib/bcc-2.2.3-gcc/bin/../lib/gcc/sparc-gaisler-elf/10.2.0/leon3/mfix-gr712rc/soft/libgcc.a(_unpack_df.o)
 .debug_aranges
                0x0000000000000c10       0x20 /home/fsw/rep/tasa/lib/bcc-2.2.3-gcc/bin/../lib/gcc/sparc-gaisler-elf/10.2.0/leon3/mfix-gr712rc/soft/libgcc.a(_fpcmp_parts_df.o)

.debug_pubnames
 *(.debug_pubnames)

.debug_info     0x0000000000000000    0x24920
 *(.debug_info)
 .debug_info    0x0000000000000000       0x26 /home/fsw/rep/tasa/lib/bcc-2.2.3-gcc/bin/../sparc-gaisler-elf/bsp/gr712rc/leon3/mfix-gr712rc/soft/trap_table_mvt_tn0018.S.o
 .debug_info    0x0000000000000026       0x26 /home/fsw/rep/tasa/lib/bcc-2.2.3-gcc/bin/../sparc-gaisler-elf/bsp/gr712rc/leon3/mfix-gr712rc/soft/crt0.S.o
 .debug_info    0x000000000000004c      0x40d /tmp/ccucSNOv.o
 .debug_info    0x0000000000000459       0x26 /home/fsw/rep/tasa/lib/bcc-2.2.3-gcc/bin/../sparc-gaisler-elf/bsp/gr712rc/leon3/mfix-gr712rc/soft/libbcc.a(reset_trap_mvt.S.o)
 .debug_info    0x000000000000047f       0x26 /home/fsw/rep/tasa/lib/bcc-2.2.3-gcc/bin/../sparc-gaisler-elf/bsp/gr712rc/leon3/mfix-gr712rc/soft/libbcc.a(window_trap.S.o)
 .debug_info    0x00000000000004a5       0x26 /home/fsw/rep/tasa/lib/bcc-2.2.3-gcc/bin/../sparc-gaisler-elf/bsp/gr712rc/leon3/mfix-gr712rc/soft/libbcc.a(flush_windows_trap.S.o)
 .debug_info    0x00000000000004cb       0x26 /home/fsw/rep/tasa/lib/bcc-2.2.3-gcc/bin/../sparc-gaisler-elf/bsp/gr712rc/leon3/mfix-gr712rc/soft/libbcc.a(sw_trap_set_pil.S.o)
 .debug_info    0x00000000000004f1       0x26 /home/fsw/rep/tasa/lib/bcc-2.2.3-gcc/bin/../sparc-gaisler-elf/bsp/gr712rc/leon3/mfix-gr712rc/soft/libbcc.a(init.S.o)
 .debug_info    0x0000000000000517       0x26 /home/fsw/rep/tasa/lib/bcc-2.2.3-gcc/bin/../sparc-gaisler-elf/bsp/gr712rc/leon3/mfix-gr712rc/soft/libbcc.a(leon_info.S.o)
 .debug_info    0x000000000000053d       0x26 /home/fsw/rep/tasa/lib/bcc-2.2.3-gcc/bin/../sparc-gaisler-elf/bsp/gr712rc/leon3/mfix-gr712rc/soft/libbcc.a(dwzero.S.o)
 .debug_info    0x0000000000000563       0xe8 /home/fsw/rep/tasa/lib/bcc-2.2.3-gcc/bin/../sparc-gaisler-elf/bsp/gr712rc/leon3/mfix-gr712rc/soft/libbcc.a(copy_data.c.o)
 .debug_info    0x000000000000064b       0xd9 /home/fsw/rep/tasa/lib/bcc-2.2.3-gcc/bin/../sparc-gaisler-elf/bsp/gr712rc/leon3/mfix-gr712rc/soft/libbcc.a(argv.c.o)
 .debug_info    0x0000000000000724       0x26 /home/fsw/rep/tasa/lib/bcc-2.2.3-gcc/bin/../sparc-gaisler-elf/bsp/gr712rc/leon3/mfix-gr712rc/soft/libbcc.a(interrupt_trap_tn0018.S.o)
 .debug_info    0x000000000000074a      0x2db /home/fsw/rep/tasa/lib/bcc-2.2.3-gcc/bin/../sparc-gaisler-elf/bsp/gr712rc/leon3/mfix-gr712rc/soft/libbcc.a(int_irqmp_get_source.c.o)
 .debug_info    0x0000000000000a25      0x3a6 /home/fsw/rep/tasa/lib/bcc-2.2.3-gcc/bin/../sparc-gaisler-elf/bsp/gr712rc/leon3/mfix-gr712rc/soft/libbcc.a(int_irqmp_mp.c.o)
 .debug_info    0x0000000000000dcb      0x390 /home/fsw/rep/tasa/lib/bcc-2.2.3-gcc/bin/../sparc-gaisler-elf/bsp/gr712rc/leon3/mfix-gr712rc/soft/libbcc.a(int_irqmp_init.c.o)
 .debug_info    0x000000000000115b       0xd7 /home/fsw/rep/tasa/lib/bcc-2.2.3-gcc/bin/../sparc-gaisler-elf/bsp/gr712rc/leon3/mfix-gr712rc/soft/libbcc.a(con_apbuart_init.c.o)
 .debug_info    0x0000000000001232      0x17d /home/fsw/rep/tasa/lib/bcc-2.2.3-gcc/bin/../sparc-gaisler-elf/bsp/gr712rc/leon3/mfix-gr712rc/soft/libbcc.a(timer_gptimer_init.c.o)
 .debug_info    0x00000000000013af       0xf5 /home/fsw/rep/tasa/lib/bcc-2.2.3-gcc/bin/../sparc-gaisler-elf/bsp/gr712rc/leon3/mfix-gr712rc/soft/libbcc.a(isr.c.o)
 .debug_info    0x00000000000014a4       0xcd /home/fsw/rep/tasa/lib/bcc-2.2.3-gcc/bin/../sparc-gaisler-elf/bsp/gr712rc/leon3/mfix-gr712rc/soft/libbcc.a(int_nest.c.o)
 .debug_info    0x0000000000001571       0xeb /home/fsw/rep/tasa/lib/bcc-2.2.3-gcc/bin/../sparc-gaisler-elf/bsp/gr712rc/leon3/mfix-gr712rc/soft/libbcc.a(int_irqmp_handle.c.o)
 .debug_info    0x000000000000165c      0x102 /home/fsw/rep/tasa/lib/bcc-2.2.3-gcc/bin/../lib/gcc/sparc-gaisler-elf/10.2.0/../../../../sparc-gaisler-elf/lib/leon3/mfix-gr712rc/soft/libc.a(lib_a-atexit.o)
 .debug_info    0x000000000000175e      0x7de /home/fsw/rep/tasa/lib/bcc-2.2.3-gcc/bin/../lib/gcc/sparc-gaisler-elf/10.2.0/../../../../sparc-gaisler-elf/lib/leon3/mfix-gr712rc/soft/libc.a(lib_a-exit.o)
 .debug_info    0x0000000000001f3c      0x83e /home/fsw/rep/tasa/lib/bcc-2.2.3-gcc/bin/../lib/gcc/sparc-gaisler-elf/10.2.0/../../../../sparc-gaisler-elf/lib/leon3/mfix-gr712rc/soft/libc.a(lib_a-impure.o)
 .debug_info    0x000000000000277a      0x916 /home/fsw/rep/tasa/lib/bcc-2.2.3-gcc/bin/../lib/gcc/sparc-gaisler-elf/10.2.0/../../../../sparc-gaisler-elf/lib/leon3/mfix-gr712rc/soft/libc.a(lib_a-printf.o)
 .debug_info    0x0000000000003090      0x891 /home/fsw/rep/tasa/lib/bcc-2.2.3-gcc/bin/../lib/gcc/sparc-gaisler-elf/10.2.0/../../../../sparc-gaisler-elf/lib/leon3/mfix-gr712rc/soft/libc.a(lib_a-putchar.o)
 .debug_info    0x0000000000003921      0xaf5 /home/fsw/rep/tasa/lib/bcc-2.2.3-gcc/bin/../lib/gcc/sparc-gaisler-elf/10.2.0/../../../../sparc-gaisler-elf/lib/leon3/mfix-gr712rc/soft/libc.a(lib_a-puts.o)
 .debug_info    0x0000000000004416       0xee /home/fsw/rep/tasa/lib/bcc-2.2.3-gcc/bin/../lib/gcc/sparc-gaisler-elf/10.2.0/../../../../sparc-gaisler-elf/lib/leon3/mfix-gr712rc/soft/libc.a(lib_a-strlen.o)
 .debug_info    0x0000000000004504     0x1e8b /home/fsw/rep/tasa/lib/bcc-2.2.3-gcc/bin/../lib/gcc/sparc-gaisler-elf/10.2.0/../../../../sparc-gaisler-elf/lib/leon3/mfix-gr712rc/soft/libc.a(lib_a-vfprintf.o)
 .debug_info    0x000000000000638f      0x8dd /home/fsw/rep/tasa/lib/bcc-2.2.3-gcc/bin/../lib/gcc/sparc-gaisler-elf/10.2.0/../../../../sparc-gaisler-elf/lib/leon3/mfix-gr712rc/soft/libc.a(lib_a-wsetup.o)
 .debug_info    0x0000000000006c6c      0x264 /home/fsw/rep/tasa/lib/bcc-2.2.3-gcc/bin/../lib/gcc/sparc-gaisler-elf/10.2.0/../../../../sparc-gaisler-elf/lib/leon3/mfix-gr712rc/soft/libc.a(lib_a-__atexit.o)
 .debug_info    0x0000000000006ed0      0x28d /home/fsw/rep/tasa/lib/bcc-2.2.3-gcc/bin/../lib/gcc/sparc-gaisler-elf/10.2.0/../../../../sparc-gaisler-elf/lib/leon3/mfix-gr712rc/soft/libc.a(lib_a-__call_atexit.o)
 .debug_info    0x000000000000715d     0x1823 /home/fsw/rep/tasa/lib/bcc-2.2.3-gcc/bin/../lib/gcc/sparc-gaisler-elf/10.2.0/../../../../sparc-gaisler-elf/lib/leon3/mfix-gr712rc/soft/libc.a(lib_a-dtoa.o)
 .debug_info    0x0000000000008980      0xb04 /home/fsw/rep/tasa/lib/bcc-2.2.3-gcc/bin/../lib/gcc/sparc-gaisler-elf/10.2.0/../../../../sparc-gaisler-elf/lib/leon3/mfix-gr712rc/soft/libc.a(lib_a-fflush.o)
 .debug_info    0x0000000000009484      0xddb /home/fsw/rep/tasa/lib/bcc-2.2.3-gcc/bin/../lib/gcc/sparc-gaisler-elf/10.2.0/../../../../sparc-gaisler-elf/lib/leon3/mfix-gr712rc/soft/libc.a(lib_a-findfp.o)
 .debug_info    0x000000000000a25f      0xb8d /home/fsw/rep/tasa/lib/bcc-2.2.3-gcc/bin/../lib/gcc/sparc-gaisler-elf/10.2.0/../../../../sparc-gaisler-elf/lib/leon3/mfix-gr712rc/soft/libc.a(lib_a-freer.o)
 .debug_info    0x000000000000adec      0xb03 /home/fsw/rep/tasa/lib/bcc-2.2.3-gcc/bin/../lib/gcc/sparc-gaisler-elf/10.2.0/../../../../sparc-gaisler-elf/lib/leon3/mfix-gr712rc/soft/libc.a(lib_a-fvwrite.o)
 .debug_info    0x000000000000b8ef      0x8db /home/fsw/rep/tasa/lib/bcc-2.2.3-gcc/bin/../lib/gcc/sparc-gaisler-elf/10.2.0/../../../../sparc-gaisler-elf/lib/leon3/mfix-gr712rc/soft/libc.a(lib_a-fwalk.o)
 .debug_info    0x000000000000c1ca      0xb4b /home/fsw/rep/tasa/lib/bcc-2.2.3-gcc/bin/../lib/gcc/sparc-gaisler-elf/10.2.0/../../../../sparc-gaisler-elf/lib/leon3/mfix-gr712rc/soft/libc.a(lib_a-localeconv.o)
 .debug_info    0x000000000000cd15      0xc41 /home/fsw/rep/tasa/lib/bcc-2.2.3-gcc/bin/../lib/gcc/sparc-gaisler-elf/10.2.0/../../../../sparc-gaisler-elf/lib/leon3/mfix-gr712rc/soft/libc.a(lib_a-makebuf.o)
 .debug_info    0x000000000000d956      0x817 /home/fsw/rep/tasa/lib/bcc-2.2.3-gcc/bin/../lib/gcc/sparc-gaisler-elf/10.2.0/../../../../sparc-gaisler-elf/lib/leon3/mfix-gr712rc/soft/libc.a(lib_a-malloc.o)
 .debug_info    0x000000000000e16d      0xcf9 /home/fsw/rep/tasa/lib/bcc-2.2.3-gcc/bin/../lib/gcc/sparc-gaisler-elf/10.2.0/../../../../sparc-gaisler-elf/lib/leon3/mfix-gr712rc/soft/libc.a(lib_a-mallocr.o)
 .debug_info    0x000000000000ee66      0x14e /home/fsw/rep/tasa/lib/bcc-2.2.3-gcc/bin/../lib/gcc/sparc-gaisler-elf/10.2.0/../../../../sparc-gaisler-elf/lib/leon3/mfix-gr712rc/soft/libc.a(lib_a-memchr.o)
 .debug_info    0x000000000000efb4      0x162 /home/fsw/rep/tasa/lib/bcc-2.2.3-gcc/bin/../lib/gcc/sparc-gaisler-elf/10.2.0/../../../../sparc-gaisler-elf/lib/leon3/mfix-gr712rc/soft/libc.a(lib_a-memcpy.o)
 .debug_info    0x000000000000f116      0x152 /home/fsw/rep/tasa/lib/bcc-2.2.3-gcc/bin/../lib/gcc/sparc-gaisler-elf/10.2.0/../../../../sparc-gaisler-elf/lib/leon3/mfix-gr712rc/soft/libc.a(lib_a-memmove.o)
 .debug_info    0x000000000000f268      0x13d /home/fsw/rep/tasa/lib/bcc-2.2.3-gcc/bin/../lib/gcc/sparc-gaisler-elf/10.2.0/../../../../sparc-gaisler-elf/lib/leon3/mfix-gr712rc/soft/libc.a(lib_a-memset.o)
 .debug_info    0x000000000000f3a5      0x7aa /home/fsw/rep/tasa/lib/bcc-2.2.3-gcc/bin/../lib/gcc/sparc-gaisler-elf/10.2.0/../../../../sparc-gaisler-elf/lib/leon3/mfix-gr712rc/soft/libc.a(lib_a-mlock.o)
 .debug_info    0x000000000000fb4f     0x210c /home/fsw/rep/tasa/lib/bcc-2.2.3-gcc/bin/../lib/gcc/sparc-gaisler-elf/10.2.0/../../../../sparc-gaisler-elf/lib/leon3/mfix-gr712rc/soft/libc.a(lib_a-mprec.o)
 .debug_info    0x0000000000011c5b      0xa23 /home/fsw/rep/tasa/lib/bcc-2.2.3-gcc/bin/../lib/gcc/sparc-gaisler-elf/10.2.0/../../../../sparc-gaisler-elf/lib/leon3/mfix-gr712rc/soft/libc.a(lib_a-putc.o)
 .debug_info    0x000000000001267e      0xc15 /home/fsw/rep/tasa/lib/bcc-2.2.3-gcc/bin/../lib/gcc/sparc-gaisler-elf/10.2.0/../../../../sparc-gaisler-elf/lib/leon3/mfix-gr712rc/soft/libc.a(lib_a-reallocr.o)
 .debug_info    0x0000000000013293      0x1eb /home/fsw/rep/tasa/lib/bcc-2.2.3-gcc/bin/../lib/gcc/sparc-gaisler-elf/10.2.0/../../../../sparc-gaisler-elf/lib/leon3/mfix-gr712rc/soft/libc.a(lib_a-s_frexp.o)
 .debug_info    0x000000000001347e      0x801 /home/fsw/rep/tasa/lib/bcc-2.2.3-gcc/bin/../lib/gcc/sparc-gaisler-elf/10.2.0/../../../../sparc-gaisler-elf/lib/leon3/mfix-gr712rc/soft/libc.a(lib_a-sbrkr.o)
 .debug_info    0x0000000000013c7f      0xab3 /home/fsw/rep/tasa/lib/bcc-2.2.3-gcc/bin/../lib/gcc/sparc-gaisler-elf/10.2.0/../../../../sparc-gaisler-elf/lib/leon3/mfix-gr712rc/soft/libc.a(lib_a-stdio.o)
 .debug_info    0x0000000000014732      0x153 /home/fsw/rep/tasa/lib/bcc-2.2.3-gcc/bin/../lib/gcc/sparc-gaisler-elf/10.2.0/../../../../sparc-gaisler-elf/lib/leon3/mfix-gr712rc/soft/libc.a(lib_a-strncpy.o)
 .debug_info    0x0000000000014885     0x2413 /home/fsw/rep/tasa/lib/bcc-2.2.3-gcc/bin/../lib/gcc/sparc-gaisler-elf/10.2.0/../../../../sparc-gaisler-elf/lib/leon3/mfix-gr712rc/soft/libc.a(lib_a-vfiprintf.o)
 .debug_info    0x0000000000016c98      0xa45 /home/fsw/rep/tasa/lib/bcc-2.2.3-gcc/bin/../lib/gcc/sparc-gaisler-elf/10.2.0/../../../../sparc-gaisler-elf/lib/leon3/mfix-gr712rc/soft/libc.a(lib_a-wbuf.o)
 .debug_info    0x00000000000176dd      0x831 /home/fsw/rep/tasa/lib/bcc-2.2.3-gcc/bin/../lib/gcc/sparc-gaisler-elf/10.2.0/../../../../sparc-gaisler-elf/lib/leon3/mfix-gr712rc/soft/libc.a(lib_a-writer.o)
 .debug_info    0x0000000000017f0e      0x8ed /home/fsw/rep/tasa/lib/bcc-2.2.3-gcc/bin/../lib/gcc/sparc-gaisler-elf/10.2.0/../../../../sparc-gaisler-elf/lib/leon3/mfix-gr712rc/soft/libc.a(lib_a-callocr.o)
 .debug_info    0x00000000000187fb      0x7de /home/fsw/rep/tasa/lib/bcc-2.2.3-gcc/bin/../lib/gcc/sparc-gaisler-elf/10.2.0/../../../../sparc-gaisler-elf/lib/leon3/mfix-gr712rc/soft/libc.a(lib_a-closer.o)
 .debug_info    0x0000000000018fd9      0xa42 /home/fsw/rep/tasa/lib/bcc-2.2.3-gcc/bin/../lib/gcc/sparc-gaisler-elf/10.2.0/../../../../sparc-gaisler-elf/lib/leon3/mfix-gr712rc/soft/libc.a(lib_a-fclose.o)
 .debug_info    0x0000000000019a1b      0xb09 /home/fsw/rep/tasa/lib/bcc-2.2.3-gcc/bin/../lib/gcc/sparc-gaisler-elf/10.2.0/../../../../sparc-gaisler-elf/lib/leon3/mfix-gr712rc/soft/libc.a(lib_a-fputwc.o)
 .debug_info    0x000000000001a524      0x9dd /home/fsw/rep/tasa/lib/bcc-2.2.3-gcc/bin/../lib/gcc/sparc-gaisler-elf/10.2.0/../../../../sparc-gaisler-elf/lib/leon3/mfix-gr712rc/soft/libc.a(lib_a-fstatr.o)
 .debug_info    0x000000000001af01      0x7de /home/fsw/rep/tasa/lib/bcc-2.2.3-gcc/bin/../lib/gcc/sparc-gaisler-elf/10.2.0/../../../../sparc-gaisler-elf/lib/leon3/mfix-gr712rc/soft/libc.a(lib_a-isattyr.o)
 .debug_info    0x000000000001b6df      0xcf4 /home/fsw/rep/tasa/lib/bcc-2.2.3-gcc/bin/../lib/gcc/sparc-gaisler-elf/10.2.0/../../../../sparc-gaisler-elf/lib/leon3/mfix-gr712rc/soft/libc.a(lib_a-locale.o)
 .debug_info    0x000000000001c3d3      0x812 /home/fsw/rep/tasa/lib/bcc-2.2.3-gcc/bin/../lib/gcc/sparc-gaisler-elf/10.2.0/../../../../sparc-gaisler-elf/lib/leon3/mfix-gr712rc/soft/libc.a(lib_a-lseekr.o)
 .debug_info    0x000000000001cbe5      0xb78 /home/fsw/rep/tasa/lib/bcc-2.2.3-gcc/bin/../lib/gcc/sparc-gaisler-elf/10.2.0/../../../../sparc-gaisler-elf/lib/leon3/mfix-gr712rc/soft/libc.a(lib_a-mbtowc_r.o)
 .debug_info    0x000000000001d75d      0x82a /home/fsw/rep/tasa/lib/bcc-2.2.3-gcc/bin/../lib/gcc/sparc-gaisler-elf/10.2.0/../../../../sparc-gaisler-elf/lib/leon3/mfix-gr712rc/soft/libc.a(lib_a-readr.o)
 .debug_info    0x000000000001df87      0xc8c /home/fsw/rep/tasa/lib/bcc-2.2.3-gcc/bin/../lib/gcc/sparc-gaisler-elf/10.2.0/../../../../sparc-gaisler-elf/lib/leon3/mfix-gr712rc/soft/libc.a(lib_a-reent.o)
 .debug_info    0x000000000001ec13       0xf2 /home/fsw/rep/tasa/lib/bcc-2.2.3-gcc/bin/../lib/gcc/sparc-gaisler-elf/10.2.0/../../../../sparc-gaisler-elf/lib/leon3/mfix-gr712rc/soft/libc.a(lib_a-strcmp.o)
 .debug_info    0x000000000001ed05      0xc0c /home/fsw/rep/tasa/lib/bcc-2.2.3-gcc/bin/../lib/gcc/sparc-gaisler-elf/10.2.0/../../../../sparc-gaisler-elf/lib/leon3/mfix-gr712rc/soft/libc.a(lib_a-wcrtomb.o)
 .debug_info    0x000000000001f911      0xb31 /home/fsw/rep/tasa/lib/bcc-2.2.3-gcc/bin/../lib/gcc/sparc-gaisler-elf/10.2.0/../../../../sparc-gaisler-elf/lib/leon3/mfix-gr712rc/soft/libc.a(lib_a-wctomb_r.o)
 .debug_info    0x0000000000020442       0xec /home/fsw/rep/tasa/lib/bcc-2.2.3-gcc/bin/../lib/gcc/sparc-gaisler-elf/10.2.0/../../../../sparc-gaisler-elf/lib/leon3/mfix-gr712rc/soft/libc.a(lib_a-ctype_.o)
 .debug_info    0x000000000002052e       0x26 /home/fsw/rep/tasa/lib/bcc-2.2.3-gcc/bin/../sparc-gaisler-elf/bsp/gr712rc/leon3/mfix-gr712rc/soft/libbcc.a(_exit.S.o)
 .debug_info    0x0000000000020554      0x12f /home/fsw/rep/tasa/lib/bcc-2.2.3-gcc/bin/../sparc-gaisler-elf/bsp/gr712rc/leon3/mfix-gr712rc/soft/libbcc.a(read.c.o)
 .debug_info    0x0000000000020683      0x138 /home/fsw/rep/tasa/lib/bcc-2.2.3-gcc/bin/../sparc-gaisler-elf/bsp/gr712rc/leon3/mfix-gr712rc/soft/libbcc.a(sbrk.c.o)
 .debug_info    0x00000000000207bb       0xbd /home/fsw/rep/tasa/lib/bcc-2.2.3-gcc/bin/../sparc-gaisler-elf/bsp/gr712rc/leon3/mfix-gr712rc/soft/libbcc.a(heap.c.o)
 .debug_info    0x0000000000020878      0x154 /home/fsw/rep/tasa/lib/bcc-2.2.3-gcc/bin/../sparc-gaisler-elf/bsp/gr712rc/leon3/mfix-gr712rc/soft/libbcc.a(write.c.o)
 .debug_info    0x00000000000209cc       0x26 /home/fsw/rep/tasa/lib/bcc-2.2.3-gcc/bin/../sparc-gaisler-elf/bsp/gr712rc/leon3/mfix-gr712rc/soft/libbcc.a(stubs.S.o)
 .debug_info    0x00000000000209f2      0x1a7 /home/fsw/rep/tasa/lib/bcc-2.2.3-gcc/bin/../sparc-gaisler-elf/bsp/gr712rc/leon3/mfix-gr712rc/soft/libbcc.a(con_apbuart.c.o)
 .debug_info    0x0000000000020b99       0x9d /home/fsw/rep/tasa/lib/bcc-2.2.3-gcc/bin/../sparc-gaisler-elf/bsp/gr712rc/leon3/mfix-gr712rc/soft/libbcc.a(con_handle.c.o)
 .debug_info    0x0000000000020c36      0x3b4 /home/fsw/rep/tasa/lib/bcc-2.2.3-gcc/bin/../lib/gcc/sparc-gaisler-elf/10.2.0/leon3/mfix-gr712rc/soft/libgcc.a(_udivdi3.o)
 .debug_info    0x0000000000020fea      0x3c7 /home/fsw/rep/tasa/lib/bcc-2.2.3-gcc/bin/../lib/gcc/sparc-gaisler-elf/10.2.0/leon3/mfix-gr712rc/soft/libgcc.a(_umoddi3.o)
 .debug_info    0x00000000000213b1      0x726 /home/fsw/rep/tasa/lib/bcc-2.2.3-gcc/bin/../lib/gcc/sparc-gaisler-elf/10.2.0/leon3/mfix-gr712rc/soft/libgcc.a(_addsub_df.o)
 .debug_info    0x0000000000021ad7      0x553 /home/fsw/rep/tasa/lib/bcc-2.2.3-gcc/bin/../lib/gcc/sparc-gaisler-elf/10.2.0/leon3/mfix-gr712rc/soft/libgcc.a(_mul_df.o)
 .debug_info    0x000000000002202a      0x42d /home/fsw/rep/tasa/lib/bcc-2.2.3-gcc/bin/../lib/gcc/sparc-gaisler-elf/10.2.0/leon3/mfix-gr712rc/soft/libgcc.a(_div_df.o)
 .debug_info    0x0000000000022457      0x317 /home/fsw/rep/tasa/lib/bcc-2.2.3-gcc/bin/../lib/gcc/sparc-gaisler-elf/10.2.0/leon3/mfix-gr712rc/soft/libgcc.a(_eq_df.o)
 .debug_info    0x000000000002276e      0x317 /home/fsw/rep/tasa/lib/bcc-2.2.3-gcc/bin/../lib/gcc/sparc-gaisler-elf/10.2.0/leon3/mfix-gr712rc/soft/libgcc.a(_ne_df.o)
 .debug_info    0x0000000000022a85      0x317 /home/fsw/rep/tasa/lib/bcc-2.2.3-gcc/bin/../lib/gcc/sparc-gaisler-elf/10.2.0/leon3/mfix-gr712rc/soft/libgcc.a(_gt_df.o)
 .debug_info    0x0000000000022d9c      0x317 /home/fsw/rep/tasa/lib/bcc-2.2.3-gcc/bin/../lib/gcc/sparc-gaisler-elf/10.2.0/leon3/mfix-gr712rc/soft/libgcc.a(_lt_df.o)
 .debug_info    0x00000000000230b3      0x317 /home/fsw/rep/tasa/lib/bcc-2.2.3-gcc/bin/../lib/gcc/sparc-gaisler-elf/10.2.0/leon3/mfix-gr712rc/soft/libgcc.a(_le_df.o)
 .debug_info    0x00000000000233ca      0x2f0 /home/fsw/rep/tasa/lib/bcc-2.2.3-gcc/bin/../lib/gcc/sparc-gaisler-elf/10.2.0/leon3/mfix-gr712rc/soft/libgcc.a(_unord_df.o)
 .debug_info    0x00000000000236ba      0x290 /home/fsw/rep/tasa/lib/bcc-2.2.3-gcc/bin/../lib/gcc/sparc-gaisler-elf/10.2.0/leon3/mfix-gr712rc/soft/libgcc.a(_si_to_df.o)
 .debug_info    0x000000000002394a      0x2c9 /home/fsw/rep/tasa/lib/bcc-2.2.3-gcc/bin/../lib/gcc/sparc-gaisler-elf/10.2.0/leon3/mfix-gr712rc/soft/libgcc.a(_df_to_si.o)
 .debug_info    0x0000000000023c13      0x168 /home/fsw/rep/tasa/lib/bcc-2.2.3-gcc/bin/../lib/gcc/sparc-gaisler-elf/10.2.0/leon3/mfix-gr712rc/soft/libgcc.a(_thenan_df.o)
 .debug_info    0x0000000000023d7b      0x263 /home/fsw/rep/tasa/lib/bcc-2.2.3-gcc/bin/../lib/gcc/sparc-gaisler-elf/10.2.0/leon3/mfix-gr712rc/soft/libgcc.a(_usi_to_df.o)
 .debug_info    0x0000000000023fde       0xc9 /home/fsw/rep/tasa/lib/bcc-2.2.3-gcc/bin/../lib/gcc/sparc-gaisler-elf/10.2.0/leon3/mfix-gr712rc/soft/libgcc.a(_clz.o)
 .debug_info    0x00000000000240a7      0x13a /home/fsw/rep/tasa/lib/bcc-2.2.3-gcc/bin/../lib/gcc/sparc-gaisler-elf/10.2.0/leon3/mfix-gr712rc/soft/libgcc.a(_clzsi2.o)
 .debug_info    0x00000000000241e1      0x2da /home/fsw/rep/tasa/lib/bcc-2.2.3-gcc/bin/../lib/gcc/sparc-gaisler-elf/10.2.0/leon3/mfix-gr712rc/soft/libgcc.a(_pack_df.o)
 .debug_info    0x00000000000244bb      0x223 /home/fsw/rep/tasa/lib/bcc-2.2.3-gcc/bin/../lib/gcc/sparc-gaisler-elf/10.2.0/leon3/mfix-gr712rc/soft/libgcc.a(_unpack_df.o)
 .debug_info    0x00000000000246de      0x242 /home/fsw/rep/tasa/lib/bcc-2.2.3-gcc/bin/../lib/gcc/sparc-gaisler-elf/10.2.0/leon3/mfix-gr712rc/soft/libgcc.a(_fpcmp_parts_df.o)

.debug_abbrev   0x0000000000000000     0x90ab
 *(.debug_abbrev)
 .debug_abbrev  0x0000000000000000       0x14 /home/fsw/rep/tasa/lib/bcc-2.2.3-gcc/bin/../sparc-gaisler-elf/bsp/gr712rc/leon3/mfix-gr712rc/soft/trap_table_mvt_tn0018.S.o
 .debug_abbrev  0x0000000000000014       0x14 /home/fsw/rep/tasa/lib/bcc-2.2.3-gcc/bin/../sparc-gaisler-elf/bsp/gr712rc/leon3/mfix-gr712rc/soft/crt0.S.o
 .debug_abbrev  0x0000000000000028       0xe8 /tmp/ccucSNOv.o
 .debug_abbrev  0x0000000000000110       0x14 /home/fsw/rep/tasa/lib/bcc-2.2.3-gcc/bin/../sparc-gaisler-elf/bsp/gr712rc/leon3/mfix-gr712rc/soft/libbcc.a(reset_trap_mvt.S.o)
 .debug_abbrev  0x0000000000000124       0x14 /home/fsw/rep/tasa/lib/bcc-2.2.3-gcc/bin/../sparc-gaisler-elf/bsp/gr712rc/leon3/mfix-gr712rc/soft/libbcc.a(window_trap.S.o)
 .debug_abbrev  0x0000000000000138       0x14 /home/fsw/rep/tasa/lib/bcc-2.2.3-gcc/bin/../sparc-gaisler-elf/bsp/gr712rc/leon3/mfix-gr712rc/soft/libbcc.a(flush_windows_trap.S.o)
 .debug_abbrev  0x000000000000014c       0x14 /home/fsw/rep/tasa/lib/bcc-2.2.3-gcc/bin/../sparc-gaisler-elf/bsp/gr712rc/leon3/mfix-gr712rc/soft/libbcc.a(sw_trap_set_pil.S.o)
 .debug_abbrev  0x0000000000000160       0x14 /home/fsw/rep/tasa/lib/bcc-2.2.3-gcc/bin/../sparc-gaisler-elf/bsp/gr712rc/leon3/mfix-gr712rc/soft/libbcc.a(init.S.o)
 .debug_abbrev  0x0000000000000174       0x14 /home/fsw/rep/tasa/lib/bcc-2.2.3-gcc/bin/../sparc-gaisler-elf/bsp/gr712rc/leon3/mfix-gr712rc/soft/libbcc.a(leon_info.S.o)
 .debug_abbrev  0x0000000000000188       0x14 /home/fsw/rep/tasa/lib/bcc-2.2.3-gcc/bin/../sparc-gaisler-elf/bsp/gr712rc/leon3/mfix-gr712rc/soft/libbcc.a(dwzero.S.o)
 .debug_abbrev  0x000000000000019c       0x87 /home/fsw/rep/tasa/lib/bcc-2.2.3-gcc/bin/../sparc-gaisler-elf/bsp/gr712rc/leon3/mfix-gr712rc/soft/libbcc.a(copy_data.c.o)
 .debug_abbrev  0x0000000000000223       0x70 /home/fsw/rep/tasa/lib/bcc-2.2.3-gcc/bin/../sparc-gaisler-elf/bsp/gr712rc/leon3/mfix-gr712rc/soft/libbcc.a(argv.c.o)
 .debug_abbrev  0x0000000000000293       0x14 /home/fsw/rep/tasa/lib/bcc-2.2.3-gcc/bin/../sparc-gaisler-elf/bsp/gr712rc/leon3/mfix-gr712rc/soft/libbcc.a(interrupt_trap_tn0018.S.o)
 .debug_abbrev  0x00000000000002a7      0x132 /home/fsw/rep/tasa/lib/bcc-2.2.3-gcc/bin/../sparc-gaisler-elf/bsp/gr712rc/leon3/mfix-gr712rc/soft/libbcc.a(int_irqmp_get_source.c.o)
 .debug_abbrev  0x00000000000003d9      0x16d /home/fsw/rep/tasa/lib/bcc-2.2.3-gcc/bin/../sparc-gaisler-elf/bsp/gr712rc/leon3/mfix-gr712rc/soft/libbcc.a(int_irqmp_mp.c.o)
 .debug_abbrev  0x0000000000000546      0x130 /home/fsw/rep/tasa/lib/bcc-2.2.3-gcc/bin/../sparc-gaisler-elf/bsp/gr712rc/leon3/mfix-gr712rc/soft/libbcc.a(int_irqmp_init.c.o)
 .debug_abbrev  0x0000000000000676       0x89 /home/fsw/rep/tasa/lib/bcc-2.2.3-gcc/bin/../sparc-gaisler-elf/bsp/gr712rc/leon3/mfix-gr712rc/soft/libbcc.a(con_apbuart_init.c.o)
 .debug_abbrev  0x00000000000006ff       0xd4 /home/fsw/rep/tasa/lib/bcc-2.2.3-gcc/bin/../sparc-gaisler-elf/bsp/gr712rc/leon3/mfix-gr712rc/soft/libbcc.a(timer_gptimer_init.c.o)
 .debug_abbrev  0x00000000000007d3       0xad /home/fsw/rep/tasa/lib/bcc-2.2.3-gcc/bin/../sparc-gaisler-elf/bsp/gr712rc/leon3/mfix-gr712rc/soft/libbcc.a(isr.c.o)
 .debug_abbrev  0x0000000000000880       0x85 /home/fsw/rep/tasa/lib/bcc-2.2.3-gcc/bin/../sparc-gaisler-elf/bsp/gr712rc/leon3/mfix-gr712rc/soft/libbcc.a(int_nest.c.o)
 .debug_abbrev  0x0000000000000905       0x57 /home/fsw/rep/tasa/lib/bcc-2.2.3-gcc/bin/../sparc-gaisler-elf/bsp/gr712rc/leon3/mfix-gr712rc/soft/libbcc.a(int_irqmp_handle.c.o)
 .debug_abbrev  0x000000000000095c       0xb7 /home/fsw/rep/tasa/lib/bcc-2.2.3-gcc/bin/../lib/gcc/sparc-gaisler-elf/10.2.0/../../../../sparc-gaisler-elf/lib/leon3/mfix-gr712rc/soft/libc.a(lib_a-atexit.o)
 .debug_abbrev  0x0000000000000a13      0x1a5 /home/fsw/rep/tasa/lib/bcc-2.2.3-gcc/bin/../lib/gcc/sparc-gaisler-elf/10.2.0/../../../../sparc-gaisler-elf/lib/leon3/mfix-gr712rc/soft/libc.a(lib_a-exit.o)
 .debug_abbrev  0x0000000000000bb8      0x151 /home/fsw/rep/tasa/lib/bcc-2.2.3-gcc/bin/../lib/gcc/sparc-gaisler-elf/10.2.0/../../../../sparc-gaisler-elf/lib/leon3/mfix-gr712rc/soft/libc.a(lib_a-impure.o)
 .debug_abbrev  0x0000000000000d09      0x20f /home/fsw/rep/tasa/lib/bcc-2.2.3-gcc/bin/../lib/gcc/sparc-gaisler-elf/10.2.0/../../../../sparc-gaisler-elf/lib/leon3/mfix-gr712rc/soft/libc.a(lib_a-printf.o)
 .debug_abbrev  0x0000000000000f18      0x1fc /home/fsw/rep/tasa/lib/bcc-2.2.3-gcc/bin/../lib/gcc/sparc-gaisler-elf/10.2.0/../../../../sparc-gaisler-elf/lib/leon3/mfix-gr712rc/soft/libc.a(lib_a-putchar.o)
 .debug_abbrev  0x0000000000001114      0x252 /home/fsw/rep/tasa/lib/bcc-2.2.3-gcc/bin/../lib/gcc/sparc-gaisler-elf/10.2.0/../../../../sparc-gaisler-elf/lib/leon3/mfix-gr712rc/soft/libc.a(lib_a-puts.o)
 .debug_abbrev  0x0000000000001366       0x8f /home/fsw/rep/tasa/lib/bcc-2.2.3-gcc/bin/../lib/gcc/sparc-gaisler-elf/10.2.0/../../../../sparc-gaisler-elf/lib/leon3/mfix-gr712rc/soft/libc.a(lib_a-strlen.o)
 .debug_abbrev  0x00000000000013f5      0x406 /home/fsw/rep/tasa/lib/bcc-2.2.3-gcc/bin/../lib/gcc/sparc-gaisler-elf/10.2.0/../../../../sparc-gaisler-elf/lib/leon3/mfix-gr712rc/soft/libc.a(lib_a-vfprintf.o)
 .debug_abbrev  0x00000000000017fb      0x1d4 /home/fsw/rep/tasa/lib/bcc-2.2.3-gcc/bin/../lib/gcc/sparc-gaisler-elf/10.2.0/../../../../sparc-gaisler-elf/lib/leon3/mfix-gr712rc/soft/libc.a(lib_a-wsetup.o)
 .debug_abbrev  0x00000000000019cf      0x1b2 /home/fsw/rep/tasa/lib/bcc-2.2.3-gcc/bin/../lib/gcc/sparc-gaisler-elf/10.2.0/../../../../sparc-gaisler-elf/lib/leon3/mfix-gr712rc/soft/libc.a(lib_a-__atexit.o)
 .debug_abbrev  0x0000000000001b81      0x1a0 /home/fsw/rep/tasa/lib/bcc-2.2.3-gcc/bin/../lib/gcc/sparc-gaisler-elf/10.2.0/../../../../sparc-gaisler-elf/lib/leon3/mfix-gr712rc/soft/libc.a(lib_a-__call_atexit.o)
 .debug_abbrev  0x0000000000001d21      0x2f7 /home/fsw/rep/tasa/lib/bcc-2.2.3-gcc/bin/../lib/gcc/sparc-gaisler-elf/10.2.0/../../../../sparc-gaisler-elf/lib/leon3/mfix-gr712rc/soft/libc.a(lib_a-dtoa.o)
 .debug_abbrev  0x0000000000002018      0x2b3 /home/fsw/rep/tasa/lib/bcc-2.2.3-gcc/bin/../lib/gcc/sparc-gaisler-elf/10.2.0/../../../../sparc-gaisler-elf/lib/leon3/mfix-gr712rc/soft/libc.a(lib_a-fflush.o)
 .debug_abbrev  0x00000000000022cb      0x334 /home/fsw/rep/tasa/lib/bcc-2.2.3-gcc/bin/../lib/gcc/sparc-gaisler-elf/10.2.0/../../../../sparc-gaisler-elf/lib/leon3/mfix-gr712rc/soft/libc.a(lib_a-findfp.o)
 .debug_abbrev  0x00000000000025ff      0x247 /home/fsw/rep/tasa/lib/bcc-2.2.3-gcc/bin/../lib/gcc/sparc-gaisler-elf/10.2.0/../../../../sparc-gaisler-elf/lib/leon3/mfix-gr712rc/soft/libc.a(lib_a-freer.o)
 .debug_abbrev  0x0000000000002846      0x1f4 /home/fsw/rep/tasa/lib/bcc-2.2.3-gcc/bin/../lib/gcc/sparc-gaisler-elf/10.2.0/../../../../sparc-gaisler-elf/lib/leon3/mfix-gr712rc/soft/libc.a(lib_a-fvwrite.o)
 .debug_abbrev  0x0000000000002a3a      0x197 /home/fsw/rep/tasa/lib/bcc-2.2.3-gcc/bin/../lib/gcc/sparc-gaisler-elf/10.2.0/../../../../sparc-gaisler-elf/lib/leon3/mfix-gr712rc/soft/libc.a(lib_a-fwalk.o)
 .debug_abbrev  0x0000000000002bd1      0x24b /home/fsw/rep/tasa/lib/bcc-2.2.3-gcc/bin/../lib/gcc/sparc-gaisler-elf/10.2.0/../../../../sparc-gaisler-elf/lib/leon3/mfix-gr712rc/soft/libc.a(lib_a-localeconv.o)
 .debug_abbrev  0x0000000000002e1c      0x290 /home/fsw/rep/tasa/lib/bcc-2.2.3-gcc/bin/../lib/gcc/sparc-gaisler-elf/10.2.0/../../../../sparc-gaisler-elf/lib/leon3/mfix-gr712rc/soft/libc.a(lib_a-makebuf.o)
 .debug_abbrev  0x00000000000030ac      0x1b6 /home/fsw/rep/tasa/lib/bcc-2.2.3-gcc/bin/../lib/gcc/sparc-gaisler-elf/10.2.0/../../../../sparc-gaisler-elf/lib/leon3/mfix-gr712rc/soft/libc.a(lib_a-malloc.o)
 .debug_abbrev  0x0000000000003262      0x273 /home/fsw/rep/tasa/lib/bcc-2.2.3-gcc/bin/../lib/gcc/sparc-gaisler-elf/10.2.0/../../../../sparc-gaisler-elf/lib/leon3/mfix-gr712rc/soft/libc.a(lib_a-mallocr.o)
 .debug_abbrev  0x00000000000034d5       0xd4 /home/fsw/rep/tasa/lib/bcc-2.2.3-gcc/bin/../lib/gcc/sparc-gaisler-elf/10.2.0/../../../../sparc-gaisler-elf/lib/leon3/mfix-gr712rc/soft/libc.a(lib_a-memchr.o)
 .debug_abbrev  0x00000000000035a9       0xb6 /home/fsw/rep/tasa/lib/bcc-2.2.3-gcc/bin/../lib/gcc/sparc-gaisler-elf/10.2.0/../../../../sparc-gaisler-elf/lib/leon3/mfix-gr712rc/soft/libc.a(lib_a-memcpy.o)
 .debug_abbrev  0x000000000000365f       0xc0 /home/fsw/rep/tasa/lib/bcc-2.2.3-gcc/bin/../lib/gcc/sparc-gaisler-elf/10.2.0/../../../../sparc-gaisler-elf/lib/leon3/mfix-gr712rc/soft/libc.a(lib_a-memmove.o)
 .debug_abbrev  0x000000000000371f       0xb4 /home/fsw/rep/tasa/lib/bcc-2.2.3-gcc/bin/../lib/gcc/sparc-gaisler-elf/10.2.0/../../../../sparc-gaisler-elf/lib/leon3/mfix-gr712rc/soft/libc.a(lib_a-memset.o)
 .debug_abbrev  0x00000000000037d3      0x174 /home/fsw/rep/tasa/lib/bcc-2.2.3-gcc/bin/../lib/gcc/sparc-gaisler-elf/10.2.0/../../../../sparc-gaisler-elf/lib/leon3/mfix-gr712rc/soft/libc.a(lib_a-mlock.o)
 .debug_abbrev  0x0000000000003947      0x446 /home/fsw/rep/tasa/lib/bcc-2.2.3-gcc/bin/../lib/gcc/sparc-gaisler-elf/10.2.0/../../../../sparc-gaisler-elf/lib/leon3/mfix-gr712rc/soft/libc.a(lib_a-mprec.o)
 .debug_abbrev  0x0000000000003d8d      0x263 /home/fsw/rep/tasa/lib/bcc-2.2.3-gcc/bin/../lib/gcc/sparc-gaisler-elf/10.2.0/../../../../sparc-gaisler-elf/lib/leon3/mfix-gr712rc/soft/libc.a(lib_a-putc.o)
 .debug_abbrev  0x0000000000003ff0      0x224 /home/fsw/rep/tasa/lib/bcc-2.2.3-gcc/bin/../lib/gcc/sparc-gaisler-elf/10.2.0/../../../../sparc-gaisler-elf/lib/leon3/mfix-gr712rc/soft/libc.a(lib_a-reallocr.o)
 .debug_abbrev  0x0000000000004214      0x15f /home/fsw/rep/tasa/lib/bcc-2.2.3-gcc/bin/../lib/gcc/sparc-gaisler-elf/10.2.0/../../../../sparc-gaisler-elf/lib/leon3/mfix-gr712rc/soft/libc.a(lib_a-s_frexp.o)
 .debug_abbrev  0x0000000000004373      0x1d6 /home/fsw/rep/tasa/lib/bcc-2.2.3-gcc/bin/../lib/gcc/sparc-gaisler-elf/10.2.0/../../../../sparc-gaisler-elf/lib/leon3/mfix-gr712rc/soft/libc.a(lib_a-sbrkr.o)
 .debug_abbrev  0x0000000000004549      0x219 /home/fsw/rep/tasa/lib/bcc-2.2.3-gcc/bin/../lib/gcc/sparc-gaisler-elf/10.2.0/../../../../sparc-gaisler-elf/lib/leon3/mfix-gr712rc/soft/libc.a(lib_a-stdio.o)
 .debug_abbrev  0x0000000000004762       0xbb /home/fsw/rep/tasa/lib/bcc-2.2.3-gcc/bin/../lib/gcc/sparc-gaisler-elf/10.2.0/../../../../sparc-gaisler-elf/lib/leon3/mfix-gr712rc/soft/libc.a(lib_a-strncpy.o)
 .debug_abbrev  0x000000000000481d      0x3e5 /home/fsw/rep/tasa/lib/bcc-2.2.3-gcc/bin/../lib/gcc/sparc-gaisler-elf/10.2.0/../../../../sparc-gaisler-elf/lib/leon3/mfix-gr712rc/soft/libc.a(lib_a-vfiprintf.o)
 .debug_abbrev  0x0000000000004c02      0x257 /home/fsw/rep/tasa/lib/bcc-2.2.3-gcc/bin/../lib/gcc/sparc-gaisler-elf/10.2.0/../../../../sparc-gaisler-elf/lib/leon3/mfix-gr712rc/soft/libc.a(lib_a-wbuf.o)
 .debug_abbrev  0x0000000000004e59      0x1b0 /home/fsw/rep/tasa/lib/bcc-2.2.3-gcc/bin/../lib/gcc/sparc-gaisler-elf/10.2.0/../../../../sparc-gaisler-elf/lib/leon3/mfix-gr712rc/soft/libc.a(lib_a-writer.o)
 .debug_abbrev  0x0000000000005009      0x1da /home/fsw/rep/tasa/lib/bcc-2.2.3-gcc/bin/../lib/gcc/sparc-gaisler-elf/10.2.0/../../../../sparc-gaisler-elf/lib/leon3/mfix-gr712rc/soft/libc.a(lib_a-callocr.o)
 .debug_abbrev  0x00000000000051e3      0x1ab /home/fsw/rep/tasa/lib/bcc-2.2.3-gcc/bin/../lib/gcc/sparc-gaisler-elf/10.2.0/../../../../sparc-gaisler-elf/lib/leon3/mfix-gr712rc/soft/libc.a(lib_a-closer.o)
 .debug_abbrev  0x000000000000538e      0x265 /home/fsw/rep/tasa/lib/bcc-2.2.3-gcc/bin/../lib/gcc/sparc-gaisler-elf/10.2.0/../../../../sparc-gaisler-elf/lib/leon3/mfix-gr712rc/soft/libc.a(lib_a-fclose.o)
 .debug_abbrev  0x00000000000055f3      0x2d5 /home/fsw/rep/tasa/lib/bcc-2.2.3-gcc/bin/../lib/gcc/sparc-gaisler-elf/10.2.0/../../../../sparc-gaisler-elf/lib/leon3/mfix-gr712rc/soft/libc.a(lib_a-fputwc.o)
 .debug_abbrev  0x00000000000058c8      0x1bf /home/fsw/rep/tasa/lib/bcc-2.2.3-gcc/bin/../lib/gcc/sparc-gaisler-elf/10.2.0/../../../../sparc-gaisler-elf/lib/leon3/mfix-gr712rc/soft/libc.a(lib_a-fstatr.o)
 .debug_abbrev  0x0000000000005a87      0x1ab /home/fsw/rep/tasa/lib/bcc-2.2.3-gcc/bin/../lib/gcc/sparc-gaisler-elf/10.2.0/../../../../sparc-gaisler-elf/lib/leon3/mfix-gr712rc/soft/libc.a(lib_a-isattyr.o)
 .debug_abbrev  0x0000000000005c32      0x2bb /home/fsw/rep/tasa/lib/bcc-2.2.3-gcc/bin/../lib/gcc/sparc-gaisler-elf/10.2.0/../../../../sparc-gaisler-elf/lib/leon3/mfix-gr712rc/soft/libc.a(lib_a-locale.o)
 .debug_abbrev  0x0000000000005eed      0x1bf /home/fsw/rep/tasa/lib/bcc-2.2.3-gcc/bin/../lib/gcc/sparc-gaisler-elf/10.2.0/../../../../sparc-gaisler-elf/lib/leon3/mfix-gr712rc/soft/libc.a(lib_a-lseekr.o)
 .debug_abbrev  0x00000000000060ac      0x253 /home/fsw/rep/tasa/lib/bcc-2.2.3-gcc/bin/../lib/gcc/sparc-gaisler-elf/10.2.0/../../../../sparc-gaisler-elf/lib/leon3/mfix-gr712rc/soft/libc.a(lib_a-mbtowc_r.o)
 .debug_abbrev  0x00000000000062ff      0x1ab /home/fsw/rep/tasa/lib/bcc-2.2.3-gcc/bin/../lib/gcc/sparc-gaisler-elf/10.2.0/../../../../sparc-gaisler-elf/lib/leon3/mfix-gr712rc/soft/libc.a(lib_a-readr.o)
 .debug_abbrev  0x00000000000064aa      0x263 /home/fsw/rep/tasa/lib/bcc-2.2.3-gcc/bin/../lib/gcc/sparc-gaisler-elf/10.2.0/../../../../sparc-gaisler-elf/lib/leon3/mfix-gr712rc/soft/libc.a(lib_a-reent.o)
 .debug_abbrev  0x000000000000670d       0x80 /home/fsw/rep/tasa/lib/bcc-2.2.3-gcc/bin/../lib/gcc/sparc-gaisler-elf/10.2.0/../../../../sparc-gaisler-elf/lib/leon3/mfix-gr712rc/soft/libc.a(lib_a-strcmp.o)
 .debug_abbrev  0x000000000000678d      0x233 /home/fsw/rep/tasa/lib/bcc-2.2.3-gcc/bin/../lib/gcc/sparc-gaisler-elf/10.2.0/../../../../sparc-gaisler-elf/lib/leon3/mfix-gr712rc/soft/libc.a(lib_a-wcrtomb.o)
 .debug_abbrev  0x00000000000069c0      0x23b /home/fsw/rep/tasa/lib/bcc-2.2.3-gcc/bin/../lib/gcc/sparc-gaisler-elf/10.2.0/../../../../sparc-gaisler-elf/lib/leon3/mfix-gr712rc/soft/libc.a(lib_a-wctomb_r.o)
 .debug_abbrev  0x0000000000006bfb       0x73 /home/fsw/rep/tasa/lib/bcc-2.2.3-gcc/bin/../lib/gcc/sparc-gaisler-elf/10.2.0/../../../../sparc-gaisler-elf/lib/leon3/mfix-gr712rc/soft/libc.a(lib_a-ctype_.o)
 .debug_abbrev  0x0000000000006c6e       0x14 /home/fsw/rep/tasa/lib/bcc-2.2.3-gcc/bin/../sparc-gaisler-elf/bsp/gr712rc/leon3/mfix-gr712rc/soft/libbcc.a(_exit.S.o)
 .debug_abbrev  0x0000000000006c82       0xc8 /home/fsw/rep/tasa/lib/bcc-2.2.3-gcc/bin/../sparc-gaisler-elf/bsp/gr712rc/leon3/mfix-gr712rc/soft/libbcc.a(read.c.o)
 .debug_abbrev  0x0000000000006d4a       0xc9 /home/fsw/rep/tasa/lib/bcc-2.2.3-gcc/bin/../sparc-gaisler-elf/bsp/gr712rc/leon3/mfix-gr712rc/soft/libbcc.a(sbrk.c.o)
 .debug_abbrev  0x0000000000006e13       0x60 /home/fsw/rep/tasa/lib/bcc-2.2.3-gcc/bin/../sparc-gaisler-elf/bsp/gr712rc/leon3/mfix-gr712rc/soft/libbcc.a(heap.c.o)
 .debug_abbrev  0x0000000000006e73      0x102 /home/fsw/rep/tasa/lib/bcc-2.2.3-gcc/bin/../sparc-gaisler-elf/bsp/gr712rc/leon3/mfix-gr712rc/soft/libbcc.a(write.c.o)
 .debug_abbrev  0x0000000000006f75       0x14 /home/fsw/rep/tasa/lib/bcc-2.2.3-gcc/bin/../sparc-gaisler-elf/bsp/gr712rc/leon3/mfix-gr712rc/soft/libbcc.a(stubs.S.o)
 .debug_abbrev  0x0000000000006f89      0x13f /home/fsw/rep/tasa/lib/bcc-2.2.3-gcc/bin/../sparc-gaisler-elf/bsp/gr712rc/leon3/mfix-gr712rc/soft/libbcc.a(con_apbuart.c.o)
 .debug_abbrev  0x00000000000070c8       0x57 /home/fsw/rep/tasa/lib/bcc-2.2.3-gcc/bin/../sparc-gaisler-elf/bsp/gr712rc/leon3/mfix-gr712rc/soft/libbcc.a(con_handle.c.o)
 .debug_abbrev  0x000000000000711f      0x1a5 /home/fsw/rep/tasa/lib/bcc-2.2.3-gcc/bin/../lib/gcc/sparc-gaisler-elf/10.2.0/leon3/mfix-gr712rc/soft/libgcc.a(_udivdi3.o)
 .debug_abbrev  0x00000000000072c4      0x1b9 /home/fsw/rep/tasa/lib/bcc-2.2.3-gcc/bin/../lib/gcc/sparc-gaisler-elf/10.2.0/leon3/mfix-gr712rc/soft/libgcc.a(_umoddi3.o)
 .debug_abbrev  0x000000000000747d      0x257 /home/fsw/rep/tasa/lib/bcc-2.2.3-gcc/bin/../lib/gcc/sparc-gaisler-elf/10.2.0/leon3/mfix-gr712rc/soft/libgcc.a(_addsub_df.o)
 .debug_abbrev  0x00000000000076d4      0x26d /home/fsw/rep/tasa/lib/bcc-2.2.3-gcc/bin/../lib/gcc/sparc-gaisler-elf/10.2.0/leon3/mfix-gr712rc/soft/libgcc.a(_mul_df.o)
 .debug_abbrev  0x0000000000007941      0x263 /home/fsw/rep/tasa/lib/bcc-2.2.3-gcc/bin/../lib/gcc/sparc-gaisler-elf/10.2.0/leon3/mfix-gr712rc/soft/libgcc.a(_div_df.o)
 .debug_abbrev  0x0000000000007ba4      0x195 /home/fsw/rep/tasa/lib/bcc-2.2.3-gcc/bin/../lib/gcc/sparc-gaisler-elf/10.2.0/leon3/mfix-gr712rc/soft/libgcc.a(_eq_df.o)
 .debug_abbrev  0x0000000000007d39      0x195 /home/fsw/rep/tasa/lib/bcc-2.2.3-gcc/bin/../lib/gcc/sparc-gaisler-elf/10.2.0/leon3/mfix-gr712rc/soft/libgcc.a(_ne_df.o)
 .debug_abbrev  0x0000000000007ece      0x195 /home/fsw/rep/tasa/lib/bcc-2.2.3-gcc/bin/../lib/gcc/sparc-gaisler-elf/10.2.0/leon3/mfix-gr712rc/soft/libgcc.a(_gt_df.o)
 .debug_abbrev  0x0000000000008063      0x195 /home/fsw/rep/tasa/lib/bcc-2.2.3-gcc/bin/../lib/gcc/sparc-gaisler-elf/10.2.0/leon3/mfix-gr712rc/soft/libgcc.a(_lt_df.o)
 .debug_abbrev  0x00000000000081f8      0x195 /home/fsw/rep/tasa/lib/bcc-2.2.3-gcc/bin/../lib/gcc/sparc-gaisler-elf/10.2.0/leon3/mfix-gr712rc/soft/libgcc.a(_le_df.o)
 .debug_abbrev  0x000000000000838d      0x195 /home/fsw/rep/tasa/lib/bcc-2.2.3-gcc/bin/../lib/gcc/sparc-gaisler-elf/10.2.0/leon3/mfix-gr712rc/soft/libgcc.a(_unord_df.o)
 .debug_abbrev  0x0000000000008522      0x1ca /home/fsw/rep/tasa/lib/bcc-2.2.3-gcc/bin/../lib/gcc/sparc-gaisler-elf/10.2.0/leon3/mfix-gr712rc/soft/libgcc.a(_si_to_df.o)
 .debug_abbrev  0x00000000000086ec      0x19c /home/fsw/rep/tasa/lib/bcc-2.2.3-gcc/bin/../lib/gcc/sparc-gaisler-elf/10.2.0/leon3/mfix-gr712rc/soft/libgcc.a(_df_to_si.o)
 .debug_abbrev  0x0000000000008888       0xca /home/fsw/rep/tasa/lib/bcc-2.2.3-gcc/bin/../lib/gcc/sparc-gaisler-elf/10.2.0/leon3/mfix-gr712rc/soft/libgcc.a(_thenan_df.o)
 .debug_abbrev  0x0000000000008952      0x1ce /home/fsw/rep/tasa/lib/bcc-2.2.3-gcc/bin/../lib/gcc/sparc-gaisler-elf/10.2.0/leon3/mfix-gr712rc/soft/libgcc.a(_usi_to_df.o)
 .debug_abbrev  0x0000000000008b20       0x70 /home/fsw/rep/tasa/lib/bcc-2.2.3-gcc/bin/../lib/gcc/sparc-gaisler-elf/10.2.0/leon3/mfix-gr712rc/soft/libgcc.a(_clz.o)
 .debug_abbrev  0x0000000000008b90       0xbf /home/fsw/rep/tasa/lib/bcc-2.2.3-gcc/bin/../lib/gcc/sparc-gaisler-elf/10.2.0/leon3/mfix-gr712rc/soft/libgcc.a(_clzsi2.o)
 .debug_abbrev  0x0000000000008c4f      0x1b7 /home/fsw/rep/tasa/lib/bcc-2.2.3-gcc/bin/../lib/gcc/sparc-gaisler-elf/10.2.0/leon3/mfix-gr712rc/soft/libgcc.a(_pack_df.o)
 .debug_abbrev  0x0000000000008e06      0x12d /home/fsw/rep/tasa/lib/bcc-2.2.3-gcc/bin/../lib/gcc/sparc-gaisler-elf/10.2.0/leon3/mfix-gr712rc/soft/libgcc.a(_unpack_df.o)
 .debug_abbrev  0x0000000000008f33      0x178 /home/fsw/rep/tasa/lib/bcc-2.2.3-gcc/bin/../lib/gcc/sparc-gaisler-elf/10.2.0/leon3/mfix-gr712rc/soft/libgcc.a(_fpcmp_parts_df.o)

.debug_line     0x0000000000000000    0x13da7
 *(.debug_line)
 .debug_line    0x0000000000000000       0xda /home/fsw/rep/tasa/lib/bcc-2.2.3-gcc/bin/../sparc-gaisler-elf/bsp/gr712rc/leon3/mfix-gr712rc/soft/trap_table_mvt_tn0018.S.o
 .debug_line    0x00000000000000da       0x88 /home/fsw/rep/tasa/lib/bcc-2.2.3-gcc/bin/../sparc-gaisler-elf/bsp/gr712rc/leon3/mfix-gr712rc/soft/crt0.S.o
 .debug_line    0x0000000000000162      0x22b /tmp/ccucSNOv.o
 .debug_line    0x000000000000038d       0x8c /home/fsw/rep/tasa/lib/bcc-2.2.3-gcc/bin/../sparc-gaisler-elf/bsp/gr712rc/leon3/mfix-gr712rc/soft/libbcc.a(reset_trap_mvt.S.o)
 .debug_line    0x0000000000000419       0x90 /home/fsw/rep/tasa/lib/bcc-2.2.3-gcc/bin/../sparc-gaisler-elf/bsp/gr712rc/leon3/mfix-gr712rc/soft/libbcc.a(window_trap.S.o)
 .debug_line    0x00000000000004a9       0x8e /home/fsw/rep/tasa/lib/bcc-2.2.3-gcc/bin/../sparc-gaisler-elf/bsp/gr712rc/leon3/mfix-gr712rc/soft/libbcc.a(flush_windows_trap.S.o)
 .debug_line    0x0000000000000537       0x75 /home/fsw/rep/tasa/lib/bcc-2.2.3-gcc/bin/../sparc-gaisler-elf/bsp/gr712rc/leon3/mfix-gr712rc/soft/libbcc.a(sw_trap_set_pil.S.o)
 .debug_line    0x00000000000005ac       0x5c /home/fsw/rep/tasa/lib/bcc-2.2.3-gcc/bin/../sparc-gaisler-elf/bsp/gr712rc/leon3/mfix-gr712rc/soft/libbcc.a(init.S.o)
 .debug_line    0x0000000000000608       0x84 /home/fsw/rep/tasa/lib/bcc-2.2.3-gcc/bin/../sparc-gaisler-elf/bsp/gr712rc/leon3/mfix-gr712rc/soft/libbcc.a(leon_info.S.o)
 .debug_line    0x000000000000068c       0x67 /home/fsw/rep/tasa/lib/bcc-2.2.3-gcc/bin/../sparc-gaisler-elf/bsp/gr712rc/leon3/mfix-gr712rc/soft/libbcc.a(dwzero.S.o)
 .debug_line    0x00000000000006f3      0x1de /home/fsw/rep/tasa/lib/bcc-2.2.3-gcc/bin/../sparc-gaisler-elf/bsp/gr712rc/leon3/mfix-gr712rc/soft/libbcc.a(copy_data.c.o)
 .debug_line    0x00000000000008d1       0x8c /home/fsw/rep/tasa/lib/bcc-2.2.3-gcc/bin/../sparc-gaisler-elf/bsp/gr712rc/leon3/mfix-gr712rc/soft/libbcc.a(argv.c.o)
 .debug_line    0x000000000000095d       0xdb /home/fsw/rep/tasa/lib/bcc-2.2.3-gcc/bin/../sparc-gaisler-elf/bsp/gr712rc/leon3/mfix-gr712rc/soft/libbcc.a(interrupt_trap_tn0018.S.o)
 .debug_line    0x0000000000000a38      0x2a6 /home/fsw/rep/tasa/lib/bcc-2.2.3-gcc/bin/../sparc-gaisler-elf/bsp/gr712rc/leon3/mfix-gr712rc/soft/libbcc.a(int_irqmp_get_source.c.o)
 .debug_line    0x0000000000000cde      0x313 /home/fsw/rep/tasa/lib/bcc-2.2.3-gcc/bin/../sparc-gaisler-elf/bsp/gr712rc/leon3/mfix-gr712rc/soft/libbcc.a(int_irqmp_mp.c.o)
 .debug_line    0x0000000000000ff1      0x265 /home/fsw/rep/tasa/lib/bcc-2.2.3-gcc/bin/../sparc-gaisler-elf/bsp/gr712rc/leon3/mfix-gr712rc/soft/libbcc.a(int_irqmp_init.c.o)
 .debug_line    0x0000000000001256      0x216 /home/fsw/rep/tasa/lib/bcc-2.2.3-gcc/bin/../sparc-gaisler-elf/bsp/gr712rc/leon3/mfix-gr712rc/soft/libbcc.a(con_apbuart_init.c.o)
 .debug_line    0x000000000000146c      0x222 /home/fsw/rep/tasa/lib/bcc-2.2.3-gcc/bin/../sparc-gaisler-elf/bsp/gr712rc/leon3/mfix-gr712rc/soft/libbcc.a(timer_gptimer_init.c.o)
 .debug_line    0x000000000000168e       0x93 /home/fsw/rep/tasa/lib/bcc-2.2.3-gcc/bin/../sparc-gaisler-elf/bsp/gr712rc/leon3/mfix-gr712rc/soft/libbcc.a(isr.c.o)
 .debug_line    0x0000000000001721      0x1c2 /home/fsw/rep/tasa/lib/bcc-2.2.3-gcc/bin/../sparc-gaisler-elf/bsp/gr712rc/leon3/mfix-gr712rc/soft/libbcc.a(int_nest.c.o)
 .debug_line    0x00000000000018e3      0x201 /home/fsw/rep/tasa/lib/bcc-2.2.3-gcc/bin/../sparc-gaisler-elf/bsp/gr712rc/leon3/mfix-gr712rc/soft/libbcc.a(int_irqmp_handle.c.o)
 .debug_line    0x0000000000001ae4       0xd1 /home/fsw/rep/tasa/lib/bcc-2.2.3-gcc/bin/../lib/gcc/sparc-gaisler-elf/10.2.0/../../../../sparc-gaisler-elf/lib/leon3/mfix-gr712rc/soft/libc.a(lib_a-atexit.o)
 .debug_line    0x0000000000001bb5      0x1fa /home/fsw/rep/tasa/lib/bcc-2.2.3-gcc/bin/../lib/gcc/sparc-gaisler-elf/10.2.0/../../../../sparc-gaisler-elf/lib/leon3/mfix-gr712rc/soft/libc.a(lib_a-exit.o)
 .debug_line    0x0000000000001daf      0x16e /home/fsw/rep/tasa/lib/bcc-2.2.3-gcc/bin/../lib/gcc/sparc-gaisler-elf/10.2.0/../../../../sparc-gaisler-elf/lib/leon3/mfix-gr712rc/soft/libc.a(lib_a-impure.o)
 .debug_line    0x0000000000001f1d      0x32c /home/fsw/rep/tasa/lib/bcc-2.2.3-gcc/bin/../lib/gcc/sparc-gaisler-elf/10.2.0/../../../../sparc-gaisler-elf/lib/leon3/mfix-gr712rc/soft/libc.a(lib_a-printf.o)
 .debug_line    0x0000000000002249      0x25e /home/fsw/rep/tasa/lib/bcc-2.2.3-gcc/bin/../lib/gcc/sparc-gaisler-elf/10.2.0/../../../../sparc-gaisler-elf/lib/leon3/mfix-gr712rc/soft/libc.a(lib_a-putchar.o)
 .debug_line    0x00000000000024a7      0x3cd /home/fsw/rep/tasa/lib/bcc-2.2.3-gcc/bin/../lib/gcc/sparc-gaisler-elf/10.2.0/../../../../sparc-gaisler-elf/lib/leon3/mfix-gr712rc/soft/libc.a(lib_a-puts.o)
 .debug_line    0x0000000000002874      0x1cd /home/fsw/rep/tasa/lib/bcc-2.2.3-gcc/bin/../lib/gcc/sparc-gaisler-elf/10.2.0/../../../../sparc-gaisler-elf/lib/leon3/mfix-gr712rc/soft/libc.a(lib_a-strlen.o)
 .debug_line    0x0000000000002a41     0x1f42 /home/fsw/rep/tasa/lib/bcc-2.2.3-gcc/bin/../lib/gcc/sparc-gaisler-elf/10.2.0/../../../../sparc-gaisler-elf/lib/leon3/mfix-gr712rc/soft/libc.a(lib_a-vfprintf.o)
 .debug_line    0x0000000000004983      0x391 /home/fsw/rep/tasa/lib/bcc-2.2.3-gcc/bin/../lib/gcc/sparc-gaisler-elf/10.2.0/../../../../sparc-gaisler-elf/lib/leon3/mfix-gr712rc/soft/libc.a(lib_a-wsetup.o)
 .debug_line    0x0000000000004d14      0x249 /home/fsw/rep/tasa/lib/bcc-2.2.3-gcc/bin/../lib/gcc/sparc-gaisler-elf/10.2.0/../../../../sparc-gaisler-elf/lib/leon3/mfix-gr712rc/soft/libc.a(lib_a-__atexit.o)
 .debug_line    0x0000000000004f5d      0x326 /home/fsw/rep/tasa/lib/bcc-2.2.3-gcc/bin/../lib/gcc/sparc-gaisler-elf/10.2.0/../../../../sparc-gaisler-elf/lib/leon3/mfix-gr712rc/soft/libc.a(lib_a-__call_atexit.o)
 .debug_line    0x0000000000005283     0x1490 /home/fsw/rep/tasa/lib/bcc-2.2.3-gcc/bin/../lib/gcc/sparc-gaisler-elf/10.2.0/../../../../sparc-gaisler-elf/lib/leon3/mfix-gr712rc/soft/libc.a(lib_a-dtoa.o)
 .debug_line    0x0000000000006713      0x513 /home/fsw/rep/tasa/lib/bcc-2.2.3-gcc/bin/../lib/gcc/sparc-gaisler-elf/10.2.0/../../../../sparc-gaisler-elf/lib/leon3/mfix-gr712rc/soft/libc.a(lib_a-fflush.o)
 .debug_line    0x0000000000006c26      0x5cd /home/fsw/rep/tasa/lib/bcc-2.2.3-gcc/bin/../lib/gcc/sparc-gaisler-elf/10.2.0/../../../../sparc-gaisler-elf/lib/leon3/mfix-gr712rc/soft/libc.a(lib_a-findfp.o)
 .debug_line    0x00000000000071f3      0x51f /home/fsw/rep/tasa/lib/bcc-2.2.3-gcc/bin/../lib/gcc/sparc-gaisler-elf/10.2.0/../../../../sparc-gaisler-elf/lib/leon3/mfix-gr712rc/soft/libc.a(lib_a-freer.o)
 .debug_line    0x0000000000007712      0x62b /home/fsw/rep/tasa/lib/bcc-2.2.3-gcc/bin/../lib/gcc/sparc-gaisler-elf/10.2.0/../../../../sparc-gaisler-elf/lib/leon3/mfix-gr712rc/soft/libc.a(lib_a-fvwrite.o)
 .debug_line    0x0000000000007d3d      0x2e5 /home/fsw/rep/tasa/lib/bcc-2.2.3-gcc/bin/../lib/gcc/sparc-gaisler-elf/10.2.0/../../../../sparc-gaisler-elf/lib/leon3/mfix-gr712rc/soft/libc.a(lib_a-fwalk.o)
 .debug_line    0x0000000000008022      0x2bd /home/fsw/rep/tasa/lib/bcc-2.2.3-gcc/bin/../lib/gcc/sparc-gaisler-elf/10.2.0/../../../../sparc-gaisler-elf/lib/leon3/mfix-gr712rc/soft/libc.a(lib_a-localeconv.o)
 .debug_line    0x00000000000082df      0x3b0 /home/fsw/rep/tasa/lib/bcc-2.2.3-gcc/bin/../lib/gcc/sparc-gaisler-elf/10.2.0/../../../../sparc-gaisler-elf/lib/leon3/mfix-gr712rc/soft/libc.a(lib_a-makebuf.o)
 .debug_line    0x000000000000868f      0x1da /home/fsw/rep/tasa/lib/bcc-2.2.3-gcc/bin/../lib/gcc/sparc-gaisler-elf/10.2.0/../../../../sparc-gaisler-elf/lib/leon3/mfix-gr712rc/soft/libc.a(lib_a-malloc.o)
 .debug_line    0x0000000000008869      0x87a /home/fsw/rep/tasa/lib/bcc-2.2.3-gcc/bin/../lib/gcc/sparc-gaisler-elf/10.2.0/../../../../sparc-gaisler-elf/lib/leon3/mfix-gr712rc/soft/libc.a(lib_a-mallocr.o)
 .debug_line    0x00000000000090e3      0x21f /home/fsw/rep/tasa/lib/bcc-2.2.3-gcc/bin/../lib/gcc/sparc-gaisler-elf/10.2.0/../../../../sparc-gaisler-elf/lib/leon3/mfix-gr712rc/soft/libc.a(lib_a-memchr.o)
 .debug_line    0x0000000000009302      0x269 /home/fsw/rep/tasa/lib/bcc-2.2.3-gcc/bin/../lib/gcc/sparc-gaisler-elf/10.2.0/../../../../sparc-gaisler-elf/lib/leon3/mfix-gr712rc/soft/libc.a(lib_a-memcpy.o)
 .debug_line    0x000000000000956b      0x2bf /home/fsw/rep/tasa/lib/bcc-2.2.3-gcc/bin/../lib/gcc/sparc-gaisler-elf/10.2.0/../../../../sparc-gaisler-elf/lib/leon3/mfix-gr712rc/soft/libc.a(lib_a-memmove.o)
 .debug_line    0x000000000000982a      0x27c /home/fsw/rep/tasa/lib/bcc-2.2.3-gcc/bin/../lib/gcc/sparc-gaisler-elf/10.2.0/../../../../sparc-gaisler-elf/lib/leon3/mfix-gr712rc/soft/libc.a(lib_a-memset.o)
 .debug_line    0x0000000000009aa6      0x180 /home/fsw/rep/tasa/lib/bcc-2.2.3-gcc/bin/../lib/gcc/sparc-gaisler-elf/10.2.0/../../../../sparc-gaisler-elf/lib/leon3/mfix-gr712rc/soft/libc.a(lib_a-mlock.o)
 .debug_line    0x0000000000009c26     0x1a6c /home/fsw/rep/tasa/lib/bcc-2.2.3-gcc/bin/../lib/gcc/sparc-gaisler-elf/10.2.0/../../../../sparc-gaisler-elf/lib/leon3/mfix-gr712rc/soft/libc.a(lib_a-mprec.o)
 .debug_line    0x000000000000b692      0x35a /home/fsw/rep/tasa/lib/bcc-2.2.3-gcc/bin/../lib/gcc/sparc-gaisler-elf/10.2.0/../../../../sparc-gaisler-elf/lib/leon3/mfix-gr712rc/soft/libc.a(lib_a-putc.o)
 .debug_line    0x000000000000b9ec      0x709 /home/fsw/rep/tasa/lib/bcc-2.2.3-gcc/bin/../lib/gcc/sparc-gaisler-elf/10.2.0/../../../../sparc-gaisler-elf/lib/leon3/mfix-gr712rc/soft/libc.a(lib_a-reallocr.o)
 .debug_line    0x000000000000c0f5      0x1e8 /home/fsw/rep/tasa/lib/bcc-2.2.3-gcc/bin/../lib/gcc/sparc-gaisler-elf/10.2.0/../../../../sparc-gaisler-elf/lib/leon3/mfix-gr712rc/soft/libc.a(lib_a-s_frexp.o)
 .debug_line    0x000000000000c2dd      0x1f6 /home/fsw/rep/tasa/lib/bcc-2.2.3-gcc/bin/../lib/gcc/sparc-gaisler-elf/10.2.0/../../../../sparc-gaisler-elf/lib/leon3/mfix-gr712rc/soft/libc.a(lib_a-sbrkr.o)
 .debug_line    0x000000000000c4d3      0x2aa /home/fsw/rep/tasa/lib/bcc-2.2.3-gcc/bin/../lib/gcc/sparc-gaisler-elf/10.2.0/../../../../sparc-gaisler-elf/lib/leon3/mfix-gr712rc/soft/libc.a(lib_a-stdio.o)
 .debug_line    0x000000000000c77d      0x291 /home/fsw/rep/tasa/lib/bcc-2.2.3-gcc/bin/../lib/gcc/sparc-gaisler-elf/10.2.0/../../../../sparc-gaisler-elf/lib/leon3/mfix-gr712rc/soft/libc.a(lib_a-strncpy.o)
 .debug_line    0x000000000000ca0e     0x1acc /home/fsw/rep/tasa/lib/bcc-2.2.3-gcc/bin/../lib/gcc/sparc-gaisler-elf/10.2.0/../../../../sparc-gaisler-elf/lib/leon3/mfix-gr712rc/soft/libc.a(lib_a-vfiprintf.o)
 .debug_line    0x000000000000e4da      0x441 /home/fsw/rep/tasa/lib/bcc-2.2.3-gcc/bin/../lib/gcc/sparc-gaisler-elf/10.2.0/../../../../sparc-gaisler-elf/lib/leon3/mfix-gr712rc/soft/libc.a(lib_a-wbuf.o)
 .debug_line    0x000000000000e91b      0x208 /home/fsw/rep/tasa/lib/bcc-2.2.3-gcc/bin/../lib/gcc/sparc-gaisler-elf/10.2.0/../../../../sparc-gaisler-elf/lib/leon3/mfix-gr712rc/soft/libc.a(lib_a-writer.o)
 .debug_line    0x000000000000eb23      0x23a /home/fsw/rep/tasa/lib/bcc-2.2.3-gcc/bin/../lib/gcc/sparc-gaisler-elf/10.2.0/../../../../sparc-gaisler-elf/lib/leon3/mfix-gr712rc/soft/libc.a(lib_a-callocr.o)
 .debug_line    0x000000000000ed5d      0x202 /home/fsw/rep/tasa/lib/bcc-2.2.3-gcc/bin/../lib/gcc/sparc-gaisler-elf/10.2.0/../../../../sparc-gaisler-elf/lib/leon3/mfix-gr712rc/soft/libc.a(lib_a-closer.o)
 .debug_line    0x000000000000ef5f      0x3e9 /home/fsw/rep/tasa/lib/bcc-2.2.3-gcc/bin/../lib/gcc/sparc-gaisler-elf/10.2.0/../../../../sparc-gaisler-elf/lib/leon3/mfix-gr712rc/soft/libc.a(lib_a-fclose.o)
 .debug_line    0x000000000000f348      0x379 /home/fsw/rep/tasa/lib/bcc-2.2.3-gcc/bin/../lib/gcc/sparc-gaisler-elf/10.2.0/../../../../sparc-gaisler-elf/lib/leon3/mfix-gr712rc/soft/libc.a(lib_a-fputwc.o)
 .debug_line    0x000000000000f6c1      0x21f /home/fsw/rep/tasa/lib/bcc-2.2.3-gcc/bin/../lib/gcc/sparc-gaisler-elf/10.2.0/../../../../sparc-gaisler-elf/lib/leon3/mfix-gr712rc/soft/libc.a(lib_a-fstatr.o)
 .debug_line    0x000000000000f8e0      0x203 /home/fsw/rep/tasa/lib/bcc-2.2.3-gcc/bin/../lib/gcc/sparc-gaisler-elf/10.2.0/../../../../sparc-gaisler-elf/lib/leon3/mfix-gr712rc/soft/libc.a(lib_a-isattyr.o)
 .debug_line    0x000000000000fae3      0x34c /home/fsw/rep/tasa/lib/bcc-2.2.3-gcc/bin/../lib/gcc/sparc-gaisler-elf/10.2.0/../../../../sparc-gaisler-elf/lib/leon3/mfix-gr712rc/soft/libc.a(lib_a-locale.o)
 .debug_line    0x000000000000fe2f      0x208 /home/fsw/rep/tasa/lib/bcc-2.2.3-gcc/bin/../lib/gcc/sparc-gaisler-elf/10.2.0/../../../../sparc-gaisler-elf/lib/leon3/mfix-gr712rc/soft/libc.a(lib_a-lseekr.o)
 .debug_line    0x0000000000010037      0x2b8 /home/fsw/rep/tasa/lib/bcc-2.2.3-gcc/bin/../lib/gcc/sparc-gaisler-elf/10.2.0/../../../../sparc-gaisler-elf/lib/leon3/mfix-gr712rc/soft/libc.a(lib_a-mbtowc_r.o)
 .debug_line    0x00000000000102ef      0x207 /home/fsw/rep/tasa/lib/bcc-2.2.3-gcc/bin/../lib/gcc/sparc-gaisler-elf/10.2.0/../../../../sparc-gaisler-elf/lib/leon3/mfix-gr712rc/soft/libc.a(lib_a-readr.o)
 .debug_line    0x00000000000104f6      0x3f5 /home/fsw/rep/tasa/lib/bcc-2.2.3-gcc/bin/../lib/gcc/sparc-gaisler-elf/10.2.0/../../../../sparc-gaisler-elf/lib/leon3/mfix-gr712rc/soft/libc.a(lib_a-reent.o)
 .debug_line    0x00000000000108eb      0x155 /home/fsw/rep/tasa/lib/bcc-2.2.3-gcc/bin/../lib/gcc/sparc-gaisler-elf/10.2.0/../../../../sparc-gaisler-elf/lib/leon3/mfix-gr712rc/soft/libc.a(lib_a-strcmp.o)
 .debug_line    0x0000000000010a40      0x344 /home/fsw/rep/tasa/lib/bcc-2.2.3-gcc/bin/../lib/gcc/sparc-gaisler-elf/10.2.0/../../../../sparc-gaisler-elf/lib/leon3/mfix-gr712rc/soft/libc.a(lib_a-wcrtomb.o)
 .debug_line    0x0000000000010d84      0x2ac /home/fsw/rep/tasa/lib/bcc-2.2.3-gcc/bin/../lib/gcc/sparc-gaisler-elf/10.2.0/../../../../sparc-gaisler-elf/lib/leon3/mfix-gr712rc/soft/libc.a(lib_a-wctomb_r.o)
 .debug_line    0x0000000000011030       0xb6 /home/fsw/rep/tasa/lib/bcc-2.2.3-gcc/bin/../lib/gcc/sparc-gaisler-elf/10.2.0/../../../../sparc-gaisler-elf/lib/leon3/mfix-gr712rc/soft/libc.a(lib_a-ctype_.o)
 .debug_line    0x00000000000110e6       0x5f /home/fsw/rep/tasa/lib/bcc-2.2.3-gcc/bin/../sparc-gaisler-elf/bsp/gr712rc/leon3/mfix-gr712rc/soft/libbcc.a(_exit.S.o)
 .debug_line    0x0000000000011145      0x23e /home/fsw/rep/tasa/lib/bcc-2.2.3-gcc/bin/../sparc-gaisler-elf/bsp/gr712rc/leon3/mfix-gr712rc/soft/libbcc.a(read.c.o)
 .debug_line    0x0000000000011383      0x321 /home/fsw/rep/tasa/lib/bcc-2.2.3-gcc/bin/../sparc-gaisler-elf/bsp/gr712rc/leon3/mfix-gr712rc/soft/libbcc.a(sbrk.c.o)
 .debug_line    0x00000000000116a4      0x1eb /home/fsw/rep/tasa/lib/bcc-2.2.3-gcc/bin/../sparc-gaisler-elf/bsp/gr712rc/leon3/mfix-gr712rc/soft/libbcc.a(heap.c.o)
 .debug_line    0x000000000001188f      0x26f /home/fsw/rep/tasa/lib/bcc-2.2.3-gcc/bin/../sparc-gaisler-elf/bsp/gr712rc/leon3/mfix-gr712rc/soft/libbcc.a(write.c.o)
 .debug_line    0x0000000000011afe       0x68 /home/fsw/rep/tasa/lib/bcc-2.2.3-gcc/bin/../sparc-gaisler-elf/bsp/gr712rc/leon3/mfix-gr712rc/soft/libbcc.a(stubs.S.o)
 .debug_line    0x0000000000011b66      0x325 /home/fsw/rep/tasa/lib/bcc-2.2.3-gcc/bin/../sparc-gaisler-elf/bsp/gr712rc/leon3/mfix-gr712rc/soft/libbcc.a(con_apbuart.c.o)
 .debug_line    0x0000000000011e8b      0x1f9 /home/fsw/rep/tasa/lib/bcc-2.2.3-gcc/bin/../sparc-gaisler-elf/bsp/gr712rc/leon3/mfix-gr712rc/soft/libbcc.a(con_handle.c.o)
 .debug_line    0x0000000000012084      0x16f /home/fsw/rep/tasa/lib/bcc-2.2.3-gcc/bin/../lib/gcc/sparc-gaisler-elf/10.2.0/leon3/mfix-gr712rc/soft/libgcc.a(_udivdi3.o)
 .debug_line    0x00000000000121f3      0x1d2 /home/fsw/rep/tasa/lib/bcc-2.2.3-gcc/bin/../lib/gcc/sparc-gaisler-elf/10.2.0/leon3/mfix-gr712rc/soft/libgcc.a(_umoddi3.o)
 .debug_line    0x00000000000123c5      0x617 /home/fsw/rep/tasa/lib/bcc-2.2.3-gcc/bin/../lib/gcc/sparc-gaisler-elf/10.2.0/leon3/mfix-gr712rc/soft/libgcc.a(_addsub_df.o)
 .debug_line    0x00000000000129dc      0x2ea /home/fsw/rep/tasa/lib/bcc-2.2.3-gcc/bin/../lib/gcc/sparc-gaisler-elf/10.2.0/leon3/mfix-gr712rc/soft/libgcc.a(_mul_df.o)
 .debug_line    0x0000000000012cc6      0x252 /home/fsw/rep/tasa/lib/bcc-2.2.3-gcc/bin/../lib/gcc/sparc-gaisler-elf/10.2.0/leon3/mfix-gr712rc/soft/libgcc.a(_div_df.o)
 .debug_line    0x0000000000012f18       0xbe /home/fsw/rep/tasa/lib/bcc-2.2.3-gcc/bin/../lib/gcc/sparc-gaisler-elf/10.2.0/leon3/mfix-gr712rc/soft/libgcc.a(_eq_df.o)
 .debug_line    0x0000000000012fd6       0xbe /home/fsw/rep/tasa/lib/bcc-2.2.3-gcc/bin/../lib/gcc/sparc-gaisler-elf/10.2.0/leon3/mfix-gr712rc/soft/libgcc.a(_ne_df.o)
 .debug_line    0x0000000000013094       0xbe /home/fsw/rep/tasa/lib/bcc-2.2.3-gcc/bin/../lib/gcc/sparc-gaisler-elf/10.2.0/leon3/mfix-gr712rc/soft/libgcc.a(_gt_df.o)
 .debug_line    0x0000000000013152       0xbe /home/fsw/rep/tasa/lib/bcc-2.2.3-gcc/bin/../lib/gcc/sparc-gaisler-elf/10.2.0/leon3/mfix-gr712rc/soft/libgcc.a(_lt_df.o)
 .debug_line    0x0000000000013210       0xbe /home/fsw/rep/tasa/lib/bcc-2.2.3-gcc/bin/../lib/gcc/sparc-gaisler-elf/10.2.0/leon3/mfix-gr712rc/soft/libgcc.a(_le_df.o)
 .debug_line    0x00000000000132ce       0xb6 /home/fsw/rep/tasa/lib/bcc-2.2.3-gcc/bin/../lib/gcc/sparc-gaisler-elf/10.2.0/leon3/mfix-gr712rc/soft/libgcc.a(_unord_df.o)
 .debug_line    0x0000000000013384      0x140 /home/fsw/rep/tasa/lib/bcc-2.2.3-gcc/bin/../lib/gcc/sparc-gaisler-elf/10.2.0/leon3/mfix-gr712rc/soft/libgcc.a(_si_to_df.o)
 .debug_line    0x00000000000134c4       0xef /home/fsw/rep/tasa/lib/bcc-2.2.3-gcc/bin/../lib/gcc/sparc-gaisler-elf/10.2.0/leon3/mfix-gr712rc/soft/libgcc.a(_df_to_si.o)
 .debug_line    0x00000000000135b3       0x61 /home/fsw/rep/tasa/lib/bcc-2.2.3-gcc/bin/../lib/gcc/sparc-gaisler-elf/10.2.0/leon3/mfix-gr712rc/soft/libgcc.a(_thenan_df.o)
 .debug_line    0x0000000000013614       0xd8 /home/fsw/rep/tasa/lib/bcc-2.2.3-gcc/bin/../lib/gcc/sparc-gaisler-elf/10.2.0/leon3/mfix-gr712rc/soft/libgcc.a(_usi_to_df.o)
 .debug_line    0x00000000000136ec       0x63 /home/fsw/rep/tasa/lib/bcc-2.2.3-gcc/bin/../lib/gcc/sparc-gaisler-elf/10.2.0/leon3/mfix-gr712rc/soft/libgcc.a(_clz.o)
 .debug_line    0x000000000001374f       0xd4 /home/fsw/rep/tasa/lib/bcc-2.2.3-gcc/bin/../lib/gcc/sparc-gaisler-elf/10.2.0/leon3/mfix-gr712rc/soft/libgcc.a(_clzsi2.o)
 .debug_line    0x0000000000013823      0x29b /home/fsw/rep/tasa/lib/bcc-2.2.3-gcc/bin/../lib/gcc/sparc-gaisler-elf/10.2.0/leon3/mfix-gr712rc/soft/libgcc.a(_pack_df.o)
 .debug_line    0x0000000000013abe      0x155 /home/fsw/rep/tasa/lib/bcc-2.2.3-gcc/bin/../lib/gcc/sparc-gaisler-elf/10.2.0/leon3/mfix-gr712rc/soft/libgcc.a(_unpack_df.o)
 .debug_line    0x0000000000013c13      0x194 /home/fsw/rep/tasa/lib/bcc-2.2.3-gcc/bin/../lib/gcc/sparc-gaisler-elf/10.2.0/leon3/mfix-gr712rc/soft/libgcc.a(_fpcmp_parts_df.o)

.debug_frame    0x0000000000000000     0x103c
 *(.debug_frame)
 .debug_frame   0x0000000000000000       0x28 /tmp/ccucSNOv.o
 .debug_frame   0x0000000000000028       0x20 /home/fsw/rep/tasa/lib/bcc-2.2.3-gcc/bin/../sparc-gaisler-elf/bsp/gr712rc/leon3/mfix-gr712rc/soft/libbcc.a(copy_data.c.o)
 .debug_frame   0x0000000000000048       0x20 /home/fsw/rep/tasa/lib/bcc-2.2.3-gcc/bin/../sparc-gaisler-elf/bsp/gr712rc/leon3/mfix-gr712rc/soft/libbcc.a(int_irqmp_get_source.c.o)
 .debug_frame   0x0000000000000068       0x40 /home/fsw/rep/tasa/lib/bcc-2.2.3-gcc/bin/../sparc-gaisler-elf/bsp/gr712rc/leon3/mfix-gr712rc/soft/libbcc.a(int_irqmp_mp.c.o)
 .debug_frame   0x00000000000000a8       0x20 /home/fsw/rep/tasa/lib/bcc-2.2.3-gcc/bin/../sparc-gaisler-elf/bsp/gr712rc/leon3/mfix-gr712rc/soft/libbcc.a(int_irqmp_init.c.o)
 .debug_frame   0x00000000000000c8       0x20 /home/fsw/rep/tasa/lib/bcc-2.2.3-gcc/bin/../sparc-gaisler-elf/bsp/gr712rc/leon3/mfix-gr712rc/soft/libbcc.a(con_apbuart_init.c.o)
 .debug_frame   0x00000000000000e8       0x20 /home/fsw/rep/tasa/lib/bcc-2.2.3-gcc/bin/../sparc-gaisler-elf/bsp/gr712rc/leon3/mfix-gr712rc/soft/libbcc.a(timer_gptimer_init.c.o)
 .debug_frame   0x0000000000000108       0x20 /home/fsw/rep/tasa/lib/bcc-2.2.3-gcc/bin/../lib/gcc/sparc-gaisler-elf/10.2.0/../../../../sparc-gaisler-elf/lib/leon3/mfix-gr712rc/soft/libc.a(lib_a-atexit.o)
 .debug_frame   0x0000000000000128       0x28 /home/fsw/rep/tasa/lib/bcc-2.2.3-gcc/bin/../lib/gcc/sparc-gaisler-elf/10.2.0/../../../../sparc-gaisler-elf/lib/leon3/mfix-gr712rc/soft/libc.a(lib_a-exit.o)
 .debug_frame   0x0000000000000150       0x40 /home/fsw/rep/tasa/lib/bcc-2.2.3-gcc/bin/../lib/gcc/sparc-gaisler-elf/10.2.0/../../../../sparc-gaisler-elf/lib/leon3/mfix-gr712rc/soft/libc.a(lib_a-printf.o)
 .debug_frame   0x0000000000000190       0x40 /home/fsw/rep/tasa/lib/bcc-2.2.3-gcc/bin/../lib/gcc/sparc-gaisler-elf/10.2.0/../../../../sparc-gaisler-elf/lib/leon3/mfix-gr712rc/soft/libc.a(lib_a-putchar.o)
 .debug_frame   0x00000000000001d0       0x40 /home/fsw/rep/tasa/lib/bcc-2.2.3-gcc/bin/../lib/gcc/sparc-gaisler-elf/10.2.0/../../../../sparc-gaisler-elf/lib/leon3/mfix-gr712rc/soft/libc.a(lib_a-puts.o)
 .debug_frame   0x0000000000000210       0x20 /home/fsw/rep/tasa/lib/bcc-2.2.3-gcc/bin/../lib/gcc/sparc-gaisler-elf/10.2.0/../../../../sparc-gaisler-elf/lib/leon3/mfix-gr712rc/soft/libc.a(lib_a-strlen.o)
 .debug_frame   0x0000000000000230       0x50 /home/fsw/rep/tasa/lib/bcc-2.2.3-gcc/bin/../lib/gcc/sparc-gaisler-elf/10.2.0/../../../../sparc-gaisler-elf/lib/leon3/mfix-gr712rc/soft/libc.a(lib_a-vfprintf.o)
 .debug_frame   0x0000000000000280       0x28 /home/fsw/rep/tasa/lib/bcc-2.2.3-gcc/bin/../lib/gcc/sparc-gaisler-elf/10.2.0/../../../../sparc-gaisler-elf/lib/leon3/mfix-gr712rc/soft/libc.a(lib_a-wsetup.o)
 .debug_frame   0x00000000000002a8       0x28 /home/fsw/rep/tasa/lib/bcc-2.2.3-gcc/bin/../lib/gcc/sparc-gaisler-elf/10.2.0/../../../../sparc-gaisler-elf/lib/leon3/mfix-gr712rc/soft/libc.a(lib_a-__atexit.o)
 .debug_frame   0x00000000000002d0       0x28 /home/fsw/rep/tasa/lib/bcc-2.2.3-gcc/bin/../lib/gcc/sparc-gaisler-elf/10.2.0/../../../../sparc-gaisler-elf/lib/leon3/mfix-gr712rc/soft/libc.a(lib_a-__call_atexit.o)
 .debug_frame   0x00000000000002f8       0x40 /home/fsw/rep/tasa/lib/bcc-2.2.3-gcc/bin/../lib/gcc/sparc-gaisler-elf/10.2.0/../../../../sparc-gaisler-elf/lib/leon3/mfix-gr712rc/soft/libc.a(lib_a-dtoa.o)
 .debug_frame   0x0000000000000338       0x58 /home/fsw/rep/tasa/lib/bcc-2.2.3-gcc/bin/../lib/gcc/sparc-gaisler-elf/10.2.0/../../../../sparc-gaisler-elf/lib/leon3/mfix-gr712rc/soft/libc.a(lib_a-fflush.o)
 .debug_frame   0x0000000000000390       0x88 /home/fsw/rep/tasa/lib/bcc-2.2.3-gcc/bin/../lib/gcc/sparc-gaisler-elf/10.2.0/../../../../sparc-gaisler-elf/lib/leon3/mfix-gr712rc/soft/libc.a(lib_a-findfp.o)
 .debug_frame   0x0000000000000418       0x40 /home/fsw/rep/tasa/lib/bcc-2.2.3-gcc/bin/../lib/gcc/sparc-gaisler-elf/10.2.0/../../../../sparc-gaisler-elf/lib/leon3/mfix-gr712rc/soft/libc.a(lib_a-freer.o)
 .debug_frame   0x0000000000000458       0x28 /home/fsw/rep/tasa/lib/bcc-2.2.3-gcc/bin/../lib/gcc/sparc-gaisler-elf/10.2.0/../../../../sparc-gaisler-elf/lib/leon3/mfix-gr712rc/soft/libc.a(lib_a-fvwrite.o)
 .debug_frame   0x0000000000000480       0x40 /home/fsw/rep/tasa/lib/bcc-2.2.3-gcc/bin/../lib/gcc/sparc-gaisler-elf/10.2.0/../../../../sparc-gaisler-elf/lib/leon3/mfix-gr712rc/soft/libc.a(lib_a-fwalk.o)
 .debug_frame   0x00000000000004c0       0x40 /home/fsw/rep/tasa/lib/bcc-2.2.3-gcc/bin/../lib/gcc/sparc-gaisler-elf/10.2.0/../../../../sparc-gaisler-elf/lib/leon3/mfix-gr712rc/soft/libc.a(lib_a-localeconv.o)
 .debug_frame   0x0000000000000500       0x40 /home/fsw/rep/tasa/lib/bcc-2.2.3-gcc/bin/../lib/gcc/sparc-gaisler-elf/10.2.0/../../../../sparc-gaisler-elf/lib/leon3/mfix-gr712rc/soft/libc.a(lib_a-makebuf.o)
 .debug_frame   0x0000000000000540       0x30 /home/fsw/rep/tasa/lib/bcc-2.2.3-gcc/bin/../lib/gcc/sparc-gaisler-elf/10.2.0/../../../../sparc-gaisler-elf/lib/leon3/mfix-gr712rc/soft/libc.a(lib_a-malloc.o)
 .debug_frame   0x0000000000000570       0x28 /home/fsw/rep/tasa/lib/bcc-2.2.3-gcc/bin/../lib/gcc/sparc-gaisler-elf/10.2.0/../../../../sparc-gaisler-elf/lib/leon3/mfix-gr712rc/soft/libc.a(lib_a-mallocr.o)
 .debug_frame   0x0000000000000598       0x20 /home/fsw/rep/tasa/lib/bcc-2.2.3-gcc/bin/../lib/gcc/sparc-gaisler-elf/10.2.0/../../../../sparc-gaisler-elf/lib/leon3/mfix-gr712rc/soft/libc.a(lib_a-memchr.o)
 .debug_frame   0x00000000000005b8       0x28 /home/fsw/rep/tasa/lib/bcc-2.2.3-gcc/bin/../lib/gcc/sparc-gaisler-elf/10.2.0/../../../../sparc-gaisler-elf/lib/leon3/mfix-gr712rc/soft/libc.a(lib_a-memcpy.o)
 .debug_frame   0x00000000000005e0       0x20 /home/fsw/rep/tasa/lib/bcc-2.2.3-gcc/bin/../lib/gcc/sparc-gaisler-elf/10.2.0/../../../../sparc-gaisler-elf/lib/leon3/mfix-gr712rc/soft/libc.a(lib_a-memmove.o)
 .debug_frame   0x0000000000000600       0x20 /home/fsw/rep/tasa/lib/bcc-2.2.3-gcc/bin/../lib/gcc/sparc-gaisler-elf/10.2.0/../../../../sparc-gaisler-elf/lib/leon3/mfix-gr712rc/soft/libc.a(lib_a-memset.o)
 .debug_frame   0x0000000000000620       0x30 /home/fsw/rep/tasa/lib/bcc-2.2.3-gcc/bin/../lib/gcc/sparc-gaisler-elf/10.2.0/../../../../sparc-gaisler-elf/lib/leon3/mfix-gr712rc/soft/libc.a(lib_a-mlock.o)
 .debug_frame   0x0000000000000650      0x1a8 /home/fsw/rep/tasa/lib/bcc-2.2.3-gcc/bin/../lib/gcc/sparc-gaisler-elf/10.2.0/../../../../sparc-gaisler-elf/lib/leon3/mfix-gr712rc/soft/libc.a(lib_a-mprec.o)
 .debug_frame   0x00000000000007f8       0x40 /home/fsw/rep/tasa/lib/bcc-2.2.3-gcc/bin/../lib/gcc/sparc-gaisler-elf/10.2.0/../../../../sparc-gaisler-elf/lib/leon3/mfix-gr712rc/soft/libc.a(lib_a-putc.o)
 .debug_frame   0x0000000000000838       0x28 /home/fsw/rep/tasa/lib/bcc-2.2.3-gcc/bin/../lib/gcc/sparc-gaisler-elf/10.2.0/../../../../sparc-gaisler-elf/lib/leon3/mfix-gr712rc/soft/libc.a(lib_a-reallocr.o)
 .debug_frame   0x0000000000000860       0x28 /home/fsw/rep/tasa/lib/bcc-2.2.3-gcc/bin/../lib/gcc/sparc-gaisler-elf/10.2.0/../../../../sparc-gaisler-elf/lib/leon3/mfix-gr712rc/soft/libc.a(lib_a-s_frexp.o)
 .debug_frame   0x0000000000000888       0x28 /home/fsw/rep/tasa/lib/bcc-2.2.3-gcc/bin/../lib/gcc/sparc-gaisler-elf/10.2.0/../../../../sparc-gaisler-elf/lib/leon3/mfix-gr712rc/soft/libc.a(lib_a-sbrkr.o)
 .debug_frame   0x00000000000008b0       0x78 /home/fsw/rep/tasa/lib/bcc-2.2.3-gcc/bin/../lib/gcc/sparc-gaisler-elf/10.2.0/../../../../sparc-gaisler-elf/lib/leon3/mfix-gr712rc/soft/libc.a(lib_a-stdio.o)
 .debug_frame   0x0000000000000928       0x20 /home/fsw/rep/tasa/lib/bcc-2.2.3-gcc/bin/../lib/gcc/sparc-gaisler-elf/10.2.0/../../../../sparc-gaisler-elf/lib/leon3/mfix-gr712rc/soft/libc.a(lib_a-strncpy.o)
 .debug_frame   0x0000000000000948       0x68 /home/fsw/rep/tasa/lib/bcc-2.2.3-gcc/bin/../lib/gcc/sparc-gaisler-elf/10.2.0/../../../../sparc-gaisler-elf/lib/leon3/mfix-gr712rc/soft/libc.a(lib_a-vfiprintf.o)
 .debug_frame   0x00000000000009b0       0x40 /home/fsw/rep/tasa/lib/bcc-2.2.3-gcc/bin/../lib/gcc/sparc-gaisler-elf/10.2.0/../../../../sparc-gaisler-elf/lib/leon3/mfix-gr712rc/soft/libc.a(lib_a-wbuf.o)
 .debug_frame   0x00000000000009f0       0x28 /home/fsw/rep/tasa/lib/bcc-2.2.3-gcc/bin/../lib/gcc/sparc-gaisler-elf/10.2.0/../../../../sparc-gaisler-elf/lib/leon3/mfix-gr712rc/soft/libc.a(lib_a-writer.o)
 .debug_frame   0x0000000000000a18       0x28 /home/fsw/rep/tasa/lib/bcc-2.2.3-gcc/bin/../lib/gcc/sparc-gaisler-elf/10.2.0/../../../../sparc-gaisler-elf/lib/leon3/mfix-gr712rc/soft/libc.a(lib_a-callocr.o)
 .debug_frame   0x0000000000000a40       0x28 /home/fsw/rep/tasa/lib/bcc-2.2.3-gcc/bin/../lib/gcc/sparc-gaisler-elf/10.2.0/../../../../sparc-gaisler-elf/lib/leon3/mfix-gr712rc/soft/libc.a(lib_a-closer.o)
 .debug_frame   0x0000000000000a68       0x40 /home/fsw/rep/tasa/lib/bcc-2.2.3-gcc/bin/../lib/gcc/sparc-gaisler-elf/10.2.0/../../../../sparc-gaisler-elf/lib/leon3/mfix-gr712rc/soft/libc.a(lib_a-fclose.o)
 .debug_frame   0x0000000000000aa8       0x50 /home/fsw/rep/tasa/lib/bcc-2.2.3-gcc/bin/../lib/gcc/sparc-gaisler-elf/10.2.0/../../../../sparc-gaisler-elf/lib/leon3/mfix-gr712rc/soft/libc.a(lib_a-fputwc.o)
 .debug_frame   0x0000000000000af8       0x28 /home/fsw/rep/tasa/lib/bcc-2.2.3-gcc/bin/../lib/gcc/sparc-gaisler-elf/10.2.0/../../../../sparc-gaisler-elf/lib/leon3/mfix-gr712rc/soft/libc.a(lib_a-fstatr.o)
 .debug_frame   0x0000000000000b20       0x28 /home/fsw/rep/tasa/lib/bcc-2.2.3-gcc/bin/../lib/gcc/sparc-gaisler-elf/10.2.0/../../../../sparc-gaisler-elf/lib/leon3/mfix-gr712rc/soft/libc.a(lib_a-isattyr.o)
 .debug_frame   0x0000000000000b48       0x70 /home/fsw/rep/tasa/lib/bcc-2.2.3-gcc/bin/../lib/gcc/sparc-gaisler-elf/10.2.0/../../../../sparc-gaisler-elf/lib/leon3/mfix-gr712rc/soft/libc.a(lib_a-locale.o)
 .debug_frame   0x0000000000000bb8       0x28 /home/fsw/rep/tasa/lib/bcc-2.2.3-gcc/bin/../lib/gcc/sparc-gaisler-elf/10.2.0/../../../../sparc-gaisler-elf/lib/leon3/mfix-gr712rc/soft/libc.a(lib_a-lseekr.o)
 .debug_frame   0x0000000000000be0       0x3c /home/fsw/rep/tasa/lib/bcc-2.2.3-gcc/bin/../lib/gcc/sparc-gaisler-elf/10.2.0/../../../../sparc-gaisler-elf/lib/leon3/mfix-gr712rc/soft/libc.a(lib_a-mbtowc_r.o)
 .debug_frame   0x0000000000000c1c       0x28 /home/fsw/rep/tasa/lib/bcc-2.2.3-gcc/bin/../lib/gcc/sparc-gaisler-elf/10.2.0/../../../../sparc-gaisler-elf/lib/leon3/mfix-gr712rc/soft/libc.a(lib_a-readr.o)
 .debug_frame   0x0000000000000c44       0x40 /home/fsw/rep/tasa/lib/bcc-2.2.3-gcc/bin/../lib/gcc/sparc-gaisler-elf/10.2.0/../../../../sparc-gaisler-elf/lib/leon3/mfix-gr712rc/soft/libc.a(lib_a-reent.o)
 .debug_frame   0x0000000000000c84       0x20 /home/fsw/rep/tasa/lib/bcc-2.2.3-gcc/bin/../lib/gcc/sparc-gaisler-elf/10.2.0/../../../../sparc-gaisler-elf/lib/leon3/mfix-gr712rc/soft/libc.a(lib_a-strcmp.o)
 .debug_frame   0x0000000000000ca4       0x40 /home/fsw/rep/tasa/lib/bcc-2.2.3-gcc/bin/../lib/gcc/sparc-gaisler-elf/10.2.0/../../../../sparc-gaisler-elf/lib/leon3/mfix-gr712rc/soft/libc.a(lib_a-wcrtomb.o)
 .debug_frame   0x0000000000000ce4       0x38 /home/fsw/rep/tasa/lib/bcc-2.2.3-gcc/bin/../lib/gcc/sparc-gaisler-elf/10.2.0/../../../../sparc-gaisler-elf/lib/leon3/mfix-gr712rc/soft/libc.a(lib_a-wctomb_r.o)
 .debug_frame   0x0000000000000d1c       0x28 /home/fsw/rep/tasa/lib/bcc-2.2.3-gcc/bin/../sparc-gaisler-elf/bsp/gr712rc/leon3/mfix-gr712rc/soft/libbcc.a(read.c.o)
 .debug_frame   0x0000000000000d44       0x20 /home/fsw/rep/tasa/lib/bcc-2.2.3-gcc/bin/../sparc-gaisler-elf/bsp/gr712rc/leon3/mfix-gr712rc/soft/libbcc.a(sbrk.c.o)
 .debug_frame   0x0000000000000d64       0x28 /home/fsw/rep/tasa/lib/bcc-2.2.3-gcc/bin/../sparc-gaisler-elf/bsp/gr712rc/leon3/mfix-gr712rc/soft/libbcc.a(write.c.o)
 .debug_frame   0x0000000000000d8c       0x30 /home/fsw/rep/tasa/lib/bcc-2.2.3-gcc/bin/../sparc-gaisler-elf/bsp/gr712rc/leon3/mfix-gr712rc/soft/libbcc.a(con_apbuart.c.o)
 .debug_frame   0x0000000000000dbc       0x40 /home/fsw/rep/tasa/lib/bcc-2.2.3-gcc/bin/../lib/gcc/sparc-gaisler-elf/10.2.0/leon3/mfix-gr712rc/soft/libgcc.a(_addsub_df.o)
 .debug_frame   0x0000000000000dfc       0x28 /home/fsw/rep/tasa/lib/bcc-2.2.3-gcc/bin/../lib/gcc/sparc-gaisler-elf/10.2.0/leon3/mfix-gr712rc/soft/libgcc.a(_mul_df.o)
 .debug_frame   0x0000000000000e24       0x28 /home/fsw/rep/tasa/lib/bcc-2.2.3-gcc/bin/../lib/gcc/sparc-gaisler-elf/10.2.0/leon3/mfix-gr712rc/soft/libgcc.a(_div_df.o)
 .debug_frame   0x0000000000000e4c       0x28 /home/fsw/rep/tasa/lib/bcc-2.2.3-gcc/bin/../lib/gcc/sparc-gaisler-elf/10.2.0/leon3/mfix-gr712rc/soft/libgcc.a(_eq_df.o)
 .debug_frame   0x0000000000000e74       0x28 /home/fsw/rep/tasa/lib/bcc-2.2.3-gcc/bin/../lib/gcc/sparc-gaisler-elf/10.2.0/leon3/mfix-gr712rc/soft/libgcc.a(_ne_df.o)
 .debug_frame   0x0000000000000e9c       0x28 /home/fsw/rep/tasa/lib/bcc-2.2.3-gcc/bin/../lib/gcc/sparc-gaisler-elf/10.2.0/leon3/mfix-gr712rc/soft/libgcc.a(_gt_df.o)
 .debug_frame   0x0000000000000ec4       0x28 /home/fsw/rep/tasa/lib/bcc-2.2.3-gcc/bin/../lib/gcc/sparc-gaisler-elf/10.2.0/leon3/mfix-gr712rc/soft/libgcc.a(_lt_df.o)
 .debug_frame   0x0000000000000eec       0x28 /home/fsw/rep/tasa/lib/bcc-2.2.3-gcc/bin/../lib/gcc/sparc-gaisler-elf/10.2.0/leon3/mfix-gr712rc/soft/libgcc.a(_le_df.o)
 .debug_frame   0x0000000000000f14       0x28 /home/fsw/rep/tasa/lib/bcc-2.2.3-gcc/bin/../lib/gcc/sparc-gaisler-elf/10.2.0/leon3/mfix-gr712rc/soft/libgcc.a(_unord_df.o)
 .debug_frame   0x0000000000000f3c       0x28 /home/fsw/rep/tasa/lib/bcc-2.2.3-gcc/bin/../lib/gcc/sparc-gaisler-elf/10.2.0/leon3/mfix-gr712rc/soft/libgcc.a(_si_to_df.o)
 .debug_frame   0x0000000000000f64       0x28 /home/fsw/rep/tasa/lib/bcc-2.2.3-gcc/bin/../lib/gcc/sparc-gaisler-elf/10.2.0/leon3/mfix-gr712rc/soft/libgcc.a(_df_to_si.o)
 .debug_frame   0x0000000000000f8c       0x28 /home/fsw/rep/tasa/lib/bcc-2.2.3-gcc/bin/../lib/gcc/sparc-gaisler-elf/10.2.0/leon3/mfix-gr712rc/soft/libgcc.a(_usi_to_df.o)
 .debug_frame   0x0000000000000fb4       0x20 /home/fsw/rep/tasa/lib/bcc-2.2.3-gcc/bin/../lib/gcc/sparc-gaisler-elf/10.2.0/leon3/mfix-gr712rc/soft/libgcc.a(_clzsi2.o)
 .debug_frame   0x0000000000000fd4       0x28 /home/fsw/rep/tasa/lib/bcc-2.2.3-gcc/bin/../lib/gcc/sparc-gaisler-elf/10.2.0/leon3/mfix-gr712rc/soft/libgcc.a(_pack_df.o)
 .debug_frame   0x0000000000000ffc       0x20 /home/fsw/rep/tasa/lib/bcc-2.2.3-gcc/bin/../lib/gcc/sparc-gaisler-elf/10.2.0/leon3/mfix-gr712rc/soft/libgcc.a(_unpack_df.o)
 .debug_frame   0x000000000000101c       0x20 /home/fsw/rep/tasa/lib/bcc-2.2.3-gcc/bin/../lib/gcc/sparc-gaisler-elf/10.2.0/leon3/mfix-gr712rc/soft/libgcc.a(_fpcmp_parts_df.o)

.debug_str      0x0000000000000000     0x3414
 *(.debug_str)
 .debug_str     0x0000000000000000       0xb5 /home/fsw/rep/tasa/lib/bcc-2.2.3-gcc/bin/../sparc-gaisler-elf/bsp/gr712rc/leon3/mfix-gr712rc/soft/trap_table_mvt_tn0018.S.o
 .debug_str     0x00000000000000b5       0x2c /home/fsw/rep/tasa/lib/bcc-2.2.3-gcc/bin/../sparc-gaisler-elf/bsp/gr712rc/leon3/mfix-gr712rc/soft/crt0.S.o
                                         0xa6 (size before relaxing)
 .debug_str     0x00000000000000e1      0x142 /tmp/ccucSNOv.o
                                        0x19a (size before relaxing)
 .debug_str     0x0000000000000223       0x3b /home/fsw/rep/tasa/lib/bcc-2.2.3-gcc/bin/../sparc-gaisler-elf/bsp/gr712rc/leon3/mfix-gr712rc/soft/libbcc.a(reset_trap_mvt.S.o)
                                         0xb5 (size before relaxing)
 .debug_str     0x000000000000025e       0x38 /home/fsw/rep/tasa/lib/bcc-2.2.3-gcc/bin/../sparc-gaisler-elf/bsp/gr712rc/leon3/mfix-gr712rc/soft/libbcc.a(window_trap.S.o)
                                         0xb2 (size before relaxing)
 .debug_str     0x0000000000000296       0x3f /home/fsw/rep/tasa/lib/bcc-2.2.3-gcc/bin/../sparc-gaisler-elf/bsp/gr712rc/leon3/mfix-gr712rc/soft/libbcc.a(flush_windows_trap.S.o)
                                         0xb9 (size before relaxing)
 .debug_str     0x00000000000002d5       0x3c /home/fsw/rep/tasa/lib/bcc-2.2.3-gcc/bin/../sparc-gaisler-elf/bsp/gr712rc/leon3/mfix-gr712rc/soft/libbcc.a(sw_trap_set_pil.S.o)
                                         0xb6 (size before relaxing)
 .debug_str     0x0000000000000311       0x2c /home/fsw/rep/tasa/lib/bcc-2.2.3-gcc/bin/../sparc-gaisler-elf/bsp/gr712rc/leon3/mfix-gr712rc/soft/libbcc.a(init.S.o)
                                         0xa6 (size before relaxing)
 .debug_str     0x000000000000033d       0x31 /home/fsw/rep/tasa/lib/bcc-2.2.3-gcc/bin/../sparc-gaisler-elf/bsp/gr712rc/leon3/mfix-gr712rc/soft/libbcc.a(leon_info.S.o)
                                         0xab (size before relaxing)
 .debug_str     0x000000000000036e       0x2e /home/fsw/rep/tasa/lib/bcc-2.2.3-gcc/bin/../sparc-gaisler-elf/bsp/gr712rc/leon3/mfix-gr712rc/soft/libbcc.a(dwzero.S.o)
                                         0xa8 (size before relaxing)
 .debug_str     0x000000000000039c       0xc8 /home/fsw/rep/tasa/lib/bcc-2.2.3-gcc/bin/../sparc-gaisler-elf/bsp/gr712rc/leon3/mfix-gr712rc/soft/libbcc.a(copy_data.c.o)
                                        0x1c3 (size before relaxing)
 .debug_str     0x0000000000000464       0x4e /home/fsw/rep/tasa/lib/bcc-2.2.3-gcc/bin/../sparc-gaisler-elf/bsp/gr712rc/leon3/mfix-gr712rc/soft/libbcc.a(argv.c.o)
                                        0x198 (size before relaxing)
 .debug_str     0x00000000000004b2       0x3b /home/fsw/rep/tasa/lib/bcc-2.2.3-gcc/bin/../sparc-gaisler-elf/bsp/gr712rc/leon3/mfix-gr712rc/soft/libbcc.a(interrupt_trap_tn0018.S.o)
                                         0xb5 (size before relaxing)
 .debug_str     0x00000000000004ed      0x17b /home/fsw/rep/tasa/lib/bcc-2.2.3-gcc/bin/../sparc-gaisler-elf/bsp/gr712rc/leon3/mfix-gr712rc/soft/libbcc.a(int_irqmp_get_source.c.o)
                                        0x2e5 (size before relaxing)
 .debug_str     0x0000000000000668       0x7f /home/fsw/rep/tasa/lib/bcc-2.2.3-gcc/bin/../sparc-gaisler-elf/bsp/gr712rc/leon3/mfix-gr712rc/soft/libbcc.a(int_irqmp_mp.c.o)
                                        0x322 (size before relaxing)
 .debug_str     0x00000000000006e7       0x95 /home/fsw/rep/tasa/lib/bcc-2.2.3-gcc/bin/../sparc-gaisler-elf/bsp/gr712rc/leon3/mfix-gr712rc/soft/libbcc.a(int_irqmp_init.c.o)
                                        0x327 (size before relaxing)
 .debug_str     0x000000000000077c       0x4f /home/fsw/rep/tasa/lib/bcc-2.2.3-gcc/bin/../sparc-gaisler-elf/bsp/gr712rc/leon3/mfix-gr712rc/soft/libbcc.a(con_apbuart_init.c.o)
                                        0x1d6 (size before relaxing)
 .debug_str     0x00000000000007cb       0x59 /home/fsw/rep/tasa/lib/bcc-2.2.3-gcc/bin/../sparc-gaisler-elf/bsp/gr712rc/leon3/mfix-gr712rc/soft/libbcc.a(timer_gptimer_init.c.o)
                                        0x222 (size before relaxing)
 .debug_str     0x0000000000000824       0x59 /home/fsw/rep/tasa/lib/bcc-2.2.3-gcc/bin/../sparc-gaisler-elf/bsp/gr712rc/leon3/mfix-gr712rc/soft/libbcc.a(isr.c.o)
                                        0x1aa (size before relaxing)
 .debug_str     0x000000000000087d       0x6d /home/fsw/rep/tasa/lib/bcc-2.2.3-gcc/bin/../sparc-gaisler-elf/bsp/gr712rc/leon3/mfix-gr712rc/soft/libbcc.a(int_nest.c.o)
                                        0x1c4 (size before relaxing)
 .debug_str     0x00000000000008ea       0x6a /home/fsw/rep/tasa/lib/bcc-2.2.3-gcc/bin/../sparc-gaisler-elf/bsp/gr712rc/leon3/mfix-gr712rc/soft/libbcc.a(int_irqmp_handle.c.o)
                                        0x1ee (size before relaxing)
 .debug_str     0x0000000000000954      0x1b6 /home/fsw/rep/tasa/lib/bcc-2.2.3-gcc/bin/../lib/gcc/sparc-gaisler-elf/10.2.0/../../../../sparc-gaisler-elf/lib/leon3/mfix-gr712rc/soft/libc.a(lib_a-atexit.o)
                                        0x246 (size before relaxing)
 .debug_str     0x0000000000000b0a      0x341 /home/fsw/rep/tasa/lib/bcc-2.2.3-gcc/bin/../lib/gcc/sparc-gaisler-elf/10.2.0/../../../../sparc-gaisler-elf/lib/leon3/mfix-gr712rc/soft/libc.a(lib_a-exit.o)
                                        0x564 (size before relaxing)
 .debug_str     0x0000000000000e4b      0x13e /home/fsw/rep/tasa/lib/bcc-2.2.3-gcc/bin/../lib/gcc/sparc-gaisler-elf/10.2.0/../../../../sparc-gaisler-elf/lib/leon3/mfix-gr712rc/soft/libc.a(lib_a-impure.o)
                                        0x59a (size before relaxing)
 .debug_str     0x0000000000000f89      0x132 /home/fsw/rep/tasa/lib/bcc-2.2.3-gcc/bin/../lib/gcc/sparc-gaisler-elf/10.2.0/../../../../sparc-gaisler-elf/lib/leon3/mfix-gr712rc/soft/libc.a(lib_a-printf.o)
                                        0x58a (size before relaxing)
 .debug_str     0x00000000000010bb       0x57 /home/fsw/rep/tasa/lib/bcc-2.2.3-gcc/bin/../lib/gcc/sparc-gaisler-elf/10.2.0/../../../../sparc-gaisler-elf/lib/leon3/mfix-gr712rc/soft/libc.a(lib_a-putchar.o)
                                        0x566 (size before relaxing)
 .debug_str     0x0000000000001112       0xa9 /home/fsw/rep/tasa/lib/bcc-2.2.3-gcc/bin/../lib/gcc/sparc-gaisler-elf/10.2.0/../../../../sparc-gaisler-elf/lib/leon3/mfix-gr712rc/soft/libc.a(lib_a-puts.o)
                                        0x601 (size before relaxing)
 .debug_str     0x00000000000011bb      0x102 /home/fsw/rep/tasa/lib/bcc-2.2.3-gcc/bin/../lib/gcc/sparc-gaisler-elf/10.2.0/../../../../sparc-gaisler-elf/lib/leon3/mfix-gr712rc/soft/libc.a(lib_a-strlen.o)
                                        0x21c (size before relaxing)
 .debug_str     0x00000000000012bd      0x413 /home/fsw/rep/tasa/lib/bcc-2.2.3-gcc/bin/../lib/gcc/sparc-gaisler-elf/10.2.0/../../../../sparc-gaisler-elf/lib/leon3/mfix-gr712rc/soft/libc.a(lib_a-vfprintf.o)
                                        0xa8c (size before relaxing)
 .debug_str     0x00000000000016d0       0x50 /home/fsw/rep/tasa/lib/bcc-2.2.3-gcc/bin/../lib/gcc/sparc-gaisler-elf/10.2.0/../../../../sparc-gaisler-elf/lib/leon3/mfix-gr712rc/soft/libc.a(lib_a-wsetup.o)
                                        0x5b9 (size before relaxing)
 .debug_str     0x0000000000001720       0xbc /home/fsw/rep/tasa/lib/bcc-2.2.3-gcc/bin/../lib/gcc/sparc-gaisler-elf/10.2.0/../../../../sparc-gaisler-elf/lib/leon3/mfix-gr712rc/soft/libc.a(lib_a-__atexit.o)
                                        0x2e5 (size before relaxing)
 .debug_str     0x00000000000017dc       0x67 /home/fsw/rep/tasa/lib/bcc-2.2.3-gcc/bin/../lib/gcc/sparc-gaisler-elf/10.2.0/../../../../sparc-gaisler-elf/lib/leon3/mfix-gr712rc/soft/libc.a(lib_a-__call_atexit.o)
                                        0x2b2 (size before relaxing)
 .debug_str     0x0000000000001843      0x180 /home/fsw/rep/tasa/lib/bcc-2.2.3-gcc/bin/../lib/gcc/sparc-gaisler-elf/10.2.0/../../../../sparc-gaisler-elf/lib/leon3/mfix-gr712rc/soft/libc.a(lib_a-dtoa.o)
                                        0x8ef (size before relaxing)
 .debug_str     0x00000000000019c3       0x73 /home/fsw/rep/tasa/lib/bcc-2.2.3-gcc/bin/../lib/gcc/sparc-gaisler-elf/10.2.0/../../../../sparc-gaisler-elf/lib/leon3/mfix-gr712rc/soft/libc.a(lib_a-fflush.o)
                                        0x5fa (size before relaxing)
 .debug_str     0x0000000000001a36      0x100 /home/fsw/rep/tasa/lib/bcc-2.2.3-gcc/bin/../lib/gcc/sparc-gaisler-elf/10.2.0/../../../../sparc-gaisler-elf/lib/leon3/mfix-gr712rc/soft/libc.a(lib_a-findfp.o)
                                        0x690 (size before relaxing)
 .debug_str     0x0000000000001b36      0x182 /home/fsw/rep/tasa/lib/bcc-2.2.3-gcc/bin/../lib/gcc/sparc-gaisler-elf/10.2.0/../../../../sparc-gaisler-elf/lib/leon3/mfix-gr712rc/soft/libc.a(lib_a-freer.o)
                                        0x6aa (size before relaxing)
 .debug_str     0x0000000000001cb8       0x75 /home/fsw/rep/tasa/lib/bcc-2.2.3-gcc/bin/../lib/gcc/sparc-gaisler-elf/10.2.0/../../../../sparc-gaisler-elf/lib/leon3/mfix-gr712rc/soft/libc.a(lib_a-fvwrite.o)
                                        0x5ed (size before relaxing)
 .debug_str     0x0000000000001d2d       0x58 /home/fsw/rep/tasa/lib/bcc-2.2.3-gcc/bin/../lib/gcc/sparc-gaisler-elf/10.2.0/../../../../sparc-gaisler-elf/lib/leon3/mfix-gr712rc/soft/libc.a(lib_a-fwalk.o)
                                        0x560 (size before relaxing)
 .debug_str     0x0000000000001d85      0x15b /home/fsw/rep/tasa/lib/bcc-2.2.3-gcc/bin/../lib/gcc/sparc-gaisler-elf/10.2.0/../../../../sparc-gaisler-elf/lib/leon3/mfix-gr712rc/soft/libc.a(lib_a-localeconv.o)
                                        0x79c (size before relaxing)
 .debug_str     0x0000000000001ee0      0x16a /home/fsw/rep/tasa/lib/bcc-2.2.3-gcc/bin/../lib/gcc/sparc-gaisler-elf/10.2.0/../../../../sparc-gaisler-elf/lib/leon3/mfix-gr712rc/soft/libc.a(lib_a-makebuf.o)
                                        0x6ca (size before relaxing)
 .debug_str     0x000000000000204a       0x50 /home/fsw/rep/tasa/lib/bcc-2.2.3-gcc/bin/../lib/gcc/sparc-gaisler-elf/10.2.0/../../../../sparc-gaisler-elf/lib/leon3/mfix-gr712rc/soft/libc.a(lib_a-malloc.o)
                                        0x56f (size before relaxing)
 .debug_str     0x000000000000209a       0xdf /home/fsw/rep/tasa/lib/bcc-2.2.3-gcc/bin/../lib/gcc/sparc-gaisler-elf/10.2.0/../../../../sparc-gaisler-elf/lib/leon3/mfix-gr712rc/soft/libc.a(lib_a-mallocr.o)
                                        0x760 (size before relaxing)
 .debug_str     0x0000000000002179       0x52 /home/fsw/rep/tasa/lib/bcc-2.2.3-gcc/bin/../lib/gcc/sparc-gaisler-elf/10.2.0/../../../../sparc-gaisler-elf/lib/leon3/mfix-gr712rc/soft/libc.a(lib_a-memchr.o)
                                        0x223 (size before relaxing)
 .debug_str     0x00000000000021cb       0x6b /home/fsw/rep/tasa/lib/bcc-2.2.3-gcc/bin/../lib/gcc/sparc-gaisler-elf/10.2.0/../../../../sparc-gaisler-elf/lib/leon3/mfix-gr712rc/soft/libc.a(lib_a-memcpy.o)
                                        0x230 (size before relaxing)
 .debug_str     0x0000000000002236       0x4e /home/fsw/rep/tasa/lib/bcc-2.2.3-gcc/bin/../lib/gcc/sparc-gaisler-elf/10.2.0/../../../../sparc-gaisler-elf/lib/leon3/mfix-gr712rc/soft/libc.a(lib_a-memmove.o)
                                        0x23c (size before relaxing)
 .debug_str     0x0000000000002284       0x4b /home/fsw/rep/tasa/lib/bcc-2.2.3-gcc/bin/../lib/gcc/sparc-gaisler-elf/10.2.0/../../../../sparc-gaisler-elf/lib/leon3/mfix-gr712rc/soft/libc.a(lib_a-memset.o)
                                        0x21d (size before relaxing)
 .debug_str     0x00000000000022cf       0x43 /home/fsw/rep/tasa/lib/bcc-2.2.3-gcc/bin/../lib/gcc/sparc-gaisler-elf/10.2.0/../../../../sparc-gaisler-elf/lib/leon3/mfix-gr712rc/soft/libc.a(lib_a-mlock.o)
                                        0x54f (size before relaxing)
 .debug_str     0x0000000000002312       0xae /home/fsw/rep/tasa/lib/bcc-2.2.3-gcc/bin/../lib/gcc/sparc-gaisler-elf/10.2.0/../../../../sparc-gaisler-elf/lib/leon3/mfix-gr712rc/soft/libc.a(lib_a-mprec.o)
                                        0x84b (size before relaxing)
 .debug_str     0x00000000000023c0       0x5a /home/fsw/rep/tasa/lib/bcc-2.2.3-gcc/bin/../lib/gcc/sparc-gaisler-elf/10.2.0/../../../../sparc-gaisler-elf/lib/leon3/mfix-gr712rc/soft/libc.a(lib_a-putc.o)
                                        0x5c9 (size before relaxing)
 .debug_str     0x000000000000241a       0x4e /home/fsw/rep/tasa/lib/bcc-2.2.3-gcc/bin/../lib/gcc/sparc-gaisler-elf/10.2.0/../../../../sparc-gaisler-elf/lib/leon3/mfix-gr712rc/soft/libc.a(lib_a-reallocr.o)
                                        0x63c (size before relaxing)
 .debug_str     0x0000000000002468      0x12d /home/fsw/rep/tasa/lib/bcc-2.2.3-gcc/bin/../lib/gcc/sparc-gaisler-elf/10.2.0/../../../../sparc-gaisler-elf/lib/leon3/mfix-gr712rc/soft/libc.a(lib_a-s_frexp.o)
                                        0x266 (size before relaxing)
 .debug_str     0x0000000000002595       0x56 /home/fsw/rep/tasa/lib/bcc-2.2.3-gcc/bin/../lib/gcc/sparc-gaisler-elf/10.2.0/../../../../sparc-gaisler-elf/lib/leon3/mfix-gr712rc/soft/libc.a(lib_a-sbrkr.o)
                                        0x551 (size before relaxing)
 .debug_str     0x00000000000025eb       0xa2 /home/fsw/rep/tasa/lib/bcc-2.2.3-gcc/bin/../lib/gcc/sparc-gaisler-elf/10.2.0/../../../../sparc-gaisler-elf/lib/leon3/mfix-gr712rc/soft/libc.a(lib_a-stdio.o)
                                        0x5af (size before relaxing)
 .debug_str     0x000000000000268d       0x45 /home/fsw/rep/tasa/lib/bcc-2.2.3-gcc/bin/../lib/gcc/sparc-gaisler-elf/10.2.0/../../../../sparc-gaisler-elf/lib/leon3/mfix-gr712rc/soft/libc.a(lib_a-strncpy.o)
                                        0x233 (size before relaxing)
 .debug_str     0x00000000000026d2       0x21 /home/fsw/rep/tasa/lib/bcc-2.2.3-gcc/bin/../lib/gcc/sparc-gaisler-elf/10.2.0/../../../../sparc-gaisler-elf/lib/leon3/mfix-gr712rc/soft/libc.a(lib_a-vfiprintf.o)
                                        0x985 (size before relaxing)
 .debug_str     0x00000000000026f3       0x49 /home/fsw/rep/tasa/lib/bcc-2.2.3-gcc/bin/../lib/gcc/sparc-gaisler-elf/10.2.0/../../../../sparc-gaisler-elf/lib/leon3/mfix-gr712rc/soft/libc.a(lib_a-wbuf.o)
                                        0x5be (size before relaxing)
 .debug_str     0x000000000000273c       0x43 /home/fsw/rep/tasa/lib/bcc-2.2.3-gcc/bin/../lib/gcc/sparc-gaisler-elf/10.2.0/../../../../sparc-gaisler-elf/lib/leon3/mfix-gr712rc/soft/libc.a(lib_a-writer.o)
                                        0x555 (size before relaxing)
 .debug_str     0x000000000000277f        0xf /home/fsw/rep/tasa/lib/bcc-2.2.3-gcc/bin/../lib/gcc/sparc-gaisler-elf/10.2.0/../../../../sparc-gaisler-elf/lib/leon3/mfix-gr712rc/soft/libc.a(lib_a-callocr.o)
                                        0x594 (size before relaxing)
 .debug_str     0x000000000000278e       0x43 /home/fsw/rep/tasa/lib/bcc-2.2.3-gcc/bin/../lib/gcc/sparc-gaisler-elf/10.2.0/../../../../sparc-gaisler-elf/lib/leon3/mfix-gr712rc/soft/libc.a(lib_a-closer.o)
                                        0x545 (size before relaxing)
 .debug_str     0x00000000000027d1       0x54 /home/fsw/rep/tasa/lib/bcc-2.2.3-gcc/bin/../lib/gcc/sparc-gaisler-elf/10.2.0/../../../../sparc-gaisler-elf/lib/leon3/mfix-gr712rc/soft/libc.a(lib_a-fclose.o)
                                        0x5c1 (size before relaxing)
 .debug_str     0x0000000000002825       0x6b /home/fsw/rep/tasa/lib/bcc-2.2.3-gcc/bin/../lib/gcc/sparc-gaisler-elf/10.2.0/../../../../sparc-gaisler-elf/lib/leon3/mfix-gr712rc/soft/libc.a(lib_a-fputwc.o)
                                        0x5ff (size before relaxing)
 .debug_str     0x0000000000002890       0x49 /home/fsw/rep/tasa/lib/bcc-2.2.3-gcc/bin/../lib/gcc/sparc-gaisler-elf/10.2.0/../../../../sparc-gaisler-elf/lib/leon3/mfix-gr712rc/soft/libc.a(lib_a-fstatr.o)
                                        0x67e (size before relaxing)
 .debug_str     0x00000000000028d9       0x4b /home/fsw/rep/tasa/lib/bcc-2.2.3-gcc/bin/../lib/gcc/sparc-gaisler-elf/10.2.0/../../../../sparc-gaisler-elf/lib/leon3/mfix-gr712rc/soft/libc.a(lib_a-isattyr.o)
                                        0x548 (size before relaxing)
 .debug_str     0x0000000000002924       0xa8 /home/fsw/rep/tasa/lib/bcc-2.2.3-gcc/bin/../lib/gcc/sparc-gaisler-elf/10.2.0/../../../../sparc-gaisler-elf/lib/leon3/mfix-gr712rc/soft/libc.a(lib_a-locale.o)
                                        0x7d4 (size before relaxing)
 .debug_str     0x00000000000029cc       0x49 /home/fsw/rep/tasa/lib/bcc-2.2.3-gcc/bin/../lib/gcc/sparc-gaisler-elf/10.2.0/../../../../sparc-gaisler-elf/lib/leon3/mfix-gr712rc/soft/libc.a(lib_a-lseekr.o)
                                        0x54c (size before relaxing)
 .debug_str     0x0000000000002a15       0x65 /home/fsw/rep/tasa/lib/bcc-2.2.3-gcc/bin/../lib/gcc/sparc-gaisler-elf/10.2.0/../../../../sparc-gaisler-elf/lib/leon3/mfix-gr712rc/soft/libc.a(lib_a-mbtowc_r.o)
                                        0x78a (size before relaxing)
 .debug_str     0x0000000000002a7a       0x42 /home/fsw/rep/tasa/lib/bcc-2.2.3-gcc/bin/../lib/gcc/sparc-gaisler-elf/10.2.0/../../../../sparc-gaisler-elf/lib/leon3/mfix-gr712rc/soft/libc.a(lib_a-readr.o)
                                        0x552 (size before relaxing)
 .debug_str     0x0000000000002abc       0x6e /home/fsw/rep/tasa/lib/bcc-2.2.3-gcc/bin/../lib/gcc/sparc-gaisler-elf/10.2.0/../../../../sparc-gaisler-elf/lib/leon3/mfix-gr712rc/soft/libc.a(lib_a-reent.o)
                                        0x57a (size before relaxing)
 .debug_str     0x0000000000002b2a       0x44 /home/fsw/rep/tasa/lib/bcc-2.2.3-gcc/bin/../lib/gcc/sparc-gaisler-elf/10.2.0/../../../../sparc-gaisler-elf/lib/leon3/mfix-gr712rc/soft/libc.a(lib_a-strcmp.o)
                                        0x202 (size before relaxing)
 .debug_str     0x0000000000002b6e       0x54 /home/fsw/rep/tasa/lib/bcc-2.2.3-gcc/bin/../lib/gcc/sparc-gaisler-elf/10.2.0/../../../../sparc-gaisler-elf/lib/leon3/mfix-gr712rc/soft/libc.a(lib_a-wcrtomb.o)
                                        0x776 (size before relaxing)
 .debug_str     0x0000000000002bc2       0x66 /home/fsw/rep/tasa/lib/bcc-2.2.3-gcc/bin/../lib/gcc/sparc-gaisler-elf/10.2.0/../../../../sparc-gaisler-elf/lib/leon3/mfix-gr712rc/soft/libc.a(lib_a-wctomb_r.o)
                                        0x783 (size before relaxing)
 .debug_str     0x0000000000002c28       0xfb /home/fsw/rep/tasa/lib/bcc-2.2.3-gcc/bin/../lib/gcc/sparc-gaisler-elf/10.2.0/../../../../sparc-gaisler-elf/lib/leon3/mfix-gr712rc/soft/libc.a(lib_a-ctype_.o)
                                        0x20a (size before relaxing)
 .debug_str     0x0000000000002d23       0x2d /home/fsw/rep/tasa/lib/bcc-2.2.3-gcc/bin/../sparc-gaisler-elf/bsp/gr712rc/leon3/mfix-gr712rc/soft/libbcc.a(_exit.S.o)
                                         0xa7 (size before relaxing)
 .debug_str     0x0000000000002d50       0x3d /home/fsw/rep/tasa/lib/bcc-2.2.3-gcc/bin/../sparc-gaisler-elf/bsp/gr712rc/leon3/mfix-gr712rc/soft/libbcc.a(read.c.o)
                                        0x199 (size before relaxing)
 .debug_str     0x0000000000002d8d       0x9d /home/fsw/rep/tasa/lib/bcc-2.2.3-gcc/bin/../sparc-gaisler-elf/bsp/gr712rc/leon3/mfix-gr712rc/soft/libbcc.a(sbrk.c.o)
                                        0x20d (size before relaxing)
 .debug_str     0x0000000000002e2a       0x2c /home/fsw/rep/tasa/lib/bcc-2.2.3-gcc/bin/../sparc-gaisler-elf/bsp/gr712rc/leon3/mfix-gr712rc/soft/libbcc.a(heap.c.o)
                                        0x1a6 (size before relaxing)
 .debug_str     0x0000000000002e56       0x3f /home/fsw/rep/tasa/lib/bcc-2.2.3-gcc/bin/../sparc-gaisler-elf/bsp/gr712rc/leon3/mfix-gr712rc/soft/libbcc.a(write.c.o)
                                        0x19c (size before relaxing)
 .debug_str     0x0000000000002e95       0x33 /home/fsw/rep/tasa/lib/bcc-2.2.3-gcc/bin/../sparc-gaisler-elf/bsp/gr712rc/leon3/mfix-gr712rc/soft/libbcc.a(stubs.S.o)
                                         0xad (size before relaxing)
 .debug_str     0x0000000000002ec8       0x9a /home/fsw/rep/tasa/lib/bcc-2.2.3-gcc/bin/../sparc-gaisler-elf/bsp/gr712rc/leon3/mfix-gr712rc/soft/libbcc.a(con_apbuart.c.o)
                                        0x22a (size before relaxing)
 .debug_str     0x0000000000002f62       0x3a /home/fsw/rep/tasa/lib/bcc-2.2.3-gcc/bin/../sparc-gaisler-elf/bsp/gr712rc/leon3/mfix-gr712rc/soft/libbcc.a(con_handle.c.o)
                                        0x1a9 (size before relaxing)
 .debug_str     0x0000000000002f9c      0x1e8 /home/fsw/rep/tasa/lib/bcc-2.2.3-gcc/bin/../lib/gcc/sparc-gaisler-elf/10.2.0/leon3/mfix-gr712rc/soft/libgcc.a(_udivdi3.o)
                                        0x290 (size before relaxing)
 .debug_str     0x0000000000003184      0x290 /home/fsw/rep/tasa/lib/bcc-2.2.3-gcc/bin/../lib/gcc/sparc-gaisler-elf/10.2.0/leon3/mfix-gr712rc/soft/libgcc.a(_umoddi3.o)
 .debug_str     0x0000000000003184      0x1f3 /home/fsw/rep/tasa/lib/bcc-2.2.3-gcc/bin/../lib/gcc/sparc-gaisler-elf/10.2.0/leon3/mfix-gr712rc/soft/libgcc.a(_addsub_df.o)
                                        0x35a (size before relaxing)
 .debug_str     0x0000000000003377       0x37 /home/fsw/rep/tasa/lib/bcc-2.2.3-gcc/bin/../lib/gcc/sparc-gaisler-elf/10.2.0/leon3/mfix-gr712rc/soft/libgcc.a(_mul_df.o)
                                        0x32c (size before relaxing)
 .debug_str     0x00000000000033ae       0x2c /home/fsw/rep/tasa/lib/bcc-2.2.3-gcc/bin/../lib/gcc/sparc-gaisler-elf/10.2.0/leon3/mfix-gr712rc/soft/libgcc.a(_div_df.o)
                                        0x31c (size before relaxing)
 .debug_str     0x00000000000033da       0x18 /home/fsw/rep/tasa/lib/bcc-2.2.3-gcc/bin/../lib/gcc/sparc-gaisler-elf/10.2.0/leon3/mfix-gr712rc/soft/libgcc.a(_eq_df.o)
                                        0x2dd (size before relaxing)
 .debug_str     0x00000000000033f2      0x2dd /home/fsw/rep/tasa/lib/bcc-2.2.3-gcc/bin/../lib/gcc/sparc-gaisler-elf/10.2.0/leon3/mfix-gr712rc/soft/libgcc.a(_ne_df.o)
 .debug_str     0x00000000000033f2      0x2dd /home/fsw/rep/tasa/lib/bcc-2.2.3-gcc/bin/../lib/gcc/sparc-gaisler-elf/10.2.0/leon3/mfix-gr712rc/soft/libgcc.a(_gt_df.o)
 .debug_str     0x00000000000033f2      0x2dd /home/fsw/rep/tasa/lib/bcc-2.2.3-gcc/bin/../lib/gcc/sparc-gaisler-elf/10.2.0/leon3/mfix-gr712rc/soft/libgcc.a(_lt_df.o)
 .debug_str     0x00000000000033f2      0x2dd /home/fsw/rep/tasa/lib/bcc-2.2.3-gcc/bin/../lib/gcc/sparc-gaisler-elf/10.2.0/leon3/mfix-gr712rc/soft/libgcc.a(_le_df.o)
 .debug_str     0x00000000000033f2      0x2d0 /home/fsw/rep/tasa/lib/bcc-2.2.3-gcc/bin/../lib/gcc/sparc-gaisler-elf/10.2.0/leon3/mfix-gr712rc/soft/libgcc.a(_unord_df.o)
 .debug_str     0x00000000000033f2       0x15 /home/fsw/rep/tasa/lib/bcc-2.2.3-gcc/bin/../lib/gcc/sparc-gaisler-elf/10.2.0/leon3/mfix-gr712rc/soft/libgcc.a(_si_to_df.o)
                                        0x2b8 (size before relaxing)
 .debug_str     0x0000000000003407      0x2d5 /home/fsw/rep/tasa/lib/bcc-2.2.3-gcc/bin/../lib/gcc/sparc-gaisler-elf/10.2.0/leon3/mfix-gr712rc/soft/libgcc.a(_df_to_si.o)
 .debug_str     0x0000000000003407      0x277 /home/fsw/rep/tasa/lib/bcc-2.2.3-gcc/bin/../lib/gcc/sparc-gaisler-elf/10.2.0/leon3/mfix-gr712rc/soft/libgcc.a(_thenan_df.o)
 .debug_str     0x0000000000003407        0x6 /home/fsw/rep/tasa/lib/bcc-2.2.3-gcc/bin/../lib/gcc/sparc-gaisler-elf/10.2.0/leon3/mfix-gr712rc/soft/libgcc.a(_usi_to_df.o)
                                        0x2b4 (size before relaxing)
 .debug_str     0x000000000000340d      0x21d /home/fsw/rep/tasa/lib/bcc-2.2.3-gcc/bin/../lib/gcc/sparc-gaisler-elf/10.2.0/leon3/mfix-gr712rc/soft/libgcc.a(_clz.o)
 .debug_str     0x000000000000340d      0x23a /home/fsw/rep/tasa/lib/bcc-2.2.3-gcc/bin/../lib/gcc/sparc-gaisler-elf/10.2.0/leon3/mfix-gr712rc/soft/libgcc.a(_clzsi2.o)
 .debug_str     0x000000000000340d        0x7 /home/fsw/rep/tasa/lib/bcc-2.2.3-gcc/bin/../lib/gcc/sparc-gaisler-elf/10.2.0/leon3/mfix-gr712rc/soft/libgcc.a(_pack_df.o)
                                        0x2c9 (size before relaxing)
 .debug_str     0x0000000000003414      0x2ab /home/fsw/rep/tasa/lib/bcc-2.2.3-gcc/bin/../lib/gcc/sparc-gaisler-elf/10.2.0/leon3/mfix-gr712rc/soft/libgcc.a(_unpack_df.o)
 .debug_str     0x0000000000003414      0x28e /home/fsw/rep/tasa/lib/bcc-2.2.3-gcc/bin/../lib/gcc/sparc-gaisler-elf/10.2.0/leon3/mfix-gr712rc/soft/libgcc.a(_fpcmp_parts_df.o)

.debug_loc      0x0000000000000000    0x18b88
 *(.debug_loc)
 .debug_loc     0x0000000000000000       0x44 /tmp/ccucSNOv.o
 .debug_loc     0x0000000000000044       0x58 /home/fsw/rep/tasa/lib/bcc-2.2.3-gcc/bin/../sparc-gaisler-elf/bsp/gr712rc/leon3/mfix-gr712rc/soft/libbcc.a(int_irqmp_get_source.c.o)
 .debug_loc     0x000000000000009c       0xd2 /home/fsw/rep/tasa/lib/bcc-2.2.3-gcc/bin/../sparc-gaisler-elf/bsp/gr712rc/leon3/mfix-gr712rc/soft/libbcc.a(int_irqmp_mp.c.o)
 .debug_loc     0x000000000000016e       0x22 /home/fsw/rep/tasa/lib/bcc-2.2.3-gcc/bin/../lib/gcc/sparc-gaisler-elf/10.2.0/../../../../sparc-gaisler-elf/lib/leon3/mfix-gr712rc/soft/libc.a(lib_a-atexit.o)
 .debug_loc     0x0000000000000190       0x22 /home/fsw/rep/tasa/lib/bcc-2.2.3-gcc/bin/../lib/gcc/sparc-gaisler-elf/10.2.0/../../../../sparc-gaisler-elf/lib/leon3/mfix-gr712rc/soft/libc.a(lib_a-exit.o)
 .debug_loc     0x00000000000001b2      0x134 /home/fsw/rep/tasa/lib/bcc-2.2.3-gcc/bin/../lib/gcc/sparc-gaisler-elf/10.2.0/../../../../sparc-gaisler-elf/lib/leon3/mfix-gr712rc/soft/libc.a(lib_a-printf.o)
 .debug_loc     0x00000000000002e6       0xa2 /home/fsw/rep/tasa/lib/bcc-2.2.3-gcc/bin/../lib/gcc/sparc-gaisler-elf/10.2.0/../../../../sparc-gaisler-elf/lib/leon3/mfix-gr712rc/soft/libc.a(lib_a-putchar.o)
 .debug_loc     0x0000000000000388      0x249 /home/fsw/rep/tasa/lib/bcc-2.2.3-gcc/bin/../lib/gcc/sparc-gaisler-elf/10.2.0/../../../../sparc-gaisler-elf/lib/leon3/mfix-gr712rc/soft/libc.a(lib_a-puts.o)
 .debug_loc     0x00000000000005d1       0x76 /home/fsw/rep/tasa/lib/bcc-2.2.3-gcc/bin/../lib/gcc/sparc-gaisler-elf/10.2.0/../../../../sparc-gaisler-elf/lib/leon3/mfix-gr712rc/soft/libc.a(lib_a-strlen.o)
 .debug_loc     0x0000000000000647     0x51c4 /home/fsw/rep/tasa/lib/bcc-2.2.3-gcc/bin/../lib/gcc/sparc-gaisler-elf/10.2.0/../../../../sparc-gaisler-elf/lib/leon3/mfix-gr712rc/soft/libc.a(lib_a-vfprintf.o)
 .debug_loc     0x000000000000580b       0x86 /home/fsw/rep/tasa/lib/bcc-2.2.3-gcc/bin/../lib/gcc/sparc-gaisler-elf/10.2.0/../../../../sparc-gaisler-elf/lib/leon3/mfix-gr712rc/soft/libc.a(lib_a-wsetup.o)
 .debug_loc     0x0000000000005891      0x15d /home/fsw/rep/tasa/lib/bcc-2.2.3-gcc/bin/../lib/gcc/sparc-gaisler-elf/10.2.0/../../../../sparc-gaisler-elf/lib/leon3/mfix-gr712rc/soft/libc.a(lib_a-__atexit.o)
 .debug_loc     0x00000000000059ee      0x2a2 /home/fsw/rep/tasa/lib/bcc-2.2.3-gcc/bin/../lib/gcc/sparc-gaisler-elf/10.2.0/../../../../sparc-gaisler-elf/lib/leon3/mfix-gr712rc/soft/libc.a(lib_a-__call_atexit.o)
 .debug_loc     0x0000000000005c90     0x2ca8 /home/fsw/rep/tasa/lib/bcc-2.2.3-gcc/bin/../lib/gcc/sparc-gaisler-elf/10.2.0/../../../../sparc-gaisler-elf/lib/leon3/mfix-gr712rc/soft/libc.a(lib_a-dtoa.o)
 .debug_loc     0x0000000000008938      0x356 /home/fsw/rep/tasa/lib/bcc-2.2.3-gcc/bin/../lib/gcc/sparc-gaisler-elf/10.2.0/../../../../sparc-gaisler-elf/lib/leon3/mfix-gr712rc/soft/libc.a(lib_a-fflush.o)
 .debug_loc     0x0000000000008c8e      0x2d8 /home/fsw/rep/tasa/lib/bcc-2.2.3-gcc/bin/../lib/gcc/sparc-gaisler-elf/10.2.0/../../../../sparc-gaisler-elf/lib/leon3/mfix-gr712rc/soft/libc.a(lib_a-findfp.o)
 .debug_loc     0x0000000000008f66      0x685 /home/fsw/rep/tasa/lib/bcc-2.2.3-gcc/bin/../lib/gcc/sparc-gaisler-elf/10.2.0/../../../../sparc-gaisler-elf/lib/leon3/mfix-gr712rc/soft/libc.a(lib_a-freer.o)
 .debug_loc     0x00000000000095eb      0x5e1 /home/fsw/rep/tasa/lib/bcc-2.2.3-gcc/bin/../lib/gcc/sparc-gaisler-elf/10.2.0/../../../../sparc-gaisler-elf/lib/leon3/mfix-gr712rc/soft/libc.a(lib_a-fvwrite.o)
 .debug_loc     0x0000000000009bcc      0x1be /home/fsw/rep/tasa/lib/bcc-2.2.3-gcc/bin/../lib/gcc/sparc-gaisler-elf/10.2.0/../../../../sparc-gaisler-elf/lib/leon3/mfix-gr712rc/soft/libc.a(lib_a-fwalk.o)
 .debug_loc     0x0000000000009d8a      0x103 /home/fsw/rep/tasa/lib/bcc-2.2.3-gcc/bin/../lib/gcc/sparc-gaisler-elf/10.2.0/../../../../sparc-gaisler-elf/lib/leon3/mfix-gr712rc/soft/libc.a(lib_a-localeconv.o)
 .debug_loc     0x0000000000009e8d      0x3a1 /home/fsw/rep/tasa/lib/bcc-2.2.3-gcc/bin/../lib/gcc/sparc-gaisler-elf/10.2.0/../../../../sparc-gaisler-elf/lib/leon3/mfix-gr712rc/soft/libc.a(lib_a-makebuf.o)
 .debug_loc     0x000000000000a22e       0x44 /home/fsw/rep/tasa/lib/bcc-2.2.3-gcc/bin/../lib/gcc/sparc-gaisler-elf/10.2.0/../../../../sparc-gaisler-elf/lib/leon3/mfix-gr712rc/soft/libc.a(lib_a-malloc.o)
 .debug_loc     0x000000000000a272      0xdec /home/fsw/rep/tasa/lib/bcc-2.2.3-gcc/bin/../lib/gcc/sparc-gaisler-elf/10.2.0/../../../../sparc-gaisler-elf/lib/leon3/mfix-gr712rc/soft/libc.a(lib_a-mallocr.o)
 .debug_loc     0x000000000000b05e      0x19e /home/fsw/rep/tasa/lib/bcc-2.2.3-gcc/bin/../lib/gcc/sparc-gaisler-elf/10.2.0/../../../../sparc-gaisler-elf/lib/leon3/mfix-gr712rc/soft/libc.a(lib_a-memchr.o)
 .debug_loc     0x000000000000b1fc      0x4b6 /home/fsw/rep/tasa/lib/bcc-2.2.3-gcc/bin/../lib/gcc/sparc-gaisler-elf/10.2.0/../../../../sparc-gaisler-elf/lib/leon3/mfix-gr712rc/soft/libc.a(lib_a-memcpy.o)
 .debug_loc     0x000000000000b6b2      0x57f /home/fsw/rep/tasa/lib/bcc-2.2.3-gcc/bin/../lib/gcc/sparc-gaisler-elf/10.2.0/../../../../sparc-gaisler-elf/lib/leon3/mfix-gr712rc/soft/libc.a(lib_a-memmove.o)
 .debug_loc     0x000000000000bc31      0x274 /home/fsw/rep/tasa/lib/bcc-2.2.3-gcc/bin/../lib/gcc/sparc-gaisler-elf/10.2.0/../../../../sparc-gaisler-elf/lib/leon3/mfix-gr712rc/soft/libc.a(lib_a-memset.o)
 .debug_loc     0x000000000000bea5     0x2ea7 /home/fsw/rep/tasa/lib/bcc-2.2.3-gcc/bin/../lib/gcc/sparc-gaisler-elf/10.2.0/../../../../sparc-gaisler-elf/lib/leon3/mfix-gr712rc/soft/libc.a(lib_a-mprec.o)
 .debug_loc     0x000000000000ed4c      0x260 /home/fsw/rep/tasa/lib/bcc-2.2.3-gcc/bin/../lib/gcc/sparc-gaisler-elf/10.2.0/../../../../sparc-gaisler-elf/lib/leon3/mfix-gr712rc/soft/libc.a(lib_a-putc.o)
 .debug_loc     0x000000000000efac      0xf1f /home/fsw/rep/tasa/lib/bcc-2.2.3-gcc/bin/../lib/gcc/sparc-gaisler-elf/10.2.0/../../../../sparc-gaisler-elf/lib/leon3/mfix-gr712rc/soft/libc.a(lib_a-reallocr.o)
 .debug_loc     0x000000000000fecb      0x12f /home/fsw/rep/tasa/lib/bcc-2.2.3-gcc/bin/../lib/gcc/sparc-gaisler-elf/10.2.0/../../../../sparc-gaisler-elf/lib/leon3/mfix-gr712rc/soft/libc.a(lib_a-s_frexp.o)
 .debug_loc     0x000000000000fffa       0x86 /home/fsw/rep/tasa/lib/bcc-2.2.3-gcc/bin/../lib/gcc/sparc-gaisler-elf/10.2.0/../../../../sparc-gaisler-elf/lib/leon3/mfix-gr712rc/soft/libc.a(lib_a-sbrkr.o)
 .debug_loc     0x0000000000010080      0x295 /home/fsw/rep/tasa/lib/bcc-2.2.3-gcc/bin/../lib/gcc/sparc-gaisler-elf/10.2.0/../../../../sparc-gaisler-elf/lib/leon3/mfix-gr712rc/soft/libc.a(lib_a-stdio.o)
 .debug_loc     0x0000000000010315      0x2ac /home/fsw/rep/tasa/lib/bcc-2.2.3-gcc/bin/../lib/gcc/sparc-gaisler-elf/10.2.0/../../../../sparc-gaisler-elf/lib/leon3/mfix-gr712rc/soft/libc.a(lib_a-strncpy.o)
 .debug_loc     0x00000000000105c1     0x3c89 /home/fsw/rep/tasa/lib/bcc-2.2.3-gcc/bin/../lib/gcc/sparc-gaisler-elf/10.2.0/../../../../sparc-gaisler-elf/lib/leon3/mfix-gr712rc/soft/libc.a(lib_a-vfiprintf.o)
 .debug_loc     0x000000000001424a      0x21b /home/fsw/rep/tasa/lib/bcc-2.2.3-gcc/bin/../lib/gcc/sparc-gaisler-elf/10.2.0/../../../../sparc-gaisler-elf/lib/leon3/mfix-gr712rc/soft/libc.a(lib_a-wbuf.o)
 .debug_loc     0x0000000000014465       0xca /home/fsw/rep/tasa/lib/bcc-2.2.3-gcc/bin/../lib/gcc/sparc-gaisler-elf/10.2.0/../../../../sparc-gaisler-elf/lib/leon3/mfix-gr712rc/soft/libc.a(lib_a-writer.o)
 .debug_loc     0x000000000001452f      0x1e0 /home/fsw/rep/tasa/lib/bcc-2.2.3-gcc/bin/../lib/gcc/sparc-gaisler-elf/10.2.0/../../../../sparc-gaisler-elf/lib/leon3/mfix-gr712rc/soft/libc.a(lib_a-callocr.o)
 .debug_loc     0x000000000001470f       0x86 /home/fsw/rep/tasa/lib/bcc-2.2.3-gcc/bin/../lib/gcc/sparc-gaisler-elf/10.2.0/../../../../sparc-gaisler-elf/lib/leon3/mfix-gr712rc/soft/libc.a(lib_a-closer.o)
 .debug_loc     0x0000000000014795      0x1c7 /home/fsw/rep/tasa/lib/bcc-2.2.3-gcc/bin/../lib/gcc/sparc-gaisler-elf/10.2.0/../../../../sparc-gaisler-elf/lib/leon3/mfix-gr712rc/soft/libc.a(lib_a-fclose.o)
 .debug_loc     0x000000000001495c      0x287 /home/fsw/rep/tasa/lib/bcc-2.2.3-gcc/bin/../lib/gcc/sparc-gaisler-elf/10.2.0/../../../../sparc-gaisler-elf/lib/leon3/mfix-gr712rc/soft/libc.a(lib_a-fputwc.o)
 .debug_loc     0x0000000000014be3       0xa8 /home/fsw/rep/tasa/lib/bcc-2.2.3-gcc/bin/../lib/gcc/sparc-gaisler-elf/10.2.0/../../../../sparc-gaisler-elf/lib/leon3/mfix-gr712rc/soft/libc.a(lib_a-fstatr.o)
 .debug_loc     0x0000000000014c8b       0x86 /home/fsw/rep/tasa/lib/bcc-2.2.3-gcc/bin/../lib/gcc/sparc-gaisler-elf/10.2.0/../../../../sparc-gaisler-elf/lib/leon3/mfix-gr712rc/soft/libc.a(lib_a-isattyr.o)
 .debug_loc     0x0000000000014d11      0x204 /home/fsw/rep/tasa/lib/bcc-2.2.3-gcc/bin/../lib/gcc/sparc-gaisler-elf/10.2.0/../../../../sparc-gaisler-elf/lib/leon3/mfix-gr712rc/soft/libc.a(lib_a-locale.o)
 .debug_loc     0x0000000000014f15       0xca /home/fsw/rep/tasa/lib/bcc-2.2.3-gcc/bin/../lib/gcc/sparc-gaisler-elf/10.2.0/../../../../sparc-gaisler-elf/lib/leon3/mfix-gr712rc/soft/libc.a(lib_a-lseekr.o)
 .debug_loc     0x0000000000014fdf      0x15d /home/fsw/rep/tasa/lib/bcc-2.2.3-gcc/bin/../lib/gcc/sparc-gaisler-elf/10.2.0/../../../../sparc-gaisler-elf/lib/leon3/mfix-gr712rc/soft/libc.a(lib_a-mbtowc_r.o)
 .debug_loc     0x000000000001513c       0xca /home/fsw/rep/tasa/lib/bcc-2.2.3-gcc/bin/../lib/gcc/sparc-gaisler-elf/10.2.0/../../../../sparc-gaisler-elf/lib/leon3/mfix-gr712rc/soft/libc.a(lib_a-readr.o)
 .debug_loc     0x0000000000015206      0x26b /home/fsw/rep/tasa/lib/bcc-2.2.3-gcc/bin/../lib/gcc/sparc-gaisler-elf/10.2.0/../../../../sparc-gaisler-elf/lib/leon3/mfix-gr712rc/soft/libc.a(lib_a-reent.o)
 .debug_loc     0x0000000000015471       0xf6 /home/fsw/rep/tasa/lib/bcc-2.2.3-gcc/bin/../lib/gcc/sparc-gaisler-elf/10.2.0/../../../../sparc-gaisler-elf/lib/leon3/mfix-gr712rc/soft/libc.a(lib_a-strcmp.o)
 .debug_loc     0x0000000000015567      0x20f /home/fsw/rep/tasa/lib/bcc-2.2.3-gcc/bin/../lib/gcc/sparc-gaisler-elf/10.2.0/../../../../sparc-gaisler-elf/lib/leon3/mfix-gr712rc/soft/libc.a(lib_a-wcrtomb.o)
 .debug_loc     0x0000000000015776      0x129 /home/fsw/rep/tasa/lib/bcc-2.2.3-gcc/bin/../lib/gcc/sparc-gaisler-elf/10.2.0/../../../../sparc-gaisler-elf/lib/leon3/mfix-gr712rc/soft/libc.a(lib_a-wctomb_r.o)
 .debug_loc     0x000000000001589f      0x106 /home/fsw/rep/tasa/lib/bcc-2.2.3-gcc/bin/../sparc-gaisler-elf/bsp/gr712rc/leon3/mfix-gr712rc/soft/libbcc.a(read.c.o)
 .debug_loc     0x00000000000159a5       0x5c /home/fsw/rep/tasa/lib/bcc-2.2.3-gcc/bin/../sparc-gaisler-elf/bsp/gr712rc/leon3/mfix-gr712rc/soft/libbcc.a(sbrk.c.o)
 .debug_loc     0x0000000000015a01       0xdc /home/fsw/rep/tasa/lib/bcc-2.2.3-gcc/bin/../sparc-gaisler-elf/bsp/gr712rc/leon3/mfix-gr712rc/soft/libbcc.a(write.c.o)
 .debug_loc     0x0000000000015add       0xa7 /home/fsw/rep/tasa/lib/bcc-2.2.3-gcc/bin/../sparc-gaisler-elf/bsp/gr712rc/leon3/mfix-gr712rc/soft/libbcc.a(con_apbuart.c.o)
 .debug_loc     0x0000000000015b84      0x4ca /home/fsw/rep/tasa/lib/bcc-2.2.3-gcc/bin/../lib/gcc/sparc-gaisler-elf/10.2.0/leon3/mfix-gr712rc/soft/libgcc.a(_udivdi3.o)
 .debug_loc     0x000000000001604e      0x5c0 /home/fsw/rep/tasa/lib/bcc-2.2.3-gcc/bin/../lib/gcc/sparc-gaisler-elf/10.2.0/leon3/mfix-gr712rc/soft/libgcc.a(_umoddi3.o)
 .debug_loc     0x000000000001660e     0x101a /home/fsw/rep/tasa/lib/bcc-2.2.3-gcc/bin/../lib/gcc/sparc-gaisler-elf/10.2.0/leon3/mfix-gr712rc/soft/libgcc.a(_addsub_df.o)
 .debug_loc     0x0000000000017628      0x6d3 /home/fsw/rep/tasa/lib/bcc-2.2.3-gcc/bin/../lib/gcc/sparc-gaisler-elf/10.2.0/leon3/mfix-gr712rc/soft/libgcc.a(_mul_df.o)
 .debug_loc     0x0000000000017cfb      0x2a9 /home/fsw/rep/tasa/lib/bcc-2.2.3-gcc/bin/../lib/gcc/sparc-gaisler-elf/10.2.0/leon3/mfix-gr712rc/soft/libgcc.a(_div_df.o)
 .debug_loc     0x0000000000017fa4       0x98 /home/fsw/rep/tasa/lib/bcc-2.2.3-gcc/bin/../lib/gcc/sparc-gaisler-elf/10.2.0/leon3/mfix-gr712rc/soft/libgcc.a(_eq_df.o)
 .debug_loc     0x000000000001803c       0x98 /home/fsw/rep/tasa/lib/bcc-2.2.3-gcc/bin/../lib/gcc/sparc-gaisler-elf/10.2.0/leon3/mfix-gr712rc/soft/libgcc.a(_ne_df.o)
 .debug_loc     0x00000000000180d4       0x98 /home/fsw/rep/tasa/lib/bcc-2.2.3-gcc/bin/../lib/gcc/sparc-gaisler-elf/10.2.0/leon3/mfix-gr712rc/soft/libgcc.a(_gt_df.o)
 .debug_loc     0x000000000001816c       0x98 /home/fsw/rep/tasa/lib/bcc-2.2.3-gcc/bin/../lib/gcc/sparc-gaisler-elf/10.2.0/leon3/mfix-gr712rc/soft/libgcc.a(_lt_df.o)
 .debug_loc     0x0000000000018204       0x98 /home/fsw/rep/tasa/lib/bcc-2.2.3-gcc/bin/../lib/gcc/sparc-gaisler-elf/10.2.0/leon3/mfix-gr712rc/soft/libgcc.a(_le_df.o)
 .debug_loc     0x000000000001829c       0x98 /home/fsw/rep/tasa/lib/bcc-2.2.3-gcc/bin/../lib/gcc/sparc-gaisler-elf/10.2.0/leon3/mfix-gr712rc/soft/libgcc.a(_unord_df.o)
 .debug_loc     0x0000000000018334       0xff /home/fsw/rep/tasa/lib/bcc-2.2.3-gcc/bin/../lib/gcc/sparc-gaisler-elf/10.2.0/leon3/mfix-gr712rc/soft/libgcc.a(_si_to_df.o)
 .debug_loc     0x0000000000018433       0x6a /home/fsw/rep/tasa/lib/bcc-2.2.3-gcc/bin/../lib/gcc/sparc-gaisler-elf/10.2.0/leon3/mfix-gr712rc/soft/libgcc.a(_df_to_si.o)
 .debug_loc     0x000000000001849d       0x86 /home/fsw/rep/tasa/lib/bcc-2.2.3-gcc/bin/../lib/gcc/sparc-gaisler-elf/10.2.0/leon3/mfix-gr712rc/soft/libgcc.a(_usi_to_df.o)
 .debug_loc     0x0000000000018523       0xbe /home/fsw/rep/tasa/lib/bcc-2.2.3-gcc/bin/../lib/gcc/sparc-gaisler-elf/10.2.0/leon3/mfix-gr712rc/soft/libgcc.a(_clzsi2.o)
 .debug_loc     0x00000000000185e1      0x436 /home/fsw/rep/tasa/lib/bcc-2.2.3-gcc/bin/../lib/gcc/sparc-gaisler-elf/10.2.0/leon3/mfix-gr712rc/soft/libgcc.a(_pack_df.o)
 .debug_loc     0x0000000000018a17       0x74 /home/fsw/rep/tasa/lib/bcc-2.2.3-gcc/bin/../lib/gcc/sparc-gaisler-elf/10.2.0/leon3/mfix-gr712rc/soft/libgcc.a(_unpack_df.o)
 .debug_loc     0x0000000000018a8b       0xfd /home/fsw/rep/tasa/lib/bcc-2.2.3-gcc/bin/../lib/gcc/sparc-gaisler-elf/10.2.0/leon3/mfix-gr712rc/soft/libgcc.a(_fpcmp_parts_df.o)

.comment        0x0000000000000000       0x19
 .comment       0x0000000000000000       0x19 /home/fsw/rep/tasa/lib/bcc-2.2.3-gcc/bin/../lib/gcc/sparc-gaisler-elf/10.2.0/leon3/mfix-gr712rc/soft/crtbegin.o
                                         0x1a (size before relaxing)
 .comment       0x0000000000000019       0x1a /tmp/ccucSNOv.o
 .comment       0x0000000000000019       0x1a /home/fsw/rep/tasa/lib/bcc-2.2.3-gcc/bin/../sparc-gaisler-elf/bsp/gr712rc/leon3/mfix-gr712rc/soft/libbcc.a(copy_data.c.o)
 .comment       0x0000000000000019       0x1a /home/fsw/rep/tasa/lib/bcc-2.2.3-gcc/bin/../sparc-gaisler-elf/bsp/gr712rc/leon3/mfix-gr712rc/soft/libbcc.a(argv.c.o)
 .comment       0x0000000000000019       0x1a /home/fsw/rep/tasa/lib/bcc-2.2.3-gcc/bin/../sparc-gaisler-elf/bsp/gr712rc/leon3/mfix-gr712rc/soft/libbcc.a(int_irqmp_get_source.c.o)
 .comment       0x0000000000000019       0x1a /home/fsw/rep/tasa/lib/bcc-2.2.3-gcc/bin/../sparc-gaisler-elf/bsp/gr712rc/leon3/mfix-gr712rc/soft/libbcc.a(int_irqmp_mp.c.o)
 .comment       0x0000000000000019       0x1a /home/fsw/rep/tasa/lib/bcc-2.2.3-gcc/bin/../sparc-gaisler-elf/bsp/gr712rc/leon3/mfix-gr712rc/soft/libbcc.a(int_irqmp_init.c.o)
 .comment       0x0000000000000019       0x1a /home/fsw/rep/tasa/lib/bcc-2.2.3-gcc/bin/../sparc-gaisler-elf/bsp/gr712rc/leon3/mfix-gr712rc/soft/libbcc.a(con_apbuart_init.c.o)
 .comment       0x0000000000000019       0x1a /home/fsw/rep/tasa/lib/bcc-2.2.3-gcc/bin/../sparc-gaisler-elf/bsp/gr712rc/leon3/mfix-gr712rc/soft/libbcc.a(timer_gptimer_init.c.o)
 .comment       0x0000000000000019       0x1a /home/fsw/rep/tasa/lib/bcc-2.2.3-gcc/bin/../sparc-gaisler-elf/bsp/gr712rc/leon3/mfix-gr712rc/soft/libbcc.a(isr.c.o)
 .comment       0x0000000000000019       0x1a /home/fsw/rep/tasa/lib/bcc-2.2.3-gcc/bin/../sparc-gaisler-elf/bsp/gr712rc/leon3/mfix-gr712rc/soft/libbcc.a(int_nest.c.o)
 .comment       0x0000000000000019       0x1a /home/fsw/rep/tasa/lib/bcc-2.2.3-gcc/bin/../sparc-gaisler-elf/bsp/gr712rc/leon3/mfix-gr712rc/soft/libbcc.a(int_irqmp_handle.c.o)
 .comment       0x0000000000000019       0x1a /home/fsw/rep/tasa/lib/bcc-2.2.3-gcc/bin/../lib/gcc/sparc-gaisler-elf/10.2.0/../../../../sparc-gaisler-elf/lib/leon3/mfix-gr712rc/soft/libc.a(lib_a-atexit.o)
 .comment       0x0000000000000019       0x1a /home/fsw/rep/tasa/lib/bcc-2.2.3-gcc/bin/../lib/gcc/sparc-gaisler-elf/10.2.0/../../../../sparc-gaisler-elf/lib/leon3/mfix-gr712rc/soft/libc.a(lib_a-exit.o)
 .comment       0x0000000000000019       0x1a /home/fsw/rep/tasa/lib/bcc-2.2.3-gcc/bin/../lib/gcc/sparc-gaisler-elf/10.2.0/../../../../sparc-gaisler-elf/lib/leon3/mfix-gr712rc/soft/libc.a(lib_a-impure.o)
 .comment       0x0000000000000019       0x1a /home/fsw/rep/tasa/lib/bcc-2.2.3-gcc/bin/../lib/gcc/sparc-gaisler-elf/10.2.0/../../../../sparc-gaisler-elf/lib/leon3/mfix-gr712rc/soft/libc.a(lib_a-printf.o)
 .comment       0x0000000000000019       0x1a /home/fsw/rep/tasa/lib/bcc-2.2.3-gcc/bin/../lib/gcc/sparc-gaisler-elf/10.2.0/../../../../sparc-gaisler-elf/lib/leon3/mfix-gr712rc/soft/libc.a(lib_a-putchar.o)
 .comment       0x0000000000000019       0x1a /home/fsw/rep/tasa/lib/bcc-2.2.3-gcc/bin/../lib/gcc/sparc-gaisler-elf/10.2.0/../../../../sparc-gaisler-elf/lib/leon3/mfix-gr712rc/soft/libc.a(lib_a-puts.o)
 .comment       0x0000000000000019       0x1a /home/fsw/rep/tasa/lib/bcc-2.2.3-gcc/bin/../lib/gcc/sparc-gaisler-elf/10.2.0/../../../../sparc-gaisler-elf/lib/leon3/mfix-gr712rc/soft/libc.a(lib_a-strlen.o)
 .comment       0x0000000000000019       0x1a /home/fsw/rep/tasa/lib/bcc-2.2.3-gcc/bin/../lib/gcc/sparc-gaisler-elf/10.2.0/../../../../sparc-gaisler-elf/lib/leon3/mfix-gr712rc/soft/libc.a(lib_a-vfprintf.o)
 .comment       0x0000000000000019       0x1a /home/fsw/rep/tasa/lib/bcc-2.2.3-gcc/bin/../lib/gcc/sparc-gaisler-elf/10.2.0/../../../../sparc-gaisler-elf/lib/leon3/mfix-gr712rc/soft/libc.a(lib_a-wsetup.o)
 .comment       0x0000000000000019       0x1a /home/fsw/rep/tasa/lib/bcc-2.2.3-gcc/bin/../lib/gcc/sparc-gaisler-elf/10.2.0/../../../../sparc-gaisler-elf/lib/leon3/mfix-gr712rc/soft/libc.a(lib_a-__atexit.o)
 .comment       0x0000000000000019       0x1a /home/fsw/rep/tasa/lib/bcc-2.2.3-gcc/bin/../lib/gcc/sparc-gaisler-elf/10.2.0/../../../../sparc-gaisler-elf/lib/leon3/mfix-gr712rc/soft/libc.a(lib_a-__call_atexit.o)
 .comment       0x0000000000000019       0x1a /home/fsw/rep/tasa/lib/bcc-2.2.3-gcc/bin/../lib/gcc/sparc-gaisler-elf/10.2.0/../../../../sparc-gaisler-elf/lib/leon3/mfix-gr712rc/soft/libc.a(lib_a-dtoa.o)
 .comment       0x0000000000000019       0x1a /home/fsw/rep/tasa/lib/bcc-2.2.3-gcc/bin/../lib/gcc/sparc-gaisler-elf/10.2.0/../../../../sparc-gaisler-elf/lib/leon3/mfix-gr712rc/soft/libc.a(lib_a-fflush.o)
 .comment       0x0000000000000019       0x1a /home/fsw/rep/tasa/lib/bcc-2.2.3-gcc/bin/../lib/gcc/sparc-gaisler-elf/10.2.0/../../../../sparc-gaisler-elf/lib/leon3/mfix-gr712rc/soft/libc.a(lib_a-findfp.o)
 .comment       0x0000000000000019       0x1a /home/fsw/rep/tasa/lib/bcc-2.2.3-gcc/bin/../lib/gcc/sparc-gaisler-elf/10.2.0/../../../../sparc-gaisler-elf/lib/leon3/mfix-gr712rc/soft/libc.a(lib_a-freer.o)
 .comment       0x0000000000000019       0x1a /home/fsw/rep/tasa/lib/bcc-2.2.3-gcc/bin/../lib/gcc/sparc-gaisler-elf/10.2.0/../../../../sparc-gaisler-elf/lib/leon3/mfix-gr712rc/soft/libc.a(lib_a-fvwrite.o)
 .comment       0x0000000000000019       0x1a /home/fsw/rep/tasa/lib/bcc-2.2.3-gcc/bin/../lib/gcc/sparc-gaisler-elf/10.2.0/../../../../sparc-gaisler-elf/lib/leon3/mfix-gr712rc/soft/libc.a(lib_a-fwalk.o)
 .comment       0x0000000000000019       0x1a /home/fsw/rep/tasa/lib/bcc-2.2.3-gcc/bin/../lib/gcc/sparc-gaisler-elf/10.2.0/../../../../sparc-gaisler-elf/lib/leon3/mfix-gr712rc/soft/libc.a(lib_a-localeconv.o)
 .comment       0x0000000000000019       0x1a /home/fsw/rep/tasa/lib/bcc-2.2.3-gcc/bin/../lib/gcc/sparc-gaisler-elf/10.2.0/../../../../sparc-gaisler-elf/lib/leon3/mfix-gr712rc/soft/libc.a(lib_a-makebuf.o)
 .comment       0x0000000000000019       0x1a /home/fsw/rep/tasa/lib/bcc-2.2.3-gcc/bin/../lib/gcc/sparc-gaisler-elf/10.2.0/../../../../sparc-gaisler-elf/lib/leon3/mfix-gr712rc/soft/libc.a(lib_a-malloc.o)
 .comment       0x0000000000000019       0x1a /home/fsw/rep/tasa/lib/bcc-2.2.3-gcc/bin/../lib/gcc/sparc-gaisler-elf/10.2.0/../../../../sparc-gaisler-elf/lib/leon3/mfix-gr712rc/soft/libc.a(lib_a-mallocr.o)
 .comment       0x0000000000000019       0x1a /home/fsw/rep/tasa/lib/bcc-2.2.3-gcc/bin/../lib/gcc/sparc-gaisler-elf/10.2.0/../../../../sparc-gaisler-elf/lib/leon3/mfix-gr712rc/soft/libc.a(lib_a-memchr.o)
 .comment       0x0000000000000019       0x1a /home/fsw/rep/tasa/lib/bcc-2.2.3-gcc/bin/../lib/gcc/sparc-gaisler-elf/10.2.0/../../../../sparc-gaisler-elf/lib/leon3/mfix-gr712rc/soft/libc.a(lib_a-memcpy.o)
 .comment       0x0000000000000019       0x1a /home/fsw/rep/tasa/lib/bcc-2.2.3-gcc/bin/../lib/gcc/sparc-gaisler-elf/10.2.0/../../../../sparc-gaisler-elf/lib/leon3/mfix-gr712rc/soft/libc.a(lib_a-memmove.o)
 .comment       0x0000000000000019       0x1a /home/fsw/rep/tasa/lib/bcc-2.2.3-gcc/bin/../lib/gcc/sparc-gaisler-elf/10.2.0/../../../../sparc-gaisler-elf/lib/leon3/mfix-gr712rc/soft/libc.a(lib_a-memset.o)
 .comment       0x0000000000000019       0x1a /home/fsw/rep/tasa/lib/bcc-2.2.3-gcc/bin/../lib/gcc/sparc-gaisler-elf/10.2.0/../../../../sparc-gaisler-elf/lib/leon3/mfix-gr712rc/soft/libc.a(lib_a-mlock.o)
 .comment       0x0000000000000019       0x1a /home/fsw/rep/tasa/lib/bcc-2.2.3-gcc/bin/../lib/gcc/sparc-gaisler-elf/10.2.0/../../../../sparc-gaisler-elf/lib/leon3/mfix-gr712rc/soft/libc.a(lib_a-mprec.o)
 .comment       0x0000000000000019       0x1a /home/fsw/rep/tasa/lib/bcc-2.2.3-gcc/bin/../lib/gcc/sparc-gaisler-elf/10.2.0/../../../../sparc-gaisler-elf/lib/leon3/mfix-gr712rc/soft/libc.a(lib_a-putc.o)
 .comment       0x0000000000000019       0x1a /home/fsw/rep/tasa/lib/bcc-2.2.3-gcc/bin/../lib/gcc/sparc-gaisler-elf/10.2.0/../../../../sparc-gaisler-elf/lib/leon3/mfix-gr712rc/soft/libc.a(lib_a-reallocr.o)
 .comment       0x0000000000000019       0x1a /home/fsw/rep/tasa/lib/bcc-2.2.3-gcc/bin/../lib/gcc/sparc-gaisler-elf/10.2.0/../../../../sparc-gaisler-elf/lib/leon3/mfix-gr712rc/soft/libc.a(lib_a-s_frexp.o)
 .comment       0x0000000000000019       0x1a /home/fsw/rep/tasa/lib/bcc-2.2.3-gcc/bin/../lib/gcc/sparc-gaisler-elf/10.2.0/../../../../sparc-gaisler-elf/lib/leon3/mfix-gr712rc/soft/libc.a(lib_a-sbrkr.o)
 .comment       0x0000000000000019       0x1a /home/fsw/rep/tasa/lib/bcc-2.2.3-gcc/bin/../lib/gcc/sparc-gaisler-elf/10.2.0/../../../../sparc-gaisler-elf/lib/leon3/mfix-gr712rc/soft/libc.a(lib_a-stdio.o)
 .comment       0x0000000000000019       0x1a /home/fsw/rep/tasa/lib/bcc-2.2.3-gcc/bin/../lib/gcc/sparc-gaisler-elf/10.2.0/../../../../sparc-gaisler-elf/lib/leon3/mfix-gr712rc/soft/libc.a(lib_a-strncpy.o)
 .comment       0x0000000000000019       0x1a /home/fsw/rep/tasa/lib/bcc-2.2.3-gcc/bin/../lib/gcc/sparc-gaisler-elf/10.2.0/../../../../sparc-gaisler-elf/lib/leon3/mfix-gr712rc/soft/libc.a(lib_a-vfiprintf.o)
 .comment       0x0000000000000019       0x1a /home/fsw/rep/tasa/lib/bcc-2.2.3-gcc/bin/../lib/gcc/sparc-gaisler-elf/10.2.0/../../../../sparc-gaisler-elf/lib/leon3/mfix-gr712rc/soft/libc.a(lib_a-wbuf.o)
 .comment       0x0000000000000019       0x1a /home/fsw/rep/tasa/lib/bcc-2.2.3-gcc/bin/../lib/gcc/sparc-gaisler-elf/10.2.0/../../../../sparc-gaisler-elf/lib/leon3/mfix-gr712rc/soft/libc.a(lib_a-writer.o)
 .comment       0x0000000000000019       0x1a /home/fsw/rep/tasa/lib/bcc-2.2.3-gcc/bin/../lib/gcc/sparc-gaisler-elf/10.2.0/../../../../sparc-gaisler-elf/lib/leon3/mfix-gr712rc/soft/libc.a(lib_a-callocr.o)
 .comment       0x0000000000000019       0x1a /home/fsw/rep/tasa/lib/bcc-2.2.3-gcc/bin/../lib/gcc/sparc-gaisler-elf/10.2.0/../../../../sparc-gaisler-elf/lib/leon3/mfix-gr712rc/soft/libc.a(lib_a-closer.o)
 .comment       0x0000000000000019       0x1a /home/fsw/rep/tasa/lib/bcc-2.2.3-gcc/bin/../lib/gcc/sparc-gaisler-elf/10.2.0/../../../../sparc-gaisler-elf/lib/leon3/mfix-gr712rc/soft/libc.a(lib_a-fclose.o)
 .comment       0x0000000000000019       0x1a /home/fsw/rep/tasa/lib/bcc-2.2.3-gcc/bin/../lib/gcc/sparc-gaisler-elf/10.2.0/../../../../sparc-gaisler-elf/lib/leon3/mfix-gr712rc/soft/libc.a(lib_a-fputwc.o)
 .comment       0x0000000000000019       0x1a /home/fsw/rep/tasa/lib/bcc-2.2.3-gcc/bin/../lib/gcc/sparc-gaisler-elf/10.2.0/../../../../sparc-gaisler-elf/lib/leon3/mfix-gr712rc/soft/libc.a(lib_a-fstatr.o)
 .comment       0x0000000000000019       0x1a /home/fsw/rep/tasa/lib/bcc-2.2.3-gcc/bin/../lib/gcc/sparc-gaisler-elf/10.2.0/../../../../sparc-gaisler-elf/lib/leon3/mfix-gr712rc/soft/libc.a(lib_a-isattyr.o)
 .comment       0x0000000000000019       0x1a /home/fsw/rep/tasa/lib/bcc-2.2.3-gcc/bin/../lib/gcc/sparc-gaisler-elf/10.2.0/../../../../sparc-gaisler-elf/lib/leon3/mfix-gr712rc/soft/libc.a(lib_a-locale.o)
 .comment       0x0000000000000019       0x1a /home/fsw/rep/tasa/lib/bcc-2.2.3-gcc/bin/../lib/gcc/sparc-gaisler-elf/10.2.0/../../../../sparc-gaisler-elf/lib/leon3/mfix-gr712rc/soft/libc.a(lib_a-lseekr.o)
 .comment       0x0000000000000019       0x1a /home/fsw/rep/tasa/lib/bcc-2.2.3-gcc/bin/../lib/gcc/sparc-gaisler-elf/10.2.0/../../../../sparc-gaisler-elf/lib/leon3/mfix-gr712rc/soft/libc.a(lib_a-mbtowc_r.o)
 .comment       0x0000000000000019       0x1a /home/fsw/rep/tasa/lib/bcc-2.2.3-gcc/bin/../lib/gcc/sparc-gaisler-elf/10.2.0/../../../../sparc-gaisler-elf/lib/leon3/mfix-gr712rc/soft/libc.a(lib_a-readr.o)
 .comment       0x0000000000000019       0x1a /home/fsw/rep/tasa/lib/bcc-2.2.3-gcc/bin/../lib/gcc/sparc-gaisler-elf/10.2.0/../../../../sparc-gaisler-elf/lib/leon3/mfix-gr712rc/soft/libc.a(lib_a-reent.o)
 .comment       0x0000000000000019       0x1a /home/fsw/rep/tasa/lib/bcc-2.2.3-gcc/bin/../lib/gcc/sparc-gaisler-elf/10.2.0/../../../../sparc-gaisler-elf/lib/leon3/mfix-gr712rc/soft/libc.a(lib_a-strcmp.o)
 .comment       0x0000000000000019       0x1a /home/fsw/rep/tasa/lib/bcc-2.2.3-gcc/bin/../lib/gcc/sparc-gaisler-elf/10.2.0/../../../../sparc-gaisler-elf/lib/leon3/mfix-gr712rc/soft/libc.a(lib_a-wcrtomb.o)
 .comment       0x0000000000000019       0x1a /home/fsw/rep/tasa/lib/bcc-2.2.3-gcc/bin/../lib/gcc/sparc-gaisler-elf/10.2.0/../../../../sparc-gaisler-elf/lib/leon3/mfix-gr712rc/soft/libc.a(lib_a-wctomb_r.o)
 .comment       0x0000000000000019       0x1a /home/fsw/rep/tasa/lib/bcc-2.2.3-gcc/bin/../lib/gcc/sparc-gaisler-elf/10.2.0/../../../../sparc-gaisler-elf/lib/leon3/mfix-gr712rc/soft/libc.a(lib_a-ctype_.o)
 .comment       0x0000000000000019       0x1a /home/fsw/rep/tasa/lib/bcc-2.2.3-gcc/bin/../sparc-gaisler-elf/bsp/gr712rc/leon3/mfix-gr712rc/soft/libbcc.a(read.c.o)
 .comment       0x0000000000000019       0x1a /home/fsw/rep/tasa/lib/bcc-2.2.3-gcc/bin/../sparc-gaisler-elf/bsp/gr712rc/leon3/mfix-gr712rc/soft/libbcc.a(sbrk.c.o)
 .comment       0x0000000000000019       0x1a /home/fsw/rep/tasa/lib/bcc-2.2.3-gcc/bin/../sparc-gaisler-elf/bsp/gr712rc/leon3/mfix-gr712rc/soft/libbcc.a(heap.c.o)
 .comment       0x0000000000000019       0x1a /home/fsw/rep/tasa/lib/bcc-2.2.3-gcc/bin/../sparc-gaisler-elf/bsp/gr712rc/leon3/mfix-gr712rc/soft/libbcc.a(write.c.o)
 .comment       0x0000000000000019       0x1a /home/fsw/rep/tasa/lib/bcc-2.2.3-gcc/bin/../sparc-gaisler-elf/bsp/gr712rc/leon3/mfix-gr712rc/soft/libbcc.a(con_apbuart.c.o)
 .comment       0x0000000000000019       0x1a /home/fsw/rep/tasa/lib/bcc-2.2.3-gcc/bin/../sparc-gaisler-elf/bsp/gr712rc/leon3/mfix-gr712rc/soft/libbcc.a(con_handle.c.o)
 .comment       0x0000000000000019       0x1a /home/fsw/rep/tasa/lib/bcc-2.2.3-gcc/bin/../lib/gcc/sparc-gaisler-elf/10.2.0/leon3/mfix-gr712rc/soft/libgcc.a(_udivdi3.o)
 .comment       0x0000000000000019       0x1a /home/fsw/rep/tasa/lib/bcc-2.2.3-gcc/bin/../lib/gcc/sparc-gaisler-elf/10.2.0/leon3/mfix-gr712rc/soft/libgcc.a(_umoddi3.o)
 .comment       0x0000000000000019       0x1a /home/fsw/rep/tasa/lib/bcc-2.2.3-gcc/bin/../lib/gcc/sparc-gaisler-elf/10.2.0/leon3/mfix-gr712rc/soft/libgcc.a(_addsub_df.o)
 .comment       0x0000000000000019       0x1a /home/fsw/rep/tasa/lib/bcc-2.2.3-gcc/bin/../lib/gcc/sparc-gaisler-elf/10.2.0/leon3/mfix-gr712rc/soft/libgcc.a(_mul_df.o)
 .comment       0x0000000000000019       0x1a /home/fsw/rep/tasa/lib/bcc-2.2.3-gcc/bin/../lib/gcc/sparc-gaisler-elf/10.2.0/leon3/mfix-gr712rc/soft/libgcc.a(_div_df.o)
 .comment       0x0000000000000019       0x1a /home/fsw/rep/tasa/lib/bcc-2.2.3-gcc/bin/../lib/gcc/sparc-gaisler-elf/10.2.0/leon3/mfix-gr712rc/soft/libgcc.a(_eq_df.o)
 .comment       0x0000000000000019       0x1a /home/fsw/rep/tasa/lib/bcc-2.2.3-gcc/bin/../lib/gcc/sparc-gaisler-elf/10.2.0/leon3/mfix-gr712rc/soft/libgcc.a(_ne_df.o)
 .comment       0x0000000000000019       0x1a /home/fsw/rep/tasa/lib/bcc-2.2.3-gcc/bin/../lib/gcc/sparc-gaisler-elf/10.2.0/leon3/mfix-gr712rc/soft/libgcc.a(_gt_df.o)
 .comment       0x0000000000000019       0x1a /home/fsw/rep/tasa/lib/bcc-2.2.3-gcc/bin/../lib/gcc/sparc-gaisler-elf/10.2.0/leon3/mfix-gr712rc/soft/libgcc.a(_lt_df.o)
 .comment       0x0000000000000019       0x1a /home/fsw/rep/tasa/lib/bcc-2.2.3-gcc/bin/../lib/gcc/sparc-gaisler-elf/10.2.0/leon3/mfix-gr712rc/soft/libgcc.a(_le_df.o)
 .comment       0x0000000000000019       0x1a /home/fsw/rep/tasa/lib/bcc-2.2.3-gcc/bin/../lib/gcc/sparc-gaisler-elf/10.2.0/leon3/mfix-gr712rc/soft/libgcc.a(_unord_df.o)
 .comment       0x0000000000000019       0x1a /home/fsw/rep/tasa/lib/bcc-2.2.3-gcc/bin/../lib/gcc/sparc-gaisler-elf/10.2.0/leon3/mfix-gr712rc/soft/libgcc.a(_si_to_df.o)
 .comment       0x0000000000000019       0x1a /home/fsw/rep/tasa/lib/bcc-2.2.3-gcc/bin/../lib/gcc/sparc-gaisler-elf/10.2.0/leon3/mfix-gr712rc/soft/libgcc.a(_df_to_si.o)
 .comment       0x0000000000000019       0x1a /home/fsw/rep/tasa/lib/bcc-2.2.3-gcc/bin/../lib/gcc/sparc-gaisler-elf/10.2.0/leon3/mfix-gr712rc/soft/libgcc.a(_thenan_df.o)
 .comment       0x0000000000000019       0x1a /home/fsw/rep/tasa/lib/bcc-2.2.3-gcc/bin/../lib/gcc/sparc-gaisler-elf/10.2.0/leon3/mfix-gr712rc/soft/libgcc.a(_usi_to_df.o)
 .comment       0x0000000000000019       0x1a /home/fsw/rep/tasa/lib/bcc-2.2.3-gcc/bin/../lib/gcc/sparc-gaisler-elf/10.2.0/leon3/mfix-gr712rc/soft/libgcc.a(_clz.o)
 .comment       0x0000000000000019       0x1a /home/fsw/rep/tasa/lib/bcc-2.2.3-gcc/bin/../lib/gcc/sparc-gaisler-elf/10.2.0/leon3/mfix-gr712rc/soft/libgcc.a(_clzsi2.o)
 .comment       0x0000000000000019       0x1a /home/fsw/rep/tasa/lib/bcc-2.2.3-gcc/bin/../lib/gcc/sparc-gaisler-elf/10.2.0/leon3/mfix-gr712rc/soft/libgcc.a(_pack_df.o)
 .comment       0x0000000000000019       0x1a /home/fsw/rep/tasa/lib/bcc-2.2.3-gcc/bin/../lib/gcc/sparc-gaisler-elf/10.2.0/leon3/mfix-gr712rc/soft/libgcc.a(_unpack_df.o)
 .comment       0x0000000000000019       0x1a /home/fsw/rep/tasa/lib/bcc-2.2.3-gcc/bin/../lib/gcc/sparc-gaisler-elf/10.2.0/leon3/mfix-gr712rc/soft/libgcc.a(_fpcmp_parts_df.o)
 .comment       0x0000000000000019       0x1a /home/fsw/rep/tasa/lib/bcc-2.2.3-gcc/bin/../lib/gcc/sparc-gaisler-elf/10.2.0/leon3/mfix-gr712rc/soft/crtend.o

.gnu.attributes
                0x0000000000000000       0x10
 .gnu.attributes
                0x0000000000000000       0x10 /home/fsw/rep/tasa/lib/bcc-2.2.3-gcc/bin/../lib/gcc/sparc-gaisler-elf/10.2.0/../../../../sparc-gaisler-elf/lib/leon3/mfix-gr712rc/soft/libc.a(lib_a-vfprintf.o)
 .gnu.attributes
                0x0000000000000010       0x10 /home/fsw/rep/tasa/lib/bcc-2.2.3-gcc/bin/../lib/gcc/sparc-gaisler-elf/10.2.0/../../../../sparc-gaisler-elf/lib/leon3/mfix-gr712rc/soft/libc.a(lib_a-dtoa.o)
 .gnu.attributes
                0x0000000000000020       0x10 /home/fsw/rep/tasa/lib/bcc-2.2.3-gcc/bin/../lib/gcc/sparc-gaisler-elf/10.2.0/../../../../sparc-gaisler-elf/lib/leon3/mfix-gr712rc/soft/libc.a(lib_a-findfp.o)
 .gnu.attributes
                0x0000000000000030       0x10 /home/fsw/rep/tasa/lib/bcc-2.2.3-gcc/bin/../lib/gcc/sparc-gaisler-elf/10.2.0/../../../../sparc-gaisler-elf/lib/leon3/mfix-gr712rc/soft/libc.a(lib_a-fvwrite.o)
 .gnu.attributes
                0x0000000000000040       0x10 /home/fsw/rep/tasa/lib/bcc-2.2.3-gcc/bin/../lib/gcc/sparc-gaisler-elf/10.2.0/../../../../sparc-gaisler-elf/lib/leon3/mfix-gr712rc/soft/libc.a(lib_a-mprec.o)
 .gnu.attributes
                0x0000000000000050       0x10 /home/fsw/rep/tasa/lib/bcc-2.2.3-gcc/bin/../lib/gcc/sparc-gaisler-elf/10.2.0/../../../../sparc-gaisler-elf/lib/leon3/mfix-gr712rc/soft/libc.a(lib_a-callocr.o)
 .gnu.attributes
                0x0000000000000060       0x10 /home/fsw/rep/tasa/lib/bcc-2.2.3-gcc/bin/../lib/gcc/sparc-gaisler-elf/10.2.0/leon3/mfix-gr712rc/soft/libgcc.a(_udivdi3.o)
 .gnu.attributes
                0x0000000000000070       0x10 /home/fsw/rep/tasa/lib/bcc-2.2.3-gcc/bin/../lib/gcc/sparc-gaisler-elf/10.2.0/leon3/mfix-gr712rc/soft/libgcc.a(_umoddi3.o)
 .gnu.attributes
                0x0000000000000080       0x10 /home/fsw/rep/tasa/lib/bcc-2.2.3-gcc/bin/../lib/gcc/sparc-gaisler-elf/10.2.0/leon3/mfix-gr712rc/soft/libgcc.a(_mul_df.o)

.debug_macinfo
 *(.debug_macinfo)

.debug_weaknames
 *(.debug_weaknames)

.debug_funcnames
 *(.debug_funcnames)

.debug_typenames
 *(.debug_typenames)

.debug_varnames
 *(.debug_varnames)
LOAD /home/fsw/rep/tasa/lib/bcc-2.2.3-gcc/bin/../lib/gcc/sparc-gaisler-elf/10.2.0/leon3/mfix-gr712rc/soft/libgcc.a
START GROUP
LOAD /home/fsw/rep/tasa/lib/bcc-2.2.3-gcc/bin/../sparc-gaisler-elf/bsp/gr712rc/leon3/mfix-gr712rc/soft/libbcc.a
LOAD /home/fsw/rep/tasa/lib/bcc-2.2.3-gcc/bin/../lib/gcc/sparc-gaisler-elf/10.2.0/leon3/mfix-gr712rc/soft/libatomic.a
LOAD /home/fsw/rep/tasa/lib/bcc-2.2.3-gcc/bin/../lib/gcc/sparc-gaisler-elf/10.2.0/../../../../sparc-gaisler-elf/lib/leon3/mfix-gr712rc/soft/libc.a
END GROUP
LOAD /home/fsw/rep/tasa/lib/bcc-2.2.3-gcc/bin/../lib/gcc/sparc-gaisler-elf/10.2.0/leon3/mfix-gr712rc/soft/libgcc.a
LOAD /home/fsw/rep/tasa/lib/bcc-2.2.3-gcc/bin/../lib/gcc/sparc-gaisler-elf/10.2.0/leon3/mfix-gr712rc/soft/crtend.o
LOAD /home/fsw/rep/tasa/lib/bcc-2.2.3-gcc/bin/../lib/gcc/sparc-gaisler-elf/10.2.0/leon3/mfix-gr712rc/soft/crtn.o
OUTPUT(bin/gr712rc/leon3/mfix-gr712rc/soft/bcc_amp0.elf elf32-sparc)

.debug_ranges   0x0000000000000000     0x1928
 .debug_ranges  0x0000000000000000       0x10 /tmp/ccucSNOv.o
 .debug_ranges  0x0000000000000010       0x78 /home/fsw/rep/tasa/lib/bcc-2.2.3-gcc/bin/../lib/gcc/sparc-gaisler-elf/10.2.0/../../../../sparc-gaisler-elf/lib/leon3/mfix-gr712rc/soft/libc.a(lib_a-puts.o)
 .debug_ranges  0x0000000000000088      0x2b0 /home/fsw/rep/tasa/lib/bcc-2.2.3-gcc/bin/../lib/gcc/sparc-gaisler-elf/10.2.0/../../../../sparc-gaisler-elf/lib/leon3/mfix-gr712rc/soft/libc.a(lib_a-vfprintf.o)
 .debug_ranges  0x0000000000000338       0x28 /home/fsw/rep/tasa/lib/bcc-2.2.3-gcc/bin/../lib/gcc/sparc-gaisler-elf/10.2.0/../../../../sparc-gaisler-elf/lib/leon3/mfix-gr712rc/soft/libc.a(lib_a-wsetup.o)
 .debug_ranges  0x0000000000000360       0x60 /home/fsw/rep/tasa/lib/bcc-2.2.3-gcc/bin/../lib/gcc/sparc-gaisler-elf/10.2.0/../../../../sparc-gaisler-elf/lib/leon3/mfix-gr712rc/soft/libc.a(lib_a-__call_atexit.o)
 .debug_ranges  0x00000000000003c0       0x18 /home/fsw/rep/tasa/lib/bcc-2.2.3-gcc/bin/../lib/gcc/sparc-gaisler-elf/10.2.0/../../../../sparc-gaisler-elf/lib/leon3/mfix-gr712rc/soft/libc.a(lib_a-dtoa.o)
 .debug_ranges  0x00000000000003d8       0xa8 /home/fsw/rep/tasa/lib/bcc-2.2.3-gcc/bin/../lib/gcc/sparc-gaisler-elf/10.2.0/../../../../sparc-gaisler-elf/lib/leon3/mfix-gr712rc/soft/libc.a(lib_a-fflush.o)
 .debug_ranges  0x0000000000000480       0xe8 /home/fsw/rep/tasa/lib/bcc-2.2.3-gcc/bin/../lib/gcc/sparc-gaisler-elf/10.2.0/../../../../sparc-gaisler-elf/lib/leon3/mfix-gr712rc/soft/libc.a(lib_a-findfp.o)
 .debug_ranges  0x0000000000000568       0x38 /home/fsw/rep/tasa/lib/bcc-2.2.3-gcc/bin/../lib/gcc/sparc-gaisler-elf/10.2.0/../../../../sparc-gaisler-elf/lib/leon3/mfix-gr712rc/soft/libc.a(lib_a-fvwrite.o)
 .debug_ranges  0x00000000000005a0       0x70 /home/fsw/rep/tasa/lib/bcc-2.2.3-gcc/bin/../lib/gcc/sparc-gaisler-elf/10.2.0/../../../../sparc-gaisler-elf/lib/leon3/mfix-gr712rc/soft/libc.a(lib_a-localeconv.o)
 .debug_ranges  0x0000000000000610       0x50 /home/fsw/rep/tasa/lib/bcc-2.2.3-gcc/bin/../lib/gcc/sparc-gaisler-elf/10.2.0/../../../../sparc-gaisler-elf/lib/leon3/mfix-gr712rc/soft/libc.a(lib_a-makebuf.o)
 .debug_ranges  0x0000000000000660       0x38 /home/fsw/rep/tasa/lib/bcc-2.2.3-gcc/bin/../lib/gcc/sparc-gaisler-elf/10.2.0/../../../../sparc-gaisler-elf/lib/leon3/mfix-gr712rc/soft/libc.a(lib_a-mallocr.o)
 .debug_ranges  0x0000000000000698      0x368 /home/fsw/rep/tasa/lib/bcc-2.2.3-gcc/bin/../lib/gcc/sparc-gaisler-elf/10.2.0/../../../../sparc-gaisler-elf/lib/leon3/mfix-gr712rc/soft/libc.a(lib_a-mprec.o)
 .debug_ranges  0x0000000000000a00       0x70 /home/fsw/rep/tasa/lib/bcc-2.2.3-gcc/bin/../lib/gcc/sparc-gaisler-elf/10.2.0/../../../../sparc-gaisler-elf/lib/leon3/mfix-gr712rc/soft/libc.a(lib_a-putc.o)
 .debug_ranges  0x0000000000000a70      0x178 /home/fsw/rep/tasa/lib/bcc-2.2.3-gcc/bin/../lib/gcc/sparc-gaisler-elf/10.2.0/../../../../sparc-gaisler-elf/lib/leon3/mfix-gr712rc/soft/libc.a(lib_a-reallocr.o)
 .debug_ranges  0x0000000000000be8       0x30 /home/fsw/rep/tasa/lib/bcc-2.2.3-gcc/bin/../lib/gcc/sparc-gaisler-elf/10.2.0/../../../../sparc-gaisler-elf/lib/leon3/mfix-gr712rc/soft/libc.a(lib_a-s_frexp.o)
 .debug_ranges  0x0000000000000c18      0x708 /home/fsw/rep/tasa/lib/bcc-2.2.3-gcc/bin/../lib/gcc/sparc-gaisler-elf/10.2.0/../../../../sparc-gaisler-elf/lib/leon3/mfix-gr712rc/soft/libc.a(lib_a-vfiprintf.o)
 .debug_ranges  0x0000000000001320       0x80 /home/fsw/rep/tasa/lib/bcc-2.2.3-gcc/bin/../lib/gcc/sparc-gaisler-elf/10.2.0/../../../../sparc-gaisler-elf/lib/leon3/mfix-gr712rc/soft/libc.a(lib_a-wbuf.o)
 .debug_ranges  0x00000000000013a0       0x38 /home/fsw/rep/tasa/lib/bcc-2.2.3-gcc/bin/../lib/gcc/sparc-gaisler-elf/10.2.0/../../../../sparc-gaisler-elf/lib/leon3/mfix-gr712rc/soft/libc.a(lib_a-callocr.o)
 .debug_ranges  0x00000000000013d8       0x80 /home/fsw/rep/tasa/lib/bcc-2.2.3-gcc/bin/../lib/gcc/sparc-gaisler-elf/10.2.0/../../../../sparc-gaisler-elf/lib/leon3/mfix-gr712rc/soft/libc.a(lib_a-fclose.o)
 .debug_ranges  0x0000000000001458       0x30 /home/fsw/rep/tasa/lib/bcc-2.2.3-gcc/bin/../lib/gcc/sparc-gaisler-elf/10.2.0/../../../../sparc-gaisler-elf/lib/leon3/mfix-gr712rc/soft/libc.a(lib_a-fputwc.o)
 .debug_ranges  0x0000000000001488       0x48 /home/fsw/rep/tasa/lib/bcc-2.2.3-gcc/bin/../lib/gcc/sparc-gaisler-elf/10.2.0/../../../../sparc-gaisler-elf/lib/leon3/mfix-gr712rc/soft/libc.a(lib_a-locale.o)
 .debug_ranges  0x00000000000014d0       0x18 /home/fsw/rep/tasa/lib/bcc-2.2.3-gcc/bin/../lib/gcc/sparc-gaisler-elf/10.2.0/../../../../sparc-gaisler-elf/lib/leon3/mfix-gr712rc/soft/libc.a(lib_a-mbtowc_r.o)
 .debug_ranges  0x00000000000014e8       0x18 /home/fsw/rep/tasa/lib/bcc-2.2.3-gcc/bin/../lib/gcc/sparc-gaisler-elf/10.2.0/../../../../sparc-gaisler-elf/lib/leon3/mfix-gr712rc/soft/libc.a(lib_a-wcrtomb.o)
 .debug_ranges  0x0000000000001500       0x18 /home/fsw/rep/tasa/lib/bcc-2.2.3-gcc/bin/../lib/gcc/sparc-gaisler-elf/10.2.0/../../../../sparc-gaisler-elf/lib/leon3/mfix-gr712rc/soft/libc.a(lib_a-wctomb_r.o)
 .debug_ranges  0x0000000000001518       0x18 /home/fsw/rep/tasa/lib/bcc-2.2.3-gcc/bin/../sparc-gaisler-elf/bsp/gr712rc/leon3/mfix-gr712rc/soft/libbcc.a(read.c.o)
 .debug_ranges  0x0000000000001530       0x18 /home/fsw/rep/tasa/lib/bcc-2.2.3-gcc/bin/../sparc-gaisler-elf/bsp/gr712rc/leon3/mfix-gr712rc/soft/libbcc.a(write.c.o)
 .debug_ranges  0x0000000000001548       0x48 /home/fsw/rep/tasa/lib/bcc-2.2.3-gcc/bin/../lib/gcc/sparc-gaisler-elf/10.2.0/leon3/mfix-gr712rc/soft/libgcc.a(_udivdi3.o)
 .debug_ranges  0x0000000000001590       0x50 /home/fsw/rep/tasa/lib/bcc-2.2.3-gcc/bin/../lib/gcc/sparc-gaisler-elf/10.2.0/leon3/mfix-gr712rc/soft/libgcc.a(_umoddi3.o)
 .debug_ranges  0x00000000000015e0      0x170 /home/fsw/rep/tasa/lib/bcc-2.2.3-gcc/bin/../lib/gcc/sparc-gaisler-elf/10.2.0/leon3/mfix-gr712rc/soft/libgcc.a(_addsub_df.o)
 .debug_ranges  0x0000000000001750       0x80 /home/fsw/rep/tasa/lib/bcc-2.2.3-gcc/bin/../lib/gcc/sparc-gaisler-elf/10.2.0/leon3/mfix-gr712rc/soft/libgcc.a(_mul_df.o)
 .debug_ranges  0x00000000000017d0       0x58 /home/fsw/rep/tasa/lib/bcc-2.2.3-gcc/bin/../lib/gcc/sparc-gaisler-elf/10.2.0/leon3/mfix-gr712rc/soft/libgcc.a(_div_df.o)
 .debug_ranges  0x0000000000001828       0x38 /home/fsw/rep/tasa/lib/bcc-2.2.3-gcc/bin/../lib/gcc/sparc-gaisler-elf/10.2.0/leon3/mfix-gr712rc/soft/libgcc.a(_si_to_df.o)
 .debug_ranges  0x0000000000001860       0x18 /home/fsw/rep/tasa/lib/bcc-2.2.3-gcc/bin/../lib/gcc/sparc-gaisler-elf/10.2.0/leon3/mfix-gr712rc/soft/libgcc.a(_usi_to_df.o)
 .debug_ranges  0x0000000000001878       0x30 /home/fsw/rep/tasa/lib/bcc-2.2.3-gcc/bin/../lib/gcc/sparc-gaisler-elf/10.2.0/leon3/mfix-gr712rc/soft/libgcc.a(_clzsi2.o)
 .debug_ranges  0x00000000000018a8       0x80 /home/fsw/rep/tasa/lib/bcc-2.2.3-gcc/bin/../lib/gcc/sparc-gaisler-elf/10.2.0/leon3/mfix-gr712rc/soft/libgcc.a(_pack_df.o)
